; ModuleID = 'blender/source/blender/render/intern/raytrace/rayobject_rtbuild.cpp'
source_filename = "blender/source/blender/render/intern/raytrace/rayobject_rtbuild.cpp"
target datalayout = "e-m:e-p270:32:32-p271:32:32-p272:64:64-i64:64-f80:128-n8:16:32:64-S128"
target triple = "x86_64-unknown-linux-gnu"

%"struct.std::nothrow_t" = type { i8 }
%struct.RTBuilder = type { %struct.anon, [3 x %"struct.RTBuilder::Object"**], [3 x %"struct.RTBuilder::Object"**], i32, [33 x i32], [6 x float] }
%struct.anon = type { %"struct.RTBuilder::Object"*, %"struct.RTBuilder::Object"*, i32 }
%"struct.RTBuilder::Object" = type { %struct.RayObject*, float, [6 x float], i32 }
%struct.RayObject = type { %struct.RayObjectAPI*, %struct.RayObjectControl }
%struct.RayObjectAPI = type { i32 (%struct.RayObject*, %struct.Isect*)*, void (%struct.RayObject*, %struct.RayObject*)*, void (%struct.RayObject*)*, void (%struct.RayObject*)*, void (%struct.RayObject*, float*, float*)*, float (%struct.RayObject*)*, void (%struct.RayObject*, %struct.RayHint*, float*, float*)* }
%struct.Isect = type opaque
%struct.RayHint = type opaque
%struct.RayObjectControl = type { i8*, i32 (i8*)* }
%struct.SweepCost = type { [6 x float], float }
%"struct.__gnu_cxx::__ops::_Iter_pred" = type { i1 (%"struct.RTBuilder::Object"*)* }
%"struct.__gnu_cxx::__ops::_Iter_comp_iter" = type { i1 (%"struct.RTBuilder::Object"**, %"struct.RTBuilder::Object"**)* }
%"struct.__gnu_cxx::__ops::_Iter_comp_val" = type { i1 (%"struct.RTBuilder::Object"**, %"struct.RTBuilder::Object"**)* }
%"struct.__gnu_cxx::__ops::_Val_comp_iter" = type { i1 (%"struct.RTBuilder::Object"**, %"struct.RTBuilder::Object"**)* }
%"class.std::_Temporary_buffer" = type { i64, i64, %"struct.RTBuilder::Object"** }
%"struct.__gnu_cxx::__ops::_Iter_negate" = type { i1 (%"struct.RTBuilder::Object"*)* }
%"struct.std::random_access_iterator_tag" = type { i8 }
%"struct.std::pair" = type { %"struct.RTBuilder::Object"**, i64 }
%"class.std::__pair_base" = type { i8 }

$_ZSt16stable_partitionIPPN9RTBuilder6ObjectEPFbS2_EET_S6_S6_T0_ = comdat any

$_ZSt4sortIPPN9RTBuilder6ObjectEPFbRKS2_S5_EEvT_S8_T0_ = comdat any

$_ZSt6__sortIPPN9RTBuilder6ObjectEN9__gnu_cxx5__ops15_Iter_comp_iterIPFbRKS2_S8_EEEEvT_SC_T0_ = comdat any

$_ZN9__gnu_cxx5__ops16__iter_comp_iterIPFbRKPN9RTBuilder6ObjectES6_EEENS0_15_Iter_comp_iterIT_EESA_ = comdat any

$_ZSt16__introsort_loopIPPN9RTBuilder6ObjectElN9__gnu_cxx5__ops15_Iter_comp_iterIPFbRKS2_S8_EEEEvT_SC_T0_T1_ = comdat any

$_ZSt4__lgl = comdat any

$_ZSt22__final_insertion_sortIPPN9RTBuilder6ObjectEN9__gnu_cxx5__ops15_Iter_comp_iterIPFbRKS2_S8_EEEEvT_SC_T0_ = comdat any

$_ZSt14__partial_sortIPPN9RTBuilder6ObjectEN9__gnu_cxx5__ops15_Iter_comp_iterIPFbRKS2_S8_EEEEvT_SC_SC_T0_ = comdat any

$_ZSt27__unguarded_partition_pivotIPPN9RTBuilder6ObjectEN9__gnu_cxx5__ops15_Iter_comp_iterIPFbRKS2_S8_EEEET_SC_SC_T0_ = comdat any

$_ZSt13__heap_selectIPPN9RTBuilder6ObjectEN9__gnu_cxx5__ops15_Iter_comp_iterIPFbRKS2_S8_EEEEvT_SC_SC_T0_ = comdat any

$_ZSt11__sort_heapIPPN9RTBuilder6ObjectEN9__gnu_cxx5__ops15_Iter_comp_iterIPFbRKS2_S8_EEEEvT_SC_RT0_ = comdat any

$_ZSt11__make_heapIPPN9RTBuilder6ObjectEN9__gnu_cxx5__ops15_Iter_comp_iterIPFbRKS2_S8_EEEEvT_SC_RT0_ = comdat any

$_ZN9__gnu_cxx5__ops15_Iter_comp_iterIPFbRKPN9RTBuilder6ObjectES6_EEclIPS4_SB_EEbT_T0_ = comdat any

$_ZSt10__pop_heapIPPN9RTBuilder6ObjectEN9__gnu_cxx5__ops15_Iter_comp_iterIPFbRKS2_S8_EEEEvT_SC_SC_RT0_ = comdat any

$_ZSt4moveIRPN9RTBuilder6ObjectEEONSt16remove_referenceIT_E4typeEOS5_ = comdat any

$_ZSt13__adjust_heapIPPN9RTBuilder6ObjectElS2_N9__gnu_cxx5__ops15_Iter_comp_iterIPFbRKS2_S8_EEEEvT_T0_SD_T1_T2_ = comdat any

$_ZSt4moveIRN9__gnu_cxx5__ops15_Iter_comp_iterIPFbRKPN9RTBuilder6ObjectES7_EEEEONSt16remove_referenceIT_E4typeEOSD_ = comdat any

$_ZN9__gnu_cxx5__ops14_Iter_comp_valIPFbRKPN9RTBuilder6ObjectES6_EEC2EONS0_15_Iter_comp_iterIS8_EE = comdat any

$_ZSt11__push_heapIPPN9RTBuilder6ObjectElS2_N9__gnu_cxx5__ops14_Iter_comp_valIPFbRKS2_S8_EEEEvT_T0_SD_T1_RT2_ = comdat any

$_ZSt4moveIRPFbRKPN9RTBuilder6ObjectES4_EEONSt16remove_referenceIT_E4typeEOS9_ = comdat any

$_ZN9__gnu_cxx5__ops14_Iter_comp_valIPFbRKPN9RTBuilder6ObjectES6_EEclIPS4_S4_EEbT_RT0_ = comdat any

$_ZSt22__move_median_to_firstIPPN9RTBuilder6ObjectEN9__gnu_cxx5__ops15_Iter_comp_iterIPFbRKS2_S8_EEEEvT_SC_SC_SC_T0_ = comdat any

$_ZSt21__unguarded_partitionIPPN9RTBuilder6ObjectEN9__gnu_cxx5__ops15_Iter_comp_iterIPFbRKS2_S8_EEEET_SC_SC_SC_T0_ = comdat any

$_ZSt9iter_swapIPPN9RTBuilder6ObjectES3_EvT_T0_ = comdat any

$_ZSt4swapIPN9RTBuilder6ObjectEENSt9enable_ifIXsr6__and_ISt6__not_ISt15__is_tuple_likeIT_EESt21is_move_constructibleIS6_ESt18is_move_assignableIS6_EEE5valueEvE4typeERS6_SF_ = comdat any

$_ZSt16__insertion_sortIPPN9RTBuilder6ObjectEN9__gnu_cxx5__ops15_Iter_comp_iterIPFbRKS2_S8_EEEEvT_SC_T0_ = comdat any

$_ZSt26__unguarded_insertion_sortIPPN9RTBuilder6ObjectEN9__gnu_cxx5__ops15_Iter_comp_iterIPFbRKS2_S8_EEEEvT_SC_T0_ = comdat any

$_ZSt13move_backwardIPPN9RTBuilder6ObjectES3_ET0_T_S5_S4_ = comdat any

$_ZSt25__unguarded_linear_insertIPPN9RTBuilder6ObjectEN9__gnu_cxx5__ops14_Val_comp_iterIPFbRKS2_S8_EEEEvT_T0_ = comdat any

$_ZN9__gnu_cxx5__ops15__val_comp_iterIPFbRKPN9RTBuilder6ObjectES6_EEENS0_14_Val_comp_iterIT_EENS0_15_Iter_comp_iterISA_EE = comdat any

$_ZSt22__copy_move_backward_aILb1EPPN9RTBuilder6ObjectES3_ET1_T0_S5_S4_ = comdat any

$_ZSt12__miter_baseIPPN9RTBuilder6ObjectEET_S4_ = comdat any

$_ZSt12__niter_wrapIPPN9RTBuilder6ObjectEET_RKS4_S4_ = comdat any

$_ZSt23__copy_move_backward_a1ILb1EPPN9RTBuilder6ObjectES3_ET1_T0_S5_S4_ = comdat any

$_ZSt12__niter_baseIPPN9RTBuilder6ObjectEET_S4_ = comdat any

$_ZSt23__copy_move_backward_a2ILb1EPPN9RTBuilder6ObjectES3_ET1_T0_S5_S4_ = comdat any

$_ZNSt20__copy_move_backwardILb1ELb1ESt26random_access_iterator_tagE13__copy_move_bIPN9RTBuilder6ObjectEEEPT_PKS6_S9_S7_ = comdat any

$_ZN9__gnu_cxx5__ops14_Val_comp_iterIPFbRKPN9RTBuilder6ObjectES6_EEclIS4_PS4_EEbRT_T0_ = comdat any

$_ZN9__gnu_cxx5__ops14_Val_comp_iterIPFbRKPN9RTBuilder6ObjectES6_EEC2EONS0_15_Iter_comp_iterIS8_EE = comdat any

$_ZN9__gnu_cxx5__ops15_Iter_comp_iterIPFbRKPN9RTBuilder6ObjectES6_EEC2ES8_ = comdat any

$_ZSt18__stable_partitionIPPN9RTBuilder6ObjectEN9__gnu_cxx5__ops10_Iter_predIPFbS2_EEEET_SA_SA_T0_ = comdat any

$_ZN9__gnu_cxx5__ops11__pred_iterIPFbPN9RTBuilder6ObjectEEEENS0_10_Iter_predIT_EES8_ = comdat any

$_ZSt13__find_if_notIPPN9RTBuilder6ObjectEN9__gnu_cxx5__ops10_Iter_predIPFbS2_EEEET_SA_SA_T0_ = comdat any

$_ZSt8distanceIPPN9RTBuilder6ObjectEENSt15iterator_traitsIT_E15difference_typeES5_S5_ = comdat any

$_ZNSt17_Temporary_bufferIPPN9RTBuilder6ObjectES2_EC2ES3_l = comdat any

$_ZSt27__stable_partition_adaptiveIPPN9RTBuilder6ObjectES3_N9__gnu_cxx5__ops10_Iter_predIPFbS2_EEElET_SA_SA_T1_T2_T0_SC_ = comdat any

$_ZNKSt17_Temporary_bufferIPPN9RTBuilder6ObjectES2_E14requested_sizeEv = comdat any

$_ZNSt17_Temporary_bufferIPPN9RTBuilder6ObjectES2_E5beginEv = comdat any

$_ZNKSt17_Temporary_bufferIPPN9RTBuilder6ObjectES2_E4sizeEv = comdat any

$_ZNSt17_Temporary_bufferIPPN9RTBuilder6ObjectES2_ED2Ev = comdat any

$_ZSt9__find_ifIPPN9RTBuilder6ObjectEN9__gnu_cxx5__ops12_Iter_negateIPFbS2_EEEET_SA_SA_T0_St26random_access_iterator_tag = comdat any

$_ZN9__gnu_cxx5__ops8__negateIPFbPN9RTBuilder6ObjectEEEENS0_12_Iter_negateIT_EENS0_10_Iter_predIS8_EE = comdat any

$_ZSt19__iterator_categoryIPPN9RTBuilder6ObjectEENSt15iterator_traitsIT_E17iterator_categoryERKS5_ = comdat any

$_ZN9__gnu_cxx5__ops12_Iter_negateIPFbPN9RTBuilder6ObjectEEEclIPS4_EEbT_ = comdat any

$_ZSt4moveIRPFbPN9RTBuilder6ObjectEEEONSt16remove_referenceIT_E4typeEOS7_ = comdat any

$_ZN9__gnu_cxx5__ops12_Iter_negateIPFbPN9RTBuilder6ObjectEEEC2ES6_ = comdat any

$_ZSt10__distanceIPPN9RTBuilder6ObjectEENSt15iterator_traitsIT_E15difference_typeES5_S5_St26random_access_iterator_tag = comdat any

$_ZSt20get_temporary_bufferIPN9RTBuilder6ObjectEESt4pairIPT_lEl = comdat any

$_ZSt29__uninitialized_construct_bufIPPN9RTBuilder6ObjectES3_EvT_S4_T0_ = comdat any

$_ZNSt8__detail25__return_temporary_bufferIPN9RTBuilder6ObjectEEEvPT_m = comdat any

$__clang_call_terminate = comdat any

$_ZNSt4pairIPPN9RTBuilder6ObjectElEC2IRS3_RlLb1EEEOT_OT0_ = comdat any

$_ZNSt4pairIPPN9RTBuilder6ObjectElEC2IS3_iLb1EEEOT_OT0_ = comdat any

$_ZSt7forwardIRPPN9RTBuilder6ObjectEEOT_RNSt16remove_referenceIS5_E4typeE = comdat any

$_ZSt7forwardIRlEOT_RNSt16remove_referenceIS1_E4typeE = comdat any

$_ZSt7forwardIPPN9RTBuilder6ObjectEEOT_RNSt16remove_referenceIS4_E4typeE = comdat any

$_ZSt7forwardIiEOT_RNSt16remove_referenceIS0_E4typeE = comdat any

$_ZNSt38__uninitialized_construct_buf_dispatchILb1EE5__ucrIPPN9RTBuilder6ObjectES5_EEvT_S6_T0_ = comdat any

$_ZN9__gnu_cxx5__ops10_Iter_predIPFbPN9RTBuilder6ObjectEEEclIPS4_EEbT_ = comdat any

$_ZSt4moveIPPN9RTBuilder6ObjectES3_ET0_T_S5_S4_ = comdat any

$_ZSt7advanceIPPN9RTBuilder6ObjectElEvRT_T0_ = comdat any

$_ZSt15__find_if_not_nIPPN9RTBuilder6ObjectEN9__gnu_cxx5__ops10_Iter_predIPFbS2_EEElET_SA_RT1_T0_ = comdat any

$_ZNSt3_V26rotateIPPN9RTBuilder6ObjectEEET_S5_S5_S5_ = comdat any

$_ZSt13__copy_move_aILb1EPPN9RTBuilder6ObjectES3_ET1_T0_S5_S4_ = comdat any

$_ZSt14__copy_move_a1ILb1EPPN9RTBuilder6ObjectES3_ET1_T0_S5_S4_ = comdat any

$_ZSt14__copy_move_a2ILb1EPPN9RTBuilder6ObjectES3_ET1_T0_S5_S4_ = comdat any

$_ZNSt11__copy_moveILb1ELb1ESt26random_access_iterator_tagE8__copy_mIPN9RTBuilder6ObjectEEEPT_PKS6_S9_S7_ = comdat any

$_ZSt9__advanceIPPN9RTBuilder6ObjectElEvRT_T0_St26random_access_iterator_tag = comdat any

$_ZNSt3_V28__rotateIPPN9RTBuilder6ObjectEEET_S5_S5_S5_St26random_access_iterator_tag = comdat any

$_ZSt11swap_rangesIPPN9RTBuilder6ObjectES3_ET0_T_S5_S4_ = comdat any

$_ZSt4swapIlENSt9enable_ifIXsr6__and_ISt6__not_ISt15__is_tuple_likeIT_EESt21is_move_constructibleIS3_ESt18is_move_assignableIS3_EEE5valueEvE4typeERS3_SC_ = comdat any

$_ZSt4moveIRlEONSt16remove_referenceIT_E4typeEOS2_ = comdat any

$_ZSt8_DestroyIPPN9RTBuilder6ObjectEEvT_S4_ = comdat any

$_ZNSt12_Destroy_auxILb1EE9__destroyIPPN9RTBuilder6ObjectEEEvT_S6_ = comdat any

$_ZN9__gnu_cxx5__ops10_Iter_predIPFbPN9RTBuilder6ObjectEEEC2ES6_ = comdat any

@MEM_mallocN = external dso_local global i8* (i64, i8*)*, align 8
@.str = private unnamed_addr constant [10 x i8] c"RTBuilder\00", align 1
@.str.1 = private unnamed_addr constant [18 x i8] c"RTBuilder.objects\00", align 1
@.str.2 = private unnamed_addr constant [25 x i8] c"RTBuilder.sorted_objects\00", align 1
@MEM_freeN = external dso_local global void (i8*)*, align 8
@.str.3 = private unnamed_addr constant [25 x i8] c"RTBuilder.HeuristicSweep\00", align 1
@_ZSt7nothrow = external dso_local global %"struct.std::nothrow_t", align 1

; Function Attrs: noinline uwtable
define dso_local %struct.RTBuilder* @rtbuild_create(i32 %size) #0 !dbg !775 {
entry:
  %size.addr = alloca i32, align 4
  %builder = alloca %struct.RTBuilder*, align 8
  %memblock = alloca %"struct.RTBuilder::Object"*, align 8
  %i = alloca i32, align 4
  store i32 %size, i32* %size.addr, align 4
  call void @llvm.dbg.declare(metadata i32* %size.addr, metadata !778, metadata !DIExpression()), !dbg !779
  call void @llvm.dbg.declare(metadata %struct.RTBuilder** %builder, metadata !780, metadata !DIExpression()), !dbg !781
  %0 = load i8* (i64, i8*)*, i8* (i64, i8*)** @MEM_mallocN, align 8, !dbg !782
  %call = call i8* %0(i64 232, i8* getelementptr inbounds ([10 x i8], [10 x i8]* @.str, i64 0, i64 0)), !dbg !782
  %1 = bitcast i8* %call to %struct.RTBuilder*, !dbg !783
  store %struct.RTBuilder* %1, %struct.RTBuilder** %builder, align 8, !dbg !781
  call void @llvm.dbg.declare(metadata %"struct.RTBuilder::Object"** %memblock, metadata !784, metadata !DIExpression()), !dbg !785
  %2 = load i8* (i64, i8*)*, i8* (i64, i8*)** @MEM_mallocN, align 8, !dbg !786
  %3 = load i32, i32* %size.addr, align 4, !dbg !787
  %conv = sext i32 %3 to i64, !dbg !787
  %mul = mul i64 40, %conv, !dbg !788
  %call1 = call i8* %2(i64 %mul, i8* getelementptr inbounds ([18 x i8], [18 x i8]* @.str.1, i64 0, i64 0)), !dbg !786
  %4 = bitcast i8* %call1 to %"struct.RTBuilder::Object"*, !dbg !789
  store %"struct.RTBuilder::Object"* %4, %"struct.RTBuilder::Object"** %memblock, align 8, !dbg !785
  %5 = load %struct.RTBuilder*, %struct.RTBuilder** %builder, align 8, !dbg !790
  call void @_ZL12rtbuild_initP9RTBuilder(%struct.RTBuilder* %5), !dbg !791
  %6 = load %"struct.RTBuilder::Object"*, %"struct.RTBuilder::Object"** %memblock, align 8, !dbg !792
  %7 = load %struct.RTBuilder*, %struct.RTBuilder** %builder, align 8, !dbg !793
  %primitives = getelementptr inbounds %struct.RTBuilder, %struct.RTBuilder* %7, i32 0, i32 0, !dbg !794
  %end = getelementptr inbounds %struct.anon, %struct.anon* %primitives, i32 0, i32 1, !dbg !795
  store %"struct.RTBuilder::Object"* %6, %"struct.RTBuilder::Object"** %end, align 8, !dbg !796
  %8 = load %struct.RTBuilder*, %struct.RTBuilder** %builder, align 8, !dbg !797
  %primitives2 = getelementptr inbounds %struct.RTBuilder, %struct.RTBuilder* %8, i32 0, i32 0, !dbg !798
  %begin = getelementptr inbounds %struct.anon, %struct.anon* %primitives2, i32 0, i32 0, !dbg !799
  store %"struct.RTBuilder::Object"* %6, %"struct.RTBuilder::Object"** %begin, align 8, !dbg !800
  %9 = load i32, i32* %size.addr, align 4, !dbg !801
  %10 = load %struct.RTBuilder*, %struct.RTBuilder** %builder, align 8, !dbg !802
  %primitives3 = getelementptr inbounds %struct.RTBuilder, %struct.RTBuilder* %10, i32 0, i32 0, !dbg !803
  %maxsize = getelementptr inbounds %struct.anon, %struct.anon* %primitives3, i32 0, i32 2, !dbg !804
  store i32 %9, i32* %maxsize, align 8, !dbg !805
  call void @llvm.dbg.declare(metadata i32* %i, metadata !806, metadata !DIExpression()), !dbg !808
  store i32 0, i32* %i, align 4, !dbg !808
  br label %for.cond, !dbg !809

for.cond:                                         ; preds = %for.inc, %entry
  %11 = load i32, i32* %i, align 4, !dbg !810
  %cmp = icmp slt i32 %11, 3, !dbg !812
  br i1 %cmp, label %for.body, label %for.end, !dbg !813

for.body:                                         ; preds = %for.cond
  %12 = load i8* (i64, i8*)*, i8* (i64, i8*)** @MEM_mallocN, align 8, !dbg !814
  %13 = load i32, i32* %size.addr, align 4, !dbg !816
  %conv4 = sext i32 %13 to i64, !dbg !816
  %mul5 = mul i64 8, %conv4, !dbg !817
  %call6 = call i8* %12(i64 %mul5, i8* getelementptr inbounds ([25 x i8], [25 x i8]* @.str.2, i64 0, i64 0)), !dbg !814
  %14 = bitcast i8* %call6 to %"struct.RTBuilder::Object"**, !dbg !818
  %15 = load %struct.RTBuilder*, %struct.RTBuilder** %builder, align 8, !dbg !819
  %sorted_begin = getelementptr inbounds %struct.RTBuilder, %struct.RTBuilder* %15, i32 0, i32 1, !dbg !820
  %16 = load i32, i32* %i, align 4, !dbg !821
  %idxprom = sext i32 %16 to i64, !dbg !819
  %arrayidx = getelementptr inbounds [3 x %"struct.RTBuilder::Object"**], [3 x %"struct.RTBuilder::Object"**]* %sorted_begin, i64 0, i64 %idxprom, !dbg !819
  store %"struct.RTBuilder::Object"** %14, %"struct.RTBuilder::Object"*** %arrayidx, align 8, !dbg !822
  %17 = load %struct.RTBuilder*, %struct.RTBuilder** %builder, align 8, !dbg !823
  %sorted_begin7 = getelementptr inbounds %struct.RTBuilder, %struct.RTBuilder* %17, i32 0, i32 1, !dbg !824
  %18 = load i32, i32* %i, align 4, !dbg !825
  %idxprom8 = sext i32 %18 to i64, !dbg !823
  %arrayidx9 = getelementptr inbounds [3 x %"struct.RTBuilder::Object"**], [3 x %"struct.RTBuilder::Object"**]* %sorted_begin7, i64 0, i64 %idxprom8, !dbg !823
  %19 = load %"struct.RTBuilder::Object"**, %"struct.RTBuilder::Object"*** %arrayidx9, align 8, !dbg !823
  %20 = load %struct.RTBuilder*, %struct.RTBuilder** %builder, align 8, !dbg !826
  %sorted_end = getelementptr inbounds %struct.RTBuilder, %struct.RTBuilder* %20, i32 0, i32 2, !dbg !827
  %21 = load i32, i32* %i, align 4, !dbg !828
  %idxprom10 = sext i32 %21 to i64, !dbg !826
  %arrayidx11 = getelementptr inbounds [3 x %"struct.RTBuilder::Object"**], [3 x %"struct.RTBuilder::Object"**]* %sorted_end, i64 0, i64 %idxprom10, !dbg !826
  store %"struct.RTBuilder::Object"** %19, %"struct.RTBuilder::Object"*** %arrayidx11, align 8, !dbg !829
  br label %for.inc, !dbg !830

for.inc:                                          ; preds = %for.body
  %22 = load i32, i32* %i, align 4, !dbg !831
  %inc = add nsw i32 %22, 1, !dbg !831
  store i32 %inc, i32* %i, align 4, !dbg !831
  br label %for.cond, !dbg !832, !llvm.loop !833

for.end:                                          ; preds = %for.cond
  %23 = load %struct.RTBuilder*, %struct.RTBuilder** %builder, align 8, !dbg !835
  ret %struct.RTBuilder* %23, !dbg !836
}

; Function Attrs: nounwind readnone speculatable willreturn
declare void @llvm.dbg.declare(metadata, metadata, metadata) #1

; Function Attrs: noinline nounwind uwtable
define internal void @_ZL12rtbuild_initP9RTBuilder(%struct.RTBuilder* %b) #2 !dbg !837 {
entry:
  %b.addr = alloca %struct.RTBuilder*, align 8
  %i = alloca i32, align 4
  %i3 = alloca i32, align 4
  store %struct.RTBuilder* %b, %struct.RTBuilder** %b.addr, align 8
  call void @llvm.dbg.declare(metadata %struct.RTBuilder** %b.addr, metadata !840, metadata !DIExpression()), !dbg !841
  %0 = load %struct.RTBuilder*, %struct.RTBuilder** %b.addr, align 8, !dbg !842
  %split_axis = getelementptr inbounds %struct.RTBuilder, %struct.RTBuilder* %0, i32 0, i32 3, !dbg !843
  store i32 -1, i32* %split_axis, align 8, !dbg !844
  %1 = load %struct.RTBuilder*, %struct.RTBuilder** %b.addr, align 8, !dbg !845
  %primitives = getelementptr inbounds %struct.RTBuilder, %struct.RTBuilder* %1, i32 0, i32 0, !dbg !846
  %begin = getelementptr inbounds %struct.anon, %struct.anon* %primitives, i32 0, i32 0, !dbg !847
  store %"struct.RTBuilder::Object"* null, %"struct.RTBuilder::Object"** %begin, align 8, !dbg !848
  %2 = load %struct.RTBuilder*, %struct.RTBuilder** %b.addr, align 8, !dbg !849
  %primitives1 = getelementptr inbounds %struct.RTBuilder, %struct.RTBuilder* %2, i32 0, i32 0, !dbg !850
  %end = getelementptr inbounds %struct.anon, %struct.anon* %primitives1, i32 0, i32 1, !dbg !851
  store %"struct.RTBuilder::Object"* null, %"struct.RTBuilder::Object"** %end, align 8, !dbg !852
  %3 = load %struct.RTBuilder*, %struct.RTBuilder** %b.addr, align 8, !dbg !853
  %primitives2 = getelementptr inbounds %struct.RTBuilder, %struct.RTBuilder* %3, i32 0, i32 0, !dbg !854
  %maxsize = getelementptr inbounds %struct.anon, %struct.anon* %primitives2, i32 0, i32 2, !dbg !855
  store i32 0, i32* %maxsize, align 8, !dbg !856
  call void @llvm.dbg.declare(metadata i32* %i, metadata !857, metadata !DIExpression()), !dbg !859
  store i32 0, i32* %i, align 4, !dbg !859
  br label %for.cond, !dbg !860

for.cond:                                         ; preds = %for.inc, %entry
  %4 = load i32, i32* %i, align 4, !dbg !861
  %cmp = icmp slt i32 %4, 32, !dbg !863
  br i1 %cmp, label %for.body, label %for.end, !dbg !864

for.body:                                         ; preds = %for.cond
  %5 = load %struct.RTBuilder*, %struct.RTBuilder** %b.addr, align 8, !dbg !865
  %child_offset = getelementptr inbounds %struct.RTBuilder, %struct.RTBuilder* %5, i32 0, i32 4, !dbg !866
  %6 = load i32, i32* %i, align 4, !dbg !867
  %idxprom = sext i32 %6 to i64, !dbg !865
  %arrayidx = getelementptr inbounds [33 x i32], [33 x i32]* %child_offset, i64 0, i64 %idxprom, !dbg !865
  store i32 0, i32* %arrayidx, align 4, !dbg !868
  br label %for.inc, !dbg !865

for.inc:                                          ; preds = %for.body
  %7 = load i32, i32* %i, align 4, !dbg !869
  %inc = add nsw i32 %7, 1, !dbg !869
  store i32 %inc, i32* %i, align 4, !dbg !869
  br label %for.cond, !dbg !870, !llvm.loop !871

for.end:                                          ; preds = %for.cond
  call void @llvm.dbg.declare(metadata i32* %i3, metadata !873, metadata !DIExpression()), !dbg !875
  store i32 0, i32* %i3, align 4, !dbg !875
  br label %for.cond4, !dbg !876

for.cond4:                                        ; preds = %for.inc11, %for.end
  %8 = load i32, i32* %i3, align 4, !dbg !877
  %cmp5 = icmp slt i32 %8, 3, !dbg !879
  br i1 %cmp5, label %for.body6, label %for.end13, !dbg !880

for.body6:                                        ; preds = %for.cond4
  %9 = load %struct.RTBuilder*, %struct.RTBuilder** %b.addr, align 8, !dbg !881
  %sorted_end = getelementptr inbounds %struct.RTBuilder, %struct.RTBuilder* %9, i32 0, i32 2, !dbg !882
  %10 = load i32, i32* %i3, align 4, !dbg !883
  %idxprom7 = sext i32 %10 to i64, !dbg !881
  %arrayidx8 = getelementptr inbounds [3 x %"struct.RTBuilder::Object"**], [3 x %"struct.RTBuilder::Object"**]* %sorted_end, i64 0, i64 %idxprom7, !dbg !881
  store %"struct.RTBuilder::Object"** null, %"struct.RTBuilder::Object"*** %arrayidx8, align 8, !dbg !884
  %11 = load %struct.RTBuilder*, %struct.RTBuilder** %b.addr, align 8, !dbg !885
  %sorted_begin = getelementptr inbounds %struct.RTBuilder, %struct.RTBuilder* %11, i32 0, i32 1, !dbg !886
  %12 = load i32, i32* %i3, align 4, !dbg !887
  %idxprom9 = sext i32 %12 to i64, !dbg !885
  %arrayidx10 = getelementptr inbounds [3 x %"struct.RTBuilder::Object"**], [3 x %"struct.RTBuilder::Object"**]* %sorted_begin, i64 0, i64 %idxprom9, !dbg !885
  store %"struct.RTBuilder::Object"** null, %"struct.RTBuilder::Object"*** %arrayidx10, align 8, !dbg !888
  br label %for.inc11, !dbg !885

for.inc11:                                        ; preds = %for.body6
  %13 = load i32, i32* %i3, align 4, !dbg !889
  %inc12 = add nsw i32 %13, 1, !dbg !889
  store i32 %inc12, i32* %i3, align 4, !dbg !889
  br label %for.cond4, !dbg !890, !llvm.loop !891

for.end13:                                        ; preds = %for.cond4
  %14 = load %struct.RTBuilder*, %struct.RTBuilder** %b.addr, align 8, !dbg !893
  %bb = getelementptr inbounds %struct.RTBuilder, %struct.RTBuilder* %14, i32 0, i32 5, !dbg !893
  %arrayidx14 = getelementptr inbounds [6 x float], [6 x float]* %bb, i64 0, i64 2, !dbg !893
  store float 0x46293E5940000000, float* %arrayidx14, align 8, !dbg !893
  %15 = load %struct.RTBuilder*, %struct.RTBuilder** %b.addr, align 8, !dbg !893
  %bb15 = getelementptr inbounds %struct.RTBuilder, %struct.RTBuilder* %15, i32 0, i32 5, !dbg !893
  %arrayidx16 = getelementptr inbounds [6 x float], [6 x float]* %bb15, i64 0, i64 1, !dbg !893
  store float 0x46293E5940000000, float* %arrayidx16, align 4, !dbg !893
  %16 = load %struct.RTBuilder*, %struct.RTBuilder** %b.addr, align 8, !dbg !893
  %bb17 = getelementptr inbounds %struct.RTBuilder, %struct.RTBuilder* %16, i32 0, i32 5, !dbg !893
  %arrayidx18 = getelementptr inbounds [6 x float], [6 x float]* %bb17, i64 0, i64 0, !dbg !893
  store float 0x46293E5940000000, float* %arrayidx18, align 8, !dbg !893
  %17 = load %struct.RTBuilder*, %struct.RTBuilder** %b.addr, align 8, !dbg !893
  %bb19 = getelementptr inbounds %struct.RTBuilder, %struct.RTBuilder* %17, i32 0, i32 5, !dbg !893
  %arraydecay = getelementptr inbounds [6 x float], [6 x float]* %bb19, i64 0, i64 0, !dbg !893
  %add.ptr = getelementptr inbounds float, float* %arraydecay, i64 3, !dbg !893
  %arrayidx20 = getelementptr inbounds float, float* %add.ptr, i64 2, !dbg !893
  store float 0xC6293E5940000000, float* %arrayidx20, align 4, !dbg !893
  %18 = load %struct.RTBuilder*, %struct.RTBuilder** %b.addr, align 8, !dbg !893
  %bb21 = getelementptr inbounds %struct.RTBuilder, %struct.RTBuilder* %18, i32 0, i32 5, !dbg !893
  %arraydecay22 = getelementptr inbounds [6 x float], [6 x float]* %bb21, i64 0, i64 0, !dbg !893
  %add.ptr23 = getelementptr inbounds float, float* %arraydecay22, i64 3, !dbg !893
  %arrayidx24 = getelementptr inbounds float, float* %add.ptr23, i64 1, !dbg !893
  store float 0xC6293E5940000000, float* %arrayidx24, align 4, !dbg !893
  %19 = load %struct.RTBuilder*, %struct.RTBuilder** %b.addr, align 8, !dbg !893
  %bb25 = getelementptr inbounds %struct.RTBuilder, %struct.RTBuilder* %19, i32 0, i32 5, !dbg !893
  %arraydecay26 = getelementptr inbounds [6 x float], [6 x float]* %bb25, i64 0, i64 0, !dbg !893
  %add.ptr27 = getelementptr inbounds float, float* %arraydecay26, i64 3, !dbg !893
  %arrayidx28 = getelementptr inbounds float, float* %add.ptr27, i64 0, !dbg !893
  store float 0xC6293E5940000000, float* %arrayidx28, align 4, !dbg !893
  ret void, !dbg !895
}

; Function Attrs: noinline uwtable
define dso_local void @rtbuild_free(%struct.RTBuilder* %b) #0 !dbg !896 {
entry:
  %b.addr = alloca %struct.RTBuilder*, align 8
  %i = alloca i32, align 4
  store %struct.RTBuilder* %b, %struct.RTBuilder** %b.addr, align 8
  call void @llvm.dbg.declare(metadata %struct.RTBuilder** %b.addr, metadata !897, metadata !DIExpression()), !dbg !898
  %0 = load %struct.RTBuilder*, %struct.RTBuilder** %b.addr, align 8, !dbg !899
  %primitives = getelementptr inbounds %struct.RTBuilder, %struct.RTBuilder* %0, i32 0, i32 0, !dbg !901
  %begin = getelementptr inbounds %struct.anon, %struct.anon* %primitives, i32 0, i32 0, !dbg !902
  %1 = load %"struct.RTBuilder::Object"*, %"struct.RTBuilder::Object"** %begin, align 8, !dbg !902
  %tobool = icmp ne %"struct.RTBuilder::Object"* %1, null, !dbg !899
  br i1 %tobool, label %if.then, label %if.end, !dbg !903

if.then:                                          ; preds = %entry
  %2 = load void (i8*)*, void (i8*)** @MEM_freeN, align 8, !dbg !904
  %3 = load %struct.RTBuilder*, %struct.RTBuilder** %b.addr, align 8, !dbg !905
  %primitives1 = getelementptr inbounds %struct.RTBuilder, %struct.RTBuilder* %3, i32 0, i32 0, !dbg !906
  %begin2 = getelementptr inbounds %struct.anon, %struct.anon* %primitives1, i32 0, i32 0, !dbg !907
  %4 = load %"struct.RTBuilder::Object"*, %"struct.RTBuilder::Object"** %begin2, align 8, !dbg !907
  %5 = bitcast %"struct.RTBuilder::Object"* %4 to i8*, !dbg !905
  call void %2(i8* %5), !dbg !904
  br label %if.end, !dbg !904

if.end:                                           ; preds = %if.then, %entry
  call void @llvm.dbg.declare(metadata i32* %i, metadata !908, metadata !DIExpression()), !dbg !910
  store i32 0, i32* %i, align 4, !dbg !910
  br label %for.cond, !dbg !911

for.cond:                                         ; preds = %for.inc, %if.end
  %6 = load i32, i32* %i, align 4, !dbg !912
  %cmp = icmp slt i32 %6, 3, !dbg !914
  br i1 %cmp, label %for.body, label %for.end, !dbg !915

for.body:                                         ; preds = %for.cond
  %7 = load %struct.RTBuilder*, %struct.RTBuilder** %b.addr, align 8, !dbg !916
  %sorted_begin = getelementptr inbounds %struct.RTBuilder, %struct.RTBuilder* %7, i32 0, i32 1, !dbg !918
  %8 = load i32, i32* %i, align 4, !dbg !919
  %idxprom = sext i32 %8 to i64, !dbg !916
  %arrayidx = getelementptr inbounds [3 x %"struct.RTBuilder::Object"**], [3 x %"struct.RTBuilder::Object"**]* %sorted_begin, i64 0, i64 %idxprom, !dbg !916
  %9 = load %"struct.RTBuilder::Object"**, %"struct.RTBuilder::Object"*** %arrayidx, align 8, !dbg !916
  %tobool3 = icmp ne %"struct.RTBuilder::Object"** %9, null, !dbg !916
  br i1 %tobool3, label %if.then4, label %if.end8, !dbg !920

if.then4:                                         ; preds = %for.body
  %10 = load void (i8*)*, void (i8*)** @MEM_freeN, align 8, !dbg !921
  %11 = load %struct.RTBuilder*, %struct.RTBuilder** %b.addr, align 8, !dbg !922
  %sorted_begin5 = getelementptr inbounds %struct.RTBuilder, %struct.RTBuilder* %11, i32 0, i32 1, !dbg !923
  %12 = load i32, i32* %i, align 4, !dbg !924
  %idxprom6 = sext i32 %12 to i64, !dbg !922
  %arrayidx7 = getelementptr inbounds [3 x %"struct.RTBuilder::Object"**], [3 x %"struct.RTBuilder::Object"**]* %sorted_begin5, i64 0, i64 %idxprom6, !dbg !922
  %13 = load %"struct.RTBuilder::Object"**, %"struct.RTBuilder::Object"*** %arrayidx7, align 8, !dbg !922
  %14 = bitcast %"struct.RTBuilder::Object"** %13 to i8*, !dbg !922
  call void %10(i8* %14), !dbg !921
  br label %if.end8, !dbg !921

if.end8:                                          ; preds = %if.then4, %for.body
  br label %for.inc, !dbg !925

for.inc:                                          ; preds = %if.end8
  %15 = load i32, i32* %i, align 4, !dbg !926
  %inc = add nsw i32 %15, 1, !dbg !926
  store i32 %inc, i32* %i, align 4, !dbg !926
  br label %for.cond, !dbg !927, !llvm.loop !928

for.end:                                          ; preds = %for.cond
  %16 = load void (i8*)*, void (i8*)** @MEM_freeN, align 8, !dbg !930
  %17 = load %struct.RTBuilder*, %struct.RTBuilder** %b.addr, align 8, !dbg !931
  %18 = bitcast %struct.RTBuilder* %17 to i8*, !dbg !931
  call void %16(i8* %18), !dbg !930
  ret void, !dbg !932
}

; Function Attrs: noinline uwtable
define dso_local void @rtbuild_add(%struct.RTBuilder* %b, %struct.RayObject* %o) #0 !dbg !933 {
entry:
  %b.addr = alloca %struct.RTBuilder*, align 8
  %o.addr = alloca %struct.RayObject*, align 8
  %bb = alloca [6 x float], align 16
  %i = alloca i32, align 4
  store %struct.RTBuilder* %b, %struct.RTBuilder** %b.addr, align 8
  call void @llvm.dbg.declare(metadata %struct.RTBuilder** %b.addr, metadata !936, metadata !DIExpression()), !dbg !937
  store %struct.RayObject* %o, %struct.RayObject** %o.addr, align 8
  call void @llvm.dbg.declare(metadata %struct.RayObject** %o.addr, metadata !938, metadata !DIExpression()), !dbg !939
  call void @llvm.dbg.declare(metadata [6 x float]* %bb, metadata !940, metadata !DIExpression()), !dbg !941
  %arrayidx = getelementptr inbounds [6 x float], [6 x float]* %bb, i64 0, i64 2, !dbg !942
  store float 0x46293E5940000000, float* %arrayidx, align 8, !dbg !942
  %arrayidx1 = getelementptr inbounds [6 x float], [6 x float]* %bb, i64 0, i64 1, !dbg !942
  store float 0x46293E5940000000, float* %arrayidx1, align 4, !dbg !942
  %arrayidx2 = getelementptr inbounds [6 x float], [6 x float]* %bb, i64 0, i64 0, !dbg !942
  store float 0x46293E5940000000, float* %arrayidx2, align 16, !dbg !942
  %arraydecay = getelementptr inbounds [6 x float], [6 x float]* %bb, i64 0, i64 0, !dbg !942
  %add.ptr = getelementptr inbounds float, float* %arraydecay, i64 3, !dbg !942
  %arrayidx3 = getelementptr inbounds float, float* %add.ptr, i64 2, !dbg !942
  store float 0xC6293E5940000000, float* %arrayidx3, align 4, !dbg !942
  %arraydecay4 = getelementptr inbounds [6 x float], [6 x float]* %bb, i64 0, i64 0, !dbg !942
  %add.ptr5 = getelementptr inbounds float, float* %arraydecay4, i64 3, !dbg !942
  %arrayidx6 = getelementptr inbounds float, float* %add.ptr5, i64 1, !dbg !942
  store float 0xC6293E5940000000, float* %arrayidx6, align 4, !dbg !942
  %arraydecay7 = getelementptr inbounds [6 x float], [6 x float]* %bb, i64 0, i64 0, !dbg !942
  %add.ptr8 = getelementptr inbounds float, float* %arraydecay7, i64 3, !dbg !942
  %arrayidx9 = getelementptr inbounds float, float* %add.ptr8, i64 0, !dbg !942
  store float 0xC6293E5940000000, float* %arrayidx9, align 4, !dbg !942
  %0 = load %struct.RayObject*, %struct.RayObject** %o.addr, align 8, !dbg !944
  %arraydecay10 = getelementptr inbounds [6 x float], [6 x float]* %bb, i64 0, i64 0, !dbg !945
  %arraydecay11 = getelementptr inbounds [6 x float], [6 x float]* %bb, i64 0, i64 0, !dbg !946
  %add.ptr12 = getelementptr inbounds float, float* %arraydecay11, i64 3, !dbg !947
  call void @RE_rayobject_merge_bb(%struct.RayObject* %0, float* %arraydecay10, float* %add.ptr12), !dbg !948
  %arrayidx13 = getelementptr inbounds [6 x float], [6 x float]* %bb, i64 0, i64 0, !dbg !949
  %1 = load float, float* %arrayidx13, align 16, !dbg !949
  %arrayidx14 = getelementptr inbounds [6 x float], [6 x float]* %bb, i64 0, i64 3, !dbg !951
  %2 = load float, float* %arrayidx14, align 4, !dbg !951
  %cmp = fcmp ogt float %1, %2, !dbg !952
  br i1 %cmp, label %if.then, label %lor.lhs.false, !dbg !953

lor.lhs.false:                                    ; preds = %entry
  %arrayidx15 = getelementptr inbounds [6 x float], [6 x float]* %bb, i64 0, i64 1, !dbg !954
  %3 = load float, float* %arrayidx15, align 4, !dbg !954
  %arrayidx16 = getelementptr inbounds [6 x float], [6 x float]* %bb, i64 0, i64 4, !dbg !955
  %4 = load float, float* %arrayidx16, align 16, !dbg !955
  %cmp17 = fcmp ogt float %3, %4, !dbg !956
  br i1 %cmp17, label %if.then, label %lor.lhs.false18, !dbg !957

lor.lhs.false18:                                  ; preds = %lor.lhs.false
  %arrayidx19 = getelementptr inbounds [6 x float], [6 x float]* %bb, i64 0, i64 2, !dbg !958
  %5 = load float, float* %arrayidx19, align 8, !dbg !958
  %arrayidx20 = getelementptr inbounds [6 x float], [6 x float]* %bb, i64 0, i64 5, !dbg !959
  %6 = load float, float* %arrayidx20, align 4, !dbg !959
  %cmp21 = fcmp ogt float %5, %6, !dbg !960
  br i1 %cmp21, label %if.then, label %if.end, !dbg !961

if.then:                                          ; preds = %lor.lhs.false18, %lor.lhs.false, %entry
  br label %return, !dbg !962

if.end:                                           ; preds = %lor.lhs.false18
  %arrayidx22 = getelementptr inbounds [6 x float], [6 x float]* %bb, i64 0, i64 0, !dbg !963
  %7 = load float, float* %arrayidx22, align 16, !dbg !963
  %conv = fpext float %7 to double, !dbg !963
  %8 = call double @llvm.fabs.f64(double %conv) #8, !dbg !965
  %cmpinf = fcmp one double %8, 0x7FF0000000000000, !dbg !965
  br i1 %cmpinf, label %lor.lhs.false23, label %if.then31, !dbg !966

lor.lhs.false23:                                  ; preds = %if.end
  %arrayidx24 = getelementptr inbounds [6 x float], [6 x float]* %bb, i64 0, i64 1, !dbg !967
  %9 = load float, float* %arrayidx24, align 4, !dbg !967
  %conv25 = fpext float %9 to double, !dbg !967
  %10 = call double @llvm.fabs.f64(double %conv25) #8, !dbg !968
  %cmpinf26 = fcmp one double %10, 0x7FF0000000000000, !dbg !968
  br i1 %cmpinf26, label %lor.lhs.false27, label %if.then31, !dbg !969

lor.lhs.false27:                                  ; preds = %lor.lhs.false23
  %arrayidx28 = getelementptr inbounds [6 x float], [6 x float]* %bb, i64 0, i64 2, !dbg !970
  %11 = load float, float* %arrayidx28, align 8, !dbg !970
  %conv29 = fpext float %11 to double, !dbg !970
  %12 = call double @llvm.fabs.f64(double %conv29) #8, !dbg !971
  %cmpinf30 = fcmp one double %12, 0x7FF0000000000000, !dbg !971
  br i1 %cmpinf30, label %if.end32, label %if.then31, !dbg !972

if.then31:                                        ; preds = %lor.lhs.false27, %lor.lhs.false23, %if.end
  br label %return, !dbg !973

if.end32:                                         ; preds = %lor.lhs.false27
  %arrayidx33 = getelementptr inbounds [6 x float], [6 x float]* %bb, i64 0, i64 3, !dbg !974
  %13 = load float, float* %arrayidx33, align 4, !dbg !974
  %conv34 = fpext float %13 to double, !dbg !974
  %14 = call double @llvm.fabs.f64(double %conv34) #8, !dbg !976
  %cmpinf35 = fcmp one double %14, 0x7FF0000000000000, !dbg !976
  br i1 %cmpinf35, label %lor.lhs.false36, label %if.then44, !dbg !977

lor.lhs.false36:                                  ; preds = %if.end32
  %arrayidx37 = getelementptr inbounds [6 x float], [6 x float]* %bb, i64 0, i64 4, !dbg !978
  %15 = load float, float* %arrayidx37, align 16, !dbg !978
  %conv38 = fpext float %15 to double, !dbg !978
  %16 = call double @llvm.fabs.f64(double %conv38) #8, !dbg !979
  %cmpinf39 = fcmp one double %16, 0x7FF0000000000000, !dbg !979
  br i1 %cmpinf39, label %lor.lhs.false40, label %if.then44, !dbg !980

lor.lhs.false40:                                  ; preds = %lor.lhs.false36
  %arrayidx41 = getelementptr inbounds [6 x float], [6 x float]* %bb, i64 0, i64 5, !dbg !981
  %17 = load float, float* %arrayidx41, align 4, !dbg !981
  %conv42 = fpext float %17 to double, !dbg !981
  %18 = call double @llvm.fabs.f64(double %conv42) #8, !dbg !982
  %cmpinf43 = fcmp one double %18, 0x7FF0000000000000, !dbg !982
  br i1 %cmpinf43, label %if.end45, label %if.then44, !dbg !983

if.then44:                                        ; preds = %lor.lhs.false40, %lor.lhs.false36, %if.end32
  br label %return, !dbg !984

if.end45:                                         ; preds = %lor.lhs.false40
  %arrayidx46 = getelementptr inbounds [6 x float], [6 x float]* %bb, i64 0, i64 0, !dbg !985
  %19 = load float, float* %arrayidx46, align 16, !dbg !985
  %arrayidx47 = getelementptr inbounds [6 x float], [6 x float]* %bb, i64 0, i64 3, !dbg !987
  %20 = load float, float* %arrayidx47, align 4, !dbg !987
  %cmp48 = fcmp oeq float %19, %20, !dbg !988
  br i1 %cmp48, label %land.lhs.true, label %if.end57, !dbg !989

land.lhs.true:                                    ; preds = %if.end45
  %arrayidx49 = getelementptr inbounds [6 x float], [6 x float]* %bb, i64 0, i64 1, !dbg !990
  %21 = load float, float* %arrayidx49, align 4, !dbg !990
  %arrayidx50 = getelementptr inbounds [6 x float], [6 x float]* %bb, i64 0, i64 4, !dbg !991
  %22 = load float, float* %arrayidx50, align 16, !dbg !991
  %cmp51 = fcmp oeq float %21, %22, !dbg !992
  br i1 %cmp51, label %land.lhs.true52, label %if.end57, !dbg !993

land.lhs.true52:                                  ; preds = %land.lhs.true
  %arrayidx53 = getelementptr inbounds [6 x float], [6 x float]* %bb, i64 0, i64 2, !dbg !994
  %23 = load float, float* %arrayidx53, align 8, !dbg !994
  %arrayidx54 = getelementptr inbounds [6 x float], [6 x float]* %bb, i64 0, i64 5, !dbg !995
  %24 = load float, float* %arrayidx54, align 4, !dbg !995
  %cmp55 = fcmp oeq float %23, %24, !dbg !996
  br i1 %cmp55, label %if.then56, label %if.end57, !dbg !997

if.then56:                                        ; preds = %land.lhs.true52
  br label %return, !dbg !998

if.end57:                                         ; preds = %land.lhs.true52, %land.lhs.true, %if.end45
  %25 = load %struct.RTBuilder*, %struct.RTBuilder** %b.addr, align 8, !dbg !999
  %primitives = getelementptr inbounds %struct.RTBuilder, %struct.RTBuilder* %25, i32 0, i32 0, !dbg !1000
  %end = getelementptr inbounds %struct.anon, %struct.anon* %primitives, i32 0, i32 1, !dbg !1001
  %26 = load %"struct.RTBuilder::Object"*, %"struct.RTBuilder::Object"** %end, align 8, !dbg !1001
  %bb58 = getelementptr inbounds %"struct.RTBuilder::Object", %"struct.RTBuilder::Object"* %26, i32 0, i32 2, !dbg !1002
  %arraydecay59 = getelementptr inbounds [6 x float], [6 x float]* %bb58, i64 0, i64 0, !dbg !999
  %arraydecay60 = getelementptr inbounds [6 x float], [6 x float]* %bb, i64 0, i64 0, !dbg !1003
  call void @_ZL10copy_v3_v3PfPKf(float* %arraydecay59, float* %arraydecay60), !dbg !1004
  %27 = load %struct.RTBuilder*, %struct.RTBuilder** %b.addr, align 8, !dbg !1005
  %primitives61 = getelementptr inbounds %struct.RTBuilder, %struct.RTBuilder* %27, i32 0, i32 0, !dbg !1006
  %end62 = getelementptr inbounds %struct.anon, %struct.anon* %primitives61, i32 0, i32 1, !dbg !1007
  %28 = load %"struct.RTBuilder::Object"*, %"struct.RTBuilder::Object"** %end62, align 8, !dbg !1007
  %bb63 = getelementptr inbounds %"struct.RTBuilder::Object", %"struct.RTBuilder::Object"* %28, i32 0, i32 2, !dbg !1008
  %arraydecay64 = getelementptr inbounds [6 x float], [6 x float]* %bb63, i64 0, i64 0, !dbg !1005
  %add.ptr65 = getelementptr inbounds float, float* %arraydecay64, i64 3, !dbg !1009
  %arraydecay66 = getelementptr inbounds [6 x float], [6 x float]* %bb, i64 0, i64 0, !dbg !1010
  %add.ptr67 = getelementptr inbounds float, float* %arraydecay66, i64 3, !dbg !1011
  call void @_ZL10copy_v3_v3PfPKf(float* %add.ptr65, float* %add.ptr67), !dbg !1012
  %29 = load %struct.RayObject*, %struct.RayObject** %o.addr, align 8, !dbg !1013
  %30 = load %struct.RTBuilder*, %struct.RTBuilder** %b.addr, align 8, !dbg !1014
  %primitives68 = getelementptr inbounds %struct.RTBuilder, %struct.RTBuilder* %30, i32 0, i32 0, !dbg !1015
  %end69 = getelementptr inbounds %struct.anon, %struct.anon* %primitives68, i32 0, i32 1, !dbg !1016
  %31 = load %"struct.RTBuilder::Object"*, %"struct.RTBuilder::Object"** %end69, align 8, !dbg !1016
  %obj = getelementptr inbounds %"struct.RTBuilder::Object", %"struct.RTBuilder::Object"* %31, i32 0, i32 0, !dbg !1017
  store %struct.RayObject* %29, %struct.RayObject** %obj, align 8, !dbg !1018
  %32 = load %struct.RayObject*, %struct.RayObject** %o.addr, align 8, !dbg !1019
  %call = call float @RE_rayobject_cost(%struct.RayObject* %32), !dbg !1020
  %33 = load %struct.RTBuilder*, %struct.RTBuilder** %b.addr, align 8, !dbg !1021
  %primitives70 = getelementptr inbounds %struct.RTBuilder, %struct.RTBuilder* %33, i32 0, i32 0, !dbg !1022
  %end71 = getelementptr inbounds %struct.anon, %struct.anon* %primitives70, i32 0, i32 1, !dbg !1023
  %34 = load %"struct.RTBuilder::Object"*, %"struct.RTBuilder::Object"** %end71, align 8, !dbg !1023
  %cost = getelementptr inbounds %"struct.RTBuilder::Object", %"struct.RTBuilder::Object"* %34, i32 0, i32 1, !dbg !1024
  store float %call, float* %cost, align 8, !dbg !1025
  call void @llvm.dbg.declare(metadata i32* %i, metadata !1026, metadata !DIExpression()), !dbg !1028
  store i32 0, i32* %i, align 4, !dbg !1028
  br label %for.cond, !dbg !1029

for.cond:                                         ; preds = %for.inc, %if.end57
  %35 = load i32, i32* %i, align 4, !dbg !1030
  %cmp72 = icmp slt i32 %35, 3, !dbg !1032
  br i1 %cmp72, label %for.body, label %for.end, !dbg !1033

for.body:                                         ; preds = %for.cond
  %36 = load %struct.RTBuilder*, %struct.RTBuilder** %b.addr, align 8, !dbg !1034
  %primitives73 = getelementptr inbounds %struct.RTBuilder, %struct.RTBuilder* %36, i32 0, i32 0, !dbg !1036
  %end74 = getelementptr inbounds %struct.anon, %struct.anon* %primitives73, i32 0, i32 1, !dbg !1037
  %37 = load %"struct.RTBuilder::Object"*, %"struct.RTBuilder::Object"** %end74, align 8, !dbg !1037
  %38 = load %struct.RTBuilder*, %struct.RTBuilder** %b.addr, align 8, !dbg !1038
  %sorted_end = getelementptr inbounds %struct.RTBuilder, %struct.RTBuilder* %38, i32 0, i32 2, !dbg !1039
  %39 = load i32, i32* %i, align 4, !dbg !1040
  %idxprom = sext i32 %39 to i64, !dbg !1038
  %arrayidx75 = getelementptr inbounds [3 x %"struct.RTBuilder::Object"**], [3 x %"struct.RTBuilder::Object"**]* %sorted_end, i64 0, i64 %idxprom, !dbg !1038
  %40 = load %"struct.RTBuilder::Object"**, %"struct.RTBuilder::Object"*** %arrayidx75, align 8, !dbg !1038
  store %"struct.RTBuilder::Object"* %37, %"struct.RTBuilder::Object"** %40, align 8, !dbg !1041
  %41 = load %struct.RTBuilder*, %struct.RTBuilder** %b.addr, align 8, !dbg !1042
  %sorted_end76 = getelementptr inbounds %struct.RTBuilder, %struct.RTBuilder* %41, i32 0, i32 2, !dbg !1043
  %42 = load i32, i32* %i, align 4, !dbg !1044
  %idxprom77 = sext i32 %42 to i64, !dbg !1042
  %arrayidx78 = getelementptr inbounds [3 x %"struct.RTBuilder::Object"**], [3 x %"struct.RTBuilder::Object"**]* %sorted_end76, i64 0, i64 %idxprom77, !dbg !1042
  %43 = load %"struct.RTBuilder::Object"**, %"struct.RTBuilder::Object"*** %arrayidx78, align 8, !dbg !1045
  %incdec.ptr = getelementptr inbounds %"struct.RTBuilder::Object"*, %"struct.RTBuilder::Object"** %43, i32 1, !dbg !1045
  store %"struct.RTBuilder::Object"** %incdec.ptr, %"struct.RTBuilder::Object"*** %arrayidx78, align 8, !dbg !1045
  br label %for.inc, !dbg !1046

for.inc:                                          ; preds = %for.body
  %44 = load i32, i32* %i, align 4, !dbg !1047
  %inc = add nsw i32 %44, 1, !dbg !1047
  store i32 %inc, i32* %i, align 4, !dbg !1047
  br label %for.cond, !dbg !1048, !llvm.loop !1049

for.end:                                          ; preds = %for.cond
  %45 = load %struct.RTBuilder*, %struct.RTBuilder** %b.addr, align 8, !dbg !1051
  %primitives79 = getelementptr inbounds %struct.RTBuilder, %struct.RTBuilder* %45, i32 0, i32 0, !dbg !1052
  %end80 = getelementptr inbounds %struct.anon, %struct.anon* %primitives79, i32 0, i32 1, !dbg !1053
  %46 = load %"struct.RTBuilder::Object"*, %"struct.RTBuilder::Object"** %end80, align 8, !dbg !1054
  %incdec.ptr81 = getelementptr inbounds %"struct.RTBuilder::Object", %"struct.RTBuilder::Object"* %46, i32 1, !dbg !1054
  store %"struct.RTBuilder::Object"* %incdec.ptr81, %"struct.RTBuilder::Object"** %end80, align 8, !dbg !1054
  br label %return, !dbg !1055

return:                                           ; preds = %for.end, %if.then56, %if.then44, %if.then31, %if.then
  ret void, !dbg !1055
}

declare dso_local void @RE_rayobject_merge_bb(%struct.RayObject*, float*, float*) #3

; Function Attrs: nounwind readnone speculatable willreturn
declare double @llvm.fabs.f64(double) #1

; Function Attrs: noinline nounwind uwtable
define internal void @_ZL10copy_v3_v3PfPKf(float* %r, float* %a) #2 !dbg !1056 {
entry:
  %r.addr = alloca float*, align 8
  %a.addr = alloca float*, align 8
  store float* %r, float** %r.addr, align 8
  call void @llvm.dbg.declare(metadata float** %r.addr, metadata !1063, metadata !DIExpression()), !dbg !1064
  store float* %a, float** %a.addr, align 8
  call void @llvm.dbg.declare(metadata float** %a.addr, metadata !1065, metadata !DIExpression()), !dbg !1066
  %0 = load float*, float** %a.addr, align 8, !dbg !1067
  %arrayidx = getelementptr inbounds float, float* %0, i64 0, !dbg !1067
  %1 = load float, float* %arrayidx, align 4, !dbg !1067
  %2 = load float*, float** %r.addr, align 8, !dbg !1068
  %arrayidx1 = getelementptr inbounds float, float* %2, i64 0, !dbg !1068
  store float %1, float* %arrayidx1, align 4, !dbg !1069
  %3 = load float*, float** %a.addr, align 8, !dbg !1070
  %arrayidx2 = getelementptr inbounds float, float* %3, i64 1, !dbg !1070
  %4 = load float, float* %arrayidx2, align 4, !dbg !1070
  %5 = load float*, float** %r.addr, align 8, !dbg !1071
  %arrayidx3 = getelementptr inbounds float, float* %5, i64 1, !dbg !1071
  store float %4, float* %arrayidx3, align 4, !dbg !1072
  %6 = load float*, float** %a.addr, align 8, !dbg !1073
  %arrayidx4 = getelementptr inbounds float, float* %6, i64 2, !dbg !1073
  %7 = load float, float* %arrayidx4, align 4, !dbg !1073
  %8 = load float*, float** %r.addr, align 8, !dbg !1074
  %arrayidx5 = getelementptr inbounds float, float* %8, i64 2, !dbg !1074
  store float %7, float* %arrayidx5, align 4, !dbg !1075
  ret void, !dbg !1076
}

declare dso_local float @RE_rayobject_cost(%struct.RayObject*) #3

; Function Attrs: noinline nounwind uwtable
define dso_local i32 @rtbuild_size(%struct.RTBuilder* %b) #2 !dbg !1077 {
entry:
  %b.addr = alloca %struct.RTBuilder*, align 8
  store %struct.RTBuilder* %b, %struct.RTBuilder** %b.addr, align 8
  call void @llvm.dbg.declare(metadata %struct.RTBuilder** %b.addr, metadata !1080, metadata !DIExpression()), !dbg !1081
  %0 = load %struct.RTBuilder*, %struct.RTBuilder** %b.addr, align 8, !dbg !1082
  %sorted_end = getelementptr inbounds %struct.RTBuilder, %struct.RTBuilder* %0, i32 0, i32 2, !dbg !1083
  %arrayidx = getelementptr inbounds [3 x %"struct.RTBuilder::Object"**], [3 x %"struct.RTBuilder::Object"**]* %sorted_end, i64 0, i64 0, !dbg !1082
  %1 = load %"struct.RTBuilder::Object"**, %"struct.RTBuilder::Object"*** %arrayidx, align 8, !dbg !1082
  %2 = load %struct.RTBuilder*, %struct.RTBuilder** %b.addr, align 8, !dbg !1084
  %sorted_begin = getelementptr inbounds %struct.RTBuilder, %struct.RTBuilder* %2, i32 0, i32 1, !dbg !1085
  %arrayidx1 = getelementptr inbounds [3 x %"struct.RTBuilder::Object"**], [3 x %"struct.RTBuilder::Object"**]* %sorted_begin, i64 0, i64 0, !dbg !1084
  %3 = load %"struct.RTBuilder::Object"**, %"struct.RTBuilder::Object"*** %arrayidx1, align 8, !dbg !1084
  %sub.ptr.lhs.cast = ptrtoint %"struct.RTBuilder::Object"** %1 to i64, !dbg !1086
  %sub.ptr.rhs.cast = ptrtoint %"struct.RTBuilder::Object"** %3 to i64, !dbg !1086
  %sub.ptr.sub = sub i64 %sub.ptr.lhs.cast, %sub.ptr.rhs.cast, !dbg !1086
  %sub.ptr.div = sdiv exact i64 %sub.ptr.sub, 8, !dbg !1086
  %conv = trunc i64 %sub.ptr.div to i32, !dbg !1082
  ret i32 %conv, !dbg !1087
}

; Function Attrs: noinline uwtable
define dso_local void @rtbuild_done(%struct.RTBuilder* %b, %struct.RayObjectControl* %ctrl) #0 !dbg !1088 {
entry:
  %b.addr = alloca %struct.RTBuilder*, align 8
  %ctrl.addr = alloca %struct.RayObjectControl*, align 8
  %i = alloca i32, align 4
  store %struct.RTBuilder* %b, %struct.RTBuilder** %b.addr, align 8
  call void @llvm.dbg.declare(metadata %struct.RTBuilder** %b.addr, metadata !1101, metadata !DIExpression()), !dbg !1102
  store %struct.RayObjectControl* %ctrl, %struct.RayObjectControl** %ctrl.addr, align 8
  call void @llvm.dbg.declare(metadata %struct.RayObjectControl** %ctrl.addr, metadata !1103, metadata !DIExpression()), !dbg !1104
  call void @llvm.dbg.declare(metadata i32* %i, metadata !1105, metadata !DIExpression()), !dbg !1107
  store i32 0, i32* %i, align 4, !dbg !1107
  br label %for.cond, !dbg !1108

for.cond:                                         ; preds = %for.inc, %entry
  %0 = load i32, i32* %i, align 4, !dbg !1109
  %cmp = icmp slt i32 %0, 3, !dbg !1111
  br i1 %cmp, label %for.body, label %for.end, !dbg !1112

for.body:                                         ; preds = %for.cond
  %1 = load %struct.RTBuilder*, %struct.RTBuilder** %b.addr, align 8, !dbg !1113
  %sorted_begin = getelementptr inbounds %struct.RTBuilder, %struct.RTBuilder* %1, i32 0, i32 1, !dbg !1116
  %2 = load i32, i32* %i, align 4, !dbg !1117
  %idxprom = sext i32 %2 to i64, !dbg !1113
  %arrayidx = getelementptr inbounds [3 x %"struct.RTBuilder::Object"**], [3 x %"struct.RTBuilder::Object"**]* %sorted_begin, i64 0, i64 %idxprom, !dbg !1113
  %3 = load %"struct.RTBuilder::Object"**, %"struct.RTBuilder::Object"*** %arrayidx, align 8, !dbg !1113
  %tobool = icmp ne %"struct.RTBuilder::Object"** %3, null, !dbg !1113
  br i1 %tobool, label %if.then, label %if.end8, !dbg !1118

if.then:                                          ; preds = %for.body
  %4 = load %struct.RayObjectControl*, %struct.RayObjectControl** %ctrl.addr, align 8, !dbg !1119
  %call = call i32 @RE_rayobjectcontrol_test_break(%struct.RayObjectControl* %4), !dbg !1122
  %tobool1 = icmp ne i32 %call, 0, !dbg !1122
  br i1 %tobool1, label %if.then2, label %if.end, !dbg !1123

if.then2:                                         ; preds = %if.then
  br label %for.end, !dbg !1124

if.end:                                           ; preds = %if.then
  %5 = load %struct.RTBuilder*, %struct.RTBuilder** %b.addr, align 8, !dbg !1125
  %sorted_begin3 = getelementptr inbounds %struct.RTBuilder, %struct.RTBuilder* %5, i32 0, i32 1, !dbg !1126
  %6 = load i32, i32* %i, align 4, !dbg !1127
  %idxprom4 = sext i32 %6 to i64, !dbg !1125
  %arrayidx5 = getelementptr inbounds [3 x %"struct.RTBuilder::Object"**], [3 x %"struct.RTBuilder::Object"**]* %sorted_begin3, i64 0, i64 %idxprom4, !dbg !1125
  %7 = load %"struct.RTBuilder::Object"**, %"struct.RTBuilder::Object"*** %arrayidx5, align 8, !dbg !1125
  %8 = load %struct.RTBuilder*, %struct.RTBuilder** %b.addr, align 8, !dbg !1128
  %sorted_end = getelementptr inbounds %struct.RTBuilder, %struct.RTBuilder* %8, i32 0, i32 2, !dbg !1129
  %9 = load i32, i32* %i, align 4, !dbg !1130
  %idxprom6 = sext i32 %9 to i64, !dbg !1128
  %arrayidx7 = getelementptr inbounds [3 x %"struct.RTBuilder::Object"**], [3 x %"struct.RTBuilder::Object"**]* %sorted_end, i64 0, i64 %idxprom6, !dbg !1128
  %10 = load %"struct.RTBuilder::Object"**, %"struct.RTBuilder::Object"*** %arrayidx7, align 8, !dbg !1128
  %11 = load i32, i32* %i, align 4, !dbg !1131
  call void @_ZL11object_sortIPN9RTBuilder6ObjectEEvPT_S4_i(%"struct.RTBuilder::Object"** %7, %"struct.RTBuilder::Object"** %10, i32 %11), !dbg !1132
  br label %if.end8, !dbg !1133

if.end8:                                          ; preds = %if.end, %for.body
  br label %for.inc, !dbg !1134

for.inc:                                          ; preds = %if.end8
  %12 = load i32, i32* %i, align 4, !dbg !1135
  %inc = add nsw i32 %12, 1, !dbg !1135
  store i32 %inc, i32* %i, align 4, !dbg !1135
  br label %for.cond, !dbg !1136, !llvm.loop !1137

for.end:                                          ; preds = %if.then2, %for.cond
  ret void, !dbg !1139
}

declare dso_local i32 @RE_rayobjectcontrol_test_break(%struct.RayObjectControl*) #3

; Function Attrs: noinline uwtable
define internal void @_ZL11object_sortIPN9RTBuilder6ObjectEEvPT_S4_i(%"struct.RTBuilder::Object"** %begin, %"struct.RTBuilder::Object"** %end, i32 %axis) #0 !dbg !1140 {
entry:
  %begin.addr = alloca %"struct.RTBuilder::Object"**, align 8
  %end.addr = alloca %"struct.RTBuilder::Object"**, align 8
  %axis.addr = alloca i32, align 4
  store %"struct.RTBuilder::Object"** %begin, %"struct.RTBuilder::Object"*** %begin.addr, align 8
  call void @llvm.dbg.declare(metadata %"struct.RTBuilder::Object"*** %begin.addr, metadata !1145, metadata !DIExpression()), !dbg !1146
  store %"struct.RTBuilder::Object"** %end, %"struct.RTBuilder::Object"*** %end.addr, align 8
  call void @llvm.dbg.declare(metadata %"struct.RTBuilder::Object"*** %end.addr, metadata !1147, metadata !DIExpression()), !dbg !1148
  store i32 %axis, i32* %axis.addr, align 4
  call void @llvm.dbg.declare(metadata i32* %axis.addr, metadata !1149, metadata !DIExpression()), !dbg !1150
  %0 = load i32, i32* %axis.addr, align 4, !dbg !1151
  %cmp = icmp eq i32 %0, 0, !dbg !1153
  br i1 %cmp, label %if.then, label %if.end, !dbg !1154

if.then:                                          ; preds = %entry
  %1 = load %"struct.RTBuilder::Object"**, %"struct.RTBuilder::Object"*** %begin.addr, align 8, !dbg !1155
  %2 = load %"struct.RTBuilder::Object"**, %"struct.RTBuilder::Object"*** %end.addr, align 8, !dbg !1156
  call void @_ZSt4sortIPPN9RTBuilder6ObjectEPFbRKS2_S5_EEvT_S8_T0_(%"struct.RTBuilder::Object"** %1, %"struct.RTBuilder::Object"** %2, i1 (%"struct.RTBuilder::Object"**, %"struct.RTBuilder::Object"**)* @_ZL14obj_bb_compareIPN9RTBuilder6ObjectELi0EEbRKT_S5_), !dbg !1157
  br label %if.end6, !dbg !1158

if.end:                                           ; preds = %entry
  %3 = load i32, i32* %axis.addr, align 4, !dbg !1159
  %cmp1 = icmp eq i32 %3, 1, !dbg !1161
  br i1 %cmp1, label %if.then2, label %if.end3, !dbg !1162

if.then2:                                         ; preds = %if.end
  %4 = load %"struct.RTBuilder::Object"**, %"struct.RTBuilder::Object"*** %begin.addr, align 8, !dbg !1163
  %5 = load %"struct.RTBuilder::Object"**, %"struct.RTBuilder::Object"*** %end.addr, align 8, !dbg !1164
  call void @_ZSt4sortIPPN9RTBuilder6ObjectEPFbRKS2_S5_EEvT_S8_T0_(%"struct.RTBuilder::Object"** %4, %"struct.RTBuilder::Object"** %5, i1 (%"struct.RTBuilder::Object"**, %"struct.RTBuilder::Object"**)* @_ZL14obj_bb_compareIPN9RTBuilder6ObjectELi1EEbRKT_S5_), !dbg !1165
  br label %if.end6, !dbg !1166

if.end3:                                          ; preds = %if.end
  %6 = load i32, i32* %axis.addr, align 4, !dbg !1167
  %cmp4 = icmp eq i32 %6, 2, !dbg !1169
  br i1 %cmp4, label %if.then5, label %if.end6, !dbg !1170

if.then5:                                         ; preds = %if.end3
  %7 = load %"struct.RTBuilder::Object"**, %"struct.RTBuilder::Object"*** %begin.addr, align 8, !dbg !1171
  %8 = load %"struct.RTBuilder::Object"**, %"struct.RTBuilder::Object"*** %end.addr, align 8, !dbg !1172
  call void @_ZSt4sortIPPN9RTBuilder6ObjectEPFbRKS2_S5_EEvT_S8_T0_(%"struct.RTBuilder::Object"** %7, %"struct.RTBuilder::Object"** %8, i1 (%"struct.RTBuilder::Object"**, %"struct.RTBuilder::Object"**)* @_ZL14obj_bb_compareIPN9RTBuilder6ObjectELi2EEbRKT_S5_), !dbg !1173
  br label %if.end6, !dbg !1174

if.end6:                                          ; preds = %if.then, %if.then2, %if.then5, %if.end3
  ret void, !dbg !1175
}

; Function Attrs: noinline nounwind uwtable
define dso_local %struct.RayObject* @rtbuild_get_primitive(%struct.RTBuilder* %b, i32 %index) #2 !dbg !1176 {
entry:
  %b.addr = alloca %struct.RTBuilder*, align 8
  %index.addr = alloca i32, align 4
  store %struct.RTBuilder* %b, %struct.RTBuilder** %b.addr, align 8
  call void @llvm.dbg.declare(metadata %struct.RTBuilder** %b.addr, metadata !1179, metadata !DIExpression()), !dbg !1180
  store i32 %index, i32* %index.addr, align 4
  call void @llvm.dbg.declare(metadata i32* %index.addr, metadata !1181, metadata !DIExpression()), !dbg !1182
  %0 = load %struct.RTBuilder*, %struct.RTBuilder** %b.addr, align 8, !dbg !1183
  %sorted_begin = getelementptr inbounds %struct.RTBuilder, %struct.RTBuilder* %0, i32 0, i32 1, !dbg !1184
  %arrayidx = getelementptr inbounds [3 x %"struct.RTBuilder::Object"**], [3 x %"struct.RTBuilder::Object"**]* %sorted_begin, i64 0, i64 0, !dbg !1183
  %1 = load %"struct.RTBuilder::Object"**, %"struct.RTBuilder::Object"*** %arrayidx, align 8, !dbg !1183
  %2 = load i32, i32* %index.addr, align 4, !dbg !1185
  %idxprom = sext i32 %2 to i64, !dbg !1183
  %arrayidx1 = getelementptr inbounds %"struct.RTBuilder::Object"*, %"struct.RTBuilder::Object"** %1, i64 %idxprom, !dbg !1183
  %3 = load %"struct.RTBuilder::Object"*, %"struct.RTBuilder::Object"** %arrayidx1, align 8, !dbg !1183
  %obj = getelementptr inbounds %"struct.RTBuilder::Object", %"struct.RTBuilder::Object"* %3, i32 0, i32 0, !dbg !1186
  %4 = load %struct.RayObject*, %struct.RayObject** %obj, align 8, !dbg !1186
  ret %struct.RayObject* %4, !dbg !1187
}

; Function Attrs: noinline uwtable
define dso_local %struct.RTBuilder* @rtbuild_get_child(%struct.RTBuilder* %b, i32 %child, %struct.RTBuilder* %tmp) #0 !dbg !1188 {
entry:
  %b.addr = alloca %struct.RTBuilder*, align 8
  %child.addr = alloca i32, align 4
  %tmp.addr = alloca %struct.RTBuilder*, align 8
  %i = alloca i32, align 4
  store %struct.RTBuilder* %b, %struct.RTBuilder** %b.addr, align 8
  call void @llvm.dbg.declare(metadata %struct.RTBuilder** %b.addr, metadata !1191, metadata !DIExpression()), !dbg !1192
  store i32 %child, i32* %child.addr, align 4
  call void @llvm.dbg.declare(metadata i32* %child.addr, metadata !1193, metadata !DIExpression()), !dbg !1194
  store %struct.RTBuilder* %tmp, %struct.RTBuilder** %tmp.addr, align 8
  call void @llvm.dbg.declare(metadata %struct.RTBuilder** %tmp.addr, metadata !1195, metadata !DIExpression()), !dbg !1196
  %0 = load %struct.RTBuilder*, %struct.RTBuilder** %tmp.addr, align 8, !dbg !1197
  call void @_ZL12rtbuild_initP9RTBuilder(%struct.RTBuilder* %0), !dbg !1198
  call void @llvm.dbg.declare(metadata i32* %i, metadata !1199, metadata !DIExpression()), !dbg !1201
  store i32 0, i32* %i, align 4, !dbg !1201
  br label %for.cond, !dbg !1202

for.cond:                                         ; preds = %for.inc, %entry
  %1 = load i32, i32* %i, align 4, !dbg !1203
  %cmp = icmp slt i32 %1, 3, !dbg !1205
  br i1 %cmp, label %for.body, label %for.end, !dbg !1206

for.body:                                         ; preds = %for.cond
  %2 = load %struct.RTBuilder*, %struct.RTBuilder** %b.addr, align 8, !dbg !1207
  %sorted_begin = getelementptr inbounds %struct.RTBuilder, %struct.RTBuilder* %2, i32 0, i32 1, !dbg !1209
  %3 = load i32, i32* %i, align 4, !dbg !1210
  %idxprom = sext i32 %3 to i64, !dbg !1207
  %arrayidx = getelementptr inbounds [3 x %"struct.RTBuilder::Object"**], [3 x %"struct.RTBuilder::Object"**]* %sorted_begin, i64 0, i64 %idxprom, !dbg !1207
  %4 = load %"struct.RTBuilder::Object"**, %"struct.RTBuilder::Object"*** %arrayidx, align 8, !dbg !1207
  %tobool = icmp ne %"struct.RTBuilder::Object"** %4, null, !dbg !1207
  br i1 %tobool, label %if.then, label %if.else, !dbg !1211

if.then:                                          ; preds = %for.body
  %5 = load %struct.RTBuilder*, %struct.RTBuilder** %b.addr, align 8, !dbg !1212
  %sorted_begin1 = getelementptr inbounds %struct.RTBuilder, %struct.RTBuilder* %5, i32 0, i32 1, !dbg !1214
  %6 = load i32, i32* %i, align 4, !dbg !1215
  %idxprom2 = sext i32 %6 to i64, !dbg !1212
  %arrayidx3 = getelementptr inbounds [3 x %"struct.RTBuilder::Object"**], [3 x %"struct.RTBuilder::Object"**]* %sorted_begin1, i64 0, i64 %idxprom2, !dbg !1212
  %7 = load %"struct.RTBuilder::Object"**, %"struct.RTBuilder::Object"*** %arrayidx3, align 8, !dbg !1212
  %8 = load %struct.RTBuilder*, %struct.RTBuilder** %b.addr, align 8, !dbg !1216
  %child_offset = getelementptr inbounds %struct.RTBuilder, %struct.RTBuilder* %8, i32 0, i32 4, !dbg !1217
  %9 = load i32, i32* %child.addr, align 4, !dbg !1218
  %idxprom4 = sext i32 %9 to i64, !dbg !1216
  %arrayidx5 = getelementptr inbounds [33 x i32], [33 x i32]* %child_offset, i64 0, i64 %idxprom4, !dbg !1216
  %10 = load i32, i32* %arrayidx5, align 4, !dbg !1216
  %idx.ext = sext i32 %10 to i64, !dbg !1219
  %add.ptr = getelementptr inbounds %"struct.RTBuilder::Object"*, %"struct.RTBuilder::Object"** %7, i64 %idx.ext, !dbg !1219
  %11 = load %struct.RTBuilder*, %struct.RTBuilder** %tmp.addr, align 8, !dbg !1220
  %sorted_begin6 = getelementptr inbounds %struct.RTBuilder, %struct.RTBuilder* %11, i32 0, i32 1, !dbg !1221
  %12 = load i32, i32* %i, align 4, !dbg !1222
  %idxprom7 = sext i32 %12 to i64, !dbg !1220
  %arrayidx8 = getelementptr inbounds [3 x %"struct.RTBuilder::Object"**], [3 x %"struct.RTBuilder::Object"**]* %sorted_begin6, i64 0, i64 %idxprom7, !dbg !1220
  store %"struct.RTBuilder::Object"** %add.ptr, %"struct.RTBuilder::Object"*** %arrayidx8, align 8, !dbg !1223
  %13 = load %struct.RTBuilder*, %struct.RTBuilder** %b.addr, align 8, !dbg !1224
  %sorted_begin9 = getelementptr inbounds %struct.RTBuilder, %struct.RTBuilder* %13, i32 0, i32 1, !dbg !1225
  %14 = load i32, i32* %i, align 4, !dbg !1226
  %idxprom10 = sext i32 %14 to i64, !dbg !1224
  %arrayidx11 = getelementptr inbounds [3 x %"struct.RTBuilder::Object"**], [3 x %"struct.RTBuilder::Object"**]* %sorted_begin9, i64 0, i64 %idxprom10, !dbg !1224
  %15 = load %"struct.RTBuilder::Object"**, %"struct.RTBuilder::Object"*** %arrayidx11, align 8, !dbg !1224
  %16 = load %struct.RTBuilder*, %struct.RTBuilder** %b.addr, align 8, !dbg !1227
  %child_offset12 = getelementptr inbounds %struct.RTBuilder, %struct.RTBuilder* %16, i32 0, i32 4, !dbg !1228
  %17 = load i32, i32* %child.addr, align 4, !dbg !1229
  %add = add nsw i32 %17, 1, !dbg !1230
  %idxprom13 = sext i32 %add to i64, !dbg !1227
  %arrayidx14 = getelementptr inbounds [33 x i32], [33 x i32]* %child_offset12, i64 0, i64 %idxprom13, !dbg !1227
  %18 = load i32, i32* %arrayidx14, align 4, !dbg !1227
  %idx.ext15 = sext i32 %18 to i64, !dbg !1231
  %add.ptr16 = getelementptr inbounds %"struct.RTBuilder::Object"*, %"struct.RTBuilder::Object"** %15, i64 %idx.ext15, !dbg !1231
  %19 = load %struct.RTBuilder*, %struct.RTBuilder** %tmp.addr, align 8, !dbg !1232
  %sorted_end = getelementptr inbounds %struct.RTBuilder, %struct.RTBuilder* %19, i32 0, i32 2, !dbg !1233
  %20 = load i32, i32* %i, align 4, !dbg !1234
  %idxprom17 = sext i32 %20 to i64, !dbg !1232
  %arrayidx18 = getelementptr inbounds [3 x %"struct.RTBuilder::Object"**], [3 x %"struct.RTBuilder::Object"**]* %sorted_end, i64 0, i64 %idxprom17, !dbg !1232
  store %"struct.RTBuilder::Object"** %add.ptr16, %"struct.RTBuilder::Object"*** %arrayidx18, align 8, !dbg !1235
  br label %if.end, !dbg !1236

if.else:                                          ; preds = %for.body
  %21 = load %struct.RTBuilder*, %struct.RTBuilder** %tmp.addr, align 8, !dbg !1237
  %sorted_begin19 = getelementptr inbounds %struct.RTBuilder, %struct.RTBuilder* %21, i32 0, i32 1, !dbg !1239
  %22 = load i32, i32* %i, align 4, !dbg !1240
  %idxprom20 = sext i32 %22 to i64, !dbg !1237
  %arrayidx21 = getelementptr inbounds [3 x %"struct.RTBuilder::Object"**], [3 x %"struct.RTBuilder::Object"**]* %sorted_begin19, i64 0, i64 %idxprom20, !dbg !1237
  store %"struct.RTBuilder::Object"** null, %"struct.RTBuilder::Object"*** %arrayidx21, align 8, !dbg !1241
  %23 = load %struct.RTBuilder*, %struct.RTBuilder** %tmp.addr, align 8, !dbg !1242
  %sorted_end22 = getelementptr inbounds %struct.RTBuilder, %struct.RTBuilder* %23, i32 0, i32 2, !dbg !1243
  %24 = load i32, i32* %i, align 4, !dbg !1244
  %idxprom23 = sext i32 %24 to i64, !dbg !1242
  %arrayidx24 = getelementptr inbounds [3 x %"struct.RTBuilder::Object"**], [3 x %"struct.RTBuilder::Object"**]* %sorted_end22, i64 0, i64 %idxprom23, !dbg !1242
  store %"struct.RTBuilder::Object"** null, %"struct.RTBuilder::Object"*** %arrayidx24, align 8, !dbg !1245
  br label %if.end

if.end:                                           ; preds = %if.else, %if.then
  br label %for.inc, !dbg !1246

for.inc:                                          ; preds = %if.end
  %25 = load i32, i32* %i, align 4, !dbg !1247
  %inc = add nsw i32 %25, 1, !dbg !1247
  store i32 %inc, i32* %i, align 4, !dbg !1247
  br label %for.cond, !dbg !1248, !llvm.loop !1249

for.end:                                          ; preds = %for.cond
  %26 = load %struct.RTBuilder*, %struct.RTBuilder** %tmp.addr, align 8, !dbg !1251
  ret %struct.RTBuilder* %26, !dbg !1252
}

; Function Attrs: noinline uwtable
define dso_local void @rtbuild_merge_bb(%struct.RTBuilder* %b, float* %min, float* %max) #0 !dbg !1253 {
entry:
  %b.addr = alloca %struct.RTBuilder*, align 8
  %min.addr = alloca float*, align 8
  %max.addr = alloca float*, align 8
  store %struct.RTBuilder* %b, %struct.RTBuilder** %b.addr, align 8
  call void @llvm.dbg.declare(metadata %struct.RTBuilder** %b.addr, metadata !1256, metadata !DIExpression()), !dbg !1257
  store float* %min, float** %min.addr, align 8
  call void @llvm.dbg.declare(metadata float** %min.addr, metadata !1258, metadata !DIExpression()), !dbg !1259
  store float* %max, float** %max.addr, align 8
  call void @llvm.dbg.declare(metadata float** %max.addr, metadata !1260, metadata !DIExpression()), !dbg !1261
  %0 = load %struct.RTBuilder*, %struct.RTBuilder** %b.addr, align 8, !dbg !1262
  call void @_ZL15rtbuild_calc_bbP9RTBuilder(%struct.RTBuilder* %0), !dbg !1263
  %1 = load float*, float** %min.addr, align 8, !dbg !1264
  %arrayidx = getelementptr inbounds float, float* %1, i64 0, !dbg !1264
  %2 = load float, float* %arrayidx, align 4, !dbg !1264
  %3 = load %struct.RTBuilder*, %struct.RTBuilder** %b.addr, align 8, !dbg !1264
  %bb = getelementptr inbounds %struct.RTBuilder, %struct.RTBuilder* %3, i32 0, i32 5, !dbg !1264
  %arrayidx1 = getelementptr inbounds [6 x float], [6 x float]* %bb, i64 0, i64 0, !dbg !1264
  %4 = load float, float* %arrayidx1, align 8, !dbg !1264
  %cmp = fcmp ogt float %2, %4, !dbg !1264
  br i1 %cmp, label %if.then, label %if.end, !dbg !1267

if.then:                                          ; preds = %entry
  %5 = load %struct.RTBuilder*, %struct.RTBuilder** %b.addr, align 8, !dbg !1264
  %bb2 = getelementptr inbounds %struct.RTBuilder, %struct.RTBuilder* %5, i32 0, i32 5, !dbg !1264
  %arrayidx3 = getelementptr inbounds [6 x float], [6 x float]* %bb2, i64 0, i64 0, !dbg !1264
  %6 = load float, float* %arrayidx3, align 8, !dbg !1264
  %7 = load float*, float** %min.addr, align 8, !dbg !1264
  %arrayidx4 = getelementptr inbounds float, float* %7, i64 0, !dbg !1264
  store float %6, float* %arrayidx4, align 4, !dbg !1264
  br label %if.end, !dbg !1264

if.end:                                           ; preds = %if.then, %entry
  %8 = load float*, float** %min.addr, align 8, !dbg !1268
  %arrayidx5 = getelementptr inbounds float, float* %8, i64 1, !dbg !1268
  %9 = load float, float* %arrayidx5, align 4, !dbg !1268
  %10 = load %struct.RTBuilder*, %struct.RTBuilder** %b.addr, align 8, !dbg !1268
  %bb6 = getelementptr inbounds %struct.RTBuilder, %struct.RTBuilder* %10, i32 0, i32 5, !dbg !1268
  %arrayidx7 = getelementptr inbounds [6 x float], [6 x float]* %bb6, i64 0, i64 1, !dbg !1268
  %11 = load float, float* %arrayidx7, align 4, !dbg !1268
  %cmp8 = fcmp ogt float %9, %11, !dbg !1268
  br i1 %cmp8, label %if.then9, label %if.end13, !dbg !1267

if.then9:                                         ; preds = %if.end
  %12 = load %struct.RTBuilder*, %struct.RTBuilder** %b.addr, align 8, !dbg !1268
  %bb10 = getelementptr inbounds %struct.RTBuilder, %struct.RTBuilder* %12, i32 0, i32 5, !dbg !1268
  %arrayidx11 = getelementptr inbounds [6 x float], [6 x float]* %bb10, i64 0, i64 1, !dbg !1268
  %13 = load float, float* %arrayidx11, align 4, !dbg !1268
  %14 = load float*, float** %min.addr, align 8, !dbg !1268
  %arrayidx12 = getelementptr inbounds float, float* %14, i64 1, !dbg !1268
  store float %13, float* %arrayidx12, align 4, !dbg !1268
  br label %if.end13, !dbg !1268

if.end13:                                         ; preds = %if.then9, %if.end
  %15 = load float*, float** %min.addr, align 8, !dbg !1270
  %arrayidx14 = getelementptr inbounds float, float* %15, i64 2, !dbg !1270
  %16 = load float, float* %arrayidx14, align 4, !dbg !1270
  %17 = load %struct.RTBuilder*, %struct.RTBuilder** %b.addr, align 8, !dbg !1270
  %bb15 = getelementptr inbounds %struct.RTBuilder, %struct.RTBuilder* %17, i32 0, i32 5, !dbg !1270
  %arrayidx16 = getelementptr inbounds [6 x float], [6 x float]* %bb15, i64 0, i64 2, !dbg !1270
  %18 = load float, float* %arrayidx16, align 8, !dbg !1270
  %cmp17 = fcmp ogt float %16, %18, !dbg !1270
  br i1 %cmp17, label %if.then18, label %if.end22, !dbg !1267

if.then18:                                        ; preds = %if.end13
  %19 = load %struct.RTBuilder*, %struct.RTBuilder** %b.addr, align 8, !dbg !1270
  %bb19 = getelementptr inbounds %struct.RTBuilder, %struct.RTBuilder* %19, i32 0, i32 5, !dbg !1270
  %arrayidx20 = getelementptr inbounds [6 x float], [6 x float]* %bb19, i64 0, i64 2, !dbg !1270
  %20 = load float, float* %arrayidx20, align 8, !dbg !1270
  %21 = load float*, float** %min.addr, align 8, !dbg !1270
  %arrayidx21 = getelementptr inbounds float, float* %21, i64 2, !dbg !1270
  store float %20, float* %arrayidx21, align 4, !dbg !1270
  br label %if.end22, !dbg !1270

if.end22:                                         ; preds = %if.then18, %if.end13
  %22 = load float*, float** %max.addr, align 8, !dbg !1272
  %arrayidx23 = getelementptr inbounds float, float* %22, i64 0, !dbg !1272
  %23 = load float, float* %arrayidx23, align 4, !dbg !1272
  %24 = load %struct.RTBuilder*, %struct.RTBuilder** %b.addr, align 8, !dbg !1272
  %bb24 = getelementptr inbounds %struct.RTBuilder, %struct.RTBuilder* %24, i32 0, i32 5, !dbg !1272
  %arraydecay = getelementptr inbounds [6 x float], [6 x float]* %bb24, i64 0, i64 0, !dbg !1272
  %add.ptr = getelementptr inbounds float, float* %arraydecay, i64 3, !dbg !1272
  %arrayidx25 = getelementptr inbounds float, float* %add.ptr, i64 0, !dbg !1272
  %25 = load float, float* %arrayidx25, align 4, !dbg !1272
  %cmp26 = fcmp olt float %23, %25, !dbg !1272
  br i1 %cmp26, label %if.then27, label %if.end33, !dbg !1275

if.then27:                                        ; preds = %if.end22
  %26 = load %struct.RTBuilder*, %struct.RTBuilder** %b.addr, align 8, !dbg !1272
  %bb28 = getelementptr inbounds %struct.RTBuilder, %struct.RTBuilder* %26, i32 0, i32 5, !dbg !1272
  %arraydecay29 = getelementptr inbounds [6 x float], [6 x float]* %bb28, i64 0, i64 0, !dbg !1272
  %add.ptr30 = getelementptr inbounds float, float* %arraydecay29, i64 3, !dbg !1272
  %arrayidx31 = getelementptr inbounds float, float* %add.ptr30, i64 0, !dbg !1272
  %27 = load float, float* %arrayidx31, align 4, !dbg !1272
  %28 = load float*, float** %max.addr, align 8, !dbg !1272
  %arrayidx32 = getelementptr inbounds float, float* %28, i64 0, !dbg !1272
  store float %27, float* %arrayidx32, align 4, !dbg !1272
  br label %if.end33, !dbg !1272

if.end33:                                         ; preds = %if.then27, %if.end22
  %29 = load float*, float** %max.addr, align 8, !dbg !1276
  %arrayidx34 = getelementptr inbounds float, float* %29, i64 1, !dbg !1276
  %30 = load float, float* %arrayidx34, align 4, !dbg !1276
  %31 = load %struct.RTBuilder*, %struct.RTBuilder** %b.addr, align 8, !dbg !1276
  %bb35 = getelementptr inbounds %struct.RTBuilder, %struct.RTBuilder* %31, i32 0, i32 5, !dbg !1276
  %arraydecay36 = getelementptr inbounds [6 x float], [6 x float]* %bb35, i64 0, i64 0, !dbg !1276
  %add.ptr37 = getelementptr inbounds float, float* %arraydecay36, i64 3, !dbg !1276
  %arrayidx38 = getelementptr inbounds float, float* %add.ptr37, i64 1, !dbg !1276
  %32 = load float, float* %arrayidx38, align 4, !dbg !1276
  %cmp39 = fcmp olt float %30, %32, !dbg !1276
  br i1 %cmp39, label %if.then40, label %if.end46, !dbg !1275

if.then40:                                        ; preds = %if.end33
  %33 = load %struct.RTBuilder*, %struct.RTBuilder** %b.addr, align 8, !dbg !1276
  %bb41 = getelementptr inbounds %struct.RTBuilder, %struct.RTBuilder* %33, i32 0, i32 5, !dbg !1276
  %arraydecay42 = getelementptr inbounds [6 x float], [6 x float]* %bb41, i64 0, i64 0, !dbg !1276
  %add.ptr43 = getelementptr inbounds float, float* %arraydecay42, i64 3, !dbg !1276
  %arrayidx44 = getelementptr inbounds float, float* %add.ptr43, i64 1, !dbg !1276
  %34 = load float, float* %arrayidx44, align 4, !dbg !1276
  %35 = load float*, float** %max.addr, align 8, !dbg !1276
  %arrayidx45 = getelementptr inbounds float, float* %35, i64 1, !dbg !1276
  store float %34, float* %arrayidx45, align 4, !dbg !1276
  br label %if.end46, !dbg !1276

if.end46:                                         ; preds = %if.then40, %if.end33
  %36 = load float*, float** %max.addr, align 8, !dbg !1278
  %arrayidx47 = getelementptr inbounds float, float* %36, i64 2, !dbg !1278
  %37 = load float, float* %arrayidx47, align 4, !dbg !1278
  %38 = load %struct.RTBuilder*, %struct.RTBuilder** %b.addr, align 8, !dbg !1278
  %bb48 = getelementptr inbounds %struct.RTBuilder, %struct.RTBuilder* %38, i32 0, i32 5, !dbg !1278
  %arraydecay49 = getelementptr inbounds [6 x float], [6 x float]* %bb48, i64 0, i64 0, !dbg !1278
  %add.ptr50 = getelementptr inbounds float, float* %arraydecay49, i64 3, !dbg !1278
  %arrayidx51 = getelementptr inbounds float, float* %add.ptr50, i64 2, !dbg !1278
  %39 = load float, float* %arrayidx51, align 4, !dbg !1278
  %cmp52 = fcmp olt float %37, %39, !dbg !1278
  br i1 %cmp52, label %if.then53, label %if.end59, !dbg !1275

if.then53:                                        ; preds = %if.end46
  %40 = load %struct.RTBuilder*, %struct.RTBuilder** %b.addr, align 8, !dbg !1278
  %bb54 = getelementptr inbounds %struct.RTBuilder, %struct.RTBuilder* %40, i32 0, i32 5, !dbg !1278
  %arraydecay55 = getelementptr inbounds [6 x float], [6 x float]* %bb54, i64 0, i64 0, !dbg !1278
  %add.ptr56 = getelementptr inbounds float, float* %arraydecay55, i64 3, !dbg !1278
  %arrayidx57 = getelementptr inbounds float, float* %add.ptr56, i64 2, !dbg !1278
  %41 = load float, float* %arrayidx57, align 4, !dbg !1278
  %42 = load float*, float** %max.addr, align 8, !dbg !1278
  %arrayidx58 = getelementptr inbounds float, float* %42, i64 2, !dbg !1278
  store float %41, float* %arrayidx58, align 4, !dbg !1278
  br label %if.end59, !dbg !1278

if.end59:                                         ; preds = %if.then53, %if.end46
  ret void, !dbg !1280
}

; Function Attrs: noinline uwtable
define internal void @_ZL15rtbuild_calc_bbP9RTBuilder(%struct.RTBuilder* %b) #0 !dbg !1281 {
entry:
  %b.addr = alloca %struct.RTBuilder*, align 8
  %index = alloca %"struct.RTBuilder::Object"**, align 8
  store %struct.RTBuilder* %b, %struct.RTBuilder** %b.addr, align 8
  call void @llvm.dbg.declare(metadata %struct.RTBuilder** %b.addr, metadata !1282, metadata !DIExpression()), !dbg !1283
  %0 = load %struct.RTBuilder*, %struct.RTBuilder** %b.addr, align 8, !dbg !1284
  %bb = getelementptr inbounds %struct.RTBuilder, %struct.RTBuilder* %0, i32 0, i32 5, !dbg !1286
  %arrayidx = getelementptr inbounds [6 x float], [6 x float]* %bb, i64 0, i64 0, !dbg !1284
  %1 = load float, float* %arrayidx, align 8, !dbg !1284
  %cmp = fcmp oeq float %1, 0x46293E5940000000, !dbg !1287
  br i1 %cmp, label %if.then, label %if.end, !dbg !1288

if.then:                                          ; preds = %entry
  call void @llvm.dbg.declare(metadata %"struct.RTBuilder::Object"*** %index, metadata !1289, metadata !DIExpression()), !dbg !1292
  %2 = load %struct.RTBuilder*, %struct.RTBuilder** %b.addr, align 8, !dbg !1293
  %sorted_begin = getelementptr inbounds %struct.RTBuilder, %struct.RTBuilder* %2, i32 0, i32 1, !dbg !1294
  %arrayidx1 = getelementptr inbounds [3 x %"struct.RTBuilder::Object"**], [3 x %"struct.RTBuilder::Object"**]* %sorted_begin, i64 0, i64 0, !dbg !1293
  %3 = load %"struct.RTBuilder::Object"**, %"struct.RTBuilder::Object"*** %arrayidx1, align 8, !dbg !1293
  store %"struct.RTBuilder::Object"** %3, %"struct.RTBuilder::Object"*** %index, align 8, !dbg !1292
  br label %for.cond, !dbg !1295

for.cond:                                         ; preds = %for.inc, %if.then
  %4 = load %"struct.RTBuilder::Object"**, %"struct.RTBuilder::Object"*** %index, align 8, !dbg !1296
  %5 = load %struct.RTBuilder*, %struct.RTBuilder** %b.addr, align 8, !dbg !1298
  %sorted_end = getelementptr inbounds %struct.RTBuilder, %struct.RTBuilder* %5, i32 0, i32 2, !dbg !1299
  %arrayidx2 = getelementptr inbounds [3 x %"struct.RTBuilder::Object"**], [3 x %"struct.RTBuilder::Object"**]* %sorted_end, i64 0, i64 0, !dbg !1298
  %6 = load %"struct.RTBuilder::Object"**, %"struct.RTBuilder::Object"*** %arrayidx2, align 8, !dbg !1298
  %cmp3 = icmp ne %"struct.RTBuilder::Object"** %4, %6, !dbg !1300
  br i1 %cmp3, label %for.body, label %for.end, !dbg !1301

for.body:                                         ; preds = %for.cond
  %7 = load %"struct.RTBuilder::Object"**, %"struct.RTBuilder::Object"*** %index, align 8, !dbg !1302
  %8 = load %"struct.RTBuilder::Object"*, %"struct.RTBuilder::Object"** %7, align 8, !dbg !1303
  %obj = getelementptr inbounds %"struct.RTBuilder::Object", %"struct.RTBuilder::Object"* %8, i32 0, i32 0, !dbg !1304
  %9 = load %struct.RayObject*, %struct.RayObject** %obj, align 8, !dbg !1304
  %10 = load %struct.RTBuilder*, %struct.RTBuilder** %b.addr, align 8, !dbg !1305
  %bb4 = getelementptr inbounds %struct.RTBuilder, %struct.RTBuilder* %10, i32 0, i32 5, !dbg !1306
  %arraydecay = getelementptr inbounds [6 x float], [6 x float]* %bb4, i64 0, i64 0, !dbg !1305
  %11 = load %struct.RTBuilder*, %struct.RTBuilder** %b.addr, align 8, !dbg !1307
  %bb5 = getelementptr inbounds %struct.RTBuilder, %struct.RTBuilder* %11, i32 0, i32 5, !dbg !1308
  %arraydecay6 = getelementptr inbounds [6 x float], [6 x float]* %bb5, i64 0, i64 0, !dbg !1307
  %add.ptr = getelementptr inbounds float, float* %arraydecay6, i64 3, !dbg !1309
  call void @RE_rayobject_merge_bb(%struct.RayObject* %9, float* %arraydecay, float* %add.ptr), !dbg !1310
  br label %for.inc, !dbg !1310

for.inc:                                          ; preds = %for.body
  %12 = load %"struct.RTBuilder::Object"**, %"struct.RTBuilder::Object"*** %index, align 8, !dbg !1311
  %incdec.ptr = getelementptr inbounds %"struct.RTBuilder::Object"*, %"struct.RTBuilder::Object"** %12, i32 1, !dbg !1311
  store %"struct.RTBuilder::Object"** %incdec.ptr, %"struct.RTBuilder::Object"*** %index, align 8, !dbg !1311
  br label %for.cond, !dbg !1312, !llvm.loop !1313

for.end:                                          ; preds = %for.cond
  br label %if.end, !dbg !1315

if.end:                                           ; preds = %for.end, %entry
  ret void, !dbg !1316
}

; Function Attrs: noinline uwtable
define dso_local i32 @rtbuild_heuristic_object_split(%struct.RTBuilder* %b, i32 %nchilds) #0 !dbg !1317 {
entry:
  %retval = alloca i32, align 4
  %b.addr = alloca %struct.RTBuilder*, align 8
  %nchilds.addr = alloca i32, align 4
  %size = alloca i32, align 4
  %baxis = alloca i32, align 4
  %boffset = alloca i32, align 4
  %bcost = alloca float, align 4
  %sweep = alloca %struct.SweepCost*, align 8
  %axis = alloca i32, align 4
  %sweep_left = alloca %struct.SweepCost, align 4
  %obj = alloca %"struct.RTBuilder::Object"**, align 8
  %i = alloca i32, align 4
  %i156 = alloca i32, align 4
  %hcost = alloca float, align 4
  %left_side = alloca float, align 4
  %right_side = alloca float, align 4
  %i338 = alloca i32, align 4
  %i350 = alloca i32, align 4
  %i363 = alloca i32, align 4
  store %struct.RTBuilder* %b, %struct.RTBuilder** %b.addr, align 8
  call void @llvm.dbg.declare(metadata %struct.RTBuilder** %b.addr, metadata !1320, metadata !DIExpression()), !dbg !1321
  store i32 %nchilds, i32* %nchilds.addr, align 4
  call void @llvm.dbg.declare(metadata i32* %nchilds.addr, metadata !1322, metadata !DIExpression()), !dbg !1323
  call void @llvm.dbg.declare(metadata i32* %size, metadata !1324, metadata !DIExpression()), !dbg !1325
  %0 = load %struct.RTBuilder*, %struct.RTBuilder** %b.addr, align 8, !dbg !1326
  %call = call i32 @rtbuild_size(%struct.RTBuilder* %0), !dbg !1327
  store i32 %call, i32* %size, align 4, !dbg !1325
  call void @llvm.dbg.declare(metadata i32* %baxis, metadata !1328, metadata !DIExpression()), !dbg !1329
  store i32 -1, i32* %baxis, align 4, !dbg !1329
  call void @llvm.dbg.declare(metadata i32* %boffset, metadata !1330, metadata !DIExpression()), !dbg !1331
  store i32 0, i32* %boffset, align 4, !dbg !1331
  %1 = load i32, i32* %size, align 4, !dbg !1332
  %2 = load i32, i32* %nchilds.addr, align 4, !dbg !1334
  %cmp = icmp sgt i32 %1, %2, !dbg !1335
  br i1 %cmp, label %if.then, label %if.else320, !dbg !1336

if.then:                                          ; preds = %entry
  call void @llvm.dbg.declare(metadata float* %bcost, metadata !1337, metadata !DIExpression()), !dbg !1339
  store float 0x47EFFFFFE0000000, float* %bcost, align 4, !dbg !1339
  store i32 -1, i32* %baxis, align 4, !dbg !1340
  %3 = load i32, i32* %size, align 4, !dbg !1341
  %div = sdiv i32 %3, 2, !dbg !1342
  store i32 %div, i32* %boffset, align 4, !dbg !1343
  call void @llvm.dbg.declare(metadata %struct.SweepCost** %sweep, metadata !1344, metadata !DIExpression()), !dbg !1345
  %4 = load i8* (i64, i8*)*, i8* (i64, i8*)** @MEM_mallocN, align 8, !dbg !1346
  %5 = load i32, i32* %size, align 4, !dbg !1347
  %conv = sext i32 %5 to i64, !dbg !1347
  %mul = mul i64 28, %conv, !dbg !1348
  %call1 = call i8* %4(i64 %mul, i8* getelementptr inbounds ([25 x i8], [25 x i8]* @.str.3, i64 0, i64 0)), !dbg !1346
  %6 = bitcast i8* %call1 to %struct.SweepCost*, !dbg !1349
  store %struct.SweepCost* %6, %struct.SweepCost** %sweep, align 8, !dbg !1345
  call void @llvm.dbg.declare(metadata i32* %axis, metadata !1350, metadata !DIExpression()), !dbg !1352
  store i32 0, i32* %axis, align 4, !dbg !1352
  br label %for.cond, !dbg !1353

for.cond:                                         ; preds = %for.inc317, %if.then
  %7 = load i32, i32* %axis, align 4, !dbg !1354
  %cmp2 = icmp slt i32 %7, 3, !dbg !1356
  br i1 %cmp2, label %for.body, label %for.end319, !dbg !1357

for.body:                                         ; preds = %for.cond
  call void @llvm.dbg.declare(metadata %struct.SweepCost* %sweep_left, metadata !1358, metadata !DIExpression()), !dbg !1360
  call void @llvm.dbg.declare(metadata %"struct.RTBuilder::Object"*** %obj, metadata !1361, metadata !DIExpression()), !dbg !1362
  %8 = load %struct.RTBuilder*, %struct.RTBuilder** %b.addr, align 8, !dbg !1363
  %sorted_begin = getelementptr inbounds %struct.RTBuilder, %struct.RTBuilder* %8, i32 0, i32 1, !dbg !1364
  %9 = load i32, i32* %axis, align 4, !dbg !1365
  %idxprom = sext i32 %9 to i64, !dbg !1363
  %arrayidx = getelementptr inbounds [3 x %"struct.RTBuilder::Object"**], [3 x %"struct.RTBuilder::Object"**]* %sorted_begin, i64 0, i64 %idxprom, !dbg !1363
  %10 = load %"struct.RTBuilder::Object"**, %"struct.RTBuilder::Object"*** %arrayidx, align 8, !dbg !1363
  store %"struct.RTBuilder::Object"** %10, %"struct.RTBuilder::Object"*** %obj, align 8, !dbg !1362
  call void @llvm.dbg.declare(metadata i32* %i, metadata !1366, metadata !DIExpression()), !dbg !1368
  %11 = load i32, i32* %size, align 4, !dbg !1369
  %sub = sub nsw i32 %11, 1, !dbg !1370
  store i32 %sub, i32* %i, align 4, !dbg !1368
  br label %for.cond3, !dbg !1371

for.cond3:                                        ; preds = %for.inc, %for.body
  %12 = load i32, i32* %i, align 4, !dbg !1372
  %cmp4 = icmp sge i32 %12, 0, !dbg !1374
  br i1 %cmp4, label %for.body5, label %for.end, !dbg !1375

for.body5:                                        ; preds = %for.cond3
  %13 = load i32, i32* %i, align 4, !dbg !1376
  %14 = load i32, i32* %size, align 4, !dbg !1379
  %sub6 = sub nsw i32 %14, 1, !dbg !1380
  %cmp7 = icmp eq i32 %13, %sub6, !dbg !1381
  br i1 %cmp7, label %if.then8, label %if.else, !dbg !1382

if.then8:                                         ; preds = %for.body5
  %15 = load %struct.SweepCost*, %struct.SweepCost** %sweep, align 8, !dbg !1383
  %16 = load i32, i32* %i, align 4, !dbg !1385
  %idxprom9 = sext i32 %16 to i64, !dbg !1383
  %arrayidx10 = getelementptr inbounds %struct.SweepCost, %struct.SweepCost* %15, i64 %idxprom9, !dbg !1383
  %bb = getelementptr inbounds %struct.SweepCost, %struct.SweepCost* %arrayidx10, i32 0, i32 0, !dbg !1386
  %arraydecay = getelementptr inbounds [6 x float], [6 x float]* %bb, i64 0, i64 0, !dbg !1383
  %17 = load %"struct.RTBuilder::Object"**, %"struct.RTBuilder::Object"*** %obj, align 8, !dbg !1387
  %18 = load i32, i32* %i, align 4, !dbg !1388
  %idxprom11 = sext i32 %18 to i64, !dbg !1387
  %arrayidx12 = getelementptr inbounds %"struct.RTBuilder::Object"*, %"struct.RTBuilder::Object"** %17, i64 %idxprom11, !dbg !1387
  %19 = load %"struct.RTBuilder::Object"*, %"struct.RTBuilder::Object"** %arrayidx12, align 8, !dbg !1387
  %bb13 = getelementptr inbounds %"struct.RTBuilder::Object", %"struct.RTBuilder::Object"* %19, i32 0, i32 2, !dbg !1389
  %arraydecay14 = getelementptr inbounds [6 x float], [6 x float]* %bb13, i64 0, i64 0, !dbg !1387
  call void @_ZL10copy_v3_v3PfPKf(float* %arraydecay, float* %arraydecay14), !dbg !1390
  %20 = load %struct.SweepCost*, %struct.SweepCost** %sweep, align 8, !dbg !1391
  %21 = load i32, i32* %i, align 4, !dbg !1392
  %idxprom15 = sext i32 %21 to i64, !dbg !1391
  %arrayidx16 = getelementptr inbounds %struct.SweepCost, %struct.SweepCost* %20, i64 %idxprom15, !dbg !1391
  %bb17 = getelementptr inbounds %struct.SweepCost, %struct.SweepCost* %arrayidx16, i32 0, i32 0, !dbg !1393
  %arraydecay18 = getelementptr inbounds [6 x float], [6 x float]* %bb17, i64 0, i64 0, !dbg !1391
  %add.ptr = getelementptr inbounds float, float* %arraydecay18, i64 3, !dbg !1394
  %22 = load %"struct.RTBuilder::Object"**, %"struct.RTBuilder::Object"*** %obj, align 8, !dbg !1395
  %23 = load i32, i32* %i, align 4, !dbg !1396
  %idxprom19 = sext i32 %23 to i64, !dbg !1395
  %arrayidx20 = getelementptr inbounds %"struct.RTBuilder::Object"*, %"struct.RTBuilder::Object"** %22, i64 %idxprom19, !dbg !1395
  %24 = load %"struct.RTBuilder::Object"*, %"struct.RTBuilder::Object"** %arrayidx20, align 8, !dbg !1395
  %bb21 = getelementptr inbounds %"struct.RTBuilder::Object", %"struct.RTBuilder::Object"* %24, i32 0, i32 2, !dbg !1397
  %arraydecay22 = getelementptr inbounds [6 x float], [6 x float]* %bb21, i64 0, i64 0, !dbg !1395
  %add.ptr23 = getelementptr inbounds float, float* %arraydecay22, i64 3, !dbg !1398
  call void @_ZL10copy_v3_v3PfPKf(float* %add.ptr, float* %add.ptr23), !dbg !1399
  %25 = load %"struct.RTBuilder::Object"**, %"struct.RTBuilder::Object"*** %obj, align 8, !dbg !1400
  %26 = load i32, i32* %i, align 4, !dbg !1401
  %idxprom24 = sext i32 %26 to i64, !dbg !1400
  %arrayidx25 = getelementptr inbounds %"struct.RTBuilder::Object"*, %"struct.RTBuilder::Object"** %25, i64 %idxprom24, !dbg !1400
  %27 = load %"struct.RTBuilder::Object"*, %"struct.RTBuilder::Object"** %arrayidx25, align 8, !dbg !1400
  %cost = getelementptr inbounds %"struct.RTBuilder::Object", %"struct.RTBuilder::Object"* %27, i32 0, i32 1, !dbg !1402
  %28 = load float, float* %cost, align 8, !dbg !1402
  %29 = load %struct.SweepCost*, %struct.SweepCost** %sweep, align 8, !dbg !1403
  %30 = load i32, i32* %i, align 4, !dbg !1404
  %idxprom26 = sext i32 %30 to i64, !dbg !1403
  %arrayidx27 = getelementptr inbounds %struct.SweepCost, %struct.SweepCost* %29, i64 %idxprom26, !dbg !1403
  %cost28 = getelementptr inbounds %struct.SweepCost, %struct.SweepCost* %arrayidx27, i32 0, i32 1, !dbg !1405
  store float %28, float* %cost28, align 4, !dbg !1406
  br label %if.end, !dbg !1407

if.else:                                          ; preds = %for.body5
  %31 = load %"struct.RTBuilder::Object"**, %"struct.RTBuilder::Object"*** %obj, align 8, !dbg !1408
  %32 = load i32, i32* %i, align 4, !dbg !1410
  %idxprom29 = sext i32 %32 to i64, !dbg !1408
  %arrayidx30 = getelementptr inbounds %"struct.RTBuilder::Object"*, %"struct.RTBuilder::Object"** %31, i64 %idxprom29, !dbg !1408
  %33 = load %"struct.RTBuilder::Object"*, %"struct.RTBuilder::Object"** %arrayidx30, align 8, !dbg !1408
  %bb31 = getelementptr inbounds %"struct.RTBuilder::Object", %"struct.RTBuilder::Object"* %33, i32 0, i32 2, !dbg !1411
  %arrayidx32 = getelementptr inbounds [6 x float], [6 x float]* %bb31, i64 0, i64 0, !dbg !1408
  %34 = load float, float* %arrayidx32, align 4, !dbg !1408
  %35 = load %struct.SweepCost*, %struct.SweepCost** %sweep, align 8, !dbg !1412
  %36 = load i32, i32* %i, align 4, !dbg !1413
  %add = add nsw i32 %36, 1, !dbg !1414
  %idxprom33 = sext i32 %add to i64, !dbg !1412
  %arrayidx34 = getelementptr inbounds %struct.SweepCost, %struct.SweepCost* %35, i64 %idxprom33, !dbg !1412
  %bb35 = getelementptr inbounds %struct.SweepCost, %struct.SweepCost* %arrayidx34, i32 0, i32 0, !dbg !1415
  %arrayidx36 = getelementptr inbounds [6 x float], [6 x float]* %bb35, i64 0, i64 0, !dbg !1412
  %37 = load float, float* %arrayidx36, align 4, !dbg !1412
  %call37 = call float @_ZL6min_ffff(float %34, float %37), !dbg !1416
  %38 = load %struct.SweepCost*, %struct.SweepCost** %sweep, align 8, !dbg !1417
  %39 = load i32, i32* %i, align 4, !dbg !1418
  %idxprom38 = sext i32 %39 to i64, !dbg !1417
  %arrayidx39 = getelementptr inbounds %struct.SweepCost, %struct.SweepCost* %38, i64 %idxprom38, !dbg !1417
  %bb40 = getelementptr inbounds %struct.SweepCost, %struct.SweepCost* %arrayidx39, i32 0, i32 0, !dbg !1419
  %arrayidx41 = getelementptr inbounds [6 x float], [6 x float]* %bb40, i64 0, i64 0, !dbg !1417
  store float %call37, float* %arrayidx41, align 4, !dbg !1420
  %40 = load %"struct.RTBuilder::Object"**, %"struct.RTBuilder::Object"*** %obj, align 8, !dbg !1421
  %41 = load i32, i32* %i, align 4, !dbg !1422
  %idxprom42 = sext i32 %41 to i64, !dbg !1421
  %arrayidx43 = getelementptr inbounds %"struct.RTBuilder::Object"*, %"struct.RTBuilder::Object"** %40, i64 %idxprom42, !dbg !1421
  %42 = load %"struct.RTBuilder::Object"*, %"struct.RTBuilder::Object"** %arrayidx43, align 8, !dbg !1421
  %bb44 = getelementptr inbounds %"struct.RTBuilder::Object", %"struct.RTBuilder::Object"* %42, i32 0, i32 2, !dbg !1423
  %arrayidx45 = getelementptr inbounds [6 x float], [6 x float]* %bb44, i64 0, i64 1, !dbg !1421
  %43 = load float, float* %arrayidx45, align 4, !dbg !1421
  %44 = load %struct.SweepCost*, %struct.SweepCost** %sweep, align 8, !dbg !1424
  %45 = load i32, i32* %i, align 4, !dbg !1425
  %add46 = add nsw i32 %45, 1, !dbg !1426
  %idxprom47 = sext i32 %add46 to i64, !dbg !1424
  %arrayidx48 = getelementptr inbounds %struct.SweepCost, %struct.SweepCost* %44, i64 %idxprom47, !dbg !1424
  %bb49 = getelementptr inbounds %struct.SweepCost, %struct.SweepCost* %arrayidx48, i32 0, i32 0, !dbg !1427
  %arrayidx50 = getelementptr inbounds [6 x float], [6 x float]* %bb49, i64 0, i64 1, !dbg !1424
  %46 = load float, float* %arrayidx50, align 4, !dbg !1424
  %call51 = call float @_ZL6min_ffff(float %43, float %46), !dbg !1428
  %47 = load %struct.SweepCost*, %struct.SweepCost** %sweep, align 8, !dbg !1429
  %48 = load i32, i32* %i, align 4, !dbg !1430
  %idxprom52 = sext i32 %48 to i64, !dbg !1429
  %arrayidx53 = getelementptr inbounds %struct.SweepCost, %struct.SweepCost* %47, i64 %idxprom52, !dbg !1429
  %bb54 = getelementptr inbounds %struct.SweepCost, %struct.SweepCost* %arrayidx53, i32 0, i32 0, !dbg !1431
  %arrayidx55 = getelementptr inbounds [6 x float], [6 x float]* %bb54, i64 0, i64 1, !dbg !1429
  store float %call51, float* %arrayidx55, align 4, !dbg !1432
  %49 = load %"struct.RTBuilder::Object"**, %"struct.RTBuilder::Object"*** %obj, align 8, !dbg !1433
  %50 = load i32, i32* %i, align 4, !dbg !1434
  %idxprom56 = sext i32 %50 to i64, !dbg !1433
  %arrayidx57 = getelementptr inbounds %"struct.RTBuilder::Object"*, %"struct.RTBuilder::Object"** %49, i64 %idxprom56, !dbg !1433
  %51 = load %"struct.RTBuilder::Object"*, %"struct.RTBuilder::Object"** %arrayidx57, align 8, !dbg !1433
  %bb58 = getelementptr inbounds %"struct.RTBuilder::Object", %"struct.RTBuilder::Object"* %51, i32 0, i32 2, !dbg !1435
  %arrayidx59 = getelementptr inbounds [6 x float], [6 x float]* %bb58, i64 0, i64 2, !dbg !1433
  %52 = load float, float* %arrayidx59, align 4, !dbg !1433
  %53 = load %struct.SweepCost*, %struct.SweepCost** %sweep, align 8, !dbg !1436
  %54 = load i32, i32* %i, align 4, !dbg !1437
  %add60 = add nsw i32 %54, 1, !dbg !1438
  %idxprom61 = sext i32 %add60 to i64, !dbg !1436
  %arrayidx62 = getelementptr inbounds %struct.SweepCost, %struct.SweepCost* %53, i64 %idxprom61, !dbg !1436
  %bb63 = getelementptr inbounds %struct.SweepCost, %struct.SweepCost* %arrayidx62, i32 0, i32 0, !dbg !1439
  %arrayidx64 = getelementptr inbounds [6 x float], [6 x float]* %bb63, i64 0, i64 2, !dbg !1436
  %55 = load float, float* %arrayidx64, align 4, !dbg !1436
  %call65 = call float @_ZL6min_ffff(float %52, float %55), !dbg !1440
  %56 = load %struct.SweepCost*, %struct.SweepCost** %sweep, align 8, !dbg !1441
  %57 = load i32, i32* %i, align 4, !dbg !1442
  %idxprom66 = sext i32 %57 to i64, !dbg !1441
  %arrayidx67 = getelementptr inbounds %struct.SweepCost, %struct.SweepCost* %56, i64 %idxprom66, !dbg !1441
  %bb68 = getelementptr inbounds %struct.SweepCost, %struct.SweepCost* %arrayidx67, i32 0, i32 0, !dbg !1443
  %arrayidx69 = getelementptr inbounds [6 x float], [6 x float]* %bb68, i64 0, i64 2, !dbg !1441
  store float %call65, float* %arrayidx69, align 4, !dbg !1444
  %58 = load %"struct.RTBuilder::Object"**, %"struct.RTBuilder::Object"*** %obj, align 8, !dbg !1445
  %59 = load i32, i32* %i, align 4, !dbg !1446
  %idxprom70 = sext i32 %59 to i64, !dbg !1445
  %arrayidx71 = getelementptr inbounds %"struct.RTBuilder::Object"*, %"struct.RTBuilder::Object"** %58, i64 %idxprom70, !dbg !1445
  %60 = load %"struct.RTBuilder::Object"*, %"struct.RTBuilder::Object"** %arrayidx71, align 8, !dbg !1445
  %bb72 = getelementptr inbounds %"struct.RTBuilder::Object", %"struct.RTBuilder::Object"* %60, i32 0, i32 2, !dbg !1447
  %arrayidx73 = getelementptr inbounds [6 x float], [6 x float]* %bb72, i64 0, i64 3, !dbg !1445
  %61 = load float, float* %arrayidx73, align 4, !dbg !1445
  %62 = load %struct.SweepCost*, %struct.SweepCost** %sweep, align 8, !dbg !1448
  %63 = load i32, i32* %i, align 4, !dbg !1449
  %add74 = add nsw i32 %63, 1, !dbg !1450
  %idxprom75 = sext i32 %add74 to i64, !dbg !1448
  %arrayidx76 = getelementptr inbounds %struct.SweepCost, %struct.SweepCost* %62, i64 %idxprom75, !dbg !1448
  %bb77 = getelementptr inbounds %struct.SweepCost, %struct.SweepCost* %arrayidx76, i32 0, i32 0, !dbg !1451
  %arrayidx78 = getelementptr inbounds [6 x float], [6 x float]* %bb77, i64 0, i64 3, !dbg !1448
  %64 = load float, float* %arrayidx78, align 4, !dbg !1448
  %call79 = call float @_ZL6max_ffff(float %61, float %64), !dbg !1452
  %65 = load %struct.SweepCost*, %struct.SweepCost** %sweep, align 8, !dbg !1453
  %66 = load i32, i32* %i, align 4, !dbg !1454
  %idxprom80 = sext i32 %66 to i64, !dbg !1453
  %arrayidx81 = getelementptr inbounds %struct.SweepCost, %struct.SweepCost* %65, i64 %idxprom80, !dbg !1453
  %bb82 = getelementptr inbounds %struct.SweepCost, %struct.SweepCost* %arrayidx81, i32 0, i32 0, !dbg !1455
  %arrayidx83 = getelementptr inbounds [6 x float], [6 x float]* %bb82, i64 0, i64 3, !dbg !1453
  store float %call79, float* %arrayidx83, align 4, !dbg !1456
  %67 = load %"struct.RTBuilder::Object"**, %"struct.RTBuilder::Object"*** %obj, align 8, !dbg !1457
  %68 = load i32, i32* %i, align 4, !dbg !1458
  %idxprom84 = sext i32 %68 to i64, !dbg !1457
  %arrayidx85 = getelementptr inbounds %"struct.RTBuilder::Object"*, %"struct.RTBuilder::Object"** %67, i64 %idxprom84, !dbg !1457
  %69 = load %"struct.RTBuilder::Object"*, %"struct.RTBuilder::Object"** %arrayidx85, align 8, !dbg !1457
  %bb86 = getelementptr inbounds %"struct.RTBuilder::Object", %"struct.RTBuilder::Object"* %69, i32 0, i32 2, !dbg !1459
  %arrayidx87 = getelementptr inbounds [6 x float], [6 x float]* %bb86, i64 0, i64 4, !dbg !1457
  %70 = load float, float* %arrayidx87, align 4, !dbg !1457
  %71 = load %struct.SweepCost*, %struct.SweepCost** %sweep, align 8, !dbg !1460
  %72 = load i32, i32* %i, align 4, !dbg !1461
  %add88 = add nsw i32 %72, 1, !dbg !1462
  %idxprom89 = sext i32 %add88 to i64, !dbg !1460
  %arrayidx90 = getelementptr inbounds %struct.SweepCost, %struct.SweepCost* %71, i64 %idxprom89, !dbg !1460
  %bb91 = getelementptr inbounds %struct.SweepCost, %struct.SweepCost* %arrayidx90, i32 0, i32 0, !dbg !1463
  %arrayidx92 = getelementptr inbounds [6 x float], [6 x float]* %bb91, i64 0, i64 4, !dbg !1460
  %73 = load float, float* %arrayidx92, align 4, !dbg !1460
  %call93 = call float @_ZL6max_ffff(float %70, float %73), !dbg !1464
  %74 = load %struct.SweepCost*, %struct.SweepCost** %sweep, align 8, !dbg !1465
  %75 = load i32, i32* %i, align 4, !dbg !1466
  %idxprom94 = sext i32 %75 to i64, !dbg !1465
  %arrayidx95 = getelementptr inbounds %struct.SweepCost, %struct.SweepCost* %74, i64 %idxprom94, !dbg !1465
  %bb96 = getelementptr inbounds %struct.SweepCost, %struct.SweepCost* %arrayidx95, i32 0, i32 0, !dbg !1467
  %arrayidx97 = getelementptr inbounds [6 x float], [6 x float]* %bb96, i64 0, i64 4, !dbg !1465
  store float %call93, float* %arrayidx97, align 4, !dbg !1468
  %76 = load %"struct.RTBuilder::Object"**, %"struct.RTBuilder::Object"*** %obj, align 8, !dbg !1469
  %77 = load i32, i32* %i, align 4, !dbg !1470
  %idxprom98 = sext i32 %77 to i64, !dbg !1469
  %arrayidx99 = getelementptr inbounds %"struct.RTBuilder::Object"*, %"struct.RTBuilder::Object"** %76, i64 %idxprom98, !dbg !1469
  %78 = load %"struct.RTBuilder::Object"*, %"struct.RTBuilder::Object"** %arrayidx99, align 8, !dbg !1469
  %bb100 = getelementptr inbounds %"struct.RTBuilder::Object", %"struct.RTBuilder::Object"* %78, i32 0, i32 2, !dbg !1471
  %arrayidx101 = getelementptr inbounds [6 x float], [6 x float]* %bb100, i64 0, i64 5, !dbg !1469
  %79 = load float, float* %arrayidx101, align 4, !dbg !1469
  %80 = load %struct.SweepCost*, %struct.SweepCost** %sweep, align 8, !dbg !1472
  %81 = load i32, i32* %i, align 4, !dbg !1473
  %add102 = add nsw i32 %81, 1, !dbg !1474
  %idxprom103 = sext i32 %add102 to i64, !dbg !1472
  %arrayidx104 = getelementptr inbounds %struct.SweepCost, %struct.SweepCost* %80, i64 %idxprom103, !dbg !1472
  %bb105 = getelementptr inbounds %struct.SweepCost, %struct.SweepCost* %arrayidx104, i32 0, i32 0, !dbg !1475
  %arrayidx106 = getelementptr inbounds [6 x float], [6 x float]* %bb105, i64 0, i64 5, !dbg !1472
  %82 = load float, float* %arrayidx106, align 4, !dbg !1472
  %call107 = call float @_ZL6max_ffff(float %79, float %82), !dbg !1476
  %83 = load %struct.SweepCost*, %struct.SweepCost** %sweep, align 8, !dbg !1477
  %84 = load i32, i32* %i, align 4, !dbg !1478
  %idxprom108 = sext i32 %84 to i64, !dbg !1477
  %arrayidx109 = getelementptr inbounds %struct.SweepCost, %struct.SweepCost* %83, i64 %idxprom108, !dbg !1477
  %bb110 = getelementptr inbounds %struct.SweepCost, %struct.SweepCost* %arrayidx109, i32 0, i32 0, !dbg !1479
  %arrayidx111 = getelementptr inbounds [6 x float], [6 x float]* %bb110, i64 0, i64 5, !dbg !1477
  store float %call107, float* %arrayidx111, align 4, !dbg !1480
  %85 = load %"struct.RTBuilder::Object"**, %"struct.RTBuilder::Object"*** %obj, align 8, !dbg !1481
  %86 = load i32, i32* %i, align 4, !dbg !1482
  %idxprom112 = sext i32 %86 to i64, !dbg !1481
  %arrayidx113 = getelementptr inbounds %"struct.RTBuilder::Object"*, %"struct.RTBuilder::Object"** %85, i64 %idxprom112, !dbg !1481
  %87 = load %"struct.RTBuilder::Object"*, %"struct.RTBuilder::Object"** %arrayidx113, align 8, !dbg !1481
  %cost114 = getelementptr inbounds %"struct.RTBuilder::Object", %"struct.RTBuilder::Object"* %87, i32 0, i32 1, !dbg !1483
  %88 = load float, float* %cost114, align 8, !dbg !1483
  %89 = load %struct.SweepCost*, %struct.SweepCost** %sweep, align 8, !dbg !1484
  %90 = load i32, i32* %i, align 4, !dbg !1485
  %add115 = add nsw i32 %90, 1, !dbg !1486
  %idxprom116 = sext i32 %add115 to i64, !dbg !1484
  %arrayidx117 = getelementptr inbounds %struct.SweepCost, %struct.SweepCost* %89, i64 %idxprom116, !dbg !1484
  %cost118 = getelementptr inbounds %struct.SweepCost, %struct.SweepCost* %arrayidx117, i32 0, i32 1, !dbg !1487
  %91 = load float, float* %cost118, align 4, !dbg !1487
  %add119 = fadd float %88, %91, !dbg !1488
  %92 = load %struct.SweepCost*, %struct.SweepCost** %sweep, align 8, !dbg !1489
  %93 = load i32, i32* %i, align 4, !dbg !1490
  %idxprom120 = sext i32 %93 to i64, !dbg !1489
  %arrayidx121 = getelementptr inbounds %struct.SweepCost, %struct.SweepCost* %92, i64 %idxprom120, !dbg !1489
  %cost122 = getelementptr inbounds %struct.SweepCost, %struct.SweepCost* %arrayidx121, i32 0, i32 1, !dbg !1491
  store float %add119, float* %cost122, align 4, !dbg !1492
  br label %if.end

if.end:                                           ; preds = %if.else, %if.then8
  br label %for.inc, !dbg !1493

for.inc:                                          ; preds = %if.end
  %94 = load i32, i32* %i, align 4, !dbg !1494
  %dec = add nsw i32 %94, -1, !dbg !1494
  store i32 %dec, i32* %i, align 4, !dbg !1494
  br label %for.cond3, !dbg !1495, !llvm.loop !1496

for.end:                                          ; preds = %for.cond3
  %95 = load %"struct.RTBuilder::Object"**, %"struct.RTBuilder::Object"*** %obj, align 8, !dbg !1498
  %arrayidx123 = getelementptr inbounds %"struct.RTBuilder::Object"*, %"struct.RTBuilder::Object"** %95, i64 0, !dbg !1498
  %96 = load %"struct.RTBuilder::Object"*, %"struct.RTBuilder::Object"** %arrayidx123, align 8, !dbg !1498
  %bb124 = getelementptr inbounds %"struct.RTBuilder::Object", %"struct.RTBuilder::Object"* %96, i32 0, i32 2, !dbg !1499
  %arrayidx125 = getelementptr inbounds [6 x float], [6 x float]* %bb124, i64 0, i64 0, !dbg !1498
  %97 = load float, float* %arrayidx125, align 4, !dbg !1498
  %bb126 = getelementptr inbounds %struct.SweepCost, %struct.SweepCost* %sweep_left, i32 0, i32 0, !dbg !1500
  %arrayidx127 = getelementptr inbounds [6 x float], [6 x float]* %bb126, i64 0, i64 0, !dbg !1501
  store float %97, float* %arrayidx127, align 4, !dbg !1502
  %98 = load %"struct.RTBuilder::Object"**, %"struct.RTBuilder::Object"*** %obj, align 8, !dbg !1503
  %arrayidx128 = getelementptr inbounds %"struct.RTBuilder::Object"*, %"struct.RTBuilder::Object"** %98, i64 0, !dbg !1503
  %99 = load %"struct.RTBuilder::Object"*, %"struct.RTBuilder::Object"** %arrayidx128, align 8, !dbg !1503
  %bb129 = getelementptr inbounds %"struct.RTBuilder::Object", %"struct.RTBuilder::Object"* %99, i32 0, i32 2, !dbg !1504
  %arrayidx130 = getelementptr inbounds [6 x float], [6 x float]* %bb129, i64 0, i64 1, !dbg !1503
  %100 = load float, float* %arrayidx130, align 4, !dbg !1503
  %bb131 = getelementptr inbounds %struct.SweepCost, %struct.SweepCost* %sweep_left, i32 0, i32 0, !dbg !1505
  %arrayidx132 = getelementptr inbounds [6 x float], [6 x float]* %bb131, i64 0, i64 1, !dbg !1506
  store float %100, float* %arrayidx132, align 4, !dbg !1507
  %101 = load %"struct.RTBuilder::Object"**, %"struct.RTBuilder::Object"*** %obj, align 8, !dbg !1508
  %arrayidx133 = getelementptr inbounds %"struct.RTBuilder::Object"*, %"struct.RTBuilder::Object"** %101, i64 0, !dbg !1508
  %102 = load %"struct.RTBuilder::Object"*, %"struct.RTBuilder::Object"** %arrayidx133, align 8, !dbg !1508
  %bb134 = getelementptr inbounds %"struct.RTBuilder::Object", %"struct.RTBuilder::Object"* %102, i32 0, i32 2, !dbg !1509
  %arrayidx135 = getelementptr inbounds [6 x float], [6 x float]* %bb134, i64 0, i64 2, !dbg !1508
  %103 = load float, float* %arrayidx135, align 4, !dbg !1508
  %bb136 = getelementptr inbounds %struct.SweepCost, %struct.SweepCost* %sweep_left, i32 0, i32 0, !dbg !1510
  %arrayidx137 = getelementptr inbounds [6 x float], [6 x float]* %bb136, i64 0, i64 2, !dbg !1511
  store float %103, float* %arrayidx137, align 4, !dbg !1512
  %104 = load %"struct.RTBuilder::Object"**, %"struct.RTBuilder::Object"*** %obj, align 8, !dbg !1513
  %arrayidx138 = getelementptr inbounds %"struct.RTBuilder::Object"*, %"struct.RTBuilder::Object"** %104, i64 0, !dbg !1513
  %105 = load %"struct.RTBuilder::Object"*, %"struct.RTBuilder::Object"** %arrayidx138, align 8, !dbg !1513
  %bb139 = getelementptr inbounds %"struct.RTBuilder::Object", %"struct.RTBuilder::Object"* %105, i32 0, i32 2, !dbg !1514
  %arrayidx140 = getelementptr inbounds [6 x float], [6 x float]* %bb139, i64 0, i64 3, !dbg !1513
  %106 = load float, float* %arrayidx140, align 4, !dbg !1513
  %bb141 = getelementptr inbounds %struct.SweepCost, %struct.SweepCost* %sweep_left, i32 0, i32 0, !dbg !1515
  %arrayidx142 = getelementptr inbounds [6 x float], [6 x float]* %bb141, i64 0, i64 3, !dbg !1516
  store float %106, float* %arrayidx142, align 4, !dbg !1517
  %107 = load %"struct.RTBuilder::Object"**, %"struct.RTBuilder::Object"*** %obj, align 8, !dbg !1518
  %arrayidx143 = getelementptr inbounds %"struct.RTBuilder::Object"*, %"struct.RTBuilder::Object"** %107, i64 0, !dbg !1518
  %108 = load %"struct.RTBuilder::Object"*, %"struct.RTBuilder::Object"** %arrayidx143, align 8, !dbg !1518
  %bb144 = getelementptr inbounds %"struct.RTBuilder::Object", %"struct.RTBuilder::Object"* %108, i32 0, i32 2, !dbg !1519
  %arrayidx145 = getelementptr inbounds [6 x float], [6 x float]* %bb144, i64 0, i64 4, !dbg !1518
  %109 = load float, float* %arrayidx145, align 4, !dbg !1518
  %bb146 = getelementptr inbounds %struct.SweepCost, %struct.SweepCost* %sweep_left, i32 0, i32 0, !dbg !1520
  %arrayidx147 = getelementptr inbounds [6 x float], [6 x float]* %bb146, i64 0, i64 4, !dbg !1521
  store float %109, float* %arrayidx147, align 4, !dbg !1522
  %110 = load %"struct.RTBuilder::Object"**, %"struct.RTBuilder::Object"*** %obj, align 8, !dbg !1523
  %arrayidx148 = getelementptr inbounds %"struct.RTBuilder::Object"*, %"struct.RTBuilder::Object"** %110, i64 0, !dbg !1523
  %111 = load %"struct.RTBuilder::Object"*, %"struct.RTBuilder::Object"** %arrayidx148, align 8, !dbg !1523
  %bb149 = getelementptr inbounds %"struct.RTBuilder::Object", %"struct.RTBuilder::Object"* %111, i32 0, i32 2, !dbg !1524
  %arrayidx150 = getelementptr inbounds [6 x float], [6 x float]* %bb149, i64 0, i64 5, !dbg !1523
  %112 = load float, float* %arrayidx150, align 4, !dbg !1523
  %bb151 = getelementptr inbounds %struct.SweepCost, %struct.SweepCost* %sweep_left, i32 0, i32 0, !dbg !1525
  %arrayidx152 = getelementptr inbounds [6 x float], [6 x float]* %bb151, i64 0, i64 5, !dbg !1526
  store float %112, float* %arrayidx152, align 4, !dbg !1527
  %113 = load %"struct.RTBuilder::Object"**, %"struct.RTBuilder::Object"*** %obj, align 8, !dbg !1528
  %arrayidx153 = getelementptr inbounds %"struct.RTBuilder::Object"*, %"struct.RTBuilder::Object"** %113, i64 0, !dbg !1528
  %114 = load %"struct.RTBuilder::Object"*, %"struct.RTBuilder::Object"** %arrayidx153, align 8, !dbg !1528
  %cost154 = getelementptr inbounds %"struct.RTBuilder::Object", %"struct.RTBuilder::Object"* %114, i32 0, i32 1, !dbg !1529
  %115 = load float, float* %cost154, align 8, !dbg !1529
  %cost155 = getelementptr inbounds %struct.SweepCost, %struct.SweepCost* %sweep_left, i32 0, i32 1, !dbg !1530
  store float %115, float* %cost155, align 4, !dbg !1531
  call void @llvm.dbg.declare(metadata i32* %i156, metadata !1532, metadata !DIExpression()), !dbg !1534
  store i32 1, i32* %i156, align 4, !dbg !1534
  br label %for.cond157, !dbg !1535

for.cond157:                                      ; preds = %for.inc310, %for.end
  %116 = load i32, i32* %i156, align 4, !dbg !1536
  %117 = load i32, i32* %size, align 4, !dbg !1538
  %cmp158 = icmp slt i32 %116, %117, !dbg !1539
  br i1 %cmp158, label %for.body159, label %for.end311, !dbg !1540

for.body159:                                      ; preds = %for.cond157
  call void @llvm.dbg.declare(metadata float* %hcost, metadata !1541, metadata !DIExpression()), !dbg !1543
  call void @llvm.dbg.declare(metadata float* %left_side, metadata !1544, metadata !DIExpression()), !dbg !1545
  call void @llvm.dbg.declare(metadata float* %right_side, metadata !1546, metadata !DIExpression()), !dbg !1547
  %bb160 = getelementptr inbounds %struct.SweepCost, %struct.SweepCost* %sweep_left, i32 0, i32 0, !dbg !1548
  %arraydecay161 = getelementptr inbounds [6 x float], [6 x float]* %bb160, i64 0, i64 0, !dbg !1549
  %bb162 = getelementptr inbounds %struct.SweepCost, %struct.SweepCost* %sweep_left, i32 0, i32 0, !dbg !1550
  %arraydecay163 = getelementptr inbounds [6 x float], [6 x float]* %bb162, i64 0, i64 0, !dbg !1551
  %add.ptr164 = getelementptr inbounds float, float* %arraydecay163, i64 3, !dbg !1552
  %call165 = call float @bb_area(float* %arraydecay161, float* %add.ptr164), !dbg !1553
  %cost166 = getelementptr inbounds %struct.SweepCost, %struct.SweepCost* %sweep_left, i32 0, i32 1, !dbg !1554
  %118 = load float, float* %cost166, align 4, !dbg !1554
  %mul167 = fmul float %call165, %118, !dbg !1555
  store float %mul167, float* %left_side, align 4, !dbg !1556
  %119 = load %struct.SweepCost*, %struct.SweepCost** %sweep, align 8, !dbg !1557
  %120 = load i32, i32* %i156, align 4, !dbg !1558
  %idxprom168 = sext i32 %120 to i64, !dbg !1557
  %arrayidx169 = getelementptr inbounds %struct.SweepCost, %struct.SweepCost* %119, i64 %idxprom168, !dbg !1557
  %bb170 = getelementptr inbounds %struct.SweepCost, %struct.SweepCost* %arrayidx169, i32 0, i32 0, !dbg !1559
  %arraydecay171 = getelementptr inbounds [6 x float], [6 x float]* %bb170, i64 0, i64 0, !dbg !1557
  %121 = load %struct.SweepCost*, %struct.SweepCost** %sweep, align 8, !dbg !1560
  %122 = load i32, i32* %i156, align 4, !dbg !1561
  %idxprom172 = sext i32 %122 to i64, !dbg !1560
  %arrayidx173 = getelementptr inbounds %struct.SweepCost, %struct.SweepCost* %121, i64 %idxprom172, !dbg !1560
  %bb174 = getelementptr inbounds %struct.SweepCost, %struct.SweepCost* %arrayidx173, i32 0, i32 0, !dbg !1562
  %arraydecay175 = getelementptr inbounds [6 x float], [6 x float]* %bb174, i64 0, i64 0, !dbg !1560
  %add.ptr176 = getelementptr inbounds float, float* %arraydecay175, i64 3, !dbg !1563
  %call177 = call float @bb_area(float* %arraydecay171, float* %add.ptr176), !dbg !1564
  %123 = load %struct.SweepCost*, %struct.SweepCost** %sweep, align 8, !dbg !1565
  %124 = load i32, i32* %i156, align 4, !dbg !1566
  %idxprom178 = sext i32 %124 to i64, !dbg !1565
  %arrayidx179 = getelementptr inbounds %struct.SweepCost, %struct.SweepCost* %123, i64 %idxprom178, !dbg !1565
  %cost180 = getelementptr inbounds %struct.SweepCost, %struct.SweepCost* %arrayidx179, i32 0, i32 1, !dbg !1567
  %125 = load float, float* %cost180, align 4, !dbg !1567
  %mul181 = fmul float %call177, %125, !dbg !1568
  store float %mul181, float* %right_side, align 4, !dbg !1569
  %126 = load float, float* %left_side, align 4, !dbg !1570
  %127 = load float, float* %right_side, align 4, !dbg !1571
  %add182 = fadd float %126, %127, !dbg !1572
  store float %add182, float* %hcost, align 4, !dbg !1573
  %128 = load float, float* %left_side, align 4, !dbg !1574
  %129 = load float, float* %bcost, align 4, !dbg !1576
  %cmp183 = fcmp ogt float %128, %129, !dbg !1577
  br i1 %cmp183, label %if.then184, label %if.end185, !dbg !1578

if.then184:                                       ; preds = %for.body159
  br label %for.end311, !dbg !1579

if.end185:                                        ; preds = %for.body159
  %130 = load float, float* %hcost, align 4, !dbg !1580
  %131 = load float, float* %bcost, align 4, !dbg !1582
  %cmp186 = fcmp olt float %130, %131, !dbg !1583
  br i1 %cmp186, label %if.then189, label %lor.lhs.false, !dbg !1584

lor.lhs.false:                                    ; preds = %if.end185
  %132 = load float, float* %hcost, align 4, !dbg !1585
  %133 = load float, float* %bcost, align 4, !dbg !1586
  %cmp187 = fcmp oeq float %132, %133, !dbg !1587
  br i1 %cmp187, label %land.lhs.true, label %if.end190, !dbg !1588

land.lhs.true:                                    ; preds = %lor.lhs.false
  %134 = load i32, i32* %axis, align 4, !dbg !1589
  %135 = load i32, i32* %baxis, align 4, !dbg !1590
  %cmp188 = icmp slt i32 %134, %135, !dbg !1591
  br i1 %cmp188, label %if.then189, label %if.end190, !dbg !1592

if.then189:                                       ; preds = %land.lhs.true, %if.end185
  %136 = load float, float* %hcost, align 4, !dbg !1593
  store float %136, float* %bcost, align 4, !dbg !1595
  %137 = load i32, i32* %axis, align 4, !dbg !1596
  store i32 %137, i32* %baxis, align 4, !dbg !1597
  %138 = load i32, i32* %i156, align 4, !dbg !1598
  store i32 %138, i32* %boffset, align 4, !dbg !1599
  br label %if.end190, !dbg !1600

if.end190:                                        ; preds = %if.then189, %land.lhs.true, %lor.lhs.false
  %bb191 = getelementptr inbounds %struct.SweepCost, %struct.SweepCost* %sweep_left, i32 0, i32 0, !dbg !1601
  %arrayidx192 = getelementptr inbounds [6 x float], [6 x float]* %bb191, i64 0, i64 0, !dbg !1601
  %139 = load float, float* %arrayidx192, align 4, !dbg !1601
  %140 = load %"struct.RTBuilder::Object"**, %"struct.RTBuilder::Object"*** %obj, align 8, !dbg !1601
  %141 = load i32, i32* %i156, align 4, !dbg !1601
  %idxprom193 = sext i32 %141 to i64, !dbg !1601
  %arrayidx194 = getelementptr inbounds %"struct.RTBuilder::Object"*, %"struct.RTBuilder::Object"** %140, i64 %idxprom193, !dbg !1601
  %142 = load %"struct.RTBuilder::Object"*, %"struct.RTBuilder::Object"** %arrayidx194, align 8, !dbg !1601
  %bb195 = getelementptr inbounds %"struct.RTBuilder::Object", %"struct.RTBuilder::Object"* %142, i32 0, i32 2, !dbg !1601
  %arrayidx196 = getelementptr inbounds [6 x float], [6 x float]* %bb195, i64 0, i64 0, !dbg !1601
  %143 = load float, float* %arrayidx196, align 4, !dbg !1601
  %cmp197 = fcmp ogt float %139, %143, !dbg !1601
  br i1 %cmp197, label %if.then198, label %if.end205, !dbg !1604

if.then198:                                       ; preds = %if.end190
  %144 = load %"struct.RTBuilder::Object"**, %"struct.RTBuilder::Object"*** %obj, align 8, !dbg !1601
  %145 = load i32, i32* %i156, align 4, !dbg !1601
  %idxprom199 = sext i32 %145 to i64, !dbg !1601
  %arrayidx200 = getelementptr inbounds %"struct.RTBuilder::Object"*, %"struct.RTBuilder::Object"** %144, i64 %idxprom199, !dbg !1601
  %146 = load %"struct.RTBuilder::Object"*, %"struct.RTBuilder::Object"** %arrayidx200, align 8, !dbg !1601
  %bb201 = getelementptr inbounds %"struct.RTBuilder::Object", %"struct.RTBuilder::Object"* %146, i32 0, i32 2, !dbg !1601
  %arrayidx202 = getelementptr inbounds [6 x float], [6 x float]* %bb201, i64 0, i64 0, !dbg !1601
  %147 = load float, float* %arrayidx202, align 4, !dbg !1601
  %bb203 = getelementptr inbounds %struct.SweepCost, %struct.SweepCost* %sweep_left, i32 0, i32 0, !dbg !1601
  %arrayidx204 = getelementptr inbounds [6 x float], [6 x float]* %bb203, i64 0, i64 0, !dbg !1601
  store float %147, float* %arrayidx204, align 4, !dbg !1601
  br label %if.end205, !dbg !1601

if.end205:                                        ; preds = %if.then198, %if.end190
  %bb206 = getelementptr inbounds %struct.SweepCost, %struct.SweepCost* %sweep_left, i32 0, i32 0, !dbg !1605
  %arrayidx207 = getelementptr inbounds [6 x float], [6 x float]* %bb206, i64 0, i64 1, !dbg !1605
  %148 = load float, float* %arrayidx207, align 4, !dbg !1605
  %149 = load %"struct.RTBuilder::Object"**, %"struct.RTBuilder::Object"*** %obj, align 8, !dbg !1605
  %150 = load i32, i32* %i156, align 4, !dbg !1605
  %idxprom208 = sext i32 %150 to i64, !dbg !1605
  %arrayidx209 = getelementptr inbounds %"struct.RTBuilder::Object"*, %"struct.RTBuilder::Object"** %149, i64 %idxprom208, !dbg !1605
  %151 = load %"struct.RTBuilder::Object"*, %"struct.RTBuilder::Object"** %arrayidx209, align 8, !dbg !1605
  %bb210 = getelementptr inbounds %"struct.RTBuilder::Object", %"struct.RTBuilder::Object"* %151, i32 0, i32 2, !dbg !1605
  %arrayidx211 = getelementptr inbounds [6 x float], [6 x float]* %bb210, i64 0, i64 1, !dbg !1605
  %152 = load float, float* %arrayidx211, align 4, !dbg !1605
  %cmp212 = fcmp ogt float %148, %152, !dbg !1605
  br i1 %cmp212, label %if.then213, label %if.end220, !dbg !1604

if.then213:                                       ; preds = %if.end205
  %153 = load %"struct.RTBuilder::Object"**, %"struct.RTBuilder::Object"*** %obj, align 8, !dbg !1605
  %154 = load i32, i32* %i156, align 4, !dbg !1605
  %idxprom214 = sext i32 %154 to i64, !dbg !1605
  %arrayidx215 = getelementptr inbounds %"struct.RTBuilder::Object"*, %"struct.RTBuilder::Object"** %153, i64 %idxprom214, !dbg !1605
  %155 = load %"struct.RTBuilder::Object"*, %"struct.RTBuilder::Object"** %arrayidx215, align 8, !dbg !1605
  %bb216 = getelementptr inbounds %"struct.RTBuilder::Object", %"struct.RTBuilder::Object"* %155, i32 0, i32 2, !dbg !1605
  %arrayidx217 = getelementptr inbounds [6 x float], [6 x float]* %bb216, i64 0, i64 1, !dbg !1605
  %156 = load float, float* %arrayidx217, align 4, !dbg !1605
  %bb218 = getelementptr inbounds %struct.SweepCost, %struct.SweepCost* %sweep_left, i32 0, i32 0, !dbg !1605
  %arrayidx219 = getelementptr inbounds [6 x float], [6 x float]* %bb218, i64 0, i64 1, !dbg !1605
  store float %156, float* %arrayidx219, align 4, !dbg !1605
  br label %if.end220, !dbg !1605

if.end220:                                        ; preds = %if.then213, %if.end205
  %bb221 = getelementptr inbounds %struct.SweepCost, %struct.SweepCost* %sweep_left, i32 0, i32 0, !dbg !1607
  %arrayidx222 = getelementptr inbounds [6 x float], [6 x float]* %bb221, i64 0, i64 2, !dbg !1607
  %157 = load float, float* %arrayidx222, align 4, !dbg !1607
  %158 = load %"struct.RTBuilder::Object"**, %"struct.RTBuilder::Object"*** %obj, align 8, !dbg !1607
  %159 = load i32, i32* %i156, align 4, !dbg !1607
  %idxprom223 = sext i32 %159 to i64, !dbg !1607
  %arrayidx224 = getelementptr inbounds %"struct.RTBuilder::Object"*, %"struct.RTBuilder::Object"** %158, i64 %idxprom223, !dbg !1607
  %160 = load %"struct.RTBuilder::Object"*, %"struct.RTBuilder::Object"** %arrayidx224, align 8, !dbg !1607
  %bb225 = getelementptr inbounds %"struct.RTBuilder::Object", %"struct.RTBuilder::Object"* %160, i32 0, i32 2, !dbg !1607
  %arrayidx226 = getelementptr inbounds [6 x float], [6 x float]* %bb225, i64 0, i64 2, !dbg !1607
  %161 = load float, float* %arrayidx226, align 4, !dbg !1607
  %cmp227 = fcmp ogt float %157, %161, !dbg !1607
  br i1 %cmp227, label %if.then228, label %if.end235, !dbg !1604

if.then228:                                       ; preds = %if.end220
  %162 = load %"struct.RTBuilder::Object"**, %"struct.RTBuilder::Object"*** %obj, align 8, !dbg !1607
  %163 = load i32, i32* %i156, align 4, !dbg !1607
  %idxprom229 = sext i32 %163 to i64, !dbg !1607
  %arrayidx230 = getelementptr inbounds %"struct.RTBuilder::Object"*, %"struct.RTBuilder::Object"** %162, i64 %idxprom229, !dbg !1607
  %164 = load %"struct.RTBuilder::Object"*, %"struct.RTBuilder::Object"** %arrayidx230, align 8, !dbg !1607
  %bb231 = getelementptr inbounds %"struct.RTBuilder::Object", %"struct.RTBuilder::Object"* %164, i32 0, i32 2, !dbg !1607
  %arrayidx232 = getelementptr inbounds [6 x float], [6 x float]* %bb231, i64 0, i64 2, !dbg !1607
  %165 = load float, float* %arrayidx232, align 4, !dbg !1607
  %bb233 = getelementptr inbounds %struct.SweepCost, %struct.SweepCost* %sweep_left, i32 0, i32 0, !dbg !1607
  %arrayidx234 = getelementptr inbounds [6 x float], [6 x float]* %bb233, i64 0, i64 2, !dbg !1607
  store float %165, float* %arrayidx234, align 4, !dbg !1607
  br label %if.end235, !dbg !1607

if.end235:                                        ; preds = %if.then228, %if.end220
  %bb236 = getelementptr inbounds %struct.SweepCost, %struct.SweepCost* %sweep_left, i32 0, i32 0, !dbg !1609
  %arraydecay237 = getelementptr inbounds [6 x float], [6 x float]* %bb236, i64 0, i64 0, !dbg !1609
  %add.ptr238 = getelementptr inbounds float, float* %arraydecay237, i64 3, !dbg !1609
  %arrayidx239 = getelementptr inbounds float, float* %add.ptr238, i64 0, !dbg !1609
  %166 = load float, float* %arrayidx239, align 4, !dbg !1609
  %167 = load %"struct.RTBuilder::Object"**, %"struct.RTBuilder::Object"*** %obj, align 8, !dbg !1609
  %168 = load i32, i32* %i156, align 4, !dbg !1609
  %idxprom240 = sext i32 %168 to i64, !dbg !1609
  %arrayidx241 = getelementptr inbounds %"struct.RTBuilder::Object"*, %"struct.RTBuilder::Object"** %167, i64 %idxprom240, !dbg !1609
  %169 = load %"struct.RTBuilder::Object"*, %"struct.RTBuilder::Object"** %arrayidx241, align 8, !dbg !1609
  %bb242 = getelementptr inbounds %"struct.RTBuilder::Object", %"struct.RTBuilder::Object"* %169, i32 0, i32 2, !dbg !1609
  %arraydecay243 = getelementptr inbounds [6 x float], [6 x float]* %bb242, i64 0, i64 0, !dbg !1609
  %add.ptr244 = getelementptr inbounds float, float* %arraydecay243, i64 3, !dbg !1609
  %arrayidx245 = getelementptr inbounds float, float* %add.ptr244, i64 0, !dbg !1609
  %170 = load float, float* %arrayidx245, align 4, !dbg !1609
  %cmp246 = fcmp olt float %166, %170, !dbg !1609
  br i1 %cmp246, label %if.then247, label %if.end258, !dbg !1612

if.then247:                                       ; preds = %if.end235
  %171 = load %"struct.RTBuilder::Object"**, %"struct.RTBuilder::Object"*** %obj, align 8, !dbg !1609
  %172 = load i32, i32* %i156, align 4, !dbg !1609
  %idxprom248 = sext i32 %172 to i64, !dbg !1609
  %arrayidx249 = getelementptr inbounds %"struct.RTBuilder::Object"*, %"struct.RTBuilder::Object"** %171, i64 %idxprom248, !dbg !1609
  %173 = load %"struct.RTBuilder::Object"*, %"struct.RTBuilder::Object"** %arrayidx249, align 8, !dbg !1609
  %bb250 = getelementptr inbounds %"struct.RTBuilder::Object", %"struct.RTBuilder::Object"* %173, i32 0, i32 2, !dbg !1609
  %arraydecay251 = getelementptr inbounds [6 x float], [6 x float]* %bb250, i64 0, i64 0, !dbg !1609
  %add.ptr252 = getelementptr inbounds float, float* %arraydecay251, i64 3, !dbg !1609
  %arrayidx253 = getelementptr inbounds float, float* %add.ptr252, i64 0, !dbg !1609
  %174 = load float, float* %arrayidx253, align 4, !dbg !1609
  %bb254 = getelementptr inbounds %struct.SweepCost, %struct.SweepCost* %sweep_left, i32 0, i32 0, !dbg !1609
  %arraydecay255 = getelementptr inbounds [6 x float], [6 x float]* %bb254, i64 0, i64 0, !dbg !1609
  %add.ptr256 = getelementptr inbounds float, float* %arraydecay255, i64 3, !dbg !1609
  %arrayidx257 = getelementptr inbounds float, float* %add.ptr256, i64 0, !dbg !1609
  store float %174, float* %arrayidx257, align 4, !dbg !1609
  br label %if.end258, !dbg !1609

if.end258:                                        ; preds = %if.then247, %if.end235
  %bb259 = getelementptr inbounds %struct.SweepCost, %struct.SweepCost* %sweep_left, i32 0, i32 0, !dbg !1613
  %arraydecay260 = getelementptr inbounds [6 x float], [6 x float]* %bb259, i64 0, i64 0, !dbg !1613
  %add.ptr261 = getelementptr inbounds float, float* %arraydecay260, i64 3, !dbg !1613
  %arrayidx262 = getelementptr inbounds float, float* %add.ptr261, i64 1, !dbg !1613
  %175 = load float, float* %arrayidx262, align 4, !dbg !1613
  %176 = load %"struct.RTBuilder::Object"**, %"struct.RTBuilder::Object"*** %obj, align 8, !dbg !1613
  %177 = load i32, i32* %i156, align 4, !dbg !1613
  %idxprom263 = sext i32 %177 to i64, !dbg !1613
  %arrayidx264 = getelementptr inbounds %"struct.RTBuilder::Object"*, %"struct.RTBuilder::Object"** %176, i64 %idxprom263, !dbg !1613
  %178 = load %"struct.RTBuilder::Object"*, %"struct.RTBuilder::Object"** %arrayidx264, align 8, !dbg !1613
  %bb265 = getelementptr inbounds %"struct.RTBuilder::Object", %"struct.RTBuilder::Object"* %178, i32 0, i32 2, !dbg !1613
  %arraydecay266 = getelementptr inbounds [6 x float], [6 x float]* %bb265, i64 0, i64 0, !dbg !1613
  %add.ptr267 = getelementptr inbounds float, float* %arraydecay266, i64 3, !dbg !1613
  %arrayidx268 = getelementptr inbounds float, float* %add.ptr267, i64 1, !dbg !1613
  %179 = load float, float* %arrayidx268, align 4, !dbg !1613
  %cmp269 = fcmp olt float %175, %179, !dbg !1613
  br i1 %cmp269, label %if.then270, label %if.end281, !dbg !1612

if.then270:                                       ; preds = %if.end258
  %180 = load %"struct.RTBuilder::Object"**, %"struct.RTBuilder::Object"*** %obj, align 8, !dbg !1613
  %181 = load i32, i32* %i156, align 4, !dbg !1613
  %idxprom271 = sext i32 %181 to i64, !dbg !1613
  %arrayidx272 = getelementptr inbounds %"struct.RTBuilder::Object"*, %"struct.RTBuilder::Object"** %180, i64 %idxprom271, !dbg !1613
  %182 = load %"struct.RTBuilder::Object"*, %"struct.RTBuilder::Object"** %arrayidx272, align 8, !dbg !1613
  %bb273 = getelementptr inbounds %"struct.RTBuilder::Object", %"struct.RTBuilder::Object"* %182, i32 0, i32 2, !dbg !1613
  %arraydecay274 = getelementptr inbounds [6 x float], [6 x float]* %bb273, i64 0, i64 0, !dbg !1613
  %add.ptr275 = getelementptr inbounds float, float* %arraydecay274, i64 3, !dbg !1613
  %arrayidx276 = getelementptr inbounds float, float* %add.ptr275, i64 1, !dbg !1613
  %183 = load float, float* %arrayidx276, align 4, !dbg !1613
  %bb277 = getelementptr inbounds %struct.SweepCost, %struct.SweepCost* %sweep_left, i32 0, i32 0, !dbg !1613
  %arraydecay278 = getelementptr inbounds [6 x float], [6 x float]* %bb277, i64 0, i64 0, !dbg !1613
  %add.ptr279 = getelementptr inbounds float, float* %arraydecay278, i64 3, !dbg !1613
  %arrayidx280 = getelementptr inbounds float, float* %add.ptr279, i64 1, !dbg !1613
  store float %183, float* %arrayidx280, align 4, !dbg !1613
  br label %if.end281, !dbg !1613

if.end281:                                        ; preds = %if.then270, %if.end258
  %bb282 = getelementptr inbounds %struct.SweepCost, %struct.SweepCost* %sweep_left, i32 0, i32 0, !dbg !1615
  %arraydecay283 = getelementptr inbounds [6 x float], [6 x float]* %bb282, i64 0, i64 0, !dbg !1615
  %add.ptr284 = getelementptr inbounds float, float* %arraydecay283, i64 3, !dbg !1615
  %arrayidx285 = getelementptr inbounds float, float* %add.ptr284, i64 2, !dbg !1615
  %184 = load float, float* %arrayidx285, align 4, !dbg !1615
  %185 = load %"struct.RTBuilder::Object"**, %"struct.RTBuilder::Object"*** %obj, align 8, !dbg !1615
  %186 = load i32, i32* %i156, align 4, !dbg !1615
  %idxprom286 = sext i32 %186 to i64, !dbg !1615
  %arrayidx287 = getelementptr inbounds %"struct.RTBuilder::Object"*, %"struct.RTBuilder::Object"** %185, i64 %idxprom286, !dbg !1615
  %187 = load %"struct.RTBuilder::Object"*, %"struct.RTBuilder::Object"** %arrayidx287, align 8, !dbg !1615
  %bb288 = getelementptr inbounds %"struct.RTBuilder::Object", %"struct.RTBuilder::Object"* %187, i32 0, i32 2, !dbg !1615
  %arraydecay289 = getelementptr inbounds [6 x float], [6 x float]* %bb288, i64 0, i64 0, !dbg !1615
  %add.ptr290 = getelementptr inbounds float, float* %arraydecay289, i64 3, !dbg !1615
  %arrayidx291 = getelementptr inbounds float, float* %add.ptr290, i64 2, !dbg !1615
  %188 = load float, float* %arrayidx291, align 4, !dbg !1615
  %cmp292 = fcmp olt float %184, %188, !dbg !1615
  br i1 %cmp292, label %if.then293, label %if.end304, !dbg !1612

if.then293:                                       ; preds = %if.end281
  %189 = load %"struct.RTBuilder::Object"**, %"struct.RTBuilder::Object"*** %obj, align 8, !dbg !1615
  %190 = load i32, i32* %i156, align 4, !dbg !1615
  %idxprom294 = sext i32 %190 to i64, !dbg !1615
  %arrayidx295 = getelementptr inbounds %"struct.RTBuilder::Object"*, %"struct.RTBuilder::Object"** %189, i64 %idxprom294, !dbg !1615
  %191 = load %"struct.RTBuilder::Object"*, %"struct.RTBuilder::Object"** %arrayidx295, align 8, !dbg !1615
  %bb296 = getelementptr inbounds %"struct.RTBuilder::Object", %"struct.RTBuilder::Object"* %191, i32 0, i32 2, !dbg !1615
  %arraydecay297 = getelementptr inbounds [6 x float], [6 x float]* %bb296, i64 0, i64 0, !dbg !1615
  %add.ptr298 = getelementptr inbounds float, float* %arraydecay297, i64 3, !dbg !1615
  %arrayidx299 = getelementptr inbounds float, float* %add.ptr298, i64 2, !dbg !1615
  %192 = load float, float* %arrayidx299, align 4, !dbg !1615
  %bb300 = getelementptr inbounds %struct.SweepCost, %struct.SweepCost* %sweep_left, i32 0, i32 0, !dbg !1615
  %arraydecay301 = getelementptr inbounds [6 x float], [6 x float]* %bb300, i64 0, i64 0, !dbg !1615
  %add.ptr302 = getelementptr inbounds float, float* %arraydecay301, i64 3, !dbg !1615
  %arrayidx303 = getelementptr inbounds float, float* %add.ptr302, i64 2, !dbg !1615
  store float %192, float* %arrayidx303, align 4, !dbg !1615
  br label %if.end304, !dbg !1615

if.end304:                                        ; preds = %if.then293, %if.end281
  %193 = load %"struct.RTBuilder::Object"**, %"struct.RTBuilder::Object"*** %obj, align 8, !dbg !1617
  %194 = load i32, i32* %i156, align 4, !dbg !1618
  %idxprom305 = sext i32 %194 to i64, !dbg !1617
  %arrayidx306 = getelementptr inbounds %"struct.RTBuilder::Object"*, %"struct.RTBuilder::Object"** %193, i64 %idxprom305, !dbg !1617
  %195 = load %"struct.RTBuilder::Object"*, %"struct.RTBuilder::Object"** %arrayidx306, align 8, !dbg !1617
  %cost307 = getelementptr inbounds %"struct.RTBuilder::Object", %"struct.RTBuilder::Object"* %195, i32 0, i32 1, !dbg !1619
  %196 = load float, float* %cost307, align 8, !dbg !1619
  %cost308 = getelementptr inbounds %struct.SweepCost, %struct.SweepCost* %sweep_left, i32 0, i32 1, !dbg !1620
  %197 = load float, float* %cost308, align 4, !dbg !1621
  %add309 = fadd float %197, %196, !dbg !1621
  store float %add309, float* %cost308, align 4, !dbg !1621
  br label %for.inc310, !dbg !1622

for.inc310:                                       ; preds = %if.end304
  %198 = load i32, i32* %i156, align 4, !dbg !1623
  %inc = add nsw i32 %198, 1, !dbg !1623
  store i32 %inc, i32* %i156, align 4, !dbg !1623
  br label %for.cond157, !dbg !1624, !llvm.loop !1625

for.end311:                                       ; preds = %if.then184, %for.cond157
  %199 = load i32, i32* %baxis, align 4, !dbg !1627
  %cmp312 = icmp sge i32 %199, 0, !dbg !1629
  br i1 %cmp312, label %land.lhs.true313, label %if.then315, !dbg !1630

land.lhs.true313:                                 ; preds = %for.end311
  %200 = load i32, i32* %baxis, align 4, !dbg !1631
  %cmp314 = icmp slt i32 %200, 3, !dbg !1632
  br i1 %cmp314, label %if.end316, label %if.then315, !dbg !1633

if.then315:                                       ; preds = %land.lhs.true313, %for.end311
  store i32 0, i32* %baxis, align 4, !dbg !1634
  br label %if.end316, !dbg !1635

if.end316:                                        ; preds = %if.then315, %land.lhs.true313
  br label %for.inc317, !dbg !1636

for.inc317:                                       ; preds = %if.end316
  %201 = load i32, i32* %axis, align 4, !dbg !1637
  %inc318 = add nsw i32 %201, 1, !dbg !1637
  store i32 %inc318, i32* %axis, align 4, !dbg !1637
  br label %for.cond, !dbg !1638, !llvm.loop !1639

for.end319:                                       ; preds = %for.cond
  %202 = load void (i8*)*, void (i8*)** @MEM_freeN, align 8, !dbg !1641
  %203 = load %struct.SweepCost*, %struct.SweepCost** %sweep, align 8, !dbg !1642
  %204 = bitcast %struct.SweepCost* %203 to i8*, !dbg !1642
  call void %202(i8* %204), !dbg !1641
  br label %if.end331, !dbg !1643

if.else320:                                       ; preds = %entry
  %205 = load i32, i32* %size, align 4, !dbg !1644
  %cmp321 = icmp eq i32 %205, 2, !dbg !1646
  br i1 %cmp321, label %if.then322, label %if.else323, !dbg !1647

if.then322:                                       ; preds = %if.else320
  store i32 0, i32* %baxis, align 4, !dbg !1648
  store i32 1, i32* %boffset, align 4, !dbg !1650
  br label %if.end330, !dbg !1651

if.else323:                                       ; preds = %if.else320
  %206 = load i32, i32* %size, align 4, !dbg !1652
  %cmp324 = icmp eq i32 %206, 1, !dbg !1654
  br i1 %cmp324, label %if.then325, label %if.end329, !dbg !1655

if.then325:                                       ; preds = %if.else323
  %207 = load %struct.RTBuilder*, %struct.RTBuilder** %b.addr, align 8, !dbg !1656
  %child_offset = getelementptr inbounds %struct.RTBuilder, %struct.RTBuilder* %207, i32 0, i32 4, !dbg !1658
  %arrayidx326 = getelementptr inbounds [33 x i32], [33 x i32]* %child_offset, i64 0, i64 0, !dbg !1656
  store i32 0, i32* %arrayidx326, align 4, !dbg !1659
  %208 = load %struct.RTBuilder*, %struct.RTBuilder** %b.addr, align 8, !dbg !1660
  %child_offset327 = getelementptr inbounds %struct.RTBuilder, %struct.RTBuilder* %208, i32 0, i32 4, !dbg !1661
  %arrayidx328 = getelementptr inbounds [33 x i32], [33 x i32]* %child_offset327, i64 0, i64 1, !dbg !1660
  store i32 1, i32* %arrayidx328, align 4, !dbg !1662
  store i32 1, i32* %retval, align 4, !dbg !1663
  br label %return, !dbg !1663

if.end329:                                        ; preds = %if.else323
  br label %if.end330

if.end330:                                        ; preds = %if.end329, %if.then322
  br label %if.end331

if.end331:                                        ; preds = %if.end330, %for.end319
  %209 = load %struct.RTBuilder*, %struct.RTBuilder** %b.addr, align 8, !dbg !1664
  %child_offset332 = getelementptr inbounds %struct.RTBuilder, %struct.RTBuilder* %209, i32 0, i32 4, !dbg !1665
  %arrayidx333 = getelementptr inbounds [33 x i32], [33 x i32]* %child_offset332, i64 0, i64 0, !dbg !1664
  store i32 0, i32* %arrayidx333, align 4, !dbg !1666
  %210 = load i32, i32* %boffset, align 4, !dbg !1667
  %211 = load %struct.RTBuilder*, %struct.RTBuilder** %b.addr, align 8, !dbg !1668
  %child_offset334 = getelementptr inbounds %struct.RTBuilder, %struct.RTBuilder* %211, i32 0, i32 4, !dbg !1669
  %arrayidx335 = getelementptr inbounds [33 x i32], [33 x i32]* %child_offset334, i64 0, i64 1, !dbg !1668
  store i32 %210, i32* %arrayidx335, align 4, !dbg !1670
  %212 = load i32, i32* %size, align 4, !dbg !1671
  %213 = load %struct.RTBuilder*, %struct.RTBuilder** %b.addr, align 8, !dbg !1672
  %child_offset336 = getelementptr inbounds %struct.RTBuilder, %struct.RTBuilder* %213, i32 0, i32 4, !dbg !1673
  %arrayidx337 = getelementptr inbounds [33 x i32], [33 x i32]* %child_offset336, i64 0, i64 2, !dbg !1672
  store i32 %212, i32* %arrayidx337, align 4, !dbg !1674
  call void @llvm.dbg.declare(metadata i32* %i338, metadata !1675, metadata !DIExpression()), !dbg !1677
  store i32 0, i32* %i338, align 4, !dbg !1677
  br label %for.cond339, !dbg !1678

for.cond339:                                      ; preds = %for.inc347, %if.end331
  %214 = load i32, i32* %i338, align 4, !dbg !1679
  %215 = load i32, i32* %boffset, align 4, !dbg !1681
  %cmp340 = icmp slt i32 %214, %215, !dbg !1682
  br i1 %cmp340, label %for.body341, label %for.end349, !dbg !1683

for.body341:                                      ; preds = %for.cond339
  %216 = load %struct.RTBuilder*, %struct.RTBuilder** %b.addr, align 8, !dbg !1684
  %sorted_begin342 = getelementptr inbounds %struct.RTBuilder, %struct.RTBuilder* %216, i32 0, i32 1, !dbg !1685
  %217 = load i32, i32* %baxis, align 4, !dbg !1686
  %idxprom343 = sext i32 %217 to i64, !dbg !1684
  %arrayidx344 = getelementptr inbounds [3 x %"struct.RTBuilder::Object"**], [3 x %"struct.RTBuilder::Object"**]* %sorted_begin342, i64 0, i64 %idxprom343, !dbg !1684
  %218 = load %"struct.RTBuilder::Object"**, %"struct.RTBuilder::Object"*** %arrayidx344, align 8, !dbg !1684
  %219 = load i32, i32* %i338, align 4, !dbg !1687
  %idxprom345 = sext i32 %219 to i64, !dbg !1684
  %arrayidx346 = getelementptr inbounds %"struct.RTBuilder::Object"*, %"struct.RTBuilder::Object"** %218, i64 %idxprom345, !dbg !1684
  %220 = load %"struct.RTBuilder::Object"*, %"struct.RTBuilder::Object"** %arrayidx346, align 8, !dbg !1684
  %selected = getelementptr inbounds %"struct.RTBuilder::Object", %"struct.RTBuilder::Object"* %220, i32 0, i32 3, !dbg !1688
  store i32 1, i32* %selected, align 4, !dbg !1689
  br label %for.inc347, !dbg !1684

for.inc347:                                       ; preds = %for.body341
  %221 = load i32, i32* %i338, align 4, !dbg !1690
  %inc348 = add nsw i32 %221, 1, !dbg !1690
  store i32 %inc348, i32* %i338, align 4, !dbg !1690
  br label %for.cond339, !dbg !1691, !llvm.loop !1692

for.end349:                                       ; preds = %for.cond339
  call void @llvm.dbg.declare(metadata i32* %i350, metadata !1694, metadata !DIExpression()), !dbg !1696
  %222 = load i32, i32* %boffset, align 4, !dbg !1697
  store i32 %222, i32* %i350, align 4, !dbg !1696
  br label %for.cond351, !dbg !1698

for.cond351:                                      ; preds = %for.inc360, %for.end349
  %223 = load i32, i32* %i350, align 4, !dbg !1699
  %224 = load i32, i32* %size, align 4, !dbg !1701
  %cmp352 = icmp slt i32 %223, %224, !dbg !1702
  br i1 %cmp352, label %for.body353, label %for.end362, !dbg !1703

for.body353:                                      ; preds = %for.cond351
  %225 = load %struct.RTBuilder*, %struct.RTBuilder** %b.addr, align 8, !dbg !1704
  %sorted_begin354 = getelementptr inbounds %struct.RTBuilder, %struct.RTBuilder* %225, i32 0, i32 1, !dbg !1705
  %226 = load i32, i32* %baxis, align 4, !dbg !1706
  %idxprom355 = sext i32 %226 to i64, !dbg !1704
  %arrayidx356 = getelementptr inbounds [3 x %"struct.RTBuilder::Object"**], [3 x %"struct.RTBuilder::Object"**]* %sorted_begin354, i64 0, i64 %idxprom355, !dbg !1704
  %227 = load %"struct.RTBuilder::Object"**, %"struct.RTBuilder::Object"*** %arrayidx356, align 8, !dbg !1704
  %228 = load i32, i32* %i350, align 4, !dbg !1707
  %idxprom357 = sext i32 %228 to i64, !dbg !1704
  %arrayidx358 = getelementptr inbounds %"struct.RTBuilder::Object"*, %"struct.RTBuilder::Object"** %227, i64 %idxprom357, !dbg !1704
  %229 = load %"struct.RTBuilder::Object"*, %"struct.RTBuilder::Object"** %arrayidx358, align 8, !dbg !1704
  %selected359 = getelementptr inbounds %"struct.RTBuilder::Object", %"struct.RTBuilder::Object"* %229, i32 0, i32 3, !dbg !1708
  store i32 0, i32* %selected359, align 4, !dbg !1709
  br label %for.inc360, !dbg !1704

for.inc360:                                       ; preds = %for.body353
  %230 = load i32, i32* %i350, align 4, !dbg !1710
  %inc361 = add nsw i32 %230, 1, !dbg !1710
  store i32 %inc361, i32* %i350, align 4, !dbg !1710
  br label %for.cond351, !dbg !1711, !llvm.loop !1712

for.end362:                                       ; preds = %for.cond351
  call void @llvm.dbg.declare(metadata i32* %i363, metadata !1714, metadata !DIExpression()), !dbg !1716
  store i32 0, i32* %i363, align 4, !dbg !1716
  br label %for.cond364, !dbg !1717

for.cond364:                                      ; preds = %for.inc373, %for.end362
  %231 = load i32, i32* %i363, align 4, !dbg !1718
  %cmp365 = icmp slt i32 %231, 3, !dbg !1720
  br i1 %cmp365, label %for.body366, label %for.end375, !dbg !1721

for.body366:                                      ; preds = %for.cond364
  %232 = load %struct.RTBuilder*, %struct.RTBuilder** %b.addr, align 8, !dbg !1722
  %sorted_begin367 = getelementptr inbounds %struct.RTBuilder, %struct.RTBuilder* %232, i32 0, i32 1, !dbg !1723
  %233 = load i32, i32* %i363, align 4, !dbg !1724
  %idxprom368 = sext i32 %233 to i64, !dbg !1722
  %arrayidx369 = getelementptr inbounds [3 x %"struct.RTBuilder::Object"**], [3 x %"struct.RTBuilder::Object"**]* %sorted_begin367, i64 0, i64 %idxprom368, !dbg !1722
  %234 = load %"struct.RTBuilder::Object"**, %"struct.RTBuilder::Object"*** %arrayidx369, align 8, !dbg !1722
  %235 = load %struct.RTBuilder*, %struct.RTBuilder** %b.addr, align 8, !dbg !1725
  %sorted_end = getelementptr inbounds %struct.RTBuilder, %struct.RTBuilder* %235, i32 0, i32 2, !dbg !1726
  %236 = load i32, i32* %i363, align 4, !dbg !1727
  %idxprom370 = sext i32 %236 to i64, !dbg !1725
  %arrayidx371 = getelementptr inbounds [3 x %"struct.RTBuilder::Object"**], [3 x %"struct.RTBuilder::Object"**]* %sorted_end, i64 0, i64 %idxprom370, !dbg !1725
  %237 = load %"struct.RTBuilder::Object"**, %"struct.RTBuilder::Object"*** %arrayidx371, align 8, !dbg !1725
  %call372 = call %"struct.RTBuilder::Object"** @_ZSt16stable_partitionIPPN9RTBuilder6ObjectEPFbS2_EET_S6_S6_T0_(%"struct.RTBuilder::Object"** %234, %"struct.RTBuilder::Object"** %237, i1 (%"struct.RTBuilder::Object"*)* @_ZL13selected_nodePN9RTBuilder6ObjectE), !dbg !1728
  br label %for.inc373, !dbg !1728

for.inc373:                                       ; preds = %for.body366
  %238 = load i32, i32* %i363, align 4, !dbg !1729
  %inc374 = add nsw i32 %238, 1, !dbg !1729
  store i32 %inc374, i32* %i363, align 4, !dbg !1729
  br label %for.cond364, !dbg !1730, !llvm.loop !1731

for.end375:                                       ; preds = %for.cond364
  %239 = load i32, i32* %nchilds.addr, align 4, !dbg !1733
  store i32 %239, i32* %retval, align 4, !dbg !1734
  br label %return, !dbg !1734

return:                                           ; preds = %for.end375, %if.then325
  %240 = load i32, i32* %retval, align 4, !dbg !1735
  ret i32 %240, !dbg !1735
}

; Function Attrs: noinline nounwind uwtable
define internal float @_ZL6min_ffff(float %a, float %b) #2 !dbg !1736 {
entry:
  %a.addr = alloca float, align 4
  %b.addr = alloca float, align 4
  store float %a, float* %a.addr, align 4
  call void @llvm.dbg.declare(metadata float* %a.addr, metadata !1738, metadata !DIExpression()), !dbg !1739
  store float %b, float* %b.addr, align 4
  call void @llvm.dbg.declare(metadata float* %b.addr, metadata !1740, metadata !DIExpression()), !dbg !1741
  %0 = load float, float* %a.addr, align 4, !dbg !1742
  %1 = load float, float* %b.addr, align 4, !dbg !1743
  %cmp = fcmp olt float %0, %1, !dbg !1744
  br i1 %cmp, label %cond.true, label %cond.false, !dbg !1745

cond.true:                                        ; preds = %entry
  %2 = load float, float* %a.addr, align 4, !dbg !1746
  br label %cond.end, !dbg !1745

cond.false:                                       ; preds = %entry
  %3 = load float, float* %b.addr, align 4, !dbg !1747
  br label %cond.end, !dbg !1745

cond.end:                                         ; preds = %cond.false, %cond.true
  %cond = phi float [ %2, %cond.true ], [ %3, %cond.false ], !dbg !1745
  ret float %cond, !dbg !1748
}

; Function Attrs: noinline nounwind uwtable
define internal float @_ZL6max_ffff(float %a, float %b) #2 !dbg !1749 {
entry:
  %a.addr = alloca float, align 4
  %b.addr = alloca float, align 4
  store float %a, float* %a.addr, align 4
  call void @llvm.dbg.declare(metadata float* %a.addr, metadata !1750, metadata !DIExpression()), !dbg !1751
  store float %b, float* %b.addr, align 4
  call void @llvm.dbg.declare(metadata float* %b.addr, metadata !1752, metadata !DIExpression()), !dbg !1753
  %0 = load float, float* %a.addr, align 4, !dbg !1754
  %1 = load float, float* %b.addr, align 4, !dbg !1755
  %cmp = fcmp ogt float %0, %1, !dbg !1756
  br i1 %cmp, label %cond.true, label %cond.false, !dbg !1757

cond.true:                                        ; preds = %entry
  %2 = load float, float* %a.addr, align 4, !dbg !1758
  br label %cond.end, !dbg !1757

cond.false:                                       ; preds = %entry
  %3 = load float, float* %b.addr, align 4, !dbg !1759
  br label %cond.end, !dbg !1757

cond.end:                                         ; preds = %cond.false, %cond.true
  %cond = phi float [ %2, %cond.true ], [ %3, %cond.false ], !dbg !1757
  ret float %cond, !dbg !1760
}

; Function Attrs: noinline nounwind uwtable
define dso_local float @bb_area(float* %min, float* %max) #2 !dbg !1761 {
entry:
  %min.addr = alloca float*, align 8
  %max.addr = alloca float*, align 8
  %sub = alloca [3 x float], align 4
  %a = alloca float, align 4
  store float* %min, float** %min.addr, align 8
  call void @llvm.dbg.declare(metadata float** %min.addr, metadata !1764, metadata !DIExpression()), !dbg !1765
  store float* %max, float** %max.addr, align 8
  call void @llvm.dbg.declare(metadata float** %max.addr, metadata !1766, metadata !DIExpression()), !dbg !1767
  call void @llvm.dbg.declare(metadata [3 x float]* %sub, metadata !1768, metadata !DIExpression()), !dbg !1770
  call void @llvm.dbg.declare(metadata float* %a, metadata !1771, metadata !DIExpression()), !dbg !1772
  %0 = load float*, float** %max.addr, align 8, !dbg !1773
  %arrayidx = getelementptr inbounds float, float* %0, i64 0, !dbg !1773
  %1 = load float, float* %arrayidx, align 4, !dbg !1773
  %2 = load float*, float** %min.addr, align 8, !dbg !1774
  %arrayidx1 = getelementptr inbounds float, float* %2, i64 0, !dbg !1774
  %3 = load float, float* %arrayidx1, align 4, !dbg !1774
  %sub2 = fsub float %1, %3, !dbg !1775
  %arrayidx3 = getelementptr inbounds [3 x float], [3 x float]* %sub, i64 0, i64 0, !dbg !1776
  store float %sub2, float* %arrayidx3, align 4, !dbg !1777
  %4 = load float*, float** %max.addr, align 8, !dbg !1778
  %arrayidx4 = getelementptr inbounds float, float* %4, i64 1, !dbg !1778
  %5 = load float, float* %arrayidx4, align 4, !dbg !1778
  %6 = load float*, float** %min.addr, align 8, !dbg !1779
  %arrayidx5 = getelementptr inbounds float, float* %6, i64 1, !dbg !1779
  %7 = load float, float* %arrayidx5, align 4, !dbg !1779
  %sub6 = fsub float %5, %7, !dbg !1780
  %arrayidx7 = getelementptr inbounds [3 x float], [3 x float]* %sub, i64 0, i64 1, !dbg !1781
  store float %sub6, float* %arrayidx7, align 4, !dbg !1782
  %8 = load float*, float** %max.addr, align 8, !dbg !1783
  %arrayidx8 = getelementptr inbounds float, float* %8, i64 2, !dbg !1783
  %9 = load float, float* %arrayidx8, align 4, !dbg !1783
  %10 = load float*, float** %min.addr, align 8, !dbg !1784
  %arrayidx9 = getelementptr inbounds float, float* %10, i64 2, !dbg !1784
  %11 = load float, float* %arrayidx9, align 4, !dbg !1784
  %sub10 = fsub float %9, %11, !dbg !1785
  %arrayidx11 = getelementptr inbounds [3 x float], [3 x float]* %sub, i64 0, i64 2, !dbg !1786
  store float %sub10, float* %arrayidx11, align 4, !dbg !1787
  %arrayidx12 = getelementptr inbounds [3 x float], [3 x float]* %sub, i64 0, i64 0, !dbg !1788
  %12 = load float, float* %arrayidx12, align 4, !dbg !1788
  %arrayidx13 = getelementptr inbounds [3 x float], [3 x float]* %sub, i64 0, i64 1, !dbg !1789
  %13 = load float, float* %arrayidx13, align 4, !dbg !1789
  %mul = fmul float %12, %13, !dbg !1790
  %arrayidx14 = getelementptr inbounds [3 x float], [3 x float]* %sub, i64 0, i64 0, !dbg !1791
  %14 = load float, float* %arrayidx14, align 4, !dbg !1791
  %arrayidx15 = getelementptr inbounds [3 x float], [3 x float]* %sub, i64 0, i64 2, !dbg !1792
  %15 = load float, float* %arrayidx15, align 4, !dbg !1792
  %mul16 = fmul float %14, %15, !dbg !1793
  %add = fadd float %mul, %mul16, !dbg !1794
  %arrayidx17 = getelementptr inbounds [3 x float], [3 x float]* %sub, i64 0, i64 1, !dbg !1795
  %16 = load float, float* %arrayidx17, align 4, !dbg !1795
  %arrayidx18 = getelementptr inbounds [3 x float], [3 x float]* %sub, i64 0, i64 2, !dbg !1796
  %17 = load float, float* %arrayidx18, align 4, !dbg !1796
  %mul19 = fmul float %16, %17, !dbg !1797
  %add20 = fadd float %add, %mul19, !dbg !1798
  %mul21 = fmul float %add20, 2.000000e+00, !dbg !1799
  store float %mul21, float* %a, align 4, !dbg !1800
  %18 = load float, float* %a, align 4, !dbg !1801
  %cmp = fcmp olt float %18, 0.000000e+00, !dbg !1802
  br i1 %cmp, label %cond.true, label %cond.false, !dbg !1801

cond.true:                                        ; preds = %entry
  br label %cond.end, !dbg !1801

cond.false:                                       ; preds = %entry
  %19 = load float, float* %a, align 4, !dbg !1803
  br label %cond.end, !dbg !1801

cond.end:                                         ; preds = %cond.false, %cond.true
  %cond = phi float [ 0.000000e+00, %cond.true ], [ %19, %cond.false ], !dbg !1801
  ret float %cond, !dbg !1804
}

; Function Attrs: noinline uwtable
define linkonce_odr dso_local %"struct.RTBuilder::Object"** @_ZSt16stable_partitionIPPN9RTBuilder6ObjectEPFbS2_EET_S6_S6_T0_(%"struct.RTBuilder::Object"** %__first, %"struct.RTBuilder::Object"** %__last, i1 (%"struct.RTBuilder::Object"*)* %__pred) #0 comdat !dbg !1805 {
entry:
  %__first.addr = alloca %"struct.RTBuilder::Object"**, align 8
  %__last.addr = alloca %"struct.RTBuilder::Object"**, align 8
  %__pred.addr = alloca i1 (%"struct.RTBuilder::Object"*)*, align 8
  %agg.tmp = alloca %"struct.__gnu_cxx::__ops::_Iter_pred", align 8
  store %"struct.RTBuilder::Object"** %__first, %"struct.RTBuilder::Object"*** %__first.addr, align 8
  call void @llvm.dbg.declare(metadata %"struct.RTBuilder::Object"*** %__first.addr, metadata !1809, metadata !DIExpression()), !dbg !1810
  store %"struct.RTBuilder::Object"** %__last, %"struct.RTBuilder::Object"*** %__last.addr, align 8
  call void @llvm.dbg.declare(metadata %"struct.RTBuilder::Object"*** %__last.addr, metadata !1811, metadata !DIExpression()), !dbg !1812
  store i1 (%"struct.RTBuilder::Object"*)* %__pred, i1 (%"struct.RTBuilder::Object"*)** %__pred.addr, align 8
  call void @llvm.dbg.declare(metadata i1 (%"struct.RTBuilder::Object"*)** %__pred.addr, metadata !1813, metadata !DIExpression()), !dbg !1814
  %0 = load %"struct.RTBuilder::Object"**, %"struct.RTBuilder::Object"*** %__first.addr, align 8, !dbg !1815
  %1 = load %"struct.RTBuilder::Object"**, %"struct.RTBuilder::Object"*** %__last.addr, align 8, !dbg !1816
  %2 = load i1 (%"struct.RTBuilder::Object"*)*, i1 (%"struct.RTBuilder::Object"*)** %__pred.addr, align 8, !dbg !1817
  %call = call i1 (%"struct.RTBuilder::Object"*)* @_ZN9__gnu_cxx5__ops11__pred_iterIPFbPN9RTBuilder6ObjectEEEENS0_10_Iter_predIT_EES8_(i1 (%"struct.RTBuilder::Object"*)* %2), !dbg !1818
  %coerce.dive = getelementptr inbounds %"struct.__gnu_cxx::__ops::_Iter_pred", %"struct.__gnu_cxx::__ops::_Iter_pred"* %agg.tmp, i32 0, i32 0, !dbg !1818
  store i1 (%"struct.RTBuilder::Object"*)* %call, i1 (%"struct.RTBuilder::Object"*)** %coerce.dive, align 8, !dbg !1818
  %coerce.dive1 = getelementptr inbounds %"struct.__gnu_cxx::__ops::_Iter_pred", %"struct.__gnu_cxx::__ops::_Iter_pred"* %agg.tmp, i32 0, i32 0, !dbg !1819
  %3 = load i1 (%"struct.RTBuilder::Object"*)*, i1 (%"struct.RTBuilder::Object"*)** %coerce.dive1, align 8, !dbg !1819
  %call2 = call %"struct.RTBuilder::Object"** @_ZSt18__stable_partitionIPPN9RTBuilder6ObjectEN9__gnu_cxx5__ops10_Iter_predIPFbS2_EEEET_SA_SA_T0_(%"struct.RTBuilder::Object"** %0, %"struct.RTBuilder::Object"** %1, i1 (%"struct.RTBuilder::Object"*)* %3), !dbg !1819
  ret %"struct.RTBuilder::Object"** %call2, !dbg !1820
}

; Function Attrs: noinline nounwind uwtable
define internal zeroext i1 @_ZL13selected_nodePN9RTBuilder6ObjectE(%"struct.RTBuilder::Object"* %node) #2 !dbg !1821 {
entry:
  %node.addr = alloca %"struct.RTBuilder::Object"*, align 8
  store %"struct.RTBuilder::Object"* %node, %"struct.RTBuilder::Object"** %node.addr, align 8
  call void @llvm.dbg.declare(metadata %"struct.RTBuilder::Object"** %node.addr, metadata !1822, metadata !DIExpression()), !dbg !1823
  %0 = load %"struct.RTBuilder::Object"*, %"struct.RTBuilder::Object"** %node.addr, align 8, !dbg !1824
  %selected = getelementptr inbounds %"struct.RTBuilder::Object", %"struct.RTBuilder::Object"* %0, i32 0, i32 3, !dbg !1825
  %1 = load i32, i32* %selected, align 4, !dbg !1825
  %tobool = icmp ne i32 %1, 0, !dbg !1824
  ret i1 %tobool, !dbg !1826
}

; Function Attrs: noinline nounwind uwtable
define dso_local float @bb_volume(float* %min, float* %max) #2 !dbg !1827 {
entry:
  %min.addr = alloca float*, align 8
  %max.addr = alloca float*, align 8
  store float* %min, float** %min.addr, align 8
  call void @llvm.dbg.declare(metadata float** %min.addr, metadata !1828, metadata !DIExpression()), !dbg !1829
  store float* %max, float** %max.addr, align 8
  call void @llvm.dbg.declare(metadata float** %max.addr, metadata !1830, metadata !DIExpression()), !dbg !1831
  %0 = load float*, float** %max.addr, align 8, !dbg !1832
  %arrayidx = getelementptr inbounds float, float* %0, i64 0, !dbg !1832
  %1 = load float, float* %arrayidx, align 4, !dbg !1832
  %2 = load float*, float** %min.addr, align 8, !dbg !1833
  %arrayidx1 = getelementptr inbounds float, float* %2, i64 0, !dbg !1833
  %3 = load float, float* %arrayidx1, align 4, !dbg !1833
  %sub = fsub float %1, %3, !dbg !1834
  %4 = load float*, float** %max.addr, align 8, !dbg !1835
  %arrayidx2 = getelementptr inbounds float, float* %4, i64 1, !dbg !1835
  %5 = load float, float* %arrayidx2, align 4, !dbg !1835
  %6 = load float*, float** %min.addr, align 8, !dbg !1836
  %arrayidx3 = getelementptr inbounds float, float* %6, i64 1, !dbg !1836
  %7 = load float, float* %arrayidx3, align 4, !dbg !1836
  %sub4 = fsub float %5, %7, !dbg !1837
  %mul = fmul float %sub, %sub4, !dbg !1838
  %8 = load float*, float** %max.addr, align 8, !dbg !1839
  %arrayidx5 = getelementptr inbounds float, float* %8, i64 2, !dbg !1839
  %9 = load float, float* %arrayidx5, align 4, !dbg !1839
  %10 = load float*, float** %min.addr, align 8, !dbg !1840
  %arrayidx6 = getelementptr inbounds float, float* %10, i64 2, !dbg !1840
  %11 = load float, float* %arrayidx6, align 4, !dbg !1840
  %sub7 = fsub float %9, %11, !dbg !1841
  %mul8 = fmul float %mul, %sub7, !dbg !1842
  ret float %mul8, !dbg !1843
}

; Function Attrs: noinline nounwind uwtable
define dso_local i32 @bb_largest_axis(float* %min, float* %max) #2 !dbg !1844 {
entry:
  %retval = alloca i32, align 4
  %min.addr = alloca float*, align 8
  %max.addr = alloca float*, align 8
  %sub = alloca [3 x float], align 4
  store float* %min, float** %min.addr, align 8
  call void @llvm.dbg.declare(metadata float** %min.addr, metadata !1847, metadata !DIExpression()), !dbg !1848
  store float* %max, float** %max.addr, align 8
  call void @llvm.dbg.declare(metadata float** %max.addr, metadata !1849, metadata !DIExpression()), !dbg !1850
  call void @llvm.dbg.declare(metadata [3 x float]* %sub, metadata !1851, metadata !DIExpression()), !dbg !1852
  %0 = load float*, float** %max.addr, align 8, !dbg !1853
  %arrayidx = getelementptr inbounds float, float* %0, i64 0, !dbg !1853
  %1 = load float, float* %arrayidx, align 4, !dbg !1853
  %2 = load float*, float** %min.addr, align 8, !dbg !1854
  %arrayidx1 = getelementptr inbounds float, float* %2, i64 0, !dbg !1854
  %3 = load float, float* %arrayidx1, align 4, !dbg !1854
  %sub2 = fsub float %1, %3, !dbg !1855
  %arrayidx3 = getelementptr inbounds [3 x float], [3 x float]* %sub, i64 0, i64 0, !dbg !1856
  store float %sub2, float* %arrayidx3, align 4, !dbg !1857
  %4 = load float*, float** %max.addr, align 8, !dbg !1858
  %arrayidx4 = getelementptr inbounds float, float* %4, i64 1, !dbg !1858
  %5 = load float, float* %arrayidx4, align 4, !dbg !1858
  %6 = load float*, float** %min.addr, align 8, !dbg !1859
  %arrayidx5 = getelementptr inbounds float, float* %6, i64 1, !dbg !1859
  %7 = load float, float* %arrayidx5, align 4, !dbg !1859
  %sub6 = fsub float %5, %7, !dbg !1860
  %arrayidx7 = getelementptr inbounds [3 x float], [3 x float]* %sub, i64 0, i64 1, !dbg !1861
  store float %sub6, float* %arrayidx7, align 4, !dbg !1862
  %8 = load float*, float** %max.addr, align 8, !dbg !1863
  %arrayidx8 = getelementptr inbounds float, float* %8, i64 2, !dbg !1863
  %9 = load float, float* %arrayidx8, align 4, !dbg !1863
  %10 = load float*, float** %min.addr, align 8, !dbg !1864
  %arrayidx9 = getelementptr inbounds float, float* %10, i64 2, !dbg !1864
  %11 = load float, float* %arrayidx9, align 4, !dbg !1864
  %sub10 = fsub float %9, %11, !dbg !1865
  %arrayidx11 = getelementptr inbounds [3 x float], [3 x float]* %sub, i64 0, i64 2, !dbg !1866
  store float %sub10, float* %arrayidx11, align 4, !dbg !1867
  %arrayidx12 = getelementptr inbounds [3 x float], [3 x float]* %sub, i64 0, i64 0, !dbg !1868
  %12 = load float, float* %arrayidx12, align 4, !dbg !1868
  %arrayidx13 = getelementptr inbounds [3 x float], [3 x float]* %sub, i64 0, i64 1, !dbg !1870
  %13 = load float, float* %arrayidx13, align 4, !dbg !1870
  %cmp = fcmp ogt float %12, %13, !dbg !1871
  br i1 %cmp, label %if.then, label %if.else18, !dbg !1872

if.then:                                          ; preds = %entry
  %arrayidx14 = getelementptr inbounds [3 x float], [3 x float]* %sub, i64 0, i64 0, !dbg !1873
  %14 = load float, float* %arrayidx14, align 4, !dbg !1873
  %arrayidx15 = getelementptr inbounds [3 x float], [3 x float]* %sub, i64 0, i64 2, !dbg !1876
  %15 = load float, float* %arrayidx15, align 4, !dbg !1876
  %cmp16 = fcmp ogt float %14, %15, !dbg !1877
  br i1 %cmp16, label %if.then17, label %if.else, !dbg !1878

if.then17:                                        ; preds = %if.then
  store i32 0, i32* %retval, align 4, !dbg !1879
  br label %return, !dbg !1879

if.else:                                          ; preds = %if.then
  store i32 2, i32* %retval, align 4, !dbg !1880
  br label %return, !dbg !1880

if.else18:                                        ; preds = %entry
  %arrayidx19 = getelementptr inbounds [3 x float], [3 x float]* %sub, i64 0, i64 1, !dbg !1881
  %16 = load float, float* %arrayidx19, align 4, !dbg !1881
  %arrayidx20 = getelementptr inbounds [3 x float], [3 x float]* %sub, i64 0, i64 2, !dbg !1884
  %17 = load float, float* %arrayidx20, align 4, !dbg !1884
  %cmp21 = fcmp ogt float %16, %17, !dbg !1885
  br i1 %cmp21, label %if.then22, label %if.else23, !dbg !1886

if.then22:                                        ; preds = %if.else18
  store i32 1, i32* %retval, align 4, !dbg !1887
  br label %return, !dbg !1887

if.else23:                                        ; preds = %if.else18
  store i32 2, i32* %retval, align 4, !dbg !1888
  br label %return, !dbg !1888

return:                                           ; preds = %if.else23, %if.then22, %if.else, %if.then17
  %18 = load i32, i32* %retval, align 4, !dbg !1889
  ret i32 %18, !dbg !1889
}

; Function Attrs: noinline nounwind uwtable
define dso_local i32 @bb_fits_inside(float* %outer_min, float* %outer_max, float* %inner_min, float* %inner_max) #2 !dbg !1890 {
entry:
  %retval = alloca i32, align 4
  %outer_min.addr = alloca float*, align 8
  %outer_max.addr = alloca float*, align 8
  %inner_min.addr = alloca float*, align 8
  %inner_max.addr = alloca float*, align 8
  %i = alloca i32, align 4
  store float* %outer_min, float** %outer_min.addr, align 8
  call void @llvm.dbg.declare(metadata float** %outer_min.addr, metadata !1893, metadata !DIExpression()), !dbg !1894
  store float* %outer_max, float** %outer_max.addr, align 8
  call void @llvm.dbg.declare(metadata float** %outer_max.addr, metadata !1895, metadata !DIExpression()), !dbg !1896
  store float* %inner_min, float** %inner_min.addr, align 8
  call void @llvm.dbg.declare(metadata float** %inner_min.addr, metadata !1897, metadata !DIExpression()), !dbg !1898
  store float* %inner_max, float** %inner_max.addr, align 8
  call void @llvm.dbg.declare(metadata float** %inner_max.addr, metadata !1899, metadata !DIExpression()), !dbg !1900
  call void @llvm.dbg.declare(metadata i32* %i, metadata !1901, metadata !DIExpression()), !dbg !1902
  store i32 0, i32* %i, align 4, !dbg !1903
  br label %for.cond, !dbg !1905

for.cond:                                         ; preds = %for.inc, %entry
  %0 = load i32, i32* %i, align 4, !dbg !1906
  %cmp = icmp slt i32 %0, 3, !dbg !1908
  br i1 %cmp, label %for.body, label %for.end, !dbg !1909

for.body:                                         ; preds = %for.cond
  %1 = load float*, float** %outer_min.addr, align 8, !dbg !1910
  %2 = load i32, i32* %i, align 4, !dbg !1912
  %idxprom = sext i32 %2 to i64, !dbg !1910
  %arrayidx = getelementptr inbounds float, float* %1, i64 %idxprom, !dbg !1910
  %3 = load float, float* %arrayidx, align 4, !dbg !1910
  %4 = load float*, float** %inner_min.addr, align 8, !dbg !1913
  %5 = load i32, i32* %i, align 4, !dbg !1914
  %idxprom1 = sext i32 %5 to i64, !dbg !1913
  %arrayidx2 = getelementptr inbounds float, float* %4, i64 %idxprom1, !dbg !1913
  %6 = load float, float* %arrayidx2, align 4, !dbg !1913
  %cmp3 = fcmp ogt float %3, %6, !dbg !1915
  br i1 %cmp3, label %if.then, label %if.end, !dbg !1916

if.then:                                          ; preds = %for.body
  store i32 0, i32* %retval, align 4, !dbg !1917
  br label %return, !dbg !1917

if.end:                                           ; preds = %for.body
  br label %for.inc, !dbg !1918

for.inc:                                          ; preds = %if.end
  %7 = load i32, i32* %i, align 4, !dbg !1919
  %inc = add nsw i32 %7, 1, !dbg !1919
  store i32 %inc, i32* %i, align 4, !dbg !1919
  br label %for.cond, !dbg !1920, !llvm.loop !1921

for.end:                                          ; preds = %for.cond
  store i32 0, i32* %i, align 4, !dbg !1923
  br label %for.cond4, !dbg !1925

for.cond4:                                        ; preds = %for.inc14, %for.end
  %8 = load i32, i32* %i, align 4, !dbg !1926
  %cmp5 = icmp slt i32 %8, 3, !dbg !1928
  br i1 %cmp5, label %for.body6, label %for.end16, !dbg !1929

for.body6:                                        ; preds = %for.cond4
  %9 = load float*, float** %outer_max.addr, align 8, !dbg !1930
  %10 = load i32, i32* %i, align 4, !dbg !1932
  %idxprom7 = sext i32 %10 to i64, !dbg !1930
  %arrayidx8 = getelementptr inbounds float, float* %9, i64 %idxprom7, !dbg !1930
  %11 = load float, float* %arrayidx8, align 4, !dbg !1930
  %12 = load float*, float** %inner_max.addr, align 8, !dbg !1933
  %13 = load i32, i32* %i, align 4, !dbg !1934
  %idxprom9 = sext i32 %13 to i64, !dbg !1933
  %arrayidx10 = getelementptr inbounds float, float* %12, i64 %idxprom9, !dbg !1933
  %14 = load float, float* %arrayidx10, align 4, !dbg !1933
  %cmp11 = fcmp olt float %11, %14, !dbg !1935
  br i1 %cmp11, label %if.then12, label %if.end13, !dbg !1936

if.then12:                                        ; preds = %for.body6
  store i32 0, i32* %retval, align 4, !dbg !1937
  br label %return, !dbg !1937

if.end13:                                         ; preds = %for.body6
  br label %for.inc14, !dbg !1938

for.inc14:                                        ; preds = %if.end13
  %15 = load i32, i32* %i, align 4, !dbg !1939
  %inc15 = add nsw i32 %15, 1, !dbg !1939
  store i32 %inc15, i32* %i, align 4, !dbg !1939
  br label %for.cond4, !dbg !1940, !llvm.loop !1941

for.end16:                                        ; preds = %for.cond4
  store i32 1, i32* %retval, align 4, !dbg !1943
  br label %return, !dbg !1943

return:                                           ; preds = %for.end16, %if.then12, %if.then
  %16 = load i32, i32* %retval, align 4, !dbg !1944
  ret i32 %16, !dbg !1944
}

; Function Attrs: noinline uwtable
define linkonce_odr dso_local void @_ZSt4sortIPPN9RTBuilder6ObjectEPFbRKS2_S5_EEvT_S8_T0_(%"struct.RTBuilder::Object"** %__first, %"struct.RTBuilder::Object"** %__last, i1 (%"struct.RTBuilder::Object"**, %"struct.RTBuilder::Object"**)* %__comp) #0 comdat !dbg !1945 {
entry:
  %__first.addr = alloca %"struct.RTBuilder::Object"**, align 8
  %__last.addr = alloca %"struct.RTBuilder::Object"**, align 8
  %__comp.addr = alloca i1 (%"struct.RTBuilder::Object"**, %"struct.RTBuilder::Object"**)*, align 8
  %agg.tmp = alloca %"struct.__gnu_cxx::__ops::_Iter_comp_iter", align 8
  store %"struct.RTBuilder::Object"** %__first, %"struct.RTBuilder::Object"*** %__first.addr, align 8
  call void @llvm.dbg.declare(metadata %"struct.RTBuilder::Object"*** %__first.addr, metadata !1949, metadata !DIExpression()), !dbg !1950
  store %"struct.RTBuilder::Object"** %__last, %"struct.RTBuilder::Object"*** %__last.addr, align 8
  call void @llvm.dbg.declare(metadata %"struct.RTBuilder::Object"*** %__last.addr, metadata !1951, metadata !DIExpression()), !dbg !1952
  store i1 (%"struct.RTBuilder::Object"**, %"struct.RTBuilder::Object"**)* %__comp, i1 (%"struct.RTBuilder::Object"**, %"struct.RTBuilder::Object"**)** %__comp.addr, align 8
  call void @llvm.dbg.declare(metadata i1 (%"struct.RTBuilder::Object"**, %"struct.RTBuilder::Object"**)** %__comp.addr, metadata !1953, metadata !DIExpression()), !dbg !1954
  %0 = load %"struct.RTBuilder::Object"**, %"struct.RTBuilder::Object"*** %__first.addr, align 8, !dbg !1955
  %1 = load %"struct.RTBuilder::Object"**, %"struct.RTBuilder::Object"*** %__last.addr, align 8, !dbg !1956
  %2 = load i1 (%"struct.RTBuilder::Object"**, %"struct.RTBuilder::Object"**)*, i1 (%"struct.RTBuilder::Object"**, %"struct.RTBuilder::Object"**)** %__comp.addr, align 8, !dbg !1957
  %call = call i1 (%"struct.RTBuilder::Object"**, %"struct.RTBuilder::Object"**)* @_ZN9__gnu_cxx5__ops16__iter_comp_iterIPFbRKPN9RTBuilder6ObjectES6_EEENS0_15_Iter_comp_iterIT_EESA_(i1 (%"struct.RTBuilder::Object"**, %"struct.RTBuilder::Object"**)* %2), !dbg !1958
  %coerce.dive = getelementptr inbounds %"struct.__gnu_cxx::__ops::_Iter_comp_iter", %"struct.__gnu_cxx::__ops::_Iter_comp_iter"* %agg.tmp, i32 0, i32 0, !dbg !1958
  store i1 (%"struct.RTBuilder::Object"**, %"struct.RTBuilder::Object"**)* %call, i1 (%"struct.RTBuilder::Object"**, %"struct.RTBuilder::Object"**)** %coerce.dive, align 8, !dbg !1958
  %coerce.dive1 = getelementptr inbounds %"struct.__gnu_cxx::__ops::_Iter_comp_iter", %"struct.__gnu_cxx::__ops::_Iter_comp_iter"* %agg.tmp, i32 0, i32 0, !dbg !1959
  %3 = load i1 (%"struct.RTBuilder::Object"**, %"struct.RTBuilder::Object"**)*, i1 (%"struct.RTBuilder::Object"**, %"struct.RTBuilder::Object"**)** %coerce.dive1, align 8, !dbg !1959
  call void @_ZSt6__sortIPPN9RTBuilder6ObjectEN9__gnu_cxx5__ops15_Iter_comp_iterIPFbRKS2_S8_EEEEvT_SC_T0_(%"struct.RTBuilder::Object"** %0, %"struct.RTBuilder::Object"** %1, i1 (%"struct.RTBuilder::Object"**, %"struct.RTBuilder::Object"**)* %3), !dbg !1959
  ret void, !dbg !1960
}

; Function Attrs: noinline nounwind uwtable
define internal zeroext i1 @_ZL14obj_bb_compareIPN9RTBuilder6ObjectELi0EEbRKT_S5_(%"struct.RTBuilder::Object"** dereferenceable(8) %a, %"struct.RTBuilder::Object"** dereferenceable(8) %b) #2 !dbg !1961 {
entry:
  %retval = alloca i1, align 1
  %a.addr = alloca %"struct.RTBuilder::Object"**, align 8
  %b.addr = alloca %"struct.RTBuilder::Object"**, align 8
  store %"struct.RTBuilder::Object"** %a, %"struct.RTBuilder::Object"*** %a.addr, align 8
  call void @llvm.dbg.declare(metadata %"struct.RTBuilder::Object"*** %a.addr, metadata !1965, metadata !DIExpression()), !dbg !1966
  store %"struct.RTBuilder::Object"** %b, %"struct.RTBuilder::Object"*** %b.addr, align 8
  call void @llvm.dbg.declare(metadata %"struct.RTBuilder::Object"*** %b.addr, metadata !1967, metadata !DIExpression()), !dbg !1968
  %0 = load %"struct.RTBuilder::Object"**, %"struct.RTBuilder::Object"*** %a.addr, align 8, !dbg !1969
  %1 = load %"struct.RTBuilder::Object"*, %"struct.RTBuilder::Object"** %0, align 8, !dbg !1969
  %bb = getelementptr inbounds %"struct.RTBuilder::Object", %"struct.RTBuilder::Object"* %1, i32 0, i32 2, !dbg !1971
  %arrayidx = getelementptr inbounds [6 x float], [6 x float]* %bb, i64 0, i64 0, !dbg !1969
  %2 = load float, float* %arrayidx, align 4, !dbg !1969
  %3 = load %"struct.RTBuilder::Object"**, %"struct.RTBuilder::Object"*** %b.addr, align 8, !dbg !1972
  %4 = load %"struct.RTBuilder::Object"*, %"struct.RTBuilder::Object"** %3, align 8, !dbg !1972
  %bb1 = getelementptr inbounds %"struct.RTBuilder::Object", %"struct.RTBuilder::Object"* %4, i32 0, i32 2, !dbg !1973
  %arrayidx2 = getelementptr inbounds [6 x float], [6 x float]* %bb1, i64 0, i64 0, !dbg !1972
  %5 = load float, float* %arrayidx2, align 4, !dbg !1972
  %cmp = fcmp une float %2, %5, !dbg !1974
  br i1 %cmp, label %if.then, label %if.end, !dbg !1975

if.then:                                          ; preds = %entry
  %6 = load %"struct.RTBuilder::Object"**, %"struct.RTBuilder::Object"*** %a.addr, align 8, !dbg !1976
  %7 = load %"struct.RTBuilder::Object"*, %"struct.RTBuilder::Object"** %6, align 8, !dbg !1976
  %bb3 = getelementptr inbounds %"struct.RTBuilder::Object", %"struct.RTBuilder::Object"* %7, i32 0, i32 2, !dbg !1977
  %arrayidx4 = getelementptr inbounds [6 x float], [6 x float]* %bb3, i64 0, i64 0, !dbg !1976
  %8 = load float, float* %arrayidx4, align 4, !dbg !1976
  %9 = load %"struct.RTBuilder::Object"**, %"struct.RTBuilder::Object"*** %b.addr, align 8, !dbg !1978
  %10 = load %"struct.RTBuilder::Object"*, %"struct.RTBuilder::Object"** %9, align 8, !dbg !1978
  %bb5 = getelementptr inbounds %"struct.RTBuilder::Object", %"struct.RTBuilder::Object"* %10, i32 0, i32 2, !dbg !1979
  %arrayidx6 = getelementptr inbounds [6 x float], [6 x float]* %bb5, i64 0, i64 0, !dbg !1978
  %11 = load float, float* %arrayidx6, align 4, !dbg !1978
  %cmp7 = fcmp olt float %8, %11, !dbg !1980
  store i1 %cmp7, i1* %retval, align 1, !dbg !1981
  br label %return, !dbg !1981

if.end:                                           ; preds = %entry
  %12 = load %"struct.RTBuilder::Object"**, %"struct.RTBuilder::Object"*** %a.addr, align 8, !dbg !1982
  %13 = load %"struct.RTBuilder::Object"*, %"struct.RTBuilder::Object"** %12, align 8, !dbg !1982
  %obj = getelementptr inbounds %"struct.RTBuilder::Object", %"struct.RTBuilder::Object"* %13, i32 0, i32 0, !dbg !1983
  %14 = load %struct.RayObject*, %struct.RayObject** %obj, align 8, !dbg !1983
  %15 = load %"struct.RTBuilder::Object"**, %"struct.RTBuilder::Object"*** %b.addr, align 8, !dbg !1984
  %16 = load %"struct.RTBuilder::Object"*, %"struct.RTBuilder::Object"** %15, align 8, !dbg !1984
  %obj8 = getelementptr inbounds %"struct.RTBuilder::Object", %"struct.RTBuilder::Object"* %16, i32 0, i32 0, !dbg !1985
  %17 = load %struct.RayObject*, %struct.RayObject** %obj8, align 8, !dbg !1985
  %cmp9 = icmp ult %struct.RayObject* %14, %17, !dbg !1986
  store i1 %cmp9, i1* %retval, align 1, !dbg !1987
  br label %return, !dbg !1987

return:                                           ; preds = %if.end, %if.then
  %18 = load i1, i1* %retval, align 1, !dbg !1988
  ret i1 %18, !dbg !1988
}

; Function Attrs: noinline nounwind uwtable
define internal zeroext i1 @_ZL14obj_bb_compareIPN9RTBuilder6ObjectELi1EEbRKT_S5_(%"struct.RTBuilder::Object"** dereferenceable(8) %a, %"struct.RTBuilder::Object"** dereferenceable(8) %b) #2 !dbg !1989 {
entry:
  %retval = alloca i1, align 1
  %a.addr = alloca %"struct.RTBuilder::Object"**, align 8
  %b.addr = alloca %"struct.RTBuilder::Object"**, align 8
  store %"struct.RTBuilder::Object"** %a, %"struct.RTBuilder::Object"*** %a.addr, align 8
  call void @llvm.dbg.declare(metadata %"struct.RTBuilder::Object"*** %a.addr, metadata !1992, metadata !DIExpression()), !dbg !1993
  store %"struct.RTBuilder::Object"** %b, %"struct.RTBuilder::Object"*** %b.addr, align 8
  call void @llvm.dbg.declare(metadata %"struct.RTBuilder::Object"*** %b.addr, metadata !1994, metadata !DIExpression()), !dbg !1995
  %0 = load %"struct.RTBuilder::Object"**, %"struct.RTBuilder::Object"*** %a.addr, align 8, !dbg !1996
  %1 = load %"struct.RTBuilder::Object"*, %"struct.RTBuilder::Object"** %0, align 8, !dbg !1996
  %bb = getelementptr inbounds %"struct.RTBuilder::Object", %"struct.RTBuilder::Object"* %1, i32 0, i32 2, !dbg !1998
  %arrayidx = getelementptr inbounds [6 x float], [6 x float]* %bb, i64 0, i64 1, !dbg !1996
  %2 = load float, float* %arrayidx, align 4, !dbg !1996
  %3 = load %"struct.RTBuilder::Object"**, %"struct.RTBuilder::Object"*** %b.addr, align 8, !dbg !1999
  %4 = load %"struct.RTBuilder::Object"*, %"struct.RTBuilder::Object"** %3, align 8, !dbg !1999
  %bb1 = getelementptr inbounds %"struct.RTBuilder::Object", %"struct.RTBuilder::Object"* %4, i32 0, i32 2, !dbg !2000
  %arrayidx2 = getelementptr inbounds [6 x float], [6 x float]* %bb1, i64 0, i64 1, !dbg !1999
  %5 = load float, float* %arrayidx2, align 4, !dbg !1999
  %cmp = fcmp une float %2, %5, !dbg !2001
  br i1 %cmp, label %if.then, label %if.end, !dbg !2002

if.then:                                          ; preds = %entry
  %6 = load %"struct.RTBuilder::Object"**, %"struct.RTBuilder::Object"*** %a.addr, align 8, !dbg !2003
  %7 = load %"struct.RTBuilder::Object"*, %"struct.RTBuilder::Object"** %6, align 8, !dbg !2003
  %bb3 = getelementptr inbounds %"struct.RTBuilder::Object", %"struct.RTBuilder::Object"* %7, i32 0, i32 2, !dbg !2004
  %arrayidx4 = getelementptr inbounds [6 x float], [6 x float]* %bb3, i64 0, i64 1, !dbg !2003
  %8 = load float, float* %arrayidx4, align 4, !dbg !2003
  %9 = load %"struct.RTBuilder::Object"**, %"struct.RTBuilder::Object"*** %b.addr, align 8, !dbg !2005
  %10 = load %"struct.RTBuilder::Object"*, %"struct.RTBuilder::Object"** %9, align 8, !dbg !2005
  %bb5 = getelementptr inbounds %"struct.RTBuilder::Object", %"struct.RTBuilder::Object"* %10, i32 0, i32 2, !dbg !2006
  %arrayidx6 = getelementptr inbounds [6 x float], [6 x float]* %bb5, i64 0, i64 1, !dbg !2005
  %11 = load float, float* %arrayidx6, align 4, !dbg !2005
  %cmp7 = fcmp olt float %8, %11, !dbg !2007
  store i1 %cmp7, i1* %retval, align 1, !dbg !2008
  br label %return, !dbg !2008

if.end:                                           ; preds = %entry
  %12 = load %"struct.RTBuilder::Object"**, %"struct.RTBuilder::Object"*** %a.addr, align 8, !dbg !2009
  %13 = load %"struct.RTBuilder::Object"*, %"struct.RTBuilder::Object"** %12, align 8, !dbg !2009
  %obj = getelementptr inbounds %"struct.RTBuilder::Object", %"struct.RTBuilder::Object"* %13, i32 0, i32 0, !dbg !2010
  %14 = load %struct.RayObject*, %struct.RayObject** %obj, align 8, !dbg !2010
  %15 = load %"struct.RTBuilder::Object"**, %"struct.RTBuilder::Object"*** %b.addr, align 8, !dbg !2011
  %16 = load %"struct.RTBuilder::Object"*, %"struct.RTBuilder::Object"** %15, align 8, !dbg !2011
  %obj8 = getelementptr inbounds %"struct.RTBuilder::Object", %"struct.RTBuilder::Object"* %16, i32 0, i32 0, !dbg !2012
  %17 = load %struct.RayObject*, %struct.RayObject** %obj8, align 8, !dbg !2012
  %cmp9 = icmp ult %struct.RayObject* %14, %17, !dbg !2013
  store i1 %cmp9, i1* %retval, align 1, !dbg !2014
  br label %return, !dbg !2014

return:                                           ; preds = %if.end, %if.then
  %18 = load i1, i1* %retval, align 1, !dbg !2015
  ret i1 %18, !dbg !2015
}

; Function Attrs: noinline nounwind uwtable
define internal zeroext i1 @_ZL14obj_bb_compareIPN9RTBuilder6ObjectELi2EEbRKT_S5_(%"struct.RTBuilder::Object"** dereferenceable(8) %a, %"struct.RTBuilder::Object"** dereferenceable(8) %b) #2 !dbg !2016 {
entry:
  %retval = alloca i1, align 1
  %a.addr = alloca %"struct.RTBuilder::Object"**, align 8
  %b.addr = alloca %"struct.RTBuilder::Object"**, align 8
  store %"struct.RTBuilder::Object"** %a, %"struct.RTBuilder::Object"*** %a.addr, align 8
  call void @llvm.dbg.declare(metadata %"struct.RTBuilder::Object"*** %a.addr, metadata !2019, metadata !DIExpression()), !dbg !2020
  store %"struct.RTBuilder::Object"** %b, %"struct.RTBuilder::Object"*** %b.addr, align 8
  call void @llvm.dbg.declare(metadata %"struct.RTBuilder::Object"*** %b.addr, metadata !2021, metadata !DIExpression()), !dbg !2022
  %0 = load %"struct.RTBuilder::Object"**, %"struct.RTBuilder::Object"*** %a.addr, align 8, !dbg !2023
  %1 = load %"struct.RTBuilder::Object"*, %"struct.RTBuilder::Object"** %0, align 8, !dbg !2023
  %bb = getelementptr inbounds %"struct.RTBuilder::Object", %"struct.RTBuilder::Object"* %1, i32 0, i32 2, !dbg !2025
  %arrayidx = getelementptr inbounds [6 x float], [6 x float]* %bb, i64 0, i64 2, !dbg !2023
  %2 = load float, float* %arrayidx, align 4, !dbg !2023
  %3 = load %"struct.RTBuilder::Object"**, %"struct.RTBuilder::Object"*** %b.addr, align 8, !dbg !2026
  %4 = load %"struct.RTBuilder::Object"*, %"struct.RTBuilder::Object"** %3, align 8, !dbg !2026
  %bb1 = getelementptr inbounds %"struct.RTBuilder::Object", %"struct.RTBuilder::Object"* %4, i32 0, i32 2, !dbg !2027
  %arrayidx2 = getelementptr inbounds [6 x float], [6 x float]* %bb1, i64 0, i64 2, !dbg !2026
  %5 = load float, float* %arrayidx2, align 4, !dbg !2026
  %cmp = fcmp une float %2, %5, !dbg !2028
  br i1 %cmp, label %if.then, label %if.end, !dbg !2029

if.then:                                          ; preds = %entry
  %6 = load %"struct.RTBuilder::Object"**, %"struct.RTBuilder::Object"*** %a.addr, align 8, !dbg !2030
  %7 = load %"struct.RTBuilder::Object"*, %"struct.RTBuilder::Object"** %6, align 8, !dbg !2030
  %bb3 = getelementptr inbounds %"struct.RTBuilder::Object", %"struct.RTBuilder::Object"* %7, i32 0, i32 2, !dbg !2031
  %arrayidx4 = getelementptr inbounds [6 x float], [6 x float]* %bb3, i64 0, i64 2, !dbg !2030
  %8 = load float, float* %arrayidx4, align 4, !dbg !2030
  %9 = load %"struct.RTBuilder::Object"**, %"struct.RTBuilder::Object"*** %b.addr, align 8, !dbg !2032
  %10 = load %"struct.RTBuilder::Object"*, %"struct.RTBuilder::Object"** %9, align 8, !dbg !2032
  %bb5 = getelementptr inbounds %"struct.RTBuilder::Object", %"struct.RTBuilder::Object"* %10, i32 0, i32 2, !dbg !2033
  %arrayidx6 = getelementptr inbounds [6 x float], [6 x float]* %bb5, i64 0, i64 2, !dbg !2032
  %11 = load float, float* %arrayidx6, align 4, !dbg !2032
  %cmp7 = fcmp olt float %8, %11, !dbg !2034
  store i1 %cmp7, i1* %retval, align 1, !dbg !2035
  br label %return, !dbg !2035

if.end:                                           ; preds = %entry
  %12 = load %"struct.RTBuilder::Object"**, %"struct.RTBuilder::Object"*** %a.addr, align 8, !dbg !2036
  %13 = load %"struct.RTBuilder::Object"*, %"struct.RTBuilder::Object"** %12, align 8, !dbg !2036
  %obj = getelementptr inbounds %"struct.RTBuilder::Object", %"struct.RTBuilder::Object"* %13, i32 0, i32 0, !dbg !2037
  %14 = load %struct.RayObject*, %struct.RayObject** %obj, align 8, !dbg !2037
  %15 = load %"struct.RTBuilder::Object"**, %"struct.RTBuilder::Object"*** %b.addr, align 8, !dbg !2038
  %16 = load %"struct.RTBuilder::Object"*, %"struct.RTBuilder::Object"** %15, align 8, !dbg !2038
  %obj8 = getelementptr inbounds %"struct.RTBuilder::Object", %"struct.RTBuilder::Object"* %16, i32 0, i32 0, !dbg !2039
  %17 = load %struct.RayObject*, %struct.RayObject** %obj8, align 8, !dbg !2039
  %cmp9 = icmp ult %struct.RayObject* %14, %17, !dbg !2040
  store i1 %cmp9, i1* %retval, align 1, !dbg !2041
  br label %return, !dbg !2041

return:                                           ; preds = %if.end, %if.then
  %18 = load i1, i1* %retval, align 1, !dbg !2042
  ret i1 %18, !dbg !2042
}

; Function Attrs: noinline uwtable
define linkonce_odr dso_local void @_ZSt6__sortIPPN9RTBuilder6ObjectEN9__gnu_cxx5__ops15_Iter_comp_iterIPFbRKS2_S8_EEEEvT_SC_T0_(%"struct.RTBuilder::Object"** %__first, %"struct.RTBuilder::Object"** %__last, i1 (%"struct.RTBuilder::Object"**, %"struct.RTBuilder::Object"**)* %__comp.coerce) #0 comdat !dbg !2043 {
entry:
  %__comp = alloca %"struct.__gnu_cxx::__ops::_Iter_comp_iter", align 8
  %__first.addr = alloca %"struct.RTBuilder::Object"**, align 8
  %__last.addr = alloca %"struct.RTBuilder::Object"**, align 8
  %agg.tmp = alloca %"struct.__gnu_cxx::__ops::_Iter_comp_iter", align 8
  %agg.tmp2 = alloca %"struct.__gnu_cxx::__ops::_Iter_comp_iter", align 8
  %coerce.dive = getelementptr inbounds %"struct.__gnu_cxx::__ops::_Iter_comp_iter", %"struct.__gnu_cxx::__ops::_Iter_comp_iter"* %__comp, i32 0, i32 0
  store i1 (%"struct.RTBuilder::Object"**, %"struct.RTBuilder::Object"**)* %__comp.coerce, i1 (%"struct.RTBuilder::Object"**, %"struct.RTBuilder::Object"**)** %coerce.dive, align 8
  store %"struct.RTBuilder::Object"** %__first, %"struct.RTBuilder::Object"*** %__first.addr, align 8
  call void @llvm.dbg.declare(metadata %"struct.RTBuilder::Object"*** %__first.addr, metadata !2046, metadata !DIExpression()), !dbg !2047
  store %"struct.RTBuilder::Object"** %__last, %"struct.RTBuilder::Object"*** %__last.addr, align 8
  call void @llvm.dbg.declare(metadata %"struct.RTBuilder::Object"*** %__last.addr, metadata !2048, metadata !DIExpression()), !dbg !2049
  call void @llvm.dbg.declare(metadata %"struct.__gnu_cxx::__ops::_Iter_comp_iter"* %__comp, metadata !2050, metadata !DIExpression()), !dbg !2051
  %0 = load %"struct.RTBuilder::Object"**, %"struct.RTBuilder::Object"*** %__first.addr, align 8, !dbg !2052
  %1 = load %"struct.RTBuilder::Object"**, %"struct.RTBuilder::Object"*** %__last.addr, align 8, !dbg !2054
  %cmp = icmp ne %"struct.RTBuilder::Object"** %0, %1, !dbg !2055
  br i1 %cmp, label %if.then, label %if.end, !dbg !2056

if.then:                                          ; preds = %entry
  %2 = load %"struct.RTBuilder::Object"**, %"struct.RTBuilder::Object"*** %__first.addr, align 8, !dbg !2057
  %3 = load %"struct.RTBuilder::Object"**, %"struct.RTBuilder::Object"*** %__last.addr, align 8, !dbg !2059
  %4 = load %"struct.RTBuilder::Object"**, %"struct.RTBuilder::Object"*** %__last.addr, align 8, !dbg !2060
  %5 = load %"struct.RTBuilder::Object"**, %"struct.RTBuilder::Object"*** %__first.addr, align 8, !dbg !2061
  %sub.ptr.lhs.cast = ptrtoint %"struct.RTBuilder::Object"** %4 to i64, !dbg !2062
  %sub.ptr.rhs.cast = ptrtoint %"struct.RTBuilder::Object"** %5 to i64, !dbg !2062
  %sub.ptr.sub = sub i64 %sub.ptr.lhs.cast, %sub.ptr.rhs.cast, !dbg !2062
  %sub.ptr.div = sdiv exact i64 %sub.ptr.sub, 8, !dbg !2062
  %call = call i64 @_ZSt4__lgl(i64 %sub.ptr.div), !dbg !2063
  %mul = mul nsw i64 %call, 2, !dbg !2064
  %6 = bitcast %"struct.__gnu_cxx::__ops::_Iter_comp_iter"* %agg.tmp to i8*, !dbg !2065
  %7 = bitcast %"struct.__gnu_cxx::__ops::_Iter_comp_iter"* %__comp to i8*, !dbg !2065
  call void @llvm.memcpy.p0i8.p0i8.i64(i8* align 8 %6, i8* align 8 %7, i64 8, i1 false), !dbg !2065
  %coerce.dive1 = getelementptr inbounds %"struct.__gnu_cxx::__ops::_Iter_comp_iter", %"struct.__gnu_cxx::__ops::_Iter_comp_iter"* %agg.tmp, i32 0, i32 0, !dbg !2066
  %8 = load i1 (%"struct.RTBuilder::Object"**, %"struct.RTBuilder::Object"**)*, i1 (%"struct.RTBuilder::Object"**, %"struct.RTBuilder::Object"**)** %coerce.dive1, align 8, !dbg !2066
  call void @_ZSt16__introsort_loopIPPN9RTBuilder6ObjectElN9__gnu_cxx5__ops15_Iter_comp_iterIPFbRKS2_S8_EEEEvT_SC_T0_T1_(%"struct.RTBuilder::Object"** %2, %"struct.RTBuilder::Object"** %3, i64 %mul, i1 (%"struct.RTBuilder::Object"**, %"struct.RTBuilder::Object"**)* %8), !dbg !2066
  %9 = load %"struct.RTBuilder::Object"**, %"struct.RTBuilder::Object"*** %__first.addr, align 8, !dbg !2067
  %10 = load %"struct.RTBuilder::Object"**, %"struct.RTBuilder::Object"*** %__last.addr, align 8, !dbg !2068
  %11 = bitcast %"struct.__gnu_cxx::__ops::_Iter_comp_iter"* %agg.tmp2 to i8*, !dbg !2069
  %12 = bitcast %"struct.__gnu_cxx::__ops::_Iter_comp_iter"* %__comp to i8*, !dbg !2069
  call void @llvm.memcpy.p0i8.p0i8.i64(i8* align 8 %11, i8* align 8 %12, i64 8, i1 false), !dbg !2069
  %coerce.dive3 = getelementptr inbounds %"struct.__gnu_cxx::__ops::_Iter_comp_iter", %"struct.__gnu_cxx::__ops::_Iter_comp_iter"* %agg.tmp2, i32 0, i32 0, !dbg !2070
  %13 = load i1 (%"struct.RTBuilder::Object"**, %"struct.RTBuilder::Object"**)*, i1 (%"struct.RTBuilder::Object"**, %"struct.RTBuilder::Object"**)** %coerce.dive3, align 8, !dbg !2070
  call void @_ZSt22__final_insertion_sortIPPN9RTBuilder6ObjectEN9__gnu_cxx5__ops15_Iter_comp_iterIPFbRKS2_S8_EEEEvT_SC_T0_(%"struct.RTBuilder::Object"** %9, %"struct.RTBuilder::Object"** %10, i1 (%"struct.RTBuilder::Object"**, %"struct.RTBuilder::Object"**)* %13), !dbg !2070
  br label %if.end, !dbg !2071

if.end:                                           ; preds = %if.then, %entry
  ret void, !dbg !2072
}

; Function Attrs: noinline uwtable
define linkonce_odr dso_local i1 (%"struct.RTBuilder::Object"**, %"struct.RTBuilder::Object"**)* @_ZN9__gnu_cxx5__ops16__iter_comp_iterIPFbRKPN9RTBuilder6ObjectES6_EEENS0_15_Iter_comp_iterIT_EESA_(i1 (%"struct.RTBuilder::Object"**, %"struct.RTBuilder::Object"**)* %__comp) #0 comdat !dbg !2073 {
entry:
  %retval = alloca %"struct.__gnu_cxx::__ops::_Iter_comp_iter", align 8
  %__comp.addr = alloca i1 (%"struct.RTBuilder::Object"**, %"struct.RTBuilder::Object"**)*, align 8
  store i1 (%"struct.RTBuilder::Object"**, %"struct.RTBuilder::Object"**)* %__comp, i1 (%"struct.RTBuilder::Object"**, %"struct.RTBuilder::Object"**)** %__comp.addr, align 8
  call void @llvm.dbg.declare(metadata i1 (%"struct.RTBuilder::Object"**, %"struct.RTBuilder::Object"**)** %__comp.addr, metadata !2076, metadata !DIExpression()), !dbg !2077
  %call = call dereferenceable(8) i1 (%"struct.RTBuilder::Object"**, %"struct.RTBuilder::Object"**)** @_ZSt4moveIRPFbRKPN9RTBuilder6ObjectES4_EEONSt16remove_referenceIT_E4typeEOS9_(i1 (%"struct.RTBuilder::Object"**, %"struct.RTBuilder::Object"**)** dereferenceable(8) %__comp.addr) #9, !dbg !2078
  %0 = load i1 (%"struct.RTBuilder::Object"**, %"struct.RTBuilder::Object"**)*, i1 (%"struct.RTBuilder::Object"**, %"struct.RTBuilder::Object"**)** %call, align 8, !dbg !2078
  call void @_ZN9__gnu_cxx5__ops15_Iter_comp_iterIPFbRKPN9RTBuilder6ObjectES6_EEC2ES8_(%"struct.__gnu_cxx::__ops::_Iter_comp_iter"* %retval, i1 (%"struct.RTBuilder::Object"**, %"struct.RTBuilder::Object"**)* %0), !dbg !2079
  %coerce.dive = getelementptr inbounds %"struct.__gnu_cxx::__ops::_Iter_comp_iter", %"struct.__gnu_cxx::__ops::_Iter_comp_iter"* %retval, i32 0, i32 0, !dbg !2080
  %1 = load i1 (%"struct.RTBuilder::Object"**, %"struct.RTBuilder::Object"**)*, i1 (%"struct.RTBuilder::Object"**, %"struct.RTBuilder::Object"**)** %coerce.dive, align 8, !dbg !2080
  ret i1 (%"struct.RTBuilder::Object"**, %"struct.RTBuilder::Object"**)* %1, !dbg !2080
}

; Function Attrs: noinline uwtable
define linkonce_odr dso_local void @_ZSt16__introsort_loopIPPN9RTBuilder6ObjectElN9__gnu_cxx5__ops15_Iter_comp_iterIPFbRKS2_S8_EEEEvT_SC_T0_T1_(%"struct.RTBuilder::Object"** %__first, %"struct.RTBuilder::Object"** %__last, i64 %__depth_limit, i1 (%"struct.RTBuilder::Object"**, %"struct.RTBuilder::Object"**)* %__comp.coerce) #0 comdat !dbg !2081 {
entry:
  %__comp = alloca %"struct.__gnu_cxx::__ops::_Iter_comp_iter", align 8
  %__first.addr = alloca %"struct.RTBuilder::Object"**, align 8
  %__last.addr = alloca %"struct.RTBuilder::Object"**, align 8
  %__depth_limit.addr = alloca i64, align 8
  %agg.tmp = alloca %"struct.__gnu_cxx::__ops::_Iter_comp_iter", align 8
  %__cut = alloca %"struct.RTBuilder::Object"**, align 8
  %agg.tmp3 = alloca %"struct.__gnu_cxx::__ops::_Iter_comp_iter", align 8
  %agg.tmp5 = alloca %"struct.__gnu_cxx::__ops::_Iter_comp_iter", align 8
  %coerce.dive = getelementptr inbounds %"struct.__gnu_cxx::__ops::_Iter_comp_iter", %"struct.__gnu_cxx::__ops::_Iter_comp_iter"* %__comp, i32 0, i32 0
  store i1 (%"struct.RTBuilder::Object"**, %"struct.RTBuilder::Object"**)* %__comp.coerce, i1 (%"struct.RTBuilder::Object"**, %"struct.RTBuilder::Object"**)** %coerce.dive, align 8
  store %"struct.RTBuilder::Object"** %__first, %"struct.RTBuilder::Object"*** %__first.addr, align 8
  call void @llvm.dbg.declare(metadata %"struct.RTBuilder::Object"*** %__first.addr, metadata !2086, metadata !DIExpression()), !dbg !2087
  store %"struct.RTBuilder::Object"** %__last, %"struct.RTBuilder::Object"*** %__last.addr, align 8
  call void @llvm.dbg.declare(metadata %"struct.RTBuilder::Object"*** %__last.addr, metadata !2088, metadata !DIExpression()), !dbg !2089
  store i64 %__depth_limit, i64* %__depth_limit.addr, align 8
  call void @llvm.dbg.declare(metadata i64* %__depth_limit.addr, metadata !2090, metadata !DIExpression()), !dbg !2091
  call void @llvm.dbg.declare(metadata %"struct.__gnu_cxx::__ops::_Iter_comp_iter"* %__comp, metadata !2092, metadata !DIExpression()), !dbg !2093
  br label %while.cond, !dbg !2094

while.cond:                                       ; preds = %if.end, %entry
  %0 = load %"struct.RTBuilder::Object"**, %"struct.RTBuilder::Object"*** %__last.addr, align 8, !dbg !2095
  %1 = load %"struct.RTBuilder::Object"**, %"struct.RTBuilder::Object"*** %__first.addr, align 8, !dbg !2096
  %sub.ptr.lhs.cast = ptrtoint %"struct.RTBuilder::Object"** %0 to i64, !dbg !2097
  %sub.ptr.rhs.cast = ptrtoint %"struct.RTBuilder::Object"** %1 to i64, !dbg !2097
  %sub.ptr.sub = sub i64 %sub.ptr.lhs.cast, %sub.ptr.rhs.cast, !dbg !2097
  %sub.ptr.div = sdiv exact i64 %sub.ptr.sub, 8, !dbg !2097
  %cmp = icmp sgt i64 %sub.ptr.div, 16, !dbg !2098
  br i1 %cmp, label %while.body, label %while.end, !dbg !2094

while.body:                                       ; preds = %while.cond
  %2 = load i64, i64* %__depth_limit.addr, align 8, !dbg !2099
  %cmp1 = icmp eq i64 %2, 0, !dbg !2102
  br i1 %cmp1, label %if.then, label %if.end, !dbg !2103

if.then:                                          ; preds = %while.body
  %3 = load %"struct.RTBuilder::Object"**, %"struct.RTBuilder::Object"*** %__first.addr, align 8, !dbg !2104
  %4 = load %"struct.RTBuilder::Object"**, %"struct.RTBuilder::Object"*** %__last.addr, align 8, !dbg !2106
  %5 = load %"struct.RTBuilder::Object"**, %"struct.RTBuilder::Object"*** %__last.addr, align 8, !dbg !2107
  %6 = bitcast %"struct.__gnu_cxx::__ops::_Iter_comp_iter"* %agg.tmp to i8*, !dbg !2108
  %7 = bitcast %"struct.__gnu_cxx::__ops::_Iter_comp_iter"* %__comp to i8*, !dbg !2108
  call void @llvm.memcpy.p0i8.p0i8.i64(i8* align 8 %6, i8* align 8 %7, i64 8, i1 false), !dbg !2108
  %coerce.dive2 = getelementptr inbounds %"struct.__gnu_cxx::__ops::_Iter_comp_iter", %"struct.__gnu_cxx::__ops::_Iter_comp_iter"* %agg.tmp, i32 0, i32 0, !dbg !2109
  %8 = load i1 (%"struct.RTBuilder::Object"**, %"struct.RTBuilder::Object"**)*, i1 (%"struct.RTBuilder::Object"**, %"struct.RTBuilder::Object"**)** %coerce.dive2, align 8, !dbg !2109
  call void @_ZSt14__partial_sortIPPN9RTBuilder6ObjectEN9__gnu_cxx5__ops15_Iter_comp_iterIPFbRKS2_S8_EEEEvT_SC_SC_T0_(%"struct.RTBuilder::Object"** %3, %"struct.RTBuilder::Object"** %4, %"struct.RTBuilder::Object"** %5, i1 (%"struct.RTBuilder::Object"**, %"struct.RTBuilder::Object"**)* %8), !dbg !2109
  br label %while.end, !dbg !2110

if.end:                                           ; preds = %while.body
  %9 = load i64, i64* %__depth_limit.addr, align 8, !dbg !2111
  %dec = add nsw i64 %9, -1, !dbg !2111
  store i64 %dec, i64* %__depth_limit.addr, align 8, !dbg !2111
  call void @llvm.dbg.declare(metadata %"struct.RTBuilder::Object"*** %__cut, metadata !2112, metadata !DIExpression()), !dbg !2113
  %10 = load %"struct.RTBuilder::Object"**, %"struct.RTBuilder::Object"*** %__first.addr, align 8, !dbg !2114
  %11 = load %"struct.RTBuilder::Object"**, %"struct.RTBuilder::Object"*** %__last.addr, align 8, !dbg !2115
  %12 = bitcast %"struct.__gnu_cxx::__ops::_Iter_comp_iter"* %agg.tmp3 to i8*, !dbg !2116
  %13 = bitcast %"struct.__gnu_cxx::__ops::_Iter_comp_iter"* %__comp to i8*, !dbg !2116
  call void @llvm.memcpy.p0i8.p0i8.i64(i8* align 8 %12, i8* align 8 %13, i64 8, i1 false), !dbg !2116
  %coerce.dive4 = getelementptr inbounds %"struct.__gnu_cxx::__ops::_Iter_comp_iter", %"struct.__gnu_cxx::__ops::_Iter_comp_iter"* %agg.tmp3, i32 0, i32 0, !dbg !2117
  %14 = load i1 (%"struct.RTBuilder::Object"**, %"struct.RTBuilder::Object"**)*, i1 (%"struct.RTBuilder::Object"**, %"struct.RTBuilder::Object"**)** %coerce.dive4, align 8, !dbg !2117
  %call = call %"struct.RTBuilder::Object"** @_ZSt27__unguarded_partition_pivotIPPN9RTBuilder6ObjectEN9__gnu_cxx5__ops15_Iter_comp_iterIPFbRKS2_S8_EEEET_SC_SC_T0_(%"struct.RTBuilder::Object"** %10, %"struct.RTBuilder::Object"** %11, i1 (%"struct.RTBuilder::Object"**, %"struct.RTBuilder::Object"**)* %14), !dbg !2117
  store %"struct.RTBuilder::Object"** %call, %"struct.RTBuilder::Object"*** %__cut, align 8, !dbg !2113
  %15 = load %"struct.RTBuilder::Object"**, %"struct.RTBuilder::Object"*** %__cut, align 8, !dbg !2118
  %16 = load %"struct.RTBuilder::Object"**, %"struct.RTBuilder::Object"*** %__last.addr, align 8, !dbg !2119
  %17 = load i64, i64* %__depth_limit.addr, align 8, !dbg !2120
  %18 = bitcast %"struct.__gnu_cxx::__ops::_Iter_comp_iter"* %agg.tmp5 to i8*, !dbg !2121
  %19 = bitcast %"struct.__gnu_cxx::__ops::_Iter_comp_iter"* %__comp to i8*, !dbg !2121
  call void @llvm.memcpy.p0i8.p0i8.i64(i8* align 8 %18, i8* align 8 %19, i64 8, i1 false), !dbg !2121
  %coerce.dive6 = getelementptr inbounds %"struct.__gnu_cxx::__ops::_Iter_comp_iter", %"struct.__gnu_cxx::__ops::_Iter_comp_iter"* %agg.tmp5, i32 0, i32 0, !dbg !2122
  %20 = load i1 (%"struct.RTBuilder::Object"**, %"struct.RTBuilder::Object"**)*, i1 (%"struct.RTBuilder::Object"**, %"struct.RTBuilder::Object"**)** %coerce.dive6, align 8, !dbg !2122
  call void @_ZSt16__introsort_loopIPPN9RTBuilder6ObjectElN9__gnu_cxx5__ops15_Iter_comp_iterIPFbRKS2_S8_EEEEvT_SC_T0_T1_(%"struct.RTBuilder::Object"** %15, %"struct.RTBuilder::Object"** %16, i64 %17, i1 (%"struct.RTBuilder::Object"**, %"struct.RTBuilder::Object"**)* %20), !dbg !2122
  %21 = load %"struct.RTBuilder::Object"**, %"struct.RTBuilder::Object"*** %__cut, align 8, !dbg !2123
  store %"struct.RTBuilder::Object"** %21, %"struct.RTBuilder::Object"*** %__last.addr, align 8, !dbg !2124
  br label %while.cond, !dbg !2094, !llvm.loop !2125

while.end:                                        ; preds = %if.then, %while.cond
  ret void, !dbg !2127
}

; Function Attrs: noinline nounwind uwtable
define linkonce_odr dso_local i64 @_ZSt4__lgl(i64 %__n) #2 comdat !dbg !2128 {
entry:
  %__n.addr = alloca i64, align 8
  store i64 %__n, i64* %__n.addr, align 8
  call void @llvm.dbg.declare(metadata i64* %__n.addr, metadata !2130, metadata !DIExpression()), !dbg !2131
  %0 = load i64, i64* %__n.addr, align 8, !dbg !2132
  %1 = call i64 @llvm.ctlz.i64(i64 %0, i1 true), !dbg !2133
  %cast = trunc i64 %1 to i32, !dbg !2133
  %sub = sub nsw i32 63, %cast, !dbg !2134
  %conv = sext i32 %sub to i64, !dbg !2135
  ret i64 %conv, !dbg !2136
}

; Function Attrs: argmemonly nounwind willreturn
declare void @llvm.memcpy.p0i8.p0i8.i64(i8* noalias nocapture writeonly, i8* noalias nocapture readonly, i64, i1 immarg) #4

; Function Attrs: noinline uwtable
define linkonce_odr dso_local void @_ZSt22__final_insertion_sortIPPN9RTBuilder6ObjectEN9__gnu_cxx5__ops15_Iter_comp_iterIPFbRKS2_S8_EEEEvT_SC_T0_(%"struct.RTBuilder::Object"** %__first, %"struct.RTBuilder::Object"** %__last, i1 (%"struct.RTBuilder::Object"**, %"struct.RTBuilder::Object"**)* %__comp.coerce) #0 comdat !dbg !2137 {
entry:
  %__comp = alloca %"struct.__gnu_cxx::__ops::_Iter_comp_iter", align 8
  %__first.addr = alloca %"struct.RTBuilder::Object"**, align 8
  %__last.addr = alloca %"struct.RTBuilder::Object"**, align 8
  %agg.tmp = alloca %"struct.__gnu_cxx::__ops::_Iter_comp_iter", align 8
  %agg.tmp3 = alloca %"struct.__gnu_cxx::__ops::_Iter_comp_iter", align 8
  %agg.tmp5 = alloca %"struct.__gnu_cxx::__ops::_Iter_comp_iter", align 8
  %coerce.dive = getelementptr inbounds %"struct.__gnu_cxx::__ops::_Iter_comp_iter", %"struct.__gnu_cxx::__ops::_Iter_comp_iter"* %__comp, i32 0, i32 0
  store i1 (%"struct.RTBuilder::Object"**, %"struct.RTBuilder::Object"**)* %__comp.coerce, i1 (%"struct.RTBuilder::Object"**, %"struct.RTBuilder::Object"**)** %coerce.dive, align 8
  store %"struct.RTBuilder::Object"** %__first, %"struct.RTBuilder::Object"*** %__first.addr, align 8
  call void @llvm.dbg.declare(metadata %"struct.RTBuilder::Object"*** %__first.addr, metadata !2138, metadata !DIExpression()), !dbg !2139
  store %"struct.RTBuilder::Object"** %__last, %"struct.RTBuilder::Object"*** %__last.addr, align 8
  call void @llvm.dbg.declare(metadata %"struct.RTBuilder::Object"*** %__last.addr, metadata !2140, metadata !DIExpression()), !dbg !2141
  call void @llvm.dbg.declare(metadata %"struct.__gnu_cxx::__ops::_Iter_comp_iter"* %__comp, metadata !2142, metadata !DIExpression()), !dbg !2143
  %0 = load %"struct.RTBuilder::Object"**, %"struct.RTBuilder::Object"*** %__last.addr, align 8, !dbg !2144
  %1 = load %"struct.RTBuilder::Object"**, %"struct.RTBuilder::Object"*** %__first.addr, align 8, !dbg !2146
  %sub.ptr.lhs.cast = ptrtoint %"struct.RTBuilder::Object"** %0 to i64, !dbg !2147
  %sub.ptr.rhs.cast = ptrtoint %"struct.RTBuilder::Object"** %1 to i64, !dbg !2147
  %sub.ptr.sub = sub i64 %sub.ptr.lhs.cast, %sub.ptr.rhs.cast, !dbg !2147
  %sub.ptr.div = sdiv exact i64 %sub.ptr.sub, 8, !dbg !2147
  %cmp = icmp sgt i64 %sub.ptr.div, 16, !dbg !2148
  br i1 %cmp, label %if.then, label %if.else, !dbg !2149

if.then:                                          ; preds = %entry
  %2 = load %"struct.RTBuilder::Object"**, %"struct.RTBuilder::Object"*** %__first.addr, align 8, !dbg !2150
  %3 = load %"struct.RTBuilder::Object"**, %"struct.RTBuilder::Object"*** %__first.addr, align 8, !dbg !2152
  %add.ptr = getelementptr inbounds %"struct.RTBuilder::Object"*, %"struct.RTBuilder::Object"** %3, i64 16, !dbg !2153
  %4 = bitcast %"struct.__gnu_cxx::__ops::_Iter_comp_iter"* %agg.tmp to i8*, !dbg !2154
  %5 = bitcast %"struct.__gnu_cxx::__ops::_Iter_comp_iter"* %__comp to i8*, !dbg !2154
  call void @llvm.memcpy.p0i8.p0i8.i64(i8* align 8 %4, i8* align 8 %5, i64 8, i1 false), !dbg !2154
  %coerce.dive1 = getelementptr inbounds %"struct.__gnu_cxx::__ops::_Iter_comp_iter", %"struct.__gnu_cxx::__ops::_Iter_comp_iter"* %agg.tmp, i32 0, i32 0, !dbg !2155
  %6 = load i1 (%"struct.RTBuilder::Object"**, %"struct.RTBuilder::Object"**)*, i1 (%"struct.RTBuilder::Object"**, %"struct.RTBuilder::Object"**)** %coerce.dive1, align 8, !dbg !2155
  call void @_ZSt16__insertion_sortIPPN9RTBuilder6ObjectEN9__gnu_cxx5__ops15_Iter_comp_iterIPFbRKS2_S8_EEEEvT_SC_T0_(%"struct.RTBuilder::Object"** %2, %"struct.RTBuilder::Object"** %add.ptr, i1 (%"struct.RTBuilder::Object"**, %"struct.RTBuilder::Object"**)* %6), !dbg !2155
  %7 = load %"struct.RTBuilder::Object"**, %"struct.RTBuilder::Object"*** %__first.addr, align 8, !dbg !2156
  %add.ptr2 = getelementptr inbounds %"struct.RTBuilder::Object"*, %"struct.RTBuilder::Object"** %7, i64 16, !dbg !2157
  %8 = load %"struct.RTBuilder::Object"**, %"struct.RTBuilder::Object"*** %__last.addr, align 8, !dbg !2158
  %9 = bitcast %"struct.__gnu_cxx::__ops::_Iter_comp_iter"* %agg.tmp3 to i8*, !dbg !2159
  %10 = bitcast %"struct.__gnu_cxx::__ops::_Iter_comp_iter"* %__comp to i8*, !dbg !2159
  call void @llvm.memcpy.p0i8.p0i8.i64(i8* align 8 %9, i8* align 8 %10, i64 8, i1 false), !dbg !2159
  %coerce.dive4 = getelementptr inbounds %"struct.__gnu_cxx::__ops::_Iter_comp_iter", %"struct.__gnu_cxx::__ops::_Iter_comp_iter"* %agg.tmp3, i32 0, i32 0, !dbg !2160
  %11 = load i1 (%"struct.RTBuilder::Object"**, %"struct.RTBuilder::Object"**)*, i1 (%"struct.RTBuilder::Object"**, %"struct.RTBuilder::Object"**)** %coerce.dive4, align 8, !dbg !2160
  call void @_ZSt26__unguarded_insertion_sortIPPN9RTBuilder6ObjectEN9__gnu_cxx5__ops15_Iter_comp_iterIPFbRKS2_S8_EEEEvT_SC_T0_(%"struct.RTBuilder::Object"** %add.ptr2, %"struct.RTBuilder::Object"** %8, i1 (%"struct.RTBuilder::Object"**, %"struct.RTBuilder::Object"**)* %11), !dbg !2160
  br label %if.end, !dbg !2161

if.else:                                          ; preds = %entry
  %12 = load %"struct.RTBuilder::Object"**, %"struct.RTBuilder::Object"*** %__first.addr, align 8, !dbg !2162
  %13 = load %"struct.RTBuilder::Object"**, %"struct.RTBuilder::Object"*** %__last.addr, align 8, !dbg !2163
  %14 = bitcast %"struct.__gnu_cxx::__ops::_Iter_comp_iter"* %agg.tmp5 to i8*, !dbg !2164
  %15 = bitcast %"struct.__gnu_cxx::__ops::_Iter_comp_iter"* %__comp to i8*, !dbg !2164
  call void @llvm.memcpy.p0i8.p0i8.i64(i8* align 8 %14, i8* align 8 %15, i64 8, i1 false), !dbg !2164
  %coerce.dive6 = getelementptr inbounds %"struct.__gnu_cxx::__ops::_Iter_comp_iter", %"struct.__gnu_cxx::__ops::_Iter_comp_iter"* %agg.tmp5, i32 0, i32 0, !dbg !2165
  %16 = load i1 (%"struct.RTBuilder::Object"**, %"struct.RTBuilder::Object"**)*, i1 (%"struct.RTBuilder::Object"**, %"struct.RTBuilder::Object"**)** %coerce.dive6, align 8, !dbg !2165
  call void @_ZSt16__insertion_sortIPPN9RTBuilder6ObjectEN9__gnu_cxx5__ops15_Iter_comp_iterIPFbRKS2_S8_EEEEvT_SC_T0_(%"struct.RTBuilder::Object"** %12, %"struct.RTBuilder::Object"** %13, i1 (%"struct.RTBuilder::Object"**, %"struct.RTBuilder::Object"**)* %16), !dbg !2165
  br label %if.end

if.end:                                           ; preds = %if.else, %if.then
  ret void, !dbg !2166
}

; Function Attrs: noinline uwtable
define linkonce_odr dso_local void @_ZSt14__partial_sortIPPN9RTBuilder6ObjectEN9__gnu_cxx5__ops15_Iter_comp_iterIPFbRKS2_S8_EEEEvT_SC_SC_T0_(%"struct.RTBuilder::Object"** %__first, %"struct.RTBuilder::Object"** %__middle, %"struct.RTBuilder::Object"** %__last, i1 (%"struct.RTBuilder::Object"**, %"struct.RTBuilder::Object"**)* %__comp.coerce) #0 comdat !dbg !2167 {
entry:
  %__comp = alloca %"struct.__gnu_cxx::__ops::_Iter_comp_iter", align 8
  %__first.addr = alloca %"struct.RTBuilder::Object"**, align 8
  %__middle.addr = alloca %"struct.RTBuilder::Object"**, align 8
  %__last.addr = alloca %"struct.RTBuilder::Object"**, align 8
  %agg.tmp = alloca %"struct.__gnu_cxx::__ops::_Iter_comp_iter", align 8
  %coerce.dive = getelementptr inbounds %"struct.__gnu_cxx::__ops::_Iter_comp_iter", %"struct.__gnu_cxx::__ops::_Iter_comp_iter"* %__comp, i32 0, i32 0
  store i1 (%"struct.RTBuilder::Object"**, %"struct.RTBuilder::Object"**)* %__comp.coerce, i1 (%"struct.RTBuilder::Object"**, %"struct.RTBuilder::Object"**)** %coerce.dive, align 8
  store %"struct.RTBuilder::Object"** %__first, %"struct.RTBuilder::Object"*** %__first.addr, align 8
  call void @llvm.dbg.declare(metadata %"struct.RTBuilder::Object"*** %__first.addr, metadata !2170, metadata !DIExpression()), !dbg !2171
  store %"struct.RTBuilder::Object"** %__middle, %"struct.RTBuilder::Object"*** %__middle.addr, align 8
  call void @llvm.dbg.declare(metadata %"struct.RTBuilder::Object"*** %__middle.addr, metadata !2172, metadata !DIExpression()), !dbg !2173
  store %"struct.RTBuilder::Object"** %__last, %"struct.RTBuilder::Object"*** %__last.addr, align 8
  call void @llvm.dbg.declare(metadata %"struct.RTBuilder::Object"*** %__last.addr, metadata !2174, metadata !DIExpression()), !dbg !2175
  call void @llvm.dbg.declare(metadata %"struct.__gnu_cxx::__ops::_Iter_comp_iter"* %__comp, metadata !2176, metadata !DIExpression()), !dbg !2177
  %0 = load %"struct.RTBuilder::Object"**, %"struct.RTBuilder::Object"*** %__first.addr, align 8, !dbg !2178
  %1 = load %"struct.RTBuilder::Object"**, %"struct.RTBuilder::Object"*** %__middle.addr, align 8, !dbg !2179
  %2 = load %"struct.RTBuilder::Object"**, %"struct.RTBuilder::Object"*** %__last.addr, align 8, !dbg !2180
  %3 = bitcast %"struct.__gnu_cxx::__ops::_Iter_comp_iter"* %agg.tmp to i8*, !dbg !2181
  %4 = bitcast %"struct.__gnu_cxx::__ops::_Iter_comp_iter"* %__comp to i8*, !dbg !2181
  call void @llvm.memcpy.p0i8.p0i8.i64(i8* align 8 %3, i8* align 8 %4, i64 8, i1 false), !dbg !2181
  %coerce.dive1 = getelementptr inbounds %"struct.__gnu_cxx::__ops::_Iter_comp_iter", %"struct.__gnu_cxx::__ops::_Iter_comp_iter"* %agg.tmp, i32 0, i32 0, !dbg !2182
  %5 = load i1 (%"struct.RTBuilder::Object"**, %"struct.RTBuilder::Object"**)*, i1 (%"struct.RTBuilder::Object"**, %"struct.RTBuilder::Object"**)** %coerce.dive1, align 8, !dbg !2182
  call void @_ZSt13__heap_selectIPPN9RTBuilder6ObjectEN9__gnu_cxx5__ops15_Iter_comp_iterIPFbRKS2_S8_EEEEvT_SC_SC_T0_(%"struct.RTBuilder::Object"** %0, %"struct.RTBuilder::Object"** %1, %"struct.RTBuilder::Object"** %2, i1 (%"struct.RTBuilder::Object"**, %"struct.RTBuilder::Object"**)* %5), !dbg !2182
  %6 = load %"struct.RTBuilder::Object"**, %"struct.RTBuilder::Object"*** %__first.addr, align 8, !dbg !2183
  %7 = load %"struct.RTBuilder::Object"**, %"struct.RTBuilder::Object"*** %__middle.addr, align 8, !dbg !2184
  call void @_ZSt11__sort_heapIPPN9RTBuilder6ObjectEN9__gnu_cxx5__ops15_Iter_comp_iterIPFbRKS2_S8_EEEEvT_SC_RT0_(%"struct.RTBuilder::Object"** %6, %"struct.RTBuilder::Object"** %7, %"struct.__gnu_cxx::__ops::_Iter_comp_iter"* dereferenceable(8) %__comp), !dbg !2185
  ret void, !dbg !2186
}

; Function Attrs: noinline uwtable
define linkonce_odr dso_local %"struct.RTBuilder::Object"** @_ZSt27__unguarded_partition_pivotIPPN9RTBuilder6ObjectEN9__gnu_cxx5__ops15_Iter_comp_iterIPFbRKS2_S8_EEEET_SC_SC_T0_(%"struct.RTBuilder::Object"** %__first, %"struct.RTBuilder::Object"** %__last, i1 (%"struct.RTBuilder::Object"**, %"struct.RTBuilder::Object"**)* %__comp.coerce) #0 comdat !dbg !2187 {
entry:
  %__comp = alloca %"struct.__gnu_cxx::__ops::_Iter_comp_iter", align 8
  %__first.addr = alloca %"struct.RTBuilder::Object"**, align 8
  %__last.addr = alloca %"struct.RTBuilder::Object"**, align 8
  %__mid = alloca %"struct.RTBuilder::Object"**, align 8
  %agg.tmp = alloca %"struct.__gnu_cxx::__ops::_Iter_comp_iter", align 8
  %agg.tmp5 = alloca %"struct.__gnu_cxx::__ops::_Iter_comp_iter", align 8
  %coerce.dive = getelementptr inbounds %"struct.__gnu_cxx::__ops::_Iter_comp_iter", %"struct.__gnu_cxx::__ops::_Iter_comp_iter"* %__comp, i32 0, i32 0
  store i1 (%"struct.RTBuilder::Object"**, %"struct.RTBuilder::Object"**)* %__comp.coerce, i1 (%"struct.RTBuilder::Object"**, %"struct.RTBuilder::Object"**)** %coerce.dive, align 8
  store %"struct.RTBuilder::Object"** %__first, %"struct.RTBuilder::Object"*** %__first.addr, align 8
  call void @llvm.dbg.declare(metadata %"struct.RTBuilder::Object"*** %__first.addr, metadata !2190, metadata !DIExpression()), !dbg !2191
  store %"struct.RTBuilder::Object"** %__last, %"struct.RTBuilder::Object"*** %__last.addr, align 8
  call void @llvm.dbg.declare(metadata %"struct.RTBuilder::Object"*** %__last.addr, metadata !2192, metadata !DIExpression()), !dbg !2193
  call void @llvm.dbg.declare(metadata %"struct.__gnu_cxx::__ops::_Iter_comp_iter"* %__comp, metadata !2194, metadata !DIExpression()), !dbg !2195
  call void @llvm.dbg.declare(metadata %"struct.RTBuilder::Object"*** %__mid, metadata !2196, metadata !DIExpression()), !dbg !2197
  %0 = load %"struct.RTBuilder::Object"**, %"struct.RTBuilder::Object"*** %__first.addr, align 8, !dbg !2198
  %1 = load %"struct.RTBuilder::Object"**, %"struct.RTBuilder::Object"*** %__last.addr, align 8, !dbg !2199
  %2 = load %"struct.RTBuilder::Object"**, %"struct.RTBuilder::Object"*** %__first.addr, align 8, !dbg !2200
  %sub.ptr.lhs.cast = ptrtoint %"struct.RTBuilder::Object"** %1 to i64, !dbg !2201
  %sub.ptr.rhs.cast = ptrtoint %"struct.RTBuilder::Object"** %2 to i64, !dbg !2201
  %sub.ptr.sub = sub i64 %sub.ptr.lhs.cast, %sub.ptr.rhs.cast, !dbg !2201
  %sub.ptr.div = sdiv exact i64 %sub.ptr.sub, 8, !dbg !2201
  %div = sdiv i64 %sub.ptr.div, 2, !dbg !2202
  %add.ptr = getelementptr inbounds %"struct.RTBuilder::Object"*, %"struct.RTBuilder::Object"** %0, i64 %div, !dbg !2203
  store %"struct.RTBuilder::Object"** %add.ptr, %"struct.RTBuilder::Object"*** %__mid, align 8, !dbg !2197
  %3 = load %"struct.RTBuilder::Object"**, %"struct.RTBuilder::Object"*** %__first.addr, align 8, !dbg !2204
  %4 = load %"struct.RTBuilder::Object"**, %"struct.RTBuilder::Object"*** %__first.addr, align 8, !dbg !2205
  %add.ptr1 = getelementptr inbounds %"struct.RTBuilder::Object"*, %"struct.RTBuilder::Object"** %4, i64 1, !dbg !2206
  %5 = load %"struct.RTBuilder::Object"**, %"struct.RTBuilder::Object"*** %__mid, align 8, !dbg !2207
  %6 = load %"struct.RTBuilder::Object"**, %"struct.RTBuilder::Object"*** %__last.addr, align 8, !dbg !2208
  %add.ptr2 = getelementptr inbounds %"struct.RTBuilder::Object"*, %"struct.RTBuilder::Object"** %6, i64 -1, !dbg !2209
  %7 = bitcast %"struct.__gnu_cxx::__ops::_Iter_comp_iter"* %agg.tmp to i8*, !dbg !2210
  %8 = bitcast %"struct.__gnu_cxx::__ops::_Iter_comp_iter"* %__comp to i8*, !dbg !2210
  call void @llvm.memcpy.p0i8.p0i8.i64(i8* align 8 %7, i8* align 8 %8, i64 8, i1 false), !dbg !2210
  %coerce.dive3 = getelementptr inbounds %"struct.__gnu_cxx::__ops::_Iter_comp_iter", %"struct.__gnu_cxx::__ops::_Iter_comp_iter"* %agg.tmp, i32 0, i32 0, !dbg !2211
  %9 = load i1 (%"struct.RTBuilder::Object"**, %"struct.RTBuilder::Object"**)*, i1 (%"struct.RTBuilder::Object"**, %"struct.RTBuilder::Object"**)** %coerce.dive3, align 8, !dbg !2211
  call void @_ZSt22__move_median_to_firstIPPN9RTBuilder6ObjectEN9__gnu_cxx5__ops15_Iter_comp_iterIPFbRKS2_S8_EEEEvT_SC_SC_SC_T0_(%"struct.RTBuilder::Object"** %3, %"struct.RTBuilder::Object"** %add.ptr1, %"struct.RTBuilder::Object"** %5, %"struct.RTBuilder::Object"** %add.ptr2, i1 (%"struct.RTBuilder::Object"**, %"struct.RTBuilder::Object"**)* %9), !dbg !2211
  %10 = load %"struct.RTBuilder::Object"**, %"struct.RTBuilder::Object"*** %__first.addr, align 8, !dbg !2212
  %add.ptr4 = getelementptr inbounds %"struct.RTBuilder::Object"*, %"struct.RTBuilder::Object"** %10, i64 1, !dbg !2213
  %11 = load %"struct.RTBuilder::Object"**, %"struct.RTBuilder::Object"*** %__last.addr, align 8, !dbg !2214
  %12 = load %"struct.RTBuilder::Object"**, %"struct.RTBuilder::Object"*** %__first.addr, align 8, !dbg !2215
  %13 = bitcast %"struct.__gnu_cxx::__ops::_Iter_comp_iter"* %agg.tmp5 to i8*, !dbg !2216
  %14 = bitcast %"struct.__gnu_cxx::__ops::_Iter_comp_iter"* %__comp to i8*, !dbg !2216
  call void @llvm.memcpy.p0i8.p0i8.i64(i8* align 8 %13, i8* align 8 %14, i64 8, i1 false), !dbg !2216
  %coerce.dive6 = getelementptr inbounds %"struct.__gnu_cxx::__ops::_Iter_comp_iter", %"struct.__gnu_cxx::__ops::_Iter_comp_iter"* %agg.tmp5, i32 0, i32 0, !dbg !2217
  %15 = load i1 (%"struct.RTBuilder::Object"**, %"struct.RTBuilder::Object"**)*, i1 (%"struct.RTBuilder::Object"**, %"struct.RTBuilder::Object"**)** %coerce.dive6, align 8, !dbg !2217
  %call = call %"struct.RTBuilder::Object"** @_ZSt21__unguarded_partitionIPPN9RTBuilder6ObjectEN9__gnu_cxx5__ops15_Iter_comp_iterIPFbRKS2_S8_EEEET_SC_SC_SC_T0_(%"struct.RTBuilder::Object"** %add.ptr4, %"struct.RTBuilder::Object"** %11, %"struct.RTBuilder::Object"** %12, i1 (%"struct.RTBuilder::Object"**, %"struct.RTBuilder::Object"**)* %15), !dbg !2217
  ret %"struct.RTBuilder::Object"** %call, !dbg !2218
}

; Function Attrs: noinline uwtable
define linkonce_odr dso_local void @_ZSt13__heap_selectIPPN9RTBuilder6ObjectEN9__gnu_cxx5__ops15_Iter_comp_iterIPFbRKS2_S8_EEEEvT_SC_SC_T0_(%"struct.RTBuilder::Object"** %__first, %"struct.RTBuilder::Object"** %__middle, %"struct.RTBuilder::Object"** %__last, i1 (%"struct.RTBuilder::Object"**, %"struct.RTBuilder::Object"**)* %__comp.coerce) #0 comdat !dbg !2219 {
entry:
  %__comp = alloca %"struct.__gnu_cxx::__ops::_Iter_comp_iter", align 8
  %__first.addr = alloca %"struct.RTBuilder::Object"**, align 8
  %__middle.addr = alloca %"struct.RTBuilder::Object"**, align 8
  %__last.addr = alloca %"struct.RTBuilder::Object"**, align 8
  %__i = alloca %"struct.RTBuilder::Object"**, align 8
  %coerce.dive = getelementptr inbounds %"struct.__gnu_cxx::__ops::_Iter_comp_iter", %"struct.__gnu_cxx::__ops::_Iter_comp_iter"* %__comp, i32 0, i32 0
  store i1 (%"struct.RTBuilder::Object"**, %"struct.RTBuilder::Object"**)* %__comp.coerce, i1 (%"struct.RTBuilder::Object"**, %"struct.RTBuilder::Object"**)** %coerce.dive, align 8
  store %"struct.RTBuilder::Object"** %__first, %"struct.RTBuilder::Object"*** %__first.addr, align 8
  call void @llvm.dbg.declare(metadata %"struct.RTBuilder::Object"*** %__first.addr, metadata !2220, metadata !DIExpression()), !dbg !2221
  store %"struct.RTBuilder::Object"** %__middle, %"struct.RTBuilder::Object"*** %__middle.addr, align 8
  call void @llvm.dbg.declare(metadata %"struct.RTBuilder::Object"*** %__middle.addr, metadata !2222, metadata !DIExpression()), !dbg !2223
  store %"struct.RTBuilder::Object"** %__last, %"struct.RTBuilder::Object"*** %__last.addr, align 8
  call void @llvm.dbg.declare(metadata %"struct.RTBuilder::Object"*** %__last.addr, metadata !2224, metadata !DIExpression()), !dbg !2225
  call void @llvm.dbg.declare(metadata %"struct.__gnu_cxx::__ops::_Iter_comp_iter"* %__comp, metadata !2226, metadata !DIExpression()), !dbg !2227
  %0 = load %"struct.RTBuilder::Object"**, %"struct.RTBuilder::Object"*** %__first.addr, align 8, !dbg !2228
  %1 = load %"struct.RTBuilder::Object"**, %"struct.RTBuilder::Object"*** %__middle.addr, align 8, !dbg !2229
  call void @_ZSt11__make_heapIPPN9RTBuilder6ObjectEN9__gnu_cxx5__ops15_Iter_comp_iterIPFbRKS2_S8_EEEEvT_SC_RT0_(%"struct.RTBuilder::Object"** %0, %"struct.RTBuilder::Object"** %1, %"struct.__gnu_cxx::__ops::_Iter_comp_iter"* dereferenceable(8) %__comp), !dbg !2230
  call void @llvm.dbg.declare(metadata %"struct.RTBuilder::Object"*** %__i, metadata !2231, metadata !DIExpression()), !dbg !2233
  %2 = load %"struct.RTBuilder::Object"**, %"struct.RTBuilder::Object"*** %__middle.addr, align 8, !dbg !2234
  store %"struct.RTBuilder::Object"** %2, %"struct.RTBuilder::Object"*** %__i, align 8, !dbg !2233
  br label %for.cond, !dbg !2235

for.cond:                                         ; preds = %for.inc, %entry
  %3 = load %"struct.RTBuilder::Object"**, %"struct.RTBuilder::Object"*** %__i, align 8, !dbg !2236
  %4 = load %"struct.RTBuilder::Object"**, %"struct.RTBuilder::Object"*** %__last.addr, align 8, !dbg !2238
  %cmp = icmp ult %"struct.RTBuilder::Object"** %3, %4, !dbg !2239
  br i1 %cmp, label %for.body, label %for.end, !dbg !2240

for.body:                                         ; preds = %for.cond
  %5 = load %"struct.RTBuilder::Object"**, %"struct.RTBuilder::Object"*** %__i, align 8, !dbg !2241
  %6 = load %"struct.RTBuilder::Object"**, %"struct.RTBuilder::Object"*** %__first.addr, align 8, !dbg !2243
  %call = call zeroext i1 @_ZN9__gnu_cxx5__ops15_Iter_comp_iterIPFbRKPN9RTBuilder6ObjectES6_EEclIPS4_SB_EEbT_T0_(%"struct.__gnu_cxx::__ops::_Iter_comp_iter"* %__comp, %"struct.RTBuilder::Object"** %5, %"struct.RTBuilder::Object"** %6), !dbg !2244
  br i1 %call, label %if.then, label %if.end, !dbg !2245

if.then:                                          ; preds = %for.body
  %7 = load %"struct.RTBuilder::Object"**, %"struct.RTBuilder::Object"*** %__first.addr, align 8, !dbg !2246
  %8 = load %"struct.RTBuilder::Object"**, %"struct.RTBuilder::Object"*** %__middle.addr, align 8, !dbg !2247
  %9 = load %"struct.RTBuilder::Object"**, %"struct.RTBuilder::Object"*** %__i, align 8, !dbg !2248
  call void @_ZSt10__pop_heapIPPN9RTBuilder6ObjectEN9__gnu_cxx5__ops15_Iter_comp_iterIPFbRKS2_S8_EEEEvT_SC_SC_RT0_(%"struct.RTBuilder::Object"** %7, %"struct.RTBuilder::Object"** %8, %"struct.RTBuilder::Object"** %9, %"struct.__gnu_cxx::__ops::_Iter_comp_iter"* dereferenceable(8) %__comp), !dbg !2249
  br label %if.end, !dbg !2249

if.end:                                           ; preds = %if.then, %for.body
  br label %for.inc, !dbg !2250

for.inc:                                          ; preds = %if.end
  %10 = load %"struct.RTBuilder::Object"**, %"struct.RTBuilder::Object"*** %__i, align 8, !dbg !2251
  %incdec.ptr = getelementptr inbounds %"struct.RTBuilder::Object"*, %"struct.RTBuilder::Object"** %10, i32 1, !dbg !2251
  store %"struct.RTBuilder::Object"** %incdec.ptr, %"struct.RTBuilder::Object"*** %__i, align 8, !dbg !2251
  br label %for.cond, !dbg !2252, !llvm.loop !2253

for.end:                                          ; preds = %for.cond
  ret void, !dbg !2255
}

; Function Attrs: noinline uwtable
define linkonce_odr dso_local void @_ZSt11__sort_heapIPPN9RTBuilder6ObjectEN9__gnu_cxx5__ops15_Iter_comp_iterIPFbRKS2_S8_EEEEvT_SC_RT0_(%"struct.RTBuilder::Object"** %__first, %"struct.RTBuilder::Object"** %__last, %"struct.__gnu_cxx::__ops::_Iter_comp_iter"* dereferenceable(8) %__comp) #0 comdat !dbg !2256 {
entry:
  %__first.addr = alloca %"struct.RTBuilder::Object"**, align 8
  %__last.addr = alloca %"struct.RTBuilder::Object"**, align 8
  %__comp.addr = alloca %"struct.__gnu_cxx::__ops::_Iter_comp_iter"*, align 8
  store %"struct.RTBuilder::Object"** %__first, %"struct.RTBuilder::Object"*** %__first.addr, align 8
  call void @llvm.dbg.declare(metadata %"struct.RTBuilder::Object"*** %__first.addr, metadata !2259, metadata !DIExpression()), !dbg !2260
  store %"struct.RTBuilder::Object"** %__last, %"struct.RTBuilder::Object"*** %__last.addr, align 8
  call void @llvm.dbg.declare(metadata %"struct.RTBuilder::Object"*** %__last.addr, metadata !2261, metadata !DIExpression()), !dbg !2262
  store %"struct.__gnu_cxx::__ops::_Iter_comp_iter"* %__comp, %"struct.__gnu_cxx::__ops::_Iter_comp_iter"** %__comp.addr, align 8
  call void @llvm.dbg.declare(metadata %"struct.__gnu_cxx::__ops::_Iter_comp_iter"** %__comp.addr, metadata !2263, metadata !DIExpression()), !dbg !2264
  br label %while.cond, !dbg !2265

while.cond:                                       ; preds = %while.body, %entry
  %0 = load %"struct.RTBuilder::Object"**, %"struct.RTBuilder::Object"*** %__last.addr, align 8, !dbg !2266
  %1 = load %"struct.RTBuilder::Object"**, %"struct.RTBuilder::Object"*** %__first.addr, align 8, !dbg !2267
  %sub.ptr.lhs.cast = ptrtoint %"struct.RTBuilder::Object"** %0 to i64, !dbg !2268
  %sub.ptr.rhs.cast = ptrtoint %"struct.RTBuilder::Object"** %1 to i64, !dbg !2268
  %sub.ptr.sub = sub i64 %sub.ptr.lhs.cast, %sub.ptr.rhs.cast, !dbg !2268
  %sub.ptr.div = sdiv exact i64 %sub.ptr.sub, 8, !dbg !2268
  %cmp = icmp sgt i64 %sub.ptr.div, 1, !dbg !2269
  br i1 %cmp, label %while.body, label %while.end, !dbg !2265

while.body:                                       ; preds = %while.cond
  %2 = load %"struct.RTBuilder::Object"**, %"struct.RTBuilder::Object"*** %__last.addr, align 8, !dbg !2270
  %incdec.ptr = getelementptr inbounds %"struct.RTBuilder::Object"*, %"struct.RTBuilder::Object"** %2, i32 -1, !dbg !2270
  store %"struct.RTBuilder::Object"** %incdec.ptr, %"struct.RTBuilder::Object"*** %__last.addr, align 8, !dbg !2270
  %3 = load %"struct.RTBuilder::Object"**, %"struct.RTBuilder::Object"*** %__first.addr, align 8, !dbg !2272
  %4 = load %"struct.RTBuilder::Object"**, %"struct.RTBuilder::Object"*** %__last.addr, align 8, !dbg !2273
  %5 = load %"struct.RTBuilder::Object"**, %"struct.RTBuilder::Object"*** %__last.addr, align 8, !dbg !2274
  %6 = load %"struct.__gnu_cxx::__ops::_Iter_comp_iter"*, %"struct.__gnu_cxx::__ops::_Iter_comp_iter"** %__comp.addr, align 8, !dbg !2275
  call void @_ZSt10__pop_heapIPPN9RTBuilder6ObjectEN9__gnu_cxx5__ops15_Iter_comp_iterIPFbRKS2_S8_EEEEvT_SC_SC_RT0_(%"struct.RTBuilder::Object"** %3, %"struct.RTBuilder::Object"** %4, %"struct.RTBuilder::Object"** %5, %"struct.__gnu_cxx::__ops::_Iter_comp_iter"* dereferenceable(8) %6), !dbg !2276
  br label %while.cond, !dbg !2265, !llvm.loop !2277

while.end:                                        ; preds = %while.cond
  ret void, !dbg !2279
}

; Function Attrs: noinline uwtable
define linkonce_odr dso_local void @_ZSt11__make_heapIPPN9RTBuilder6ObjectEN9__gnu_cxx5__ops15_Iter_comp_iterIPFbRKS2_S8_EEEEvT_SC_RT0_(%"struct.RTBuilder::Object"** %__first, %"struct.RTBuilder::Object"** %__last, %"struct.__gnu_cxx::__ops::_Iter_comp_iter"* dereferenceable(8) %__comp) #0 comdat !dbg !2280 {
entry:
  %__first.addr = alloca %"struct.RTBuilder::Object"**, align 8
  %__last.addr = alloca %"struct.RTBuilder::Object"**, align 8
  %__comp.addr = alloca %"struct.__gnu_cxx::__ops::_Iter_comp_iter"*, align 8
  %__len = alloca i64, align 8
  %__parent = alloca i64, align 8
  %__value = alloca %"struct.RTBuilder::Object"*, align 8
  %agg.tmp = alloca %"struct.__gnu_cxx::__ops::_Iter_comp_iter", align 8
  store %"struct.RTBuilder::Object"** %__first, %"struct.RTBuilder::Object"*** %__first.addr, align 8
  call void @llvm.dbg.declare(metadata %"struct.RTBuilder::Object"*** %__first.addr, metadata !2281, metadata !DIExpression()), !dbg !2282
  store %"struct.RTBuilder::Object"** %__last, %"struct.RTBuilder::Object"*** %__last.addr, align 8
  call void @llvm.dbg.declare(metadata %"struct.RTBuilder::Object"*** %__last.addr, metadata !2283, metadata !DIExpression()), !dbg !2284
  store %"struct.__gnu_cxx::__ops::_Iter_comp_iter"* %__comp, %"struct.__gnu_cxx::__ops::_Iter_comp_iter"** %__comp.addr, align 8
  call void @llvm.dbg.declare(metadata %"struct.__gnu_cxx::__ops::_Iter_comp_iter"** %__comp.addr, metadata !2285, metadata !DIExpression()), !dbg !2286
  %0 = load %"struct.RTBuilder::Object"**, %"struct.RTBuilder::Object"*** %__last.addr, align 8, !dbg !2287
  %1 = load %"struct.RTBuilder::Object"**, %"struct.RTBuilder::Object"*** %__first.addr, align 8, !dbg !2289
  %sub.ptr.lhs.cast = ptrtoint %"struct.RTBuilder::Object"** %0 to i64, !dbg !2290
  %sub.ptr.rhs.cast = ptrtoint %"struct.RTBuilder::Object"** %1 to i64, !dbg !2290
  %sub.ptr.sub = sub i64 %sub.ptr.lhs.cast, %sub.ptr.rhs.cast, !dbg !2290
  %sub.ptr.div = sdiv exact i64 %sub.ptr.sub, 8, !dbg !2290
  %cmp = icmp slt i64 %sub.ptr.div, 2, !dbg !2291
  br i1 %cmp, label %if.then, label %if.end, !dbg !2292

if.then:                                          ; preds = %entry
  br label %return, !dbg !2293

if.end:                                           ; preds = %entry
  call void @llvm.dbg.declare(metadata i64* %__len, metadata !2294, metadata !DIExpression()), !dbg !2297
  %2 = load %"struct.RTBuilder::Object"**, %"struct.RTBuilder::Object"*** %__last.addr, align 8, !dbg !2298
  %3 = load %"struct.RTBuilder::Object"**, %"struct.RTBuilder::Object"*** %__first.addr, align 8, !dbg !2299
  %sub.ptr.lhs.cast1 = ptrtoint %"struct.RTBuilder::Object"** %2 to i64, !dbg !2300
  %sub.ptr.rhs.cast2 = ptrtoint %"struct.RTBuilder::Object"** %3 to i64, !dbg !2300
  %sub.ptr.sub3 = sub i64 %sub.ptr.lhs.cast1, %sub.ptr.rhs.cast2, !dbg !2300
  %sub.ptr.div4 = sdiv exact i64 %sub.ptr.sub3, 8, !dbg !2300
  store i64 %sub.ptr.div4, i64* %__len, align 8, !dbg !2297
  call void @llvm.dbg.declare(metadata i64* %__parent, metadata !2301, metadata !DIExpression()), !dbg !2302
  %4 = load i64, i64* %__len, align 8, !dbg !2303
  %sub = sub nsw i64 %4, 2, !dbg !2304
  %div = sdiv i64 %sub, 2, !dbg !2305
  store i64 %div, i64* %__parent, align 8, !dbg !2302
  br label %while.body, !dbg !2306

while.body:                                       ; preds = %if.end, %if.end8
  call void @llvm.dbg.declare(metadata %"struct.RTBuilder::Object"** %__value, metadata !2307, metadata !DIExpression()), !dbg !2311
  %5 = load %"struct.RTBuilder::Object"**, %"struct.RTBuilder::Object"*** %__first.addr, align 8, !dbg !2312
  %6 = load i64, i64* %__parent, align 8, !dbg !2312
  %add.ptr = getelementptr inbounds %"struct.RTBuilder::Object"*, %"struct.RTBuilder::Object"** %5, i64 %6, !dbg !2312
  %call = call dereferenceable(8) %"struct.RTBuilder::Object"** @_ZSt4moveIRPN9RTBuilder6ObjectEEONSt16remove_referenceIT_E4typeEOS5_(%"struct.RTBuilder::Object"** dereferenceable(8) %add.ptr) #9, !dbg !2312
  %7 = load %"struct.RTBuilder::Object"*, %"struct.RTBuilder::Object"** %call, align 8, !dbg !2312
  store %"struct.RTBuilder::Object"* %7, %"struct.RTBuilder::Object"** %__value, align 8, !dbg !2311
  %8 = load %"struct.RTBuilder::Object"**, %"struct.RTBuilder::Object"*** %__first.addr, align 8, !dbg !2313
  %9 = load i64, i64* %__parent, align 8, !dbg !2314
  %10 = load i64, i64* %__len, align 8, !dbg !2315
  %call5 = call dereferenceable(8) %"struct.RTBuilder::Object"** @_ZSt4moveIRPN9RTBuilder6ObjectEEONSt16remove_referenceIT_E4typeEOS5_(%"struct.RTBuilder::Object"** dereferenceable(8) %__value) #9, !dbg !2316
  %11 = load %"struct.RTBuilder::Object"*, %"struct.RTBuilder::Object"** %call5, align 8, !dbg !2316
  %12 = load %"struct.__gnu_cxx::__ops::_Iter_comp_iter"*, %"struct.__gnu_cxx::__ops::_Iter_comp_iter"** %__comp.addr, align 8, !dbg !2317
  %13 = bitcast %"struct.__gnu_cxx::__ops::_Iter_comp_iter"* %agg.tmp to i8*, !dbg !2317
  %14 = bitcast %"struct.__gnu_cxx::__ops::_Iter_comp_iter"* %12 to i8*, !dbg !2317
  call void @llvm.memcpy.p0i8.p0i8.i64(i8* align 8 %13, i8* align 8 %14, i64 8, i1 false), !dbg !2317
  %coerce.dive = getelementptr inbounds %"struct.__gnu_cxx::__ops::_Iter_comp_iter", %"struct.__gnu_cxx::__ops::_Iter_comp_iter"* %agg.tmp, i32 0, i32 0, !dbg !2318
  %15 = load i1 (%"struct.RTBuilder::Object"**, %"struct.RTBuilder::Object"**)*, i1 (%"struct.RTBuilder::Object"**, %"struct.RTBuilder::Object"**)** %coerce.dive, align 8, !dbg !2318
  call void @_ZSt13__adjust_heapIPPN9RTBuilder6ObjectElS2_N9__gnu_cxx5__ops15_Iter_comp_iterIPFbRKS2_S8_EEEEvT_T0_SD_T1_T2_(%"struct.RTBuilder::Object"** %8, i64 %9, i64 %10, %"struct.RTBuilder::Object"* %11, i1 (%"struct.RTBuilder::Object"**, %"struct.RTBuilder::Object"**)* %15), !dbg !2318
  %16 = load i64, i64* %__parent, align 8, !dbg !2319
  %cmp6 = icmp eq i64 %16, 0, !dbg !2321
  br i1 %cmp6, label %if.then7, label %if.end8, !dbg !2322

if.then7:                                         ; preds = %while.body
  br label %return, !dbg !2323

if.end8:                                          ; preds = %while.body
  %17 = load i64, i64* %__parent, align 8, !dbg !2324
  %dec = add nsw i64 %17, -1, !dbg !2324
  store i64 %dec, i64* %__parent, align 8, !dbg !2324
  br label %while.body, !dbg !2306, !llvm.loop !2325

return:                                           ; preds = %if.then7, %if.then
  ret void, !dbg !2327
}

; Function Attrs: noinline uwtable
define linkonce_odr dso_local zeroext i1 @_ZN9__gnu_cxx5__ops15_Iter_comp_iterIPFbRKPN9RTBuilder6ObjectES6_EEclIPS4_SB_EEbT_T0_(%"struct.__gnu_cxx::__ops::_Iter_comp_iter"* %this, %"struct.RTBuilder::Object"** %__it1, %"struct.RTBuilder::Object"** %__it2) #0 comdat align 2 !dbg !2328 {
entry:
  %this.addr = alloca %"struct.__gnu_cxx::__ops::_Iter_comp_iter"*, align 8
  %__it1.addr = alloca %"struct.RTBuilder::Object"**, align 8
  %__it2.addr = alloca %"struct.RTBuilder::Object"**, align 8
  store %"struct.__gnu_cxx::__ops::_Iter_comp_iter"* %this, %"struct.__gnu_cxx::__ops::_Iter_comp_iter"** %this.addr, align 8
  call void @llvm.dbg.declare(metadata %"struct.__gnu_cxx::__ops::_Iter_comp_iter"** %this.addr, metadata !2335, metadata !DIExpression()), !dbg !2337
  store %"struct.RTBuilder::Object"** %__it1, %"struct.RTBuilder::Object"*** %__it1.addr, align 8
  call void @llvm.dbg.declare(metadata %"struct.RTBuilder::Object"*** %__it1.addr, metadata !2338, metadata !DIExpression()), !dbg !2339
  store %"struct.RTBuilder::Object"** %__it2, %"struct.RTBuilder::Object"*** %__it2.addr, align 8
  call void @llvm.dbg.declare(metadata %"struct.RTBuilder::Object"*** %__it2.addr, metadata !2340, metadata !DIExpression()), !dbg !2341
  %this1 = load %"struct.__gnu_cxx::__ops::_Iter_comp_iter"*, %"struct.__gnu_cxx::__ops::_Iter_comp_iter"** %this.addr, align 8
  %_M_comp = getelementptr inbounds %"struct.__gnu_cxx::__ops::_Iter_comp_iter", %"struct.__gnu_cxx::__ops::_Iter_comp_iter"* %this1, i32 0, i32 0, !dbg !2342
  %0 = load i1 (%"struct.RTBuilder::Object"**, %"struct.RTBuilder::Object"**)*, i1 (%"struct.RTBuilder::Object"**, %"struct.RTBuilder::Object"**)** %_M_comp, align 8, !dbg !2342
  %1 = load %"struct.RTBuilder::Object"**, %"struct.RTBuilder::Object"*** %__it1.addr, align 8, !dbg !2343
  %2 = load %"struct.RTBuilder::Object"**, %"struct.RTBuilder::Object"*** %__it2.addr, align 8, !dbg !2344
  %call = call zeroext i1 %0(%"struct.RTBuilder::Object"** dereferenceable(8) %1, %"struct.RTBuilder::Object"** dereferenceable(8) %2), !dbg !2342
  ret i1 %call, !dbg !2345
}

; Function Attrs: noinline uwtable
define linkonce_odr dso_local void @_ZSt10__pop_heapIPPN9RTBuilder6ObjectEN9__gnu_cxx5__ops15_Iter_comp_iterIPFbRKS2_S8_EEEEvT_SC_SC_RT0_(%"struct.RTBuilder::Object"** %__first, %"struct.RTBuilder::Object"** %__last, %"struct.RTBuilder::Object"** %__result, %"struct.__gnu_cxx::__ops::_Iter_comp_iter"* dereferenceable(8) %__comp) #0 comdat !dbg !58 {
entry:
  %__first.addr = alloca %"struct.RTBuilder::Object"**, align 8
  %__last.addr = alloca %"struct.RTBuilder::Object"**, align 8
  %__result.addr = alloca %"struct.RTBuilder::Object"**, align 8
  %__comp.addr = alloca %"struct.__gnu_cxx::__ops::_Iter_comp_iter"*, align 8
  %__value = alloca %"struct.RTBuilder::Object"*, align 8
  %agg.tmp = alloca %"struct.__gnu_cxx::__ops::_Iter_comp_iter", align 8
  store %"struct.RTBuilder::Object"** %__first, %"struct.RTBuilder::Object"*** %__first.addr, align 8
  call void @llvm.dbg.declare(metadata %"struct.RTBuilder::Object"*** %__first.addr, metadata !2346, metadata !DIExpression()), !dbg !2347
  store %"struct.RTBuilder::Object"** %__last, %"struct.RTBuilder::Object"*** %__last.addr, align 8
  call void @llvm.dbg.declare(metadata %"struct.RTBuilder::Object"*** %__last.addr, metadata !2348, metadata !DIExpression()), !dbg !2349
  store %"struct.RTBuilder::Object"** %__result, %"struct.RTBuilder::Object"*** %__result.addr, align 8
  call void @llvm.dbg.declare(metadata %"struct.RTBuilder::Object"*** %__result.addr, metadata !2350, metadata !DIExpression()), !dbg !2351
  store %"struct.__gnu_cxx::__ops::_Iter_comp_iter"* %__comp, %"struct.__gnu_cxx::__ops::_Iter_comp_iter"** %__comp.addr, align 8
  call void @llvm.dbg.declare(metadata %"struct.__gnu_cxx::__ops::_Iter_comp_iter"** %__comp.addr, metadata !2352, metadata !DIExpression()), !dbg !2353
  call void @llvm.dbg.declare(metadata %"struct.RTBuilder::Object"** %__value, metadata !2354, metadata !DIExpression()), !dbg !2356
  %0 = load %"struct.RTBuilder::Object"**, %"struct.RTBuilder::Object"*** %__result.addr, align 8, !dbg !2357
  %call = call dereferenceable(8) %"struct.RTBuilder::Object"** @_ZSt4moveIRPN9RTBuilder6ObjectEEONSt16remove_referenceIT_E4typeEOS5_(%"struct.RTBuilder::Object"** dereferenceable(8) %0) #9, !dbg !2357
  %1 = load %"struct.RTBuilder::Object"*, %"struct.RTBuilder::Object"** %call, align 8, !dbg !2357
  store %"struct.RTBuilder::Object"* %1, %"struct.RTBuilder::Object"** %__value, align 8, !dbg !2356
  %2 = load %"struct.RTBuilder::Object"**, %"struct.RTBuilder::Object"*** %__first.addr, align 8, !dbg !2358
  %call1 = call dereferenceable(8) %"struct.RTBuilder::Object"** @_ZSt4moveIRPN9RTBuilder6ObjectEEONSt16remove_referenceIT_E4typeEOS5_(%"struct.RTBuilder::Object"** dereferenceable(8) %2) #9, !dbg !2358
  %3 = load %"struct.RTBuilder::Object"*, %"struct.RTBuilder::Object"** %call1, align 8, !dbg !2358
  %4 = load %"struct.RTBuilder::Object"**, %"struct.RTBuilder::Object"*** %__result.addr, align 8, !dbg !2359
  store %"struct.RTBuilder::Object"* %3, %"struct.RTBuilder::Object"** %4, align 8, !dbg !2360
  %5 = load %"struct.RTBuilder::Object"**, %"struct.RTBuilder::Object"*** %__first.addr, align 8, !dbg !2361
  %6 = load %"struct.RTBuilder::Object"**, %"struct.RTBuilder::Object"*** %__last.addr, align 8, !dbg !2362
  %7 = load %"struct.RTBuilder::Object"**, %"struct.RTBuilder::Object"*** %__first.addr, align 8, !dbg !2363
  %sub.ptr.lhs.cast = ptrtoint %"struct.RTBuilder::Object"** %6 to i64, !dbg !2364
  %sub.ptr.rhs.cast = ptrtoint %"struct.RTBuilder::Object"** %7 to i64, !dbg !2364
  %sub.ptr.sub = sub i64 %sub.ptr.lhs.cast, %sub.ptr.rhs.cast, !dbg !2364
  %sub.ptr.div = sdiv exact i64 %sub.ptr.sub, 8, !dbg !2364
  %call2 = call dereferenceable(8) %"struct.RTBuilder::Object"** @_ZSt4moveIRPN9RTBuilder6ObjectEEONSt16remove_referenceIT_E4typeEOS5_(%"struct.RTBuilder::Object"** dereferenceable(8) %__value) #9, !dbg !2365
  %8 = load %"struct.RTBuilder::Object"*, %"struct.RTBuilder::Object"** %call2, align 8, !dbg !2365
  %9 = load %"struct.__gnu_cxx::__ops::_Iter_comp_iter"*, %"struct.__gnu_cxx::__ops::_Iter_comp_iter"** %__comp.addr, align 8, !dbg !2366
  %10 = bitcast %"struct.__gnu_cxx::__ops::_Iter_comp_iter"* %agg.tmp to i8*, !dbg !2366
  %11 = bitcast %"struct.__gnu_cxx::__ops::_Iter_comp_iter"* %9 to i8*, !dbg !2366
  call void @llvm.memcpy.p0i8.p0i8.i64(i8* align 8 %10, i8* align 8 %11, i64 8, i1 false), !dbg !2366
  %coerce.dive = getelementptr inbounds %"struct.__gnu_cxx::__ops::_Iter_comp_iter", %"struct.__gnu_cxx::__ops::_Iter_comp_iter"* %agg.tmp, i32 0, i32 0, !dbg !2367
  %12 = load i1 (%"struct.RTBuilder::Object"**, %"struct.RTBuilder::Object"**)*, i1 (%"struct.RTBuilder::Object"**, %"struct.RTBuilder::Object"**)** %coerce.dive, align 8, !dbg !2367
  call void @_ZSt13__adjust_heapIPPN9RTBuilder6ObjectElS2_N9__gnu_cxx5__ops15_Iter_comp_iterIPFbRKS2_S8_EEEEvT_T0_SD_T1_T2_(%"struct.RTBuilder::Object"** %5, i64 0, i64 %sub.ptr.div, %"struct.RTBuilder::Object"* %8, i1 (%"struct.RTBuilder::Object"**, %"struct.RTBuilder::Object"**)* %12), !dbg !2367
  ret void, !dbg !2368
}

; Function Attrs: noinline nounwind uwtable
define linkonce_odr dso_local dereferenceable(8) %"struct.RTBuilder::Object"** @_ZSt4moveIRPN9RTBuilder6ObjectEEONSt16remove_referenceIT_E4typeEOS5_(%"struct.RTBuilder::Object"** dereferenceable(8) %__t) #2 comdat !dbg !2369 {
entry:
  %__t.addr = alloca %"struct.RTBuilder::Object"**, align 8
  store %"struct.RTBuilder::Object"** %__t, %"struct.RTBuilder::Object"*** %__t.addr, align 8
  call void @llvm.dbg.declare(metadata %"struct.RTBuilder::Object"*** %__t.addr, metadata !2380, metadata !DIExpression()), !dbg !2381
  %0 = load %"struct.RTBuilder::Object"**, %"struct.RTBuilder::Object"*** %__t.addr, align 8, !dbg !2382
  ret %"struct.RTBuilder::Object"** %0, !dbg !2383
}

; Function Attrs: noinline uwtable
define linkonce_odr dso_local void @_ZSt13__adjust_heapIPPN9RTBuilder6ObjectElS2_N9__gnu_cxx5__ops15_Iter_comp_iterIPFbRKS2_S8_EEEEvT_T0_SD_T1_T2_(%"struct.RTBuilder::Object"** %__first, i64 %__holeIndex, i64 %__len, %"struct.RTBuilder::Object"* %__value, i1 (%"struct.RTBuilder::Object"**, %"struct.RTBuilder::Object"**)* %__comp.coerce) #0 comdat !dbg !2384 {
entry:
  %__comp = alloca %"struct.__gnu_cxx::__ops::_Iter_comp_iter", align 8
  %__first.addr = alloca %"struct.RTBuilder::Object"**, align 8
  %__holeIndex.addr = alloca i64, align 8
  %__len.addr = alloca i64, align 8
  %__value.addr = alloca %"struct.RTBuilder::Object"*, align 8
  %__topIndex = alloca i64, align 8
  %__secondChild = alloca i64, align 8
  %__cmp = alloca %"struct.__gnu_cxx::__ops::_Iter_comp_val", align 8
  %coerce.dive = getelementptr inbounds %"struct.__gnu_cxx::__ops::_Iter_comp_iter", %"struct.__gnu_cxx::__ops::_Iter_comp_iter"* %__comp, i32 0, i32 0
  store i1 (%"struct.RTBuilder::Object"**, %"struct.RTBuilder::Object"**)* %__comp.coerce, i1 (%"struct.RTBuilder::Object"**, %"struct.RTBuilder::Object"**)** %coerce.dive, align 8
  store %"struct.RTBuilder::Object"** %__first, %"struct.RTBuilder::Object"*** %__first.addr, align 8
  call void @llvm.dbg.declare(metadata %"struct.RTBuilder::Object"*** %__first.addr, metadata !2390, metadata !DIExpression()), !dbg !2391
  store i64 %__holeIndex, i64* %__holeIndex.addr, align 8
  call void @llvm.dbg.declare(metadata i64* %__holeIndex.addr, metadata !2392, metadata !DIExpression()), !dbg !2393
  store i64 %__len, i64* %__len.addr, align 8
  call void @llvm.dbg.declare(metadata i64* %__len.addr, metadata !2394, metadata !DIExpression()), !dbg !2395
  store %"struct.RTBuilder::Object"* %__value, %"struct.RTBuilder::Object"** %__value.addr, align 8
  call void @llvm.dbg.declare(metadata %"struct.RTBuilder::Object"** %__value.addr, metadata !2396, metadata !DIExpression()), !dbg !2397
  call void @llvm.dbg.declare(metadata %"struct.__gnu_cxx::__ops::_Iter_comp_iter"* %__comp, metadata !2398, metadata !DIExpression()), !dbg !2399
  call void @llvm.dbg.declare(metadata i64* %__topIndex, metadata !2400, metadata !DIExpression()), !dbg !2402
  %0 = load i64, i64* %__holeIndex.addr, align 8, !dbg !2403
  store i64 %0, i64* %__topIndex, align 8, !dbg !2402
  call void @llvm.dbg.declare(metadata i64* %__secondChild, metadata !2404, metadata !DIExpression()), !dbg !2405
  %1 = load i64, i64* %__holeIndex.addr, align 8, !dbg !2406
  store i64 %1, i64* %__secondChild, align 8, !dbg !2405
  br label %while.cond, !dbg !2407

while.cond:                                       ; preds = %if.end, %entry
  %2 = load i64, i64* %__secondChild, align 8, !dbg !2408
  %3 = load i64, i64* %__len.addr, align 8, !dbg !2409
  %sub = sub nsw i64 %3, 1, !dbg !2410
  %div = sdiv i64 %sub, 2, !dbg !2411
  %cmp = icmp slt i64 %2, %div, !dbg !2412
  br i1 %cmp, label %while.body, label %while.end, !dbg !2407

while.body:                                       ; preds = %while.cond
  %4 = load i64, i64* %__secondChild, align 8, !dbg !2413
  %add = add nsw i64 %4, 1, !dbg !2415
  %mul = mul nsw i64 2, %add, !dbg !2416
  store i64 %mul, i64* %__secondChild, align 8, !dbg !2417
  %5 = load %"struct.RTBuilder::Object"**, %"struct.RTBuilder::Object"*** %__first.addr, align 8, !dbg !2418
  %6 = load i64, i64* %__secondChild, align 8, !dbg !2420
  %add.ptr = getelementptr inbounds %"struct.RTBuilder::Object"*, %"struct.RTBuilder::Object"** %5, i64 %6, !dbg !2421
  %7 = load %"struct.RTBuilder::Object"**, %"struct.RTBuilder::Object"*** %__first.addr, align 8, !dbg !2422
  %8 = load i64, i64* %__secondChild, align 8, !dbg !2423
  %sub1 = sub nsw i64 %8, 1, !dbg !2424
  %add.ptr2 = getelementptr inbounds %"struct.RTBuilder::Object"*, %"struct.RTBuilder::Object"** %7, i64 %sub1, !dbg !2425
  %call = call zeroext i1 @_ZN9__gnu_cxx5__ops15_Iter_comp_iterIPFbRKPN9RTBuilder6ObjectES6_EEclIPS4_SB_EEbT_T0_(%"struct.__gnu_cxx::__ops::_Iter_comp_iter"* %__comp, %"struct.RTBuilder::Object"** %add.ptr, %"struct.RTBuilder::Object"** %add.ptr2), !dbg !2426
  br i1 %call, label %if.then, label %if.end, !dbg !2427

if.then:                                          ; preds = %while.body
  %9 = load i64, i64* %__secondChild, align 8, !dbg !2428
  %dec = add nsw i64 %9, -1, !dbg !2428
  store i64 %dec, i64* %__secondChild, align 8, !dbg !2428
  br label %if.end, !dbg !2429

if.end:                                           ; preds = %if.then, %while.body
  %10 = load %"struct.RTBuilder::Object"**, %"struct.RTBuilder::Object"*** %__first.addr, align 8, !dbg !2430
  %11 = load i64, i64* %__secondChild, align 8, !dbg !2430
  %add.ptr3 = getelementptr inbounds %"struct.RTBuilder::Object"*, %"struct.RTBuilder::Object"** %10, i64 %11, !dbg !2430
  %call4 = call dereferenceable(8) %"struct.RTBuilder::Object"** @_ZSt4moveIRPN9RTBuilder6ObjectEEONSt16remove_referenceIT_E4typeEOS5_(%"struct.RTBuilder::Object"** dereferenceable(8) %add.ptr3) #9, !dbg !2430
  %12 = load %"struct.RTBuilder::Object"*, %"struct.RTBuilder::Object"** %call4, align 8, !dbg !2430
  %13 = load %"struct.RTBuilder::Object"**, %"struct.RTBuilder::Object"*** %__first.addr, align 8, !dbg !2431
  %14 = load i64, i64* %__holeIndex.addr, align 8, !dbg !2432
  %add.ptr5 = getelementptr inbounds %"struct.RTBuilder::Object"*, %"struct.RTBuilder::Object"** %13, i64 %14, !dbg !2433
  store %"struct.RTBuilder::Object"* %12, %"struct.RTBuilder::Object"** %add.ptr5, align 8, !dbg !2434
  %15 = load i64, i64* %__secondChild, align 8, !dbg !2435
  store i64 %15, i64* %__holeIndex.addr, align 8, !dbg !2436
  br label %while.cond, !dbg !2407, !llvm.loop !2437

while.end:                                        ; preds = %while.cond
  %16 = load i64, i64* %__len.addr, align 8, !dbg !2439
  %and = and i64 %16, 1, !dbg !2441
  %cmp6 = icmp eq i64 %and, 0, !dbg !2442
  br i1 %cmp6, label %land.lhs.true, label %if.end18, !dbg !2443

land.lhs.true:                                    ; preds = %while.end
  %17 = load i64, i64* %__secondChild, align 8, !dbg !2444
  %18 = load i64, i64* %__len.addr, align 8, !dbg !2445
  %sub7 = sub nsw i64 %18, 2, !dbg !2446
  %div8 = sdiv i64 %sub7, 2, !dbg !2447
  %cmp9 = icmp eq i64 %17, %div8, !dbg !2448
  br i1 %cmp9, label %if.then10, label %if.end18, !dbg !2449

if.then10:                                        ; preds = %land.lhs.true
  %19 = load i64, i64* %__secondChild, align 8, !dbg !2450
  %add11 = add nsw i64 %19, 1, !dbg !2452
  %mul12 = mul nsw i64 2, %add11, !dbg !2453
  store i64 %mul12, i64* %__secondChild, align 8, !dbg !2454
  %20 = load %"struct.RTBuilder::Object"**, %"struct.RTBuilder::Object"*** %__first.addr, align 8, !dbg !2455
  %21 = load i64, i64* %__secondChild, align 8, !dbg !2455
  %sub13 = sub nsw i64 %21, 1, !dbg !2455
  %add.ptr14 = getelementptr inbounds %"struct.RTBuilder::Object"*, %"struct.RTBuilder::Object"** %20, i64 %sub13, !dbg !2455
  %call15 = call dereferenceable(8) %"struct.RTBuilder::Object"** @_ZSt4moveIRPN9RTBuilder6ObjectEEONSt16remove_referenceIT_E4typeEOS5_(%"struct.RTBuilder::Object"** dereferenceable(8) %add.ptr14) #9, !dbg !2455
  %22 = load %"struct.RTBuilder::Object"*, %"struct.RTBuilder::Object"** %call15, align 8, !dbg !2455
  %23 = load %"struct.RTBuilder::Object"**, %"struct.RTBuilder::Object"*** %__first.addr, align 8, !dbg !2456
  %24 = load i64, i64* %__holeIndex.addr, align 8, !dbg !2457
  %add.ptr16 = getelementptr inbounds %"struct.RTBuilder::Object"*, %"struct.RTBuilder::Object"** %23, i64 %24, !dbg !2458
  store %"struct.RTBuilder::Object"* %22, %"struct.RTBuilder::Object"** %add.ptr16, align 8, !dbg !2459
  %25 = load i64, i64* %__secondChild, align 8, !dbg !2460
  %sub17 = sub nsw i64 %25, 1, !dbg !2461
  store i64 %sub17, i64* %__holeIndex.addr, align 8, !dbg !2462
  br label %if.end18, !dbg !2463

if.end18:                                         ; preds = %if.then10, %land.lhs.true, %while.end
  call void @llvm.dbg.declare(metadata %"struct.__gnu_cxx::__ops::_Iter_comp_val"* %__cmp, metadata !2464, metadata !DIExpression()), !dbg !2478
  %call19 = call dereferenceable(8) %"struct.__gnu_cxx::__ops::_Iter_comp_iter"* @_ZSt4moveIRN9__gnu_cxx5__ops15_Iter_comp_iterIPFbRKPN9RTBuilder6ObjectES7_EEEEONSt16remove_referenceIT_E4typeEOSD_(%"struct.__gnu_cxx::__ops::_Iter_comp_iter"* dereferenceable(8) %__comp) #9, !dbg !2479
  call void @_ZN9__gnu_cxx5__ops14_Iter_comp_valIPFbRKPN9RTBuilder6ObjectES6_EEC2EONS0_15_Iter_comp_iterIS8_EE(%"struct.__gnu_cxx::__ops::_Iter_comp_val"* %__cmp, %"struct.__gnu_cxx::__ops::_Iter_comp_iter"* dereferenceable(8) %call19), !dbg !2478
  %26 = load %"struct.RTBuilder::Object"**, %"struct.RTBuilder::Object"*** %__first.addr, align 8, !dbg !2480
  %27 = load i64, i64* %__holeIndex.addr, align 8, !dbg !2481
  %28 = load i64, i64* %__topIndex, align 8, !dbg !2482
  %call20 = call dereferenceable(8) %"struct.RTBuilder::Object"** @_ZSt4moveIRPN9RTBuilder6ObjectEEONSt16remove_referenceIT_E4typeEOS5_(%"struct.RTBuilder::Object"** dereferenceable(8) %__value.addr) #9, !dbg !2483
  %29 = load %"struct.RTBuilder::Object"*, %"struct.RTBuilder::Object"** %call20, align 8, !dbg !2483
  call void @_ZSt11__push_heapIPPN9RTBuilder6ObjectElS2_N9__gnu_cxx5__ops14_Iter_comp_valIPFbRKS2_S8_EEEEvT_T0_SD_T1_RT2_(%"struct.RTBuilder::Object"** %26, i64 %27, i64 %28, %"struct.RTBuilder::Object"* %29, %"struct.__gnu_cxx::__ops::_Iter_comp_val"* dereferenceable(8) %__cmp), !dbg !2484
  ret void, !dbg !2485
}

; Function Attrs: noinline nounwind uwtable
define linkonce_odr dso_local dereferenceable(8) %"struct.__gnu_cxx::__ops::_Iter_comp_iter"* @_ZSt4moveIRN9__gnu_cxx5__ops15_Iter_comp_iterIPFbRKPN9RTBuilder6ObjectES7_EEEEONSt16remove_referenceIT_E4typeEOSD_(%"struct.__gnu_cxx::__ops::_Iter_comp_iter"* dereferenceable(8) %__t) #2 comdat !dbg !2486 {
entry:
  %__t.addr = alloca %"struct.__gnu_cxx::__ops::_Iter_comp_iter"*, align 8
  store %"struct.__gnu_cxx::__ops::_Iter_comp_iter"* %__t, %"struct.__gnu_cxx::__ops::_Iter_comp_iter"** %__t.addr, align 8
  call void @llvm.dbg.declare(metadata %"struct.__gnu_cxx::__ops::_Iter_comp_iter"** %__t.addr, metadata !2494, metadata !DIExpression()), !dbg !2495
  %0 = load %"struct.__gnu_cxx::__ops::_Iter_comp_iter"*, %"struct.__gnu_cxx::__ops::_Iter_comp_iter"** %__t.addr, align 8, !dbg !2496
  ret %"struct.__gnu_cxx::__ops::_Iter_comp_iter"* %0, !dbg !2497
}

; Function Attrs: noinline nounwind uwtable
define linkonce_odr dso_local void @_ZN9__gnu_cxx5__ops14_Iter_comp_valIPFbRKPN9RTBuilder6ObjectES6_EEC2EONS0_15_Iter_comp_iterIS8_EE(%"struct.__gnu_cxx::__ops::_Iter_comp_val"* %this, %"struct.__gnu_cxx::__ops::_Iter_comp_iter"* dereferenceable(8) %__comp) unnamed_addr #2 comdat align 2 !dbg !2498 {
entry:
  %this.addr = alloca %"struct.__gnu_cxx::__ops::_Iter_comp_val"*, align 8
  %__comp.addr = alloca %"struct.__gnu_cxx::__ops::_Iter_comp_iter"*, align 8
  store %"struct.__gnu_cxx::__ops::_Iter_comp_val"* %this, %"struct.__gnu_cxx::__ops::_Iter_comp_val"** %this.addr, align 8
  call void @llvm.dbg.declare(metadata %"struct.__gnu_cxx::__ops::_Iter_comp_val"** %this.addr, metadata !2499, metadata !DIExpression()), !dbg !2501
  store %"struct.__gnu_cxx::__ops::_Iter_comp_iter"* %__comp, %"struct.__gnu_cxx::__ops::_Iter_comp_iter"** %__comp.addr, align 8
  call void @llvm.dbg.declare(metadata %"struct.__gnu_cxx::__ops::_Iter_comp_iter"** %__comp.addr, metadata !2502, metadata !DIExpression()), !dbg !2503
  %this1 = load %"struct.__gnu_cxx::__ops::_Iter_comp_val"*, %"struct.__gnu_cxx::__ops::_Iter_comp_val"** %this.addr, align 8
  %_M_comp = getelementptr inbounds %"struct.__gnu_cxx::__ops::_Iter_comp_val", %"struct.__gnu_cxx::__ops::_Iter_comp_val"* %this1, i32 0, i32 0, !dbg !2504
  %0 = load %"struct.__gnu_cxx::__ops::_Iter_comp_iter"*, %"struct.__gnu_cxx::__ops::_Iter_comp_iter"** %__comp.addr, align 8, !dbg !2505
  %_M_comp2 = getelementptr inbounds %"struct.__gnu_cxx::__ops::_Iter_comp_iter", %"struct.__gnu_cxx::__ops::_Iter_comp_iter"* %0, i32 0, i32 0, !dbg !2506
  %call = call dereferenceable(8) i1 (%"struct.RTBuilder::Object"**, %"struct.RTBuilder::Object"**)** @_ZSt4moveIRPFbRKPN9RTBuilder6ObjectES4_EEONSt16remove_referenceIT_E4typeEOS9_(i1 (%"struct.RTBuilder::Object"**, %"struct.RTBuilder::Object"**)** dereferenceable(8) %_M_comp2) #9, !dbg !2507
  %1 = load i1 (%"struct.RTBuilder::Object"**, %"struct.RTBuilder::Object"**)*, i1 (%"struct.RTBuilder::Object"**, %"struct.RTBuilder::Object"**)** %call, align 8, !dbg !2507
  store i1 (%"struct.RTBuilder::Object"**, %"struct.RTBuilder::Object"**)* %1, i1 (%"struct.RTBuilder::Object"**, %"struct.RTBuilder::Object"**)** %_M_comp, align 8, !dbg !2504
  ret void, !dbg !2508
}

; Function Attrs: noinline uwtable
define linkonce_odr dso_local void @_ZSt11__push_heapIPPN9RTBuilder6ObjectElS2_N9__gnu_cxx5__ops14_Iter_comp_valIPFbRKS2_S8_EEEEvT_T0_SD_T1_RT2_(%"struct.RTBuilder::Object"** %__first, i64 %__holeIndex, i64 %__topIndex, %"struct.RTBuilder::Object"* %__value, %"struct.__gnu_cxx::__ops::_Iter_comp_val"* dereferenceable(8) %__comp) #0 comdat !dbg !2509 {
entry:
  %__first.addr = alloca %"struct.RTBuilder::Object"**, align 8
  %__holeIndex.addr = alloca i64, align 8
  %__topIndex.addr = alloca i64, align 8
  %__value.addr = alloca %"struct.RTBuilder::Object"*, align 8
  %__comp.addr = alloca %"struct.__gnu_cxx::__ops::_Iter_comp_val"*, align 8
  %__parent = alloca i64, align 8
  store %"struct.RTBuilder::Object"** %__first, %"struct.RTBuilder::Object"*** %__first.addr, align 8
  call void @llvm.dbg.declare(metadata %"struct.RTBuilder::Object"*** %__first.addr, metadata !2515, metadata !DIExpression()), !dbg !2516
  store i64 %__holeIndex, i64* %__holeIndex.addr, align 8
  call void @llvm.dbg.declare(metadata i64* %__holeIndex.addr, metadata !2517, metadata !DIExpression()), !dbg !2518
  store i64 %__topIndex, i64* %__topIndex.addr, align 8
  call void @llvm.dbg.declare(metadata i64* %__topIndex.addr, metadata !2519, metadata !DIExpression()), !dbg !2520
  store %"struct.RTBuilder::Object"* %__value, %"struct.RTBuilder::Object"** %__value.addr, align 8
  call void @llvm.dbg.declare(metadata %"struct.RTBuilder::Object"** %__value.addr, metadata !2521, metadata !DIExpression()), !dbg !2522
  store %"struct.__gnu_cxx::__ops::_Iter_comp_val"* %__comp, %"struct.__gnu_cxx::__ops::_Iter_comp_val"** %__comp.addr, align 8
  call void @llvm.dbg.declare(metadata %"struct.__gnu_cxx::__ops::_Iter_comp_val"** %__comp.addr, metadata !2523, metadata !DIExpression()), !dbg !2524
  call void @llvm.dbg.declare(metadata i64* %__parent, metadata !2525, metadata !DIExpression()), !dbg !2526
  %0 = load i64, i64* %__holeIndex.addr, align 8, !dbg !2527
  %sub = sub nsw i64 %0, 1, !dbg !2528
  %div = sdiv i64 %sub, 2, !dbg !2529
  store i64 %div, i64* %__parent, align 8, !dbg !2526
  br label %while.cond, !dbg !2530

while.cond:                                       ; preds = %while.body, %entry
  %1 = load i64, i64* %__holeIndex.addr, align 8, !dbg !2531
  %2 = load i64, i64* %__topIndex.addr, align 8, !dbg !2532
  %cmp = icmp sgt i64 %1, %2, !dbg !2533
  br i1 %cmp, label %land.rhs, label %land.end, !dbg !2534

land.rhs:                                         ; preds = %while.cond
  %3 = load %"struct.__gnu_cxx::__ops::_Iter_comp_val"*, %"struct.__gnu_cxx::__ops::_Iter_comp_val"** %__comp.addr, align 8, !dbg !2535
  %4 = load %"struct.RTBuilder::Object"**, %"struct.RTBuilder::Object"*** %__first.addr, align 8, !dbg !2536
  %5 = load i64, i64* %__parent, align 8, !dbg !2537
  %add.ptr = getelementptr inbounds %"struct.RTBuilder::Object"*, %"struct.RTBuilder::Object"** %4, i64 %5, !dbg !2538
  %call = call zeroext i1 @_ZN9__gnu_cxx5__ops14_Iter_comp_valIPFbRKPN9RTBuilder6ObjectES6_EEclIPS4_S4_EEbT_RT0_(%"struct.__gnu_cxx::__ops::_Iter_comp_val"* %3, %"struct.RTBuilder::Object"** %add.ptr, %"struct.RTBuilder::Object"** dereferenceable(8) %__value.addr), !dbg !2535
  br label %land.end

land.end:                                         ; preds = %land.rhs, %while.cond
  %6 = phi i1 [ false, %while.cond ], [ %call, %land.rhs ], !dbg !2539
  br i1 %6, label %while.body, label %while.end, !dbg !2530

while.body:                                       ; preds = %land.end
  %7 = load %"struct.RTBuilder::Object"**, %"struct.RTBuilder::Object"*** %__first.addr, align 8, !dbg !2540
  %8 = load i64, i64* %__parent, align 8, !dbg !2540
  %add.ptr1 = getelementptr inbounds %"struct.RTBuilder::Object"*, %"struct.RTBuilder::Object"** %7, i64 %8, !dbg !2540
