; ModuleID = 'blender/intern/ghost/intern/GHOST_TimerManager.cpp'
source_filename = "blender/intern/ghost/intern/GHOST_TimerManager.cpp"
target datalayout = "e-m:e-p270:32:32-p271:32:32-p272:64:64-i64:64-f80:128-n8:16:32:64-S128"
target triple = "x86_64-unknown-linux-gnu"

%class.GHOST_TimerManager = type { i32 (...)**, %"class.std::vector" }
%"class.std::vector" = type { %"struct.std::_Vector_base" }
%"struct.std::_Vector_base" = type { %"struct.std::_Vector_base<GHOST_TimerTask *, std::allocator<GHOST_TimerTask *> >::_Vector_impl" }
%"struct.std::_Vector_base<GHOST_TimerTask *, std::allocator<GHOST_TimerTask *> >::_Vector_impl" = type { %"struct.std::_Vector_base<GHOST_TimerTask *, std::allocator<GHOST_TimerTask *> >::_Vector_impl_data" }
%"struct.std::_Vector_base<GHOST_TimerTask *, std::allocator<GHOST_TimerTask *> >::_Vector_impl_data" = type { %class.GHOST_TimerTask**, %class.GHOST_TimerTask**, %class.GHOST_TimerTask** }
%class.GHOST_TimerTask = type <{ %class.GHOST_ITimerTask, i64, i64, i64, void (%class.GHOST_ITimerTask*, i64)*, i8*, i32, [4 x i8] }>
%class.GHOST_ITimerTask = type { i32 (...)** }
%"class.__gnu_cxx::__normal_iterator" = type { %class.GHOST_TimerTask** }
%"class.__gnu_cxx::__normal_iterator.0" = type { %class.GHOST_TimerTask** }
%"class.std::allocator" = type { i8 }
%"struct.__gnu_cxx::__ops::_Iter_equals_val" = type { %class.GHOST_TimerTask** }
%"class.__gnu_cxx::new_allocator" = type { i8 }
%"struct.std::random_access_iterator_tag" = type { i8 }
%"struct.std::integral_constant" = type { i8 }

$_ZNSt6vectorIP15GHOST_TimerTaskSaIS1_EEC2Ev = comdat any

$_ZNSt6vectorIP15GHOST_TimerTaskSaIS1_EED2Ev = comdat any

$__clang_call_terminate = comdat any

$_ZNKSt6vectorIP15GHOST_TimerTaskSaIS1_EE4sizeEv = comdat any

$_ZSt4findIN9__gnu_cxx17__normal_iteratorIPP15GHOST_TimerTaskSt6vectorIS3_SaIS3_EEEES3_ET_S9_S9_RKT0_ = comdat any

$_ZNSt6vectorIP15GHOST_TimerTaskSaIS1_EE5beginEv = comdat any

$_ZNSt6vectorIP15GHOST_TimerTaskSaIS1_EE3endEv = comdat any

$_ZN9__gnu_cxx17__normal_iteratorIPKP15GHOST_TimerTaskSt6vectorIS2_SaIS2_EEEC2IPS2_EERKNS0_IT_NS_11__enable_ifIXsr3std10__are_sameISB_SA_EE7__valueES7_E6__typeEEE = comdat any

$_ZN9__gnu_cxxneIPKP15GHOST_TimerTaskPS2_St6vectorIS2_SaIS2_EEEEbRKNS_17__normal_iteratorIT_T1_EERKNS9_IT0_SB_EE = comdat any

$_ZNSt6vectorIP15GHOST_TimerTaskSaIS1_EE9push_backERKS1_ = comdat any

$_ZN9__gnu_cxxneIPP15GHOST_TimerTaskSt6vectorIS2_SaIS2_EEEEbRKNS_17__normal_iteratorIT_T0_EESC_ = comdat any

$_ZNSt6vectorIP15GHOST_TimerTaskSaIS1_EE5eraseEN9__gnu_cxx17__normal_iteratorIPKS1_S3_EE = comdat any

$_ZN9__gnu_cxx17__normal_iteratorIPP15GHOST_TimerTaskSt6vectorIS2_SaIS2_EEEC2Ev = comdat any

$_ZNK9__gnu_cxx17__normal_iteratorIPP15GHOST_TimerTaskSt6vectorIS2_SaIS2_EEEdeEv = comdat any

$_ZN9__gnu_cxx17__normal_iteratorIPP15GHOST_TimerTaskSt6vectorIS2_SaIS2_EEEppEv = comdat any

$_ZNKSt6vectorIP15GHOST_TimerTaskSaIS1_EE5emptyEv = comdat any

$_ZNSt6vectorIP15GHOST_TimerTaskSaIS1_EEixEm = comdat any

$_ZNSt12_Vector_baseIP15GHOST_TimerTaskSaIS1_EEC2Ev = comdat any

$_ZNSt12_Vector_baseIP15GHOST_TimerTaskSaIS1_EE12_Vector_implC2Ev = comdat any

$_ZNSaIP15GHOST_TimerTaskEC2Ev = comdat any

$_ZNSt12_Vector_baseIP15GHOST_TimerTaskSaIS1_EE17_Vector_impl_dataC2Ev = comdat any

$_ZN9__gnu_cxx13new_allocatorIP15GHOST_TimerTaskEC2Ev = comdat any

$_ZSt8_DestroyIPP15GHOST_TimerTaskS1_EvT_S3_RSaIT0_E = comdat any

$_ZNSt12_Vector_baseIP15GHOST_TimerTaskSaIS1_EE19_M_get_Tp_allocatorEv = comdat any

$_ZNSt12_Vector_baseIP15GHOST_TimerTaskSaIS1_EED2Ev = comdat any

$_ZSt8_DestroyIPP15GHOST_TimerTaskEvT_S3_ = comdat any

$_ZNSt12_Destroy_auxILb1EE9__destroyIPP15GHOST_TimerTaskEEvT_S5_ = comdat any

$_ZNSt12_Vector_baseIP15GHOST_TimerTaskSaIS1_EE13_M_deallocateEPS1_m = comdat any

$_ZNSt12_Vector_baseIP15GHOST_TimerTaskSaIS1_EE12_Vector_implD2Ev = comdat any

$_ZNSt16allocator_traitsISaIP15GHOST_TimerTaskEE10deallocateERS2_PS1_m = comdat any

$_ZN9__gnu_cxx13new_allocatorIP15GHOST_TimerTaskE10deallocateEPS2_m = comdat any

$_ZNSaIP15GHOST_TimerTaskED2Ev = comdat any

$_ZN9__gnu_cxx13new_allocatorIP15GHOST_TimerTaskED2Ev = comdat any

$_ZN9__gnu_cxx17__normal_iteratorIPP15GHOST_TimerTaskSt6vectorIS2_SaIS2_EEEC2ERKS3_ = comdat any

$_ZSt9__find_ifIN9__gnu_cxx17__normal_iteratorIPP15GHOST_TimerTaskSt6vectorIS3_SaIS3_EEEENS0_5__ops16_Iter_equals_valIKS3_EEET_SD_SD_T0_ = comdat any

$_ZN9__gnu_cxx5__ops17__iter_equals_valIKP15GHOST_TimerTaskEENS0_16_Iter_equals_valIT_EERS6_ = comdat any

$_ZSt9__find_ifIN9__gnu_cxx17__normal_iteratorIPP15GHOST_TimerTaskSt6vectorIS3_SaIS3_EEEENS0_5__ops16_Iter_equals_valIKS3_EEET_SD_SD_T0_St26random_access_iterator_tag = comdat any

$_ZSt19__iterator_categoryIN9__gnu_cxx17__normal_iteratorIPP15GHOST_TimerTaskSt6vectorIS3_SaIS3_EEEEENSt15iterator_traitsIT_E17iterator_categoryERKSA_ = comdat any

$_ZN9__gnu_cxxmiIPP15GHOST_TimerTaskSt6vectorIS2_SaIS2_EEEENS_17__normal_iteratorIT_T0_E15difference_typeERKSA_SD_ = comdat any

$_ZN9__gnu_cxx5__ops16_Iter_equals_valIKP15GHOST_TimerTaskEclINS_17__normal_iteratorIPS3_St6vectorIS3_SaIS3_EEEEEEbT_ = comdat any

$_ZNK9__gnu_cxx17__normal_iteratorIPP15GHOST_TimerTaskSt6vectorIS2_SaIS2_EEE4baseEv = comdat any

$_ZN9__gnu_cxx5__ops16_Iter_equals_valIKP15GHOST_TimerTaskEC2ERS4_ = comdat any

$_ZNK9__gnu_cxx17__normal_iteratorIPKP15GHOST_TimerTaskSt6vectorIS2_SaIS2_EEE4baseEv = comdat any

$_ZNSt16allocator_traitsISaIP15GHOST_TimerTaskEE9constructIS1_JRKS1_EEEvRS2_PT_DpOT0_ = comdat any

$_ZNSt6vectorIP15GHOST_TimerTaskSaIS1_EE17_M_realloc_insertIJRKS1_EEEvN9__gnu_cxx17__normal_iteratorIPS1_S3_EEDpOT_ = comdat any

$_ZN9__gnu_cxx13new_allocatorIP15GHOST_TimerTaskE9constructIS2_JRKS2_EEEvPT_DpOT0_ = comdat any

$_ZSt7forwardIRKP15GHOST_TimerTaskEOT_RNSt16remove_referenceIS4_E4typeE = comdat any

$_ZNKSt6vectorIP15GHOST_TimerTaskSaIS1_EE12_M_check_lenEmPKc = comdat any

$_ZNSt12_Vector_baseIP15GHOST_TimerTaskSaIS1_EE11_M_allocateEm = comdat any

$_ZNSt6vectorIP15GHOST_TimerTaskSaIS1_EE11_S_relocateEPS1_S4_S4_RS2_ = comdat any

$_ZNKSt6vectorIP15GHOST_TimerTaskSaIS1_EE8max_sizeEv = comdat any

$_ZSt3maxImERKT_S2_S2_ = comdat any

$_ZNSt6vectorIP15GHOST_TimerTaskSaIS1_EE11_S_max_sizeERKS2_ = comdat any

$_ZNKSt12_Vector_baseIP15GHOST_TimerTaskSaIS1_EE19_M_get_Tp_allocatorEv = comdat any

$_ZNSt16allocator_traitsISaIP15GHOST_TimerTaskEE8max_sizeERKS2_ = comdat any

$_ZSt3minImERKT_S2_S2_ = comdat any

$_ZNK9__gnu_cxx13new_allocatorIP15GHOST_TimerTaskE8max_sizeEv = comdat any

$_ZNK9__gnu_cxx13new_allocatorIP15GHOST_TimerTaskE11_M_max_sizeEv = comdat any

$_ZNSt16allocator_traitsISaIP15GHOST_TimerTaskEE8allocateERS2_m = comdat any

$_ZN9__gnu_cxx13new_allocatorIP15GHOST_TimerTaskE8allocateEmPKv = comdat any

$_ZNSt6vectorIP15GHOST_TimerTaskSaIS1_EE14_S_do_relocateEPS1_S4_S4_RS2_St17integral_constantIbLb1EE = comdat any

$_ZSt12__relocate_aIPP15GHOST_TimerTaskS2_SaIS1_EET0_T_S5_S4_RT1_ = comdat any

$_ZSt14__relocate_a_1IP15GHOST_TimerTaskS1_ENSt9enable_ifIXsr3std24__is_bitwise_relocatableIT_EE5valueEPS3_E4typeES4_S4_S4_RSaIT0_E = comdat any

$_ZSt12__niter_baseIPP15GHOST_TimerTaskET_S3_ = comdat any

$_ZNSt6vectorIP15GHOST_TimerTaskSaIS1_EE8_M_eraseEN9__gnu_cxx17__normal_iteratorIPS1_S3_EE = comdat any

$_ZNK9__gnu_cxx17__normal_iteratorIPP15GHOST_TimerTaskSt6vectorIS2_SaIS2_EEEplEl = comdat any

$_ZN9__gnu_cxxmiIPKP15GHOST_TimerTaskSt6vectorIS2_SaIS2_EEEENS_17__normal_iteratorIT_T0_E15difference_typeERKSB_SE_ = comdat any

$_ZNKSt6vectorIP15GHOST_TimerTaskSaIS1_EE6cbeginEv = comdat any

$_ZSt4moveIN9__gnu_cxx17__normal_iteratorIPP15GHOST_TimerTaskSt6vectorIS3_SaIS3_EEEES8_ET0_T_SA_S9_ = comdat any

$_ZNSt16allocator_traitsISaIP15GHOST_TimerTaskEE7destroyIS1_EEvRS2_PT_ = comdat any

$_ZSt13__copy_move_aILb1EN9__gnu_cxx17__normal_iteratorIPP15GHOST_TimerTaskSt6vectorIS3_SaIS3_EEEES8_ET1_T0_SA_S9_ = comdat any

$_ZSt12__miter_baseIN9__gnu_cxx17__normal_iteratorIPP15GHOST_TimerTaskSt6vectorIS3_SaIS3_EEEEET_S9_ = comdat any

$_ZSt12__niter_wrapIN9__gnu_cxx17__normal_iteratorIPP15GHOST_TimerTaskSt6vectorIS3_SaIS3_EEEES4_ET_S9_T0_ = comdat any

$_ZSt14__copy_move_a1ILb1EPP15GHOST_TimerTaskS2_ET1_T0_S4_S3_ = comdat any

$_ZSt12__niter_baseIPP15GHOST_TimerTaskSt6vectorIS1_SaIS1_EEET_N9__gnu_cxx17__normal_iteratorIS6_T0_EE = comdat any

$_ZSt14__copy_move_a2ILb1EPP15GHOST_TimerTaskS2_ET1_T0_S4_S3_ = comdat any

$_ZNSt11__copy_moveILb1ELb1ESt26random_access_iterator_tagE8__copy_mIP15GHOST_TimerTaskEEPT_PKS5_S8_S6_ = comdat any

$_ZN9__gnu_cxx13new_allocatorIP15GHOST_TimerTaskE7destroyIS2_EEvPT_ = comdat any

$_ZN9__gnu_cxx17__normal_iteratorIPKP15GHOST_TimerTaskSt6vectorIS2_SaIS2_EEEC2ERKS4_ = comdat any

$_ZN9__gnu_cxxeqIPKP15GHOST_TimerTaskSt6vectorIS2_SaIS2_EEEEbRKNS_17__normal_iteratorIT_T0_EESD_ = comdat any

$_ZNKSt6vectorIP15GHOST_TimerTaskSaIS1_EE5beginEv = comdat any

$_ZNKSt6vectorIP15GHOST_TimerTaskSaIS1_EE3endEv = comdat any

@_ZTV18GHOST_TimerManager = dso_local unnamed_addr constant { [11 x i8*] } { [11 x i8*] [i8* null, i8* bitcast ({ i8*, i8* }* @_ZTI18GHOST_TimerManager to i8*), i8* bitcast (void (%class.GHOST_TimerManager*)* @_ZN18GHOST_TimerManagerD1Ev to i8*), i8* bitcast (void (%class.GHOST_TimerManager*)* @_ZN18GHOST_TimerManagerD0Ev to i8*), i8* bitcast (i32 (%class.GHOST_TimerManager*)* @_ZN18GHOST_TimerManager12getNumTimersEv to i8*), i8* bitcast (i1 (%class.GHOST_TimerManager*, %class.GHOST_TimerTask*)* @_ZN18GHOST_TimerManager13getTimerFoundEP15GHOST_TimerTask to i8*), i8* bitcast (i32 (%class.GHOST_TimerManager*, %class.GHOST_TimerTask*)* @_ZN18GHOST_TimerManager8addTimerEP15GHOST_TimerTask to i8*), i8* bitcast (i32 (%class.GHOST_TimerManager*, %class.GHOST_TimerTask*)* @_ZN18GHOST_TimerManager11removeTimerEP15GHOST_TimerTask to i8*), i8* bitcast (i64 (%class.GHOST_TimerManager*)* @_ZN18GHOST_TimerManager12nextFireTimeEv to i8*), i8* bitcast (i1 (%class.GHOST_TimerManager*, i64)* @_ZN18GHOST_TimerManager10fireTimersEy to i8*), i8* bitcast (i1 (%class.GHOST_TimerManager*, i64, %class.GHOST_TimerTask*)* @_ZN18GHOST_TimerManager9fireTimerEyP15GHOST_TimerTask to i8*)] }, align 8
@_ZTVN10__cxxabiv117__class_type_infoE = external dso_local global i8*
@_ZTS18GHOST_TimerManager = dso_local constant [21 x i8] c"18GHOST_TimerManager\00", align 1
@_ZTI18GHOST_TimerManager = dso_local constant { i8*, i8* } { i8* bitcast (i8** getelementptr inbounds (i8*, i8** @_ZTVN10__cxxabiv117__class_type_infoE, i64 2) to i8*), i8* getelementptr inbounds ([21 x i8], [21 x i8]* @_ZTS18GHOST_TimerManager, i32 0, i32 0) }, align 8
@.str = private unnamed_addr constant [26 x i8] c"vector::_M_realloc_insert\00", align 1

@_ZN18GHOST_TimerManagerC1Ev = dso_local unnamed_addr alias void (%class.GHOST_TimerManager*), void (%class.GHOST_TimerManager*)* @_ZN18GHOST_TimerManagerC2Ev
@_ZN18GHOST_TimerManagerD1Ev = dso_local unnamed_addr alias void (%class.GHOST_TimerManager*), void (%class.GHOST_TimerManager*)* @_ZN18GHOST_TimerManagerD2Ev

; Function Attrs: noinline nounwind uwtable
define dso_local void @_ZN18GHOST_TimerManagerC2Ev(%class.GHOST_TimerManager* %this) unnamed_addr #0 align 2 !dbg !892 {
entry:
  %this.addr = alloca %class.GHOST_TimerManager*, align 8
  store %class.GHOST_TimerManager* %this, %class.GHOST_TimerManager** %this.addr, align 8
  call void @llvm.dbg.declare(metadata %class.GHOST_TimerManager** %this.addr, metadata !928, metadata !DIExpression()), !dbg !930
  %this1 = load %class.GHOST_TimerManager*, %class.GHOST_TimerManager** %this.addr, align 8
  %0 = bitcast %class.GHOST_TimerManager* %this1 to i32 (...)***, !dbg !931
  store i32 (...)** bitcast (i8** getelementptr inbounds ({ [11 x i8*] }, { [11 x i8*] }* @_ZTV18GHOST_TimerManager, i32 0, inrange i32 0, i32 2) to i32 (...)**), i32 (...)*** %0, align 8, !dbg !931
  %m_timers = getelementptr inbounds %class.GHOST_TimerManager, %class.GHOST_TimerManager* %this1, i32 0, i32 1, !dbg !932
  call void @_ZNSt6vectorIP15GHOST_TimerTaskSaIS1_EEC2Ev(%"class.std::vector"* %m_timers) #8, !dbg !932
  ret void, !dbg !933
}

; Function Attrs: nounwind readnone speculatable willreturn
declare void @llvm.dbg.declare(metadata, metadata, metadata) #1

; Function Attrs: noinline nounwind uwtable
define linkonce_odr dso_local void @_ZNSt6vectorIP15GHOST_TimerTaskSaIS1_EEC2Ev(%"class.std::vector"* %this) unnamed_addr #0 comdat align 2 !dbg !934 {
entry:
  %this.addr = alloca %"class.std::vector"*, align 8
  store %"class.std::vector"* %this, %"class.std::vector"** %this.addr, align 8
  call void @llvm.dbg.declare(metadata %"class.std::vector"** %this.addr, metadata !935, metadata !DIExpression()), !dbg !937
  %this1 = load %"class.std::vector"*, %"class.std::vector"** %this.addr, align 8
  %0 = bitcast %"class.std::vector"* %this1 to %"struct.std::_Vector_base"*, !dbg !938
  call void @_ZNSt12_Vector_baseIP15GHOST_TimerTaskSaIS1_EEC2Ev(%"struct.std::_Vector_base"* %0) #8, !dbg !939
  ret void, !dbg !938
}

; Function Attrs: noinline nounwind uwtable
define dso_local void @_ZN18GHOST_TimerManagerD2Ev(%class.GHOST_TimerManager* %this) unnamed_addr #0 align 2 personality i8* bitcast (i32 (...)* @__gxx_personality_v0 to i8*) !dbg !940 {
entry:
  %this.addr = alloca %class.GHOST_TimerManager*, align 8
  %exn.slot = alloca i8*
  %ehselector.slot = alloca i32
  store %class.GHOST_TimerManager* %this, %class.GHOST_TimerManager** %this.addr, align 8
  call void @llvm.dbg.declare(metadata %class.GHOST_TimerManager** %this.addr, metadata !941, metadata !DIExpression()), !dbg !942
  %this1 = load %class.GHOST_TimerManager*, %class.GHOST_TimerManager** %this.addr, align 8
  %0 = bitcast %class.GHOST_TimerManager* %this1 to i32 (...)***, !dbg !943
  store i32 (...)** bitcast (i8** getelementptr inbounds ({ [11 x i8*] }, { [11 x i8*] }* @_ZTV18GHOST_TimerManager, i32 0, inrange i32 0, i32 2) to i32 (...)**), i32 (...)*** %0, align 8, !dbg !943
  invoke void @_ZN18GHOST_TimerManager13disposeTimersEv(%class.GHOST_TimerManager* %this1)
          to label %invoke.cont unwind label %lpad, !dbg !944

invoke.cont:                                      ; preds = %entry
  %m_timers = getelementptr inbounds %class.GHOST_TimerManager, %class.GHOST_TimerManager* %this1, i32 0, i32 1, !dbg !946
  call void @_ZNSt6vectorIP15GHOST_TimerTaskSaIS1_EED2Ev(%"class.std::vector"* %m_timers) #8, !dbg !946
  ret void, !dbg !947

lpad:                                             ; preds = %entry
  %1 = landingpad { i8*, i32 }
          catch i8* null, !dbg !946
  %2 = extractvalue { i8*, i32 } %1, 0, !dbg !946
  store i8* %2, i8** %exn.slot, align 8, !dbg !946
  %3 = extractvalue { i8*, i32 } %1, 1, !dbg !946
  store i32 %3, i32* %ehselector.slot, align 4, !dbg !946
  %m_timers2 = getelementptr inbounds %class.GHOST_TimerManager, %class.GHOST_TimerManager* %this1, i32 0, i32 1, !dbg !946
  call void @_ZNSt6vectorIP15GHOST_TimerTaskSaIS1_EED2Ev(%"class.std::vector"* %m_timers2) #8, !dbg !946
  br label %terminate.handler, !dbg !946

terminate.handler:                                ; preds = %lpad
  %exn = load i8*, i8** %exn.slot, align 8, !dbg !946
  call void @__clang_call_terminate(i8* %exn) #9, !dbg !946
  unreachable, !dbg !946
}

; Function Attrs: noinline uwtable
define dso_local void @_ZN18GHOST_TimerManager13disposeTimersEv(%class.GHOST_TimerManager* %this) #2 align 2 !dbg !948 {
entry:
  %this.addr = alloca %class.GHOST_TimerManager*, align 8
  %agg.tmp = alloca %"class.__gnu_cxx::__normal_iterator", align 8
  %ref.tmp = alloca %"class.__gnu_cxx::__normal_iterator.0", align 8
  %coerce = alloca %"class.__gnu_cxx::__normal_iterator.0", align 8
  store %class.GHOST_TimerManager* %this, %class.GHOST_TimerManager** %this.addr, align 8
  call void @llvm.dbg.declare(metadata %class.GHOST_TimerManager** %this.addr, metadata !949, metadata !DIExpression()), !dbg !950
  %this1 = load %class.GHOST_TimerManager*, %class.GHOST_TimerManager** %this.addr, align 8
  br label %while.cond, !dbg !951

while.cond:                                       ; preds = %delete.end, %entry
  %m_timers = getelementptr inbounds %class.GHOST_TimerManager, %class.GHOST_TimerManager* %this1, i32 0, i32 1, !dbg !952
  %call = call zeroext i1 @_ZNKSt6vectorIP15GHOST_TimerTaskSaIS1_EE5emptyEv(%"class.std::vector"* %m_timers) #8, !dbg !953
  %conv = zext i1 %call to i32, !dbg !952
  %cmp = icmp eq i32 %conv, 0, !dbg !954
  br i1 %cmp, label %while.body, label %while.end, !dbg !951

while.body:                                       ; preds = %while.cond
  %m_timers2 = getelementptr inbounds %class.GHOST_TimerManager, %class.GHOST_TimerManager* %this1, i32 0, i32 1, !dbg !955
  %call3 = call dereferenceable(8) %class.GHOST_TimerTask** @_ZNSt6vectorIP15GHOST_TimerTaskSaIS1_EEixEm(%"class.std::vector"* %m_timers2, i64 0) #8, !dbg !955
  %0 = load %class.GHOST_TimerTask*, %class.GHOST_TimerTask** %call3, align 8, !dbg !955
  %isnull = icmp eq %class.GHOST_TimerTask* %0, null, !dbg !957
  br i1 %isnull, label %delete.end, label %delete.notnull, !dbg !957

delete.notnull:                                   ; preds = %while.body
  %1 = bitcast %class.GHOST_TimerTask* %0 to void (%class.GHOST_TimerTask*)***, !dbg !957
  %vtable = load void (%class.GHOST_TimerTask*)**, void (%class.GHOST_TimerTask*)*** %1, align 8, !dbg !957
  %vfn = getelementptr inbounds void (%class.GHOST_TimerTask*)*, void (%class.GHOST_TimerTask*)** %vtable, i64 1, !dbg !957
  %2 = load void (%class.GHOST_TimerTask*)*, void (%class.GHOST_TimerTask*)** %vfn, align 8, !dbg !957
  call void %2(%class.GHOST_TimerTask* %0) #8, !dbg !957
  br label %delete.end, !dbg !957

delete.end:                                       ; preds = %delete.notnull, %while.body
  %m_timers4 = getelementptr inbounds %class.GHOST_TimerManager, %class.GHOST_TimerManager* %this1, i32 0, i32 1, !dbg !958
  %m_timers5 = getelementptr inbounds %class.GHOST_TimerManager, %class.GHOST_TimerManager* %this1, i32 0, i32 1, !dbg !959
  %call6 = call %class.GHOST_TimerTask** @_ZNSt6vectorIP15GHOST_TimerTaskSaIS1_EE5beginEv(%"class.std::vector"* %m_timers5) #8, !dbg !960
  %coerce.dive = getelementptr inbounds %"class.__gnu_cxx::__normal_iterator.0", %"class.__gnu_cxx::__normal_iterator.0"* %ref.tmp, i32 0, i32 0, !dbg !960
  store %class.GHOST_TimerTask** %call6, %class.GHOST_TimerTask*** %coerce.dive, align 8, !dbg !960
  call void @_ZN9__gnu_cxx17__normal_iteratorIPKP15GHOST_TimerTaskSt6vectorIS2_SaIS2_EEEC2IPS2_EERKNS0_IT_NS_11__enable_ifIXsr3std10__are_sameISB_SA_EE7__valueES7_E6__typeEEE(%"class.__gnu_cxx::__normal_iterator"* %agg.tmp, %"class.__gnu_cxx::__normal_iterator.0"* dereferenceable(8) %ref.tmp) #8, !dbg !959
  %coerce.dive7 = getelementptr inbounds %"class.__gnu_cxx::__normal_iterator", %"class.__gnu_cxx::__normal_iterator"* %agg.tmp, i32 0, i32 0, !dbg !961
  %3 = load %class.GHOST_TimerTask**, %class.GHOST_TimerTask*** %coerce.dive7, align 8, !dbg !961
  %call8 = call %class.GHOST_TimerTask** @_ZNSt6vectorIP15GHOST_TimerTaskSaIS1_EE5eraseEN9__gnu_cxx17__normal_iteratorIPKS1_S3_EE(%"class.std::vector"* %m_timers4, %class.GHOST_TimerTask** %3), !dbg !961
  %coerce.dive9 = getelementptr inbounds %"class.__gnu_cxx::__normal_iterator.0", %"class.__gnu_cxx::__normal_iterator.0"* %coerce, i32 0, i32 0, !dbg !961
  store %class.GHOST_TimerTask** %call8, %class.GHOST_TimerTask*** %coerce.dive9, align 8, !dbg !961
  br label %while.cond, !dbg !951, !llvm.loop !962

while.end:                                        ; preds = %while.cond
  ret void, !dbg !964
}

declare dso_local i32 @__gxx_personality_v0(...)

; Function Attrs: noinline nounwind uwtable
define linkonce_odr dso_local void @_ZNSt6vectorIP15GHOST_TimerTaskSaIS1_EED2Ev(%"class.std::vector"* %this) unnamed_addr #0 comdat align 2 personality i8* bitcast (i32 (...)* @__gxx_personality_v0 to i8*) !dbg !965 {
entry:
  %this.addr = alloca %"class.std::vector"*, align 8
  %exn.slot = alloca i8*
  %ehselector.slot = alloca i32
  store %"class.std::vector"* %this, %"class.std::vector"** %this.addr, align 8
  call void @llvm.dbg.declare(metadata %"class.std::vector"** %this.addr, metadata !966, metadata !DIExpression()), !dbg !967
  %this1 = load %"class.std::vector"*, %"class.std::vector"** %this.addr, align 8
  %0 = bitcast %"class.std::vector"* %this1 to %"struct.std::_Vector_base"*, !dbg !968
  %_M_impl = getelementptr inbounds %"struct.std::_Vector_base", %"struct.std::_Vector_base"* %0, i32 0, i32 0, !dbg !968
  %1 = bitcast %"struct.std::_Vector_base<GHOST_TimerTask *, std::allocator<GHOST_TimerTask *> >::_Vector_impl"* %_M_impl to %"struct.std::_Vector_base<GHOST_TimerTask *, std::allocator<GHOST_TimerTask *> >::_Vector_impl_data"*, !dbg !970
  %_M_start = getelementptr inbounds %"struct.std::_Vector_base<GHOST_TimerTask *, std::allocator<GHOST_TimerTask *> >::_Vector_impl_data", %"struct.std::_Vector_base<GHOST_TimerTask *, std::allocator<GHOST_TimerTask *> >::_Vector_impl_data"* %1, i32 0, i32 0, !dbg !971
  %2 = load %class.GHOST_TimerTask**, %class.GHOST_TimerTask*** %_M_start, align 8, !dbg !971
  %3 = bitcast %"class.std::vector"* %this1 to %"struct.std::_Vector_base"*, !dbg !972
  %_M_impl2 = getelementptr inbounds %"struct.std::_Vector_base", %"struct.std::_Vector_base"* %3, i32 0, i32 0, !dbg !972
  %4 = bitcast %"struct.std::_Vector_base<GHOST_TimerTask *, std::allocator<GHOST_TimerTask *> >::_Vector_impl"* %_M_impl2 to %"struct.std::_Vector_base<GHOST_TimerTask *, std::allocator<GHOST_TimerTask *> >::_Vector_impl_data"*, !dbg !973
  %_M_finish = getelementptr inbounds %"struct.std::_Vector_base<GHOST_TimerTask *, std::allocator<GHOST_TimerTask *> >::_Vector_impl_data", %"struct.std::_Vector_base<GHOST_TimerTask *, std::allocator<GHOST_TimerTask *> >::_Vector_impl_data"* %4, i32 0, i32 1, !dbg !974
  %5 = load %class.GHOST_TimerTask**, %class.GHOST_TimerTask*** %_M_finish, align 8, !dbg !974
  %6 = bitcast %"class.std::vector"* %this1 to %"struct.std::_Vector_base"*, !dbg !975
  %call = call dereferenceable(1) %"class.std::allocator"* @_ZNSt12_Vector_baseIP15GHOST_TimerTaskSaIS1_EE19_M_get_Tp_allocatorEv(%"struct.std::_Vector_base"* %6) #8, !dbg !975
  invoke void @_ZSt8_DestroyIPP15GHOST_TimerTaskS1_EvT_S3_RSaIT0_E(%class.GHOST_TimerTask** %2, %class.GHOST_TimerTask** %5, %"class.std::allocator"* dereferenceable(1) %call)
          to label %invoke.cont unwind label %lpad, !dbg !976

invoke.cont:                                      ; preds = %entry
  %7 = bitcast %"class.std::vector"* %this1 to %"struct.std::_Vector_base"*, !dbg !977
  call void @_ZNSt12_Vector_baseIP15GHOST_TimerTaskSaIS1_EED2Ev(%"struct.std::_Vector_base"* %7) #8, !dbg !977
  ret void, !dbg !978

lpad:                                             ; preds = %entry
  %8 = landingpad { i8*, i32 }
          catch i8* null, !dbg !977
  %9 = extractvalue { i8*, i32 } %8, 0, !dbg !977
  store i8* %9, i8** %exn.slot, align 8, !dbg !977
  %10 = extractvalue { i8*, i32 } %8, 1, !dbg !977
  store i32 %10, i32* %ehselector.slot, align 4, !dbg !977
  %11 = bitcast %"class.std::vector"* %this1 to %"struct.std::_Vector_base"*, !dbg !977
  call void @_ZNSt12_Vector_baseIP15GHOST_TimerTaskSaIS1_EED2Ev(%"struct.std::_Vector_base"* %11) #8, !dbg !977
  br label %terminate.handler, !dbg !977

terminate.handler:                                ; preds = %lpad
  %exn = load i8*, i8** %exn.slot, align 8, !dbg !977
  call void @__clang_call_terminate(i8* %exn) #9, !dbg !977
  unreachable, !dbg !977
}

; Function Attrs: noinline noreturn nounwind
define linkonce_odr hidden void @__clang_call_terminate(i8* %0) #3 comdat {
  %2 = call i8* @__cxa_begin_catch(i8* %0) #8
  call void @_ZSt9terminatev() #9
  unreachable
}

declare dso_local i8* @__cxa_begin_catch(i8*)

declare dso_local void @_ZSt9terminatev()

; Function Attrs: noinline nounwind uwtable
define dso_local void @_ZN18GHOST_TimerManagerD0Ev(%class.GHOST_TimerManager* %this) unnamed_addr #0 align 2 !dbg !979 {
entry:
  %this.addr = alloca %class.GHOST_TimerManager*, align 8
  store %class.GHOST_TimerManager* %this, %class.GHOST_TimerManager** %this.addr, align 8
  call void @llvm.dbg.declare(metadata %class.GHOST_TimerManager** %this.addr, metadata !980, metadata !DIExpression()), !dbg !981
  %this1 = load %class.GHOST_TimerManager*, %class.GHOST_TimerManager** %this.addr, align 8
  call void @_ZN18GHOST_TimerManagerD1Ev(%class.GHOST_TimerManager* %this1) #8, !dbg !982
  %0 = bitcast %class.GHOST_TimerManager* %this1 to i8*, !dbg !982
  call void @_ZdlPv(i8* %0) #10, !dbg !982
  ret void, !dbg !983
}

; Function Attrs: nobuiltin nounwind
declare dso_local void @_ZdlPv(i8*) #4

; Function Attrs: noinline nounwind uwtable
define dso_local i32 @_ZN18GHOST_TimerManager12getNumTimersEv(%class.GHOST_TimerManager* %this) unnamed_addr #0 align 2 !dbg !984 {
entry:
  %this.addr = alloca %class.GHOST_TimerManager*, align 8
  store %class.GHOST_TimerManager* %this, %class.GHOST_TimerManager** %this.addr, align 8
  call void @llvm.dbg.declare(metadata %class.GHOST_TimerManager** %this.addr, metadata !985, metadata !DIExpression()), !dbg !986
  %this1 = load %class.GHOST_TimerManager*, %class.GHOST_TimerManager** %this.addr, align 8
  %m_timers = getelementptr inbounds %class.GHOST_TimerManager, %class.GHOST_TimerManager* %this1, i32 0, i32 1, !dbg !987
  %call = call i64 @_ZNKSt6vectorIP15GHOST_TimerTaskSaIS1_EE4sizeEv(%"class.std::vector"* %m_timers) #8, !dbg !988
  %conv = trunc i64 %call to i32, !dbg !987
  ret i32 %conv, !dbg !989
}

; Function Attrs: noinline nounwind uwtable
define linkonce_odr dso_local i64 @_ZNKSt6vectorIP15GHOST_TimerTaskSaIS1_EE4sizeEv(%"class.std::vector"* %this) #0 comdat align 2 !dbg !990 {
entry:
  %this.addr = alloca %"class.std::vector"*, align 8
  store %"class.std::vector"* %this, %"class.std::vector"** %this.addr, align 8
  call void @llvm.dbg.declare(metadata %"class.std::vector"** %this.addr, metadata !991, metadata !DIExpression()), !dbg !993
  %this1 = load %"class.std::vector"*, %"class.std::vector"** %this.addr, align 8
  %0 = bitcast %"class.std::vector"* %this1 to %"struct.std::_Vector_base"*, !dbg !994
  %_M_impl = getelementptr inbounds %"struct.std::_Vector_base", %"struct.std::_Vector_base"* %0, i32 0, i32 0, !dbg !994
  %1 = bitcast %"struct.std::_Vector_base<GHOST_TimerTask *, std::allocator<GHOST_TimerTask *> >::_Vector_impl"* %_M_impl to %"struct.std::_Vector_base<GHOST_TimerTask *, std::allocator<GHOST_TimerTask *> >::_Vector_impl_data"*, !dbg !995
  %_M_finish = getelementptr inbounds %"struct.std::_Vector_base<GHOST_TimerTask *, std::allocator<GHOST_TimerTask *> >::_Vector_impl_data", %"struct.std::_Vector_base<GHOST_TimerTask *, std::allocator<GHOST_TimerTask *> >::_Vector_impl_data"* %1, i32 0, i32 1, !dbg !996
  %2 = load %class.GHOST_TimerTask**, %class.GHOST_TimerTask*** %_M_finish, align 8, !dbg !996
  %3 = bitcast %"class.std::vector"* %this1 to %"struct.std::_Vector_base"*, !dbg !997
  %_M_impl2 = getelementptr inbounds %"struct.std::_Vector_base", %"struct.std::_Vector_base"* %3, i32 0, i32 0, !dbg !997
  %4 = bitcast %"struct.std::_Vector_base<GHOST_TimerTask *, std::allocator<GHOST_TimerTask *> >::_Vector_impl"* %_M_impl2 to %"struct.std::_Vector_base<GHOST_TimerTask *, std::allocator<GHOST_TimerTask *> >::_Vector_impl_data"*, !dbg !998
  %_M_start = getelementptr inbounds %"struct.std::_Vector_base<GHOST_TimerTask *, std::allocator<GHOST_TimerTask *> >::_Vector_impl_data", %"struct.std::_Vector_base<GHOST_TimerTask *, std::allocator<GHOST_TimerTask *> >::_Vector_impl_data"* %4, i32 0, i32 0, !dbg !999
  %5 = load %class.GHOST_TimerTask**, %class.GHOST_TimerTask*** %_M_start, align 8, !dbg !999
  %sub.ptr.lhs.cast = ptrtoint %class.GHOST_TimerTask** %2 to i64, !dbg !1000
  %sub.ptr.rhs.cast = ptrtoint %class.GHOST_TimerTask** %5 to i64, !dbg !1000
  %sub.ptr.sub = sub i64 %sub.ptr.lhs.cast, %sub.ptr.rhs.cast, !dbg !1000
  %sub.ptr.div = sdiv exact i64 %sub.ptr.sub, 8, !dbg !1000
  ret i64 %sub.ptr.div, !dbg !1001
}

; Function Attrs: noinline uwtable
define dso_local zeroext i1 @_ZN18GHOST_TimerManager13getTimerFoundEP15GHOST_TimerTask(%class.GHOST_TimerManager* %this, %class.GHOST_TimerTask* %timer) unnamed_addr #2 align 2 !dbg !1002 {
entry:
  %this.addr = alloca %class.GHOST_TimerManager*, align 8
  %timer.addr = alloca %class.GHOST_TimerTask*, align 8
  %iter = alloca %"class.__gnu_cxx::__normal_iterator", align 8
  %ref.tmp = alloca %"class.__gnu_cxx::__normal_iterator.0", align 8
  %agg.tmp = alloca %"class.__gnu_cxx::__normal_iterator.0", align 8
  %agg.tmp2 = alloca %"class.__gnu_cxx::__normal_iterator.0", align 8
  %ref.tmp10 = alloca %"class.__gnu_cxx::__normal_iterator.0", align 8
  store %class.GHOST_TimerManager* %this, %class.GHOST_TimerManager** %this.addr, align 8
  call void @llvm.dbg.declare(metadata %class.GHOST_TimerManager** %this.addr, metadata !1003, metadata !DIExpression()), !dbg !1004
  store %class.GHOST_TimerTask* %timer, %class.GHOST_TimerTask** %timer.addr, align 8
  call void @llvm.dbg.declare(metadata %class.GHOST_TimerTask** %timer.addr, metadata !1005, metadata !DIExpression()), !dbg !1006
  %this1 = load %class.GHOST_TimerManager*, %class.GHOST_TimerManager** %this.addr, align 8
  call void @llvm.dbg.declare(metadata %"class.__gnu_cxx::__normal_iterator"* %iter, metadata !1007, metadata !DIExpression()), !dbg !1008
  %m_timers = getelementptr inbounds %class.GHOST_TimerManager, %class.GHOST_TimerManager* %this1, i32 0, i32 1, !dbg !1009
  %call = call %class.GHOST_TimerTask** @_ZNSt6vectorIP15GHOST_TimerTaskSaIS1_EE5beginEv(%"class.std::vector"* %m_timers) #8, !dbg !1010
  %coerce.dive = getelementptr inbounds %"class.__gnu_cxx::__normal_iterator.0", %"class.__gnu_cxx::__normal_iterator.0"* %agg.tmp, i32 0, i32 0, !dbg !1010
  store %class.GHOST_TimerTask** %call, %class.GHOST_TimerTask*** %coerce.dive, align 8, !dbg !1010
  %m_timers3 = getelementptr inbounds %class.GHOST_TimerManager, %class.GHOST_TimerManager* %this1, i32 0, i32 1, !dbg !1011
  %call4 = call %class.GHOST_TimerTask** @_ZNSt6vectorIP15GHOST_TimerTaskSaIS1_EE3endEv(%"class.std::vector"* %m_timers3) #8, !dbg !1012
  %coerce.dive5 = getelementptr inbounds %"class.__gnu_cxx::__normal_iterator.0", %"class.__gnu_cxx::__normal_iterator.0"* %agg.tmp2, i32 0, i32 0, !dbg !1012
  store %class.GHOST_TimerTask** %call4, %class.GHOST_TimerTask*** %coerce.dive5, align 8, !dbg !1012
  %coerce.dive6 = getelementptr inbounds %"class.__gnu_cxx::__normal_iterator.0", %"class.__gnu_cxx::__normal_iterator.0"* %agg.tmp, i32 0, i32 0, !dbg !1013
  %0 = load %class.GHOST_TimerTask**, %class.GHOST_TimerTask*** %coerce.dive6, align 8, !dbg !1013
  %coerce.dive7 = getelementptr inbounds %"class.__gnu_cxx::__normal_iterator.0", %"class.__gnu_cxx::__normal_iterator.0"* %agg.tmp2, i32 0, i32 0, !dbg !1013
  %1 = load %class.GHOST_TimerTask**, %class.GHOST_TimerTask*** %coerce.dive7, align 8, !dbg !1013
  %call8 = call %class.GHOST_TimerTask** @_ZSt4findIN9__gnu_cxx17__normal_iteratorIPP15GHOST_TimerTaskSt6vectorIS3_SaIS3_EEEES3_ET_S9_S9_RKT0_(%class.GHOST_TimerTask** %0, %class.GHOST_TimerTask** %1, %class.GHOST_TimerTask** dereferenceable(8) %timer.addr), !dbg !1013
  %coerce.dive9 = getelementptr inbounds %"class.__gnu_cxx::__normal_iterator.0", %"class.__gnu_cxx::__normal_iterator.0"* %ref.tmp, i32 0, i32 0, !dbg !1013
  store %class.GHOST_TimerTask** %call8, %class.GHOST_TimerTask*** %coerce.dive9, align 8, !dbg !1013
  call void @_ZN9__gnu_cxx17__normal_iteratorIPKP15GHOST_TimerTaskSt6vectorIS2_SaIS2_EEEC2IPS2_EERKNS0_IT_NS_11__enable_ifIXsr3std10__are_sameISB_SA_EE7__valueES7_E6__typeEEE(%"class.__gnu_cxx::__normal_iterator"* %iter, %"class.__gnu_cxx::__normal_iterator.0"* dereferenceable(8) %ref.tmp) #8, !dbg !1013
  %m_timers11 = getelementptr inbounds %class.GHOST_TimerManager, %class.GHOST_TimerManager* %this1, i32 0, i32 1, !dbg !1014
  %call12 = call %class.GHOST_TimerTask** @_ZNSt6vectorIP15GHOST_TimerTaskSaIS1_EE3endEv(%"class.std::vector"* %m_timers11) #8, !dbg !1015
  %coerce.dive13 = getelementptr inbounds %"class.__gnu_cxx::__normal_iterator.0", %"class.__gnu_cxx::__normal_iterator.0"* %ref.tmp10, i32 0, i32 0, !dbg !1015
  store %class.GHOST_TimerTask** %call12, %class.GHOST_TimerTask*** %coerce.dive13, align 8, !dbg !1015
  %call14 = call zeroext i1 @_ZN9__gnu_cxxneIPKP15GHOST_TimerTaskPS2_St6vectorIS2_SaIS2_EEEEbRKNS_17__normal_iteratorIT_T1_EERKNS9_IT0_SB_EE(%"class.__gnu_cxx::__normal_iterator"* dereferenceable(8) %iter, %"class.__gnu_cxx::__normal_iterator.0"* dereferenceable(8) %ref.tmp10) #8, !dbg !1016
  ret i1 %call14, !dbg !1017
}

; Function Attrs: noinline uwtable
define linkonce_odr dso_local %class.GHOST_TimerTask** @_ZSt4findIN9__gnu_cxx17__normal_iteratorIPP15GHOST_TimerTaskSt6vectorIS3_SaIS3_EEEES3_ET_S9_S9_RKT0_(%class.GHOST_TimerTask** %__first.coerce, %class.GHOST_TimerTask** %__last.coerce, %class.GHOST_TimerTask** dereferenceable(8) %__val) #2 comdat !dbg !1018 {
entry:
  %retval = alloca %"class.__gnu_cxx::__normal_iterator.0", align 8
  %__first = alloca %"class.__gnu_cxx::__normal_iterator.0", align 8
  %__last = alloca %"class.__gnu_cxx::__normal_iterator.0", align 8
  %__val.addr = alloca %class.GHOST_TimerTask**, align 8
  %agg.tmp = alloca %"class.__gnu_cxx::__normal_iterator.0", align 8
  %agg.tmp2 = alloca %"class.__gnu_cxx::__normal_iterator.0", align 8
  %agg.tmp3 = alloca %"struct.__gnu_cxx::__ops::_Iter_equals_val", align 8
  %coerce.dive = getelementptr inbounds %"class.__gnu_cxx::__normal_iterator.0", %"class.__gnu_cxx::__normal_iterator.0"* %__first, i32 0, i32 0
  store %class.GHOST_TimerTask** %__first.coerce, %class.GHOST_TimerTask*** %coerce.dive, align 8
  %coerce.dive1 = getelementptr inbounds %"class.__gnu_cxx::__normal_iterator.0", %"class.__gnu_cxx::__normal_iterator.0"* %__last, i32 0, i32 0
  store %class.GHOST_TimerTask** %__last.coerce, %class.GHOST_TimerTask*** %coerce.dive1, align 8
  call void @llvm.dbg.declare(metadata %"class.__gnu_cxx::__normal_iterator.0"* %__first, metadata !1024, metadata !DIExpression()), !dbg !1025
  call void @llvm.dbg.declare(metadata %"class.__gnu_cxx::__normal_iterator.0"* %__last, metadata !1026, metadata !DIExpression()), !dbg !1027
  store %class.GHOST_TimerTask** %__val, %class.GHOST_TimerTask*** %__val.addr, align 8
  call void @llvm.dbg.declare(metadata %class.GHOST_TimerTask*** %__val.addr, metadata !1028, metadata !DIExpression()), !dbg !1029
  %0 = bitcast %"class.__gnu_cxx::__normal_iterator.0"* %agg.tmp to i8*, !dbg !1030
  %1 = bitcast %"class.__gnu_cxx::__normal_iterator.0"* %__first to i8*, !dbg !1030
  call void @llvm.memcpy.p0i8.p0i8.i64(i8* align 8 %0, i8* align 8 %1, i64 8, i1 false), !dbg !1030
  %2 = bitcast %"class.__gnu_cxx::__normal_iterator.0"* %agg.tmp2 to i8*, !dbg !1031
  %3 = bitcast %"class.__gnu_cxx::__normal_iterator.0"* %__last to i8*, !dbg !1031
  call void @llvm.memcpy.p0i8.p0i8.i64(i8* align 8 %2, i8* align 8 %3, i64 8, i1 false), !dbg !1031
  %4 = load %class.GHOST_TimerTask**, %class.GHOST_TimerTask*** %__val.addr, align 8, !dbg !1032
  %call = call %class.GHOST_TimerTask** @_ZN9__gnu_cxx5__ops17__iter_equals_valIKP15GHOST_TimerTaskEENS0_16_Iter_equals_valIT_EERS6_(%class.GHOST_TimerTask** dereferenceable(8) %4), !dbg !1033
  %coerce.dive4 = getelementptr inbounds %"struct.__gnu_cxx::__ops::_Iter_equals_val", %"struct.__gnu_cxx::__ops::_Iter_equals_val"* %agg.tmp3, i32 0, i32 0, !dbg !1033
  store %class.GHOST_TimerTask** %call, %class.GHOST_TimerTask*** %coerce.dive4, align 8, !dbg !1033
  %coerce.dive5 = getelementptr inbounds %"class.__gnu_cxx::__normal_iterator.0", %"class.__gnu_cxx::__normal_iterator.0"* %agg.tmp, i32 0, i32 0, !dbg !1034
  %5 = load %class.GHOST_TimerTask**, %class.GHOST_TimerTask*** %coerce.dive5, align 8, !dbg !1034
  %coerce.dive6 = getelementptr inbounds %"class.__gnu_cxx::__normal_iterator.0", %"class.__gnu_cxx::__normal_iterator.0"* %agg.tmp2, i32 0, i32 0, !dbg !1034
  %6 = load %class.GHOST_TimerTask**, %class.GHOST_TimerTask*** %coerce.dive6, align 8, !dbg !1034
  %coerce.dive7 = getelementptr inbounds %"struct.__gnu_cxx::__ops::_Iter_equals_val", %"struct.__gnu_cxx::__ops::_Iter_equals_val"* %agg.tmp3, i32 0, i32 0, !dbg !1034
  %7 = load %class.GHOST_TimerTask**, %class.GHOST_TimerTask*** %coerce.dive7, align 8, !dbg !1034
  %call8 = call %class.GHOST_TimerTask** @_ZSt9__find_ifIN9__gnu_cxx17__normal_iteratorIPP15GHOST_TimerTaskSt6vectorIS3_SaIS3_EEEENS0_5__ops16_Iter_equals_valIKS3_EEET_SD_SD_T0_(%class.GHOST_TimerTask** %5, %class.GHOST_TimerTask** %6, %class.GHOST_TimerTask** %7), !dbg !1034
  %coerce.dive9 = getelementptr inbounds %"class.__gnu_cxx::__normal_iterator.0", %"class.__gnu_cxx::__normal_iterator.0"* %retval, i32 0, i32 0, !dbg !1034
  store %class.GHOST_TimerTask** %call8, %class.GHOST_TimerTask*** %coerce.dive9, align 8, !dbg !1034
  %coerce.dive10 = getelementptr inbounds %"class.__gnu_cxx::__normal_iterator.0", %"class.__gnu_cxx::__normal_iterator.0"* %retval, i32 0, i32 0, !dbg !1035
  %8 = load %class.GHOST_TimerTask**, %class.GHOST_TimerTask*** %coerce.dive10, align 8, !dbg !1035
  ret %class.GHOST_TimerTask** %8, !dbg !1035
}

; Function Attrs: noinline nounwind uwtable
define linkonce_odr dso_local %class.GHOST_TimerTask** @_ZNSt6vectorIP15GHOST_TimerTaskSaIS1_EE5beginEv(%"class.std::vector"* %this) #0 comdat align 2 !dbg !1036 {
entry:
  %retval = alloca %"class.__gnu_cxx::__normal_iterator.0", align 8
  %this.addr = alloca %"class.std::vector"*, align 8
  store %"class.std::vector"* %this, %"class.std::vector"** %this.addr, align 8
  call void @llvm.dbg.declare(metadata %"class.std::vector"** %this.addr, metadata !1037, metadata !DIExpression()), !dbg !1038
  %this1 = load %"class.std::vector"*, %"class.std::vector"** %this.addr, align 8
  %0 = bitcast %"class.std::vector"* %this1 to %"struct.std::_Vector_base"*, !dbg !1039
  %_M_impl = getelementptr inbounds %"struct.std::_Vector_base", %"struct.std::_Vector_base"* %0, i32 0, i32 0, !dbg !1039
  %1 = bitcast %"struct.std::_Vector_base<GHOST_TimerTask *, std::allocator<GHOST_TimerTask *> >::_Vector_impl"* %_M_impl to %"struct.std::_Vector_base<GHOST_TimerTask *, std::allocator<GHOST_TimerTask *> >::_Vector_impl_data"*, !dbg !1040
  %_M_start = getelementptr inbounds %"struct.std::_Vector_base<GHOST_TimerTask *, std::allocator<GHOST_TimerTask *> >::_Vector_impl_data", %"struct.std::_Vector_base<GHOST_TimerTask *, std::allocator<GHOST_TimerTask *> >::_Vector_impl_data"* %1, i32 0, i32 0, !dbg !1041
  call void @_ZN9__gnu_cxx17__normal_iteratorIPP15GHOST_TimerTaskSt6vectorIS2_SaIS2_EEEC2ERKS3_(%"class.__gnu_cxx::__normal_iterator.0"* %retval, %class.GHOST_TimerTask*** dereferenceable(8) %_M_start) #8, !dbg !1042
  %coerce.dive = getelementptr inbounds %"class.__gnu_cxx::__normal_iterator.0", %"class.__gnu_cxx::__normal_iterator.0"* %retval, i32 0, i32 0, !dbg !1043
  %2 = load %class.GHOST_TimerTask**, %class.GHOST_TimerTask*** %coerce.dive, align 8, !dbg !1043
  ret %class.GHOST_TimerTask** %2, !dbg !1043
}

; Function Attrs: noinline nounwind uwtable
define linkonce_odr dso_local %class.GHOST_TimerTask** @_ZNSt6vectorIP15GHOST_TimerTaskSaIS1_EE3endEv(%"class.std::vector"* %this) #0 comdat align 2 !dbg !1044 {
entry:
  %retval = alloca %"class.__gnu_cxx::__normal_iterator.0", align 8
  %this.addr = alloca %"class.std::vector"*, align 8
  store %"class.std::vector"* %this, %"class.std::vector"** %this.addr, align 8
  call void @llvm.dbg.declare(metadata %"class.std::vector"** %this.addr, metadata !1045, metadata !DIExpression()), !dbg !1046
  %this1 = load %"class.std::vector"*, %"class.std::vector"** %this.addr, align 8
  %0 = bitcast %"class.std::vector"* %this1 to %"struct.std::_Vector_base"*, !dbg !1047
  %_M_impl = getelementptr inbounds %"struct.std::_Vector_base", %"struct.std::_Vector_base"* %0, i32 0, i32 0, !dbg !1047
  %1 = bitcast %"struct.std::_Vector_base<GHOST_TimerTask *, std::allocator<GHOST_TimerTask *> >::_Vector_impl"* %_M_impl to %"struct.std::_Vector_base<GHOST_TimerTask *, std::allocator<GHOST_TimerTask *> >::_Vector_impl_data"*, !dbg !1048
  %_M_finish = getelementptr inbounds %"struct.std::_Vector_base<GHOST_TimerTask *, std::allocator<GHOST_TimerTask *> >::_Vector_impl_data", %"struct.std::_Vector_base<GHOST_TimerTask *, std::allocator<GHOST_TimerTask *> >::_Vector_impl_data"* %1, i32 0, i32 1, !dbg !1049
  call void @_ZN9__gnu_cxx17__normal_iteratorIPP15GHOST_TimerTaskSt6vectorIS2_SaIS2_EEEC2ERKS3_(%"class.__gnu_cxx::__normal_iterator.0"* %retval, %class.GHOST_TimerTask*** dereferenceable(8) %_M_finish) #8, !dbg !1050
  %coerce.dive = getelementptr inbounds %"class.__gnu_cxx::__normal_iterator.0", %"class.__gnu_cxx::__normal_iterator.0"* %retval, i32 0, i32 0, !dbg !1051
  %2 = load %class.GHOST_TimerTask**, %class.GHOST_TimerTask*** %coerce.dive, align 8, !dbg !1051
  ret %class.GHOST_TimerTask** %2, !dbg !1051
}

; Function Attrs: noinline nounwind uwtable
define linkonce_odr dso_local void @_ZN9__gnu_cxx17__normal_iteratorIPKP15GHOST_TimerTaskSt6vectorIS2_SaIS2_EEEC2IPS2_EERKNS0_IT_NS_11__enable_ifIXsr3std10__are_sameISB_SA_EE7__valueES7_E6__typeEEE(%"class.__gnu_cxx::__normal_iterator"* %this, %"class.__gnu_cxx::__normal_iterator.0"* dereferenceable(8) %__i) unnamed_addr #0 comdat align 2 !dbg !1052 {
entry:
  %this.addr = alloca %"class.__gnu_cxx::__normal_iterator"*, align 8
  %__i.addr = alloca %"class.__gnu_cxx::__normal_iterator.0"*, align 8
  store %"class.__gnu_cxx::__normal_iterator"* %this, %"class.__gnu_cxx::__normal_iterator"** %this.addr, align 8
  call void @llvm.dbg.declare(metadata %"class.__gnu_cxx::__normal_iterator"** %this.addr, metadata !1059, metadata !DIExpression()), !dbg !1061
  store %"class.__gnu_cxx::__normal_iterator.0"* %__i, %"class.__gnu_cxx::__normal_iterator.0"** %__i.addr, align 8
  call void @llvm.dbg.declare(metadata %"class.__gnu_cxx::__normal_iterator.0"** %__i.addr, metadata !1062, metadata !DIExpression()), !dbg !1063
  %this1 = load %"class.__gnu_cxx::__normal_iterator"*, %"class.__gnu_cxx::__normal_iterator"** %this.addr, align 8
  %_M_current = getelementptr inbounds %"class.__gnu_cxx::__normal_iterator", %"class.__gnu_cxx::__normal_iterator"* %this1, i32 0, i32 0, !dbg !1064
  %0 = load %"class.__gnu_cxx::__normal_iterator.0"*, %"class.__gnu_cxx::__normal_iterator.0"** %__i.addr, align 8, !dbg !1065
  %call = call dereferenceable(8) %class.GHOST_TimerTask*** @_ZNK9__gnu_cxx17__normal_iteratorIPP15GHOST_TimerTaskSt6vectorIS2_SaIS2_EEE4baseEv(%"class.__gnu_cxx::__normal_iterator.0"* %0) #8, !dbg !1066
  %1 = load %class.GHOST_TimerTask**, %class.GHOST_TimerTask*** %call, align 8, !dbg !1066
  store %class.GHOST_TimerTask** %1, %class.GHOST_TimerTask*** %_M_current, align 8, !dbg !1064
  ret void, !dbg !1067
}

; Function Attrs: noinline nounwind uwtable
define linkonce_odr dso_local zeroext i1 @_ZN9__gnu_cxxneIPKP15GHOST_TimerTaskPS2_St6vectorIS2_SaIS2_EEEEbRKNS_17__normal_iteratorIT_T1_EERKNS9_IT0_SB_EE(%"class.__gnu_cxx::__normal_iterator"* dereferenceable(8) %__lhs, %"class.__gnu_cxx::__normal_iterator.0"* dereferenceable(8) %__rhs) #0 comdat !dbg !1068 {
entry:
  %__lhs.addr = alloca %"class.__gnu_cxx::__normal_iterator"*, align 8
  %__rhs.addr = alloca %"class.__gnu_cxx::__normal_iterator.0"*, align 8
  store %"class.__gnu_cxx::__normal_iterator"* %__lhs, %"class.__gnu_cxx::__normal_iterator"** %__lhs.addr, align 8
  call void @llvm.dbg.declare(metadata %"class.__gnu_cxx::__normal_iterator"** %__lhs.addr, metadata !1075, metadata !DIExpression()), !dbg !1076
  store %"class.__gnu_cxx::__normal_iterator.0"* %__rhs, %"class.__gnu_cxx::__normal_iterator.0"** %__rhs.addr, align 8
  call void @llvm.dbg.declare(metadata %"class.__gnu_cxx::__normal_iterator.0"** %__rhs.addr, metadata !1077, metadata !DIExpression()), !dbg !1078
  %0 = load %"class.__gnu_cxx::__normal_iterator"*, %"class.__gnu_cxx::__normal_iterator"** %__lhs.addr, align 8, !dbg !1079
  %call = call dereferenceable(8) %class.GHOST_TimerTask*** @_ZNK9__gnu_cxx17__normal_iteratorIPKP15GHOST_TimerTaskSt6vectorIS2_SaIS2_EEE4baseEv(%"class.__gnu_cxx::__normal_iterator"* %0) #8, !dbg !1080
  %1 = load %class.GHOST_TimerTask**, %class.GHOST_TimerTask*** %call, align 8, !dbg !1080
  %2 = load %"class.__gnu_cxx::__normal_iterator.0"*, %"class.__gnu_cxx::__normal_iterator.0"** %__rhs.addr, align 8, !dbg !1081
  %call1 = call dereferenceable(8) %class.GHOST_TimerTask*** @_ZNK9__gnu_cxx17__normal_iteratorIPP15GHOST_TimerTaskSt6vectorIS2_SaIS2_EEE4baseEv(%"class.__gnu_cxx::__normal_iterator.0"* %2) #8, !dbg !1082
  %3 = load %class.GHOST_TimerTask**, %class.GHOST_TimerTask*** %call1, align 8, !dbg !1082
  %cmp = icmp ne %class.GHOST_TimerTask** %1, %3, !dbg !1083
  ret i1 %cmp, !dbg !1084
}

; Function Attrs: noinline uwtable
define dso_local i32 @_ZN18GHOST_TimerManager8addTimerEP15GHOST_TimerTask(%class.GHOST_TimerManager* %this, %class.GHOST_TimerTask* %timer) unnamed_addr #2 align 2 !dbg !1085 {
entry:
  %this.addr = alloca %class.GHOST_TimerManager*, align 8
  %timer.addr = alloca %class.GHOST_TimerTask*, align 8
  %success = alloca i32, align 4
  store %class.GHOST_TimerManager* %this, %class.GHOST_TimerManager** %this.addr, align 8
  call void @llvm.dbg.declare(metadata %class.GHOST_TimerManager** %this.addr, metadata !1086, metadata !DIExpression()), !dbg !1087
  store %class.GHOST_TimerTask* %timer, %class.GHOST_TimerTask** %timer.addr, align 8
  call void @llvm.dbg.declare(metadata %class.GHOST_TimerTask** %timer.addr, metadata !1088, metadata !DIExpression()), !dbg !1089
  %this1 = load %class.GHOST_TimerManager*, %class.GHOST_TimerManager** %this.addr, align 8
  call void @llvm.dbg.declare(metadata i32* %success, metadata !1090, metadata !DIExpression()), !dbg !1091
  %0 = load %class.GHOST_TimerTask*, %class.GHOST_TimerTask** %timer.addr, align 8, !dbg !1092
  %1 = bitcast %class.GHOST_TimerManager* %this1 to i1 (%class.GHOST_TimerManager*, %class.GHOST_TimerTask*)***, !dbg !1094
  %vtable = load i1 (%class.GHOST_TimerManager*, %class.GHOST_TimerTask*)**, i1 (%class.GHOST_TimerManager*, %class.GHOST_TimerTask*)*** %1, align 8, !dbg !1094
  %vfn = getelementptr inbounds i1 (%class.GHOST_TimerManager*, %class.GHOST_TimerTask*)*, i1 (%class.GHOST_TimerManager*, %class.GHOST_TimerTask*)** %vtable, i64 3, !dbg !1094
  %2 = load i1 (%class.GHOST_TimerManager*, %class.GHOST_TimerTask*)*, i1 (%class.GHOST_TimerManager*, %class.GHOST_TimerTask*)** %vfn, align 8, !dbg !1094
  %call = call zeroext i1 %2(%class.GHOST_TimerManager* %this1, %class.GHOST_TimerTask* %0), !dbg !1094
  br i1 %call, label %if.else, label %if.then, !dbg !1095

if.then:                                          ; preds = %entry
  %m_timers = getelementptr inbounds %class.GHOST_TimerManager, %class.GHOST_TimerManager* %this1, i32 0, i32 1, !dbg !1096
  call void @_ZNSt6vectorIP15GHOST_TimerTaskSaIS1_EE9push_backERKS1_(%"class.std::vector"* %m_timers, %class.GHOST_TimerTask** dereferenceable(8) %timer.addr), !dbg !1098
  store i32 1, i32* %success, align 4, !dbg !1099
  br label %if.end, !dbg !1100

if.else:                                          ; preds = %entry
  store i32 0, i32* %success, align 4, !dbg !1101
  br label %if.end

if.end:                                           ; preds = %if.else, %if.then
  %3 = load i32, i32* %success, align 4, !dbg !1103
  ret i32 %3, !dbg !1104
}

; Function Attrs: noinline uwtable
define linkonce_odr dso_local void @_ZNSt6vectorIP15GHOST_TimerTaskSaIS1_EE9push_backERKS1_(%"class.std::vector"* %this, %class.GHOST_TimerTask** dereferenceable(8) %__x) #2 comdat align 2 !dbg !1105 {
entry:
  %this.addr = alloca %"class.std::vector"*, align 8
  %__x.addr = alloca %class.GHOST_TimerTask**, align 8
  %agg.tmp = alloca %"class.__gnu_cxx::__normal_iterator.0", align 8
  store %"class.std::vector"* %this, %"class.std::vector"** %this.addr, align 8
  call void @llvm.dbg.declare(metadata %"class.std::vector"** %this.addr, metadata !1106, metadata !DIExpression()), !dbg !1107
  store %class.GHOST_TimerTask** %__x, %class.GHOST_TimerTask*** %__x.addr, align 8
  call void @llvm.dbg.declare(metadata %class.GHOST_TimerTask*** %__x.addr, metadata !1108, metadata !DIExpression()), !dbg !1109
  %this1 = load %"class.std::vector"*, %"class.std::vector"** %this.addr, align 8
  %0 = bitcast %"class.std::vector"* %this1 to %"struct.std::_Vector_base"*, !dbg !1110
  %_M_impl = getelementptr inbounds %"struct.std::_Vector_base", %"struct.std::_Vector_base"* %0, i32 0, i32 0, !dbg !1110
  %1 = bitcast %"struct.std::_Vector_base<GHOST_TimerTask *, std::allocator<GHOST_TimerTask *> >::_Vector_impl"* %_M_impl to %"struct.std::_Vector_base<GHOST_TimerTask *, std::allocator<GHOST_TimerTask *> >::_Vector_impl_data"*, !dbg !1112
  %_M_finish = getelementptr inbounds %"struct.std::_Vector_base<GHOST_TimerTask *, std::allocator<GHOST_TimerTask *> >::_Vector_impl_data", %"struct.std::_Vector_base<GHOST_TimerTask *, std::allocator<GHOST_TimerTask *> >::_Vector_impl_data"* %1, i32 0, i32 1, !dbg !1113
  %2 = load %class.GHOST_TimerTask**, %class.GHOST_TimerTask*** %_M_finish, align 8, !dbg !1113
  %3 = bitcast %"class.std::vector"* %this1 to %"struct.std::_Vector_base"*, !dbg !1114
  %_M_impl2 = getelementptr inbounds %"struct.std::_Vector_base", %"struct.std::_Vector_base"* %3, i32 0, i32 0, !dbg !1114
  %4 = bitcast %"struct.std::_Vector_base<GHOST_TimerTask *, std::allocator<GHOST_TimerTask *> >::_Vector_impl"* %_M_impl2 to %"struct.std::_Vector_base<GHOST_TimerTask *, std::allocator<GHOST_TimerTask *> >::_Vector_impl_data"*, !dbg !1115
  %_M_end_of_storage = getelementptr inbounds %"struct.std::_Vector_base<GHOST_TimerTask *, std::allocator<GHOST_TimerTask *> >::_Vector_impl_data", %"struct.std::_Vector_base<GHOST_TimerTask *, std::allocator<GHOST_TimerTask *> >::_Vector_impl_data"* %4, i32 0, i32 2, !dbg !1116
  %5 = load %class.GHOST_TimerTask**, %class.GHOST_TimerTask*** %_M_end_of_storage, align 8, !dbg !1116
  %cmp = icmp ne %class.GHOST_TimerTask** %2, %5, !dbg !1117
  br i1 %cmp, label %if.then, label %if.else, !dbg !1118

if.then:                                          ; preds = %entry
  %6 = bitcast %"class.std::vector"* %this1 to %"struct.std::_Vector_base"*, !dbg !1119
  %_M_impl3 = getelementptr inbounds %"struct.std::_Vector_base", %"struct.std::_Vector_base"* %6, i32 0, i32 0, !dbg !1119
  %7 = bitcast %"struct.std::_Vector_base<GHOST_TimerTask *, std::allocator<GHOST_TimerTask *> >::_Vector_impl"* %_M_impl3 to %"class.std::allocator"*, !dbg !1121
  %8 = bitcast %"class.std::vector"* %this1 to %"struct.std::_Vector_base"*, !dbg !1122
  %_M_impl4 = getelementptr inbounds %"struct.std::_Vector_base", %"struct.std::_Vector_base"* %8, i32 0, i32 0, !dbg !1122
  %9 = bitcast %"struct.std::_Vector_base<GHOST_TimerTask *, std::allocator<GHOST_TimerTask *> >::_Vector_impl"* %_M_impl4 to %"struct.std::_Vector_base<GHOST_TimerTask *, std::allocator<GHOST_TimerTask *> >::_Vector_impl_data"*, !dbg !1123
  %_M_finish5 = getelementptr inbounds %"struct.std::_Vector_base<GHOST_TimerTask *, std::allocator<GHOST_TimerTask *> >::_Vector_impl_data", %"struct.std::_Vector_base<GHOST_TimerTask *, std::allocator<GHOST_TimerTask *> >::_Vector_impl_data"* %9, i32 0, i32 1, !dbg !1124
  %10 = load %class.GHOST_TimerTask**, %class.GHOST_TimerTask*** %_M_finish5, align 8, !dbg !1124
  %11 = load %class.GHOST_TimerTask**, %class.GHOST_TimerTask*** %__x.addr, align 8, !dbg !1125
  call void @_ZNSt16allocator_traitsISaIP15GHOST_TimerTaskEE9constructIS1_JRKS1_EEEvRS2_PT_DpOT0_(%"class.std::allocator"* dereferenceable(1) %7, %class.GHOST_TimerTask** %10, %class.GHOST_TimerTask** dereferenceable(8) %11) #8, !dbg !1126
  %12 = bitcast %"class.std::vector"* %this1 to %"struct.std::_Vector_base"*, !dbg !1127
  %_M_impl6 = getelementptr inbounds %"struct.std::_Vector_base", %"struct.std::_Vector_base"* %12, i32 0, i32 0, !dbg !1127
  %13 = bitcast %"struct.std::_Vector_base<GHOST_TimerTask *, std::allocator<GHOST_TimerTask *> >::_Vector_impl"* %_M_impl6 to %"struct.std::_Vector_base<GHOST_TimerTask *, std::allocator<GHOST_TimerTask *> >::_Vector_impl_data"*, !dbg !1128
  %_M_finish7 = getelementptr inbounds %"struct.std::_Vector_base<GHOST_TimerTask *, std::allocator<GHOST_TimerTask *> >::_Vector_impl_data", %"struct.std::_Vector_base<GHOST_TimerTask *, std::allocator<GHOST_TimerTask *> >::_Vector_impl_data"* %13, i32 0, i32 1, !dbg !1129
  %14 = load %class.GHOST_TimerTask**, %class.GHOST_TimerTask*** %_M_finish7, align 8, !dbg !1130
  %incdec.ptr = getelementptr inbounds %class.GHOST_TimerTask*, %class.GHOST_TimerTask** %14, i32 1, !dbg !1130
  store %class.GHOST_TimerTask** %incdec.ptr, %class.GHOST_TimerTask*** %_M_finish7, align 8, !dbg !1130
  br label %if.end, !dbg !1131

if.else:                                          ; preds = %entry
  %call = call %class.GHOST_TimerTask** @_ZNSt6vectorIP15GHOST_TimerTaskSaIS1_EE3endEv(%"class.std::vector"* %this1) #8, !dbg !1132
  %coerce.dive = getelementptr inbounds %"class.__gnu_cxx::__normal_iterator.0", %"class.__gnu_cxx::__normal_iterator.0"* %agg.tmp, i32 0, i32 0, !dbg !1132
  store %class.GHOST_TimerTask** %call, %class.GHOST_TimerTask*** %coerce.dive, align 8, !dbg !1132
  %15 = load %class.GHOST_TimerTask**, %class.GHOST_TimerTask*** %__x.addr, align 8, !dbg !1133
  %coerce.dive8 = getelementptr inbounds %"class.__gnu_cxx::__normal_iterator.0", %"class.__gnu_cxx::__normal_iterator.0"* %agg.tmp, i32 0, i32 0, !dbg !1134
  %16 = load %class.GHOST_TimerTask**, %class.GHOST_TimerTask*** %coerce.dive8, align 8, !dbg !1134
  call void @_ZNSt6vectorIP15GHOST_TimerTaskSaIS1_EE17_M_realloc_insertIJRKS1_EEEvN9__gnu_cxx17__normal_iteratorIPS1_S3_EEDpOT_(%"class.std::vector"* %this1, %class.GHOST_TimerTask** %16, %class.GHOST_TimerTask** dereferenceable(8) %15), !dbg !1134
  br label %if.end

if.end:                                           ; preds = %if.else, %if.then
  ret void, !dbg !1135
}

; Function Attrs: noinline uwtable
define dso_local i32 @_ZN18GHOST_TimerManager11removeTimerEP15GHOST_TimerTask(%class.GHOST_TimerManager* %this, %class.GHOST_TimerTask* %timer) unnamed_addr #2 align 2 !dbg !1136 {
entry:
  %this.addr = alloca %class.GHOST_TimerManager*, align 8
  %timer.addr = alloca %class.GHOST_TimerTask*, align 8
  %success = alloca i32, align 4
  %iter = alloca %"class.__gnu_cxx::__normal_iterator.0", align 8
  %agg.tmp = alloca %"class.__gnu_cxx::__normal_iterator.0", align 8
  %agg.tmp2 = alloca %"class.__gnu_cxx::__normal_iterator.0", align 8
  %ref.tmp = alloca %"class.__gnu_cxx::__normal_iterator.0", align 8
  %agg.tmp15 = alloca %"class.__gnu_cxx::__normal_iterator", align 8
  %coerce = alloca %"class.__gnu_cxx::__normal_iterator.0", align 8
  store %class.GHOST_TimerManager* %this, %class.GHOST_TimerManager** %this.addr, align 8
  call void @llvm.dbg.declare(metadata %class.GHOST_TimerManager** %this.addr, metadata !1137, metadata !DIExpression()), !dbg !1138
  store %class.GHOST_TimerTask* %timer, %class.GHOST_TimerTask** %timer.addr, align 8
  call void @llvm.dbg.declare(metadata %class.GHOST_TimerTask** %timer.addr, metadata !1139, metadata !DIExpression()), !dbg !1140
  %this1 = load %class.GHOST_TimerManager*, %class.GHOST_TimerManager** %this.addr, align 8
  call void @llvm.dbg.declare(metadata i32* %success, metadata !1141, metadata !DIExpression()), !dbg !1142
  call void @llvm.dbg.declare(metadata %"class.__gnu_cxx::__normal_iterator.0"* %iter, metadata !1143, metadata !DIExpression()), !dbg !1144
  %m_timers = getelementptr inbounds %class.GHOST_TimerManager, %class.GHOST_TimerManager* %this1, i32 0, i32 1, !dbg !1145
  %call = call %class.GHOST_TimerTask** @_ZNSt6vectorIP15GHOST_TimerTaskSaIS1_EE5beginEv(%"class.std::vector"* %m_timers) #8, !dbg !1146
  %coerce.dive = getelementptr inbounds %"class.__gnu_cxx::__normal_iterator.0", %"class.__gnu_cxx::__normal_iterator.0"* %agg.tmp, i32 0, i32 0, !dbg !1146
  store %class.GHOST_TimerTask** %call, %class.GHOST_TimerTask*** %coerce.dive, align 8, !dbg !1146
  %m_timers3 = getelementptr inbounds %class.GHOST_TimerManager, %class.GHOST_TimerManager* %this1, i32 0, i32 1, !dbg !1147
  %call4 = call %class.GHOST_TimerTask** @_ZNSt6vectorIP15GHOST_TimerTaskSaIS1_EE3endEv(%"class.std::vector"* %m_timers3) #8, !dbg !1148
  %coerce.dive5 = getelementptr inbounds %"class.__gnu_cxx::__normal_iterator.0", %"class.__gnu_cxx::__normal_iterator.0"* %agg.tmp2, i32 0, i32 0, !dbg !1148
  store %class.GHOST_TimerTask** %call4, %class.GHOST_TimerTask*** %coerce.dive5, align 8, !dbg !1148
  %coerce.dive6 = getelementptr inbounds %"class.__gnu_cxx::__normal_iterator.0", %"class.__gnu_cxx::__normal_iterator.0"* %agg.tmp, i32 0, i32 0, !dbg !1149
  %0 = load %class.GHOST_TimerTask**, %class.GHOST_TimerTask*** %coerce.dive6, align 8, !dbg !1149
  %coerce.dive7 = getelementptr inbounds %"class.__gnu_cxx::__normal_iterator.0", %"class.__gnu_cxx::__normal_iterator.0"* %agg.tmp2, i32 0, i32 0, !dbg !1149
  %1 = load %class.GHOST_TimerTask**, %class.GHOST_TimerTask*** %coerce.dive7, align 8, !dbg !1149
  %call8 = call %class.GHOST_TimerTask** @_ZSt4findIN9__gnu_cxx17__normal_iteratorIPP15GHOST_TimerTaskSt6vectorIS3_SaIS3_EEEES3_ET_S9_S9_RKT0_(%class.GHOST_TimerTask** %0, %class.GHOST_TimerTask** %1, %class.GHOST_TimerTask** dereferenceable(8) %timer.addr), !dbg !1149
  %coerce.dive9 = getelementptr inbounds %"class.__gnu_cxx::__normal_iterator.0", %"class.__gnu_cxx::__normal_iterator.0"* %iter, i32 0, i32 0, !dbg !1149
  store %class.GHOST_TimerTask** %call8, %class.GHOST_TimerTask*** %coerce.dive9, align 8, !dbg !1149
  %m_timers10 = getelementptr inbounds %class.GHOST_TimerManager, %class.GHOST_TimerManager* %this1, i32 0, i32 1, !dbg !1150
  %call11 = call %class.GHOST_TimerTask** @_ZNSt6vectorIP15GHOST_TimerTaskSaIS1_EE3endEv(%"class.std::vector"* %m_timers10) #8, !dbg !1152
  %coerce.dive12 = getelementptr inbounds %"class.__gnu_cxx::__normal_iterator.0", %"class.__gnu_cxx::__normal_iterator.0"* %ref.tmp, i32 0, i32 0, !dbg !1152
  store %class.GHOST_TimerTask** %call11, %class.GHOST_TimerTask*** %coerce.dive12, align 8, !dbg !1152
  %call13 = call zeroext i1 @_ZN9__gnu_cxxneIPP15GHOST_TimerTaskSt6vectorIS2_SaIS2_EEEEbRKNS_17__normal_iteratorIT_T0_EESC_(%"class.__gnu_cxx::__normal_iterator.0"* dereferenceable(8) %iter, %"class.__gnu_cxx::__normal_iterator.0"* dereferenceable(8) %ref.tmp) #8, !dbg !1153
  br i1 %call13, label %if.then, label %if.else, !dbg !1154

if.then:                                          ; preds = %entry
  %m_timers14 = getelementptr inbounds %class.GHOST_TimerManager, %class.GHOST_TimerManager* %this1, i32 0, i32 1, !dbg !1155
  call void @_ZN9__gnu_cxx17__normal_iteratorIPKP15GHOST_TimerTaskSt6vectorIS2_SaIS2_EEEC2IPS2_EERKNS0_IT_NS_11__enable_ifIXsr3std10__are_sameISB_SA_EE7__valueES7_E6__typeEEE(%"class.__gnu_cxx::__normal_iterator"* %agg.tmp15, %"class.__gnu_cxx::__normal_iterator.0"* dereferenceable(8) %iter) #8, !dbg !1157
  %coerce.dive16 = getelementptr inbounds %"class.__gnu_cxx::__normal_iterator", %"class.__gnu_cxx::__normal_iterator"* %agg.tmp15, i32 0, i32 0, !dbg !1158
  %2 = load %class.GHOST_TimerTask**, %class.GHOST_TimerTask*** %coerce.dive16, align 8, !dbg !1158
  %call17 = call %class.GHOST_TimerTask** @_ZNSt6vectorIP15GHOST_TimerTaskSaIS1_EE5eraseEN9__gnu_cxx17__normal_iteratorIPKS1_S3_EE(%"class.std::vector"* %m_timers14, %class.GHOST_TimerTask** %2), !dbg !1158
  %coerce.dive18 = getelementptr inbounds %"class.__gnu_cxx::__normal_iterator.0", %"class.__gnu_cxx::__normal_iterator.0"* %coerce, i32 0, i32 0, !dbg !1158
  store %class.GHOST_TimerTask** %call17, %class.GHOST_TimerTask*** %coerce.dive18, align 8, !dbg !1158
  %3 = load %class.GHOST_TimerTask*, %class.GHOST_TimerTask** %timer.addr, align 8, !dbg !1159
  %isnull = icmp eq %class.GHOST_TimerTask* %3, null, !dbg !1160
  br i1 %isnull, label %delete.end, label %delete.notnull, !dbg !1160

delete.notnull:                                   ; preds = %if.then
  %4 = bitcast %class.GHOST_TimerTask* %3 to void (%class.GHOST_TimerTask*)***, !dbg !1160
  %vtable = load void (%class.GHOST_TimerTask*)**, void (%class.GHOST_TimerTask*)*** %4, align 8, !dbg !1160
  %vfn = getelementptr inbounds void (%class.GHOST_TimerTask*)*, void (%class.GHOST_TimerTask*)** %vtable, i64 1, !dbg !1160
  %5 = load void (%class.GHOST_TimerTask*)*, void (%class.GHOST_TimerTask*)** %vfn, align 8, !dbg !1160
  call void %5(%class.GHOST_TimerTask* %3) #8, !dbg !1160
  br label %delete.end, !dbg !1160

delete.end:                                       ; preds = %delete.notnull, %if.then
  store %class.GHOST_TimerTask* null, %class.GHOST_TimerTask** %timer.addr, align 8, !dbg !1161
  store i32 1, i32* %success, align 4, !dbg !1162
  br label %if.end, !dbg !1163

if.else:                                          ; preds = %entry
  store i32 0, i32* %success, align 4, !dbg !1164
  br label %if.end

if.end:                                           ; preds = %if.else, %delete.end
  %6 = load i32, i32* %success, align 4, !dbg !1166
  ret i32 %6, !dbg !1167
}

; Function Attrs: noinline nounwind uwtable
define linkonce_odr dso_local zeroext i1 @_ZN9__gnu_cxxneIPP15GHOST_TimerTaskSt6vectorIS2_SaIS2_EEEEbRKNS_17__normal_iteratorIT_T0_EESC_(%"class.__gnu_cxx::__normal_iterator.0"* dereferenceable(8) %__lhs, %"class.__gnu_cxx::__normal_iterator.0"* dereferenceable(8) %__rhs) #0 comdat !dbg !1168 {
entry:
  %__lhs.addr = alloca %"class.__gnu_cxx::__normal_iterator.0"*, align 8
  %__rhs.addr = alloca %"class.__gnu_cxx::__normal_iterator.0"*, align 8
  store %"class.__gnu_cxx::__normal_iterator.0"* %__lhs, %"class.__gnu_cxx::__normal_iterator.0"** %__lhs.addr, align 8
  call void @llvm.dbg.declare(metadata %"class.__gnu_cxx::__normal_iterator.0"** %__lhs.addr, metadata !1171, metadata !DIExpression()), !dbg !1172
  store %"class.__gnu_cxx::__normal_iterator.0"* %__rhs, %"class.__gnu_cxx::__normal_iterator.0"** %__rhs.addr, align 8
  call void @llvm.dbg.declare(metadata %"class.__gnu_cxx::__normal_iterator.0"** %__rhs.addr, metadata !1173, metadata !DIExpression()), !dbg !1174
  %0 = load %"class.__gnu_cxx::__normal_iterator.0"*, %"class.__gnu_cxx::__normal_iterator.0"** %__lhs.addr, align 8, !dbg !1175
  %call = call dereferenceable(8) %class.GHOST_TimerTask*** @_ZNK9__gnu_cxx17__normal_iteratorIPP15GHOST_TimerTaskSt6vectorIS2_SaIS2_EEE4baseEv(%"class.__gnu_cxx::__normal_iterator.0"* %0) #8, !dbg !1176
  %1 = load %class.GHOST_TimerTask**, %class.GHOST_TimerTask*** %call, align 8, !dbg !1176
  %2 = load %"class.__gnu_cxx::__normal_iterator.0"*, %"class.__gnu_cxx::__normal_iterator.0"** %__rhs.addr, align 8, !dbg !1177
  %call1 = call dereferenceable(8) %class.GHOST_TimerTask*** @_ZNK9__gnu_cxx17__normal_iteratorIPP15GHOST_TimerTaskSt6vectorIS2_SaIS2_EEE4baseEv(%"class.__gnu_cxx::__normal_iterator.0"* %2) #8, !dbg !1178
  %3 = load %class.GHOST_TimerTask**, %class.GHOST_TimerTask*** %call1, align 8, !dbg !1178
  %cmp = icmp ne %class.GHOST_TimerTask** %1, %3, !dbg !1179
  ret i1 %cmp, !dbg !1180
}

; Function Attrs: noinline uwtable
define linkonce_odr dso_local %class.GHOST_TimerTask** @_ZNSt6vectorIP15GHOST_TimerTaskSaIS1_EE5eraseEN9__gnu_cxx17__normal_iteratorIPKS1_S3_EE(%"class.std::vector"* %this, %class.GHOST_TimerTask** %__position.coerce) #2 comdat align 2 !dbg !1181 {
entry:
  %retval = alloca %"class.__gnu_cxx::__normal_iterator.0", align 8
  %__position = alloca %"class.__gnu_cxx::__normal_iterator", align 8
  %this.addr = alloca %"class.std::vector"*, align 8
  %agg.tmp = alloca %"class.__gnu_cxx::__normal_iterator.0", align 8
  %ref.tmp = alloca %"class.__gnu_cxx::__normal_iterator.0", align 8
  %ref.tmp3 = alloca %"class.__gnu_cxx::__normal_iterator", align 8
  %coerce.dive = getelementptr inbounds %"class.__gnu_cxx::__normal_iterator", %"class.__gnu_cxx::__normal_iterator"* %__position, i32 0, i32 0
  store %class.GHOST_TimerTask** %__position.coerce, %class.GHOST_TimerTask*** %coerce.dive, align 8
  store %"class.std::vector"* %this, %"class.std::vector"** %this.addr, align 8
  call void @llvm.dbg.declare(metadata %"class.std::vector"** %this.addr, metadata !1182, metadata !DIExpression()), !dbg !1183
  call void @llvm.dbg.declare(metadata %"class.__gnu_cxx::__normal_iterator"* %__position, metadata !1184, metadata !DIExpression()), !dbg !1185
  %this1 = load %"class.std::vector"*, %"class.std::vector"** %this.addr, align 8
  %call = call %class.GHOST_TimerTask** @_ZNSt6vectorIP15GHOST_TimerTaskSaIS1_EE5beginEv(%"class.std::vector"* %this1) #8, !dbg !1186
  %coerce.dive2 = getelementptr inbounds %"class.__gnu_cxx::__normal_iterator.0", %"class.__gnu_cxx::__normal_iterator.0"* %ref.tmp, i32 0, i32 0, !dbg !1186
  store %class.GHOST_TimerTask** %call, %class.GHOST_TimerTask*** %coerce.dive2, align 8, !dbg !1186
  %call4 = call %class.GHOST_TimerTask** @_ZNKSt6vectorIP15GHOST_TimerTaskSaIS1_EE6cbeginEv(%"class.std::vector"* %this1) #8, !dbg !1187
  %coerce.dive5 = getelementptr inbounds %"class.__gnu_cxx::__normal_iterator", %"class.__gnu_cxx::__normal_iterator"* %ref.tmp3, i32 0, i32 0, !dbg !1187
  store %class.GHOST_TimerTask** %call4, %class.GHOST_TimerTask*** %coerce.dive5, align 8, !dbg !1187
  %call6 = call i64 @_ZN9__gnu_cxxmiIPKP15GHOST_TimerTaskSt6vectorIS2_SaIS2_EEEENS_17__normal_iteratorIT_T0_E15difference_typeERKSB_SE_(%"class.__gnu_cxx::__normal_iterator"* dereferenceable(8) %__position, %"class.__gnu_cxx::__normal_iterator"* dereferenceable(8) %ref.tmp3) #8, !dbg !1188
  %call7 = call %class.GHOST_TimerTask** @_ZNK9__gnu_cxx17__normal_iteratorIPP15GHOST_TimerTaskSt6vectorIS2_SaIS2_EEEplEl(%"class.__gnu_cxx::__normal_iterator.0"* %ref.tmp, i64 %call6) #8, !dbg !1189
  %coerce.dive8 = getelementptr inbounds %"class.__gnu_cxx::__normal_iterator.0", %"class.__gnu_cxx::__normal_iterator.0"* %agg.tmp, i32 0, i32 0, !dbg !1189
  store %class.GHOST_TimerTask** %call7, %class.GHOST_TimerTask*** %coerce.dive8, align 8, !dbg !1189
  %coerce.dive9 = getelementptr inbounds %"class.__gnu_cxx::__normal_iterator.0", %"class.__gnu_cxx::__normal_iterator.0"* %agg.tmp, i32 0, i32 0, !dbg !1190
  %0 = load %class.GHOST_TimerTask**, %class.GHOST_TimerTask*** %coerce.dive9, align 8, !dbg !1190
  %call10 = call %class.GHOST_TimerTask** @_ZNSt6vectorIP15GHOST_TimerTaskSaIS1_EE8_M_eraseEN9__gnu_cxx17__normal_iteratorIPS1_S3_EE(%"class.std::vector"* %this1, %class.GHOST_TimerTask** %0), !dbg !1190
  %coerce.dive11 = getelementptr inbounds %"class.__gnu_cxx::__normal_iterator.0", %"class.__gnu_cxx::__normal_iterator.0"* %retval, i32 0, i32 0, !dbg !1190
  store %class.GHOST_TimerTask** %call10, %class.GHOST_TimerTask*** %coerce.dive11, align 8, !dbg !1190
  %coerce.dive12 = getelementptr inbounds %"class.__gnu_cxx::__normal_iterator.0", %"class.__gnu_cxx::__normal_iterator.0"* %retval, i32 0, i32 0, !dbg !1191
  %1 = load %class.GHOST_TimerTask**, %class.GHOST_TimerTask*** %coerce.dive12, align 8, !dbg !1191
  ret %class.GHOST_TimerTask** %1, !dbg !1191
}

; Function Attrs: noinline uwtable
define dso_local i64 @_ZN18GHOST_TimerManager12nextFireTimeEv(%class.GHOST_TimerManager* %this) unnamed_addr #2 align 2 !dbg !1192 {
entry:
  %this.addr = alloca %class.GHOST_TimerManager*, align 8
  %smallest = alloca i64, align 8
  %iter = alloca %"class.__gnu_cxx::__normal_iterator.0", align 8
  %ref.tmp = alloca %"class.__gnu_cxx::__normal_iterator.0", align 8
  %ref.tmp2 = alloca %"class.__gnu_cxx::__normal_iterator.0", align 8
  %next = alloca i64, align 8
  store %class.GHOST_TimerManager* %this, %class.GHOST_TimerManager** %this.addr, align 8
  call void @llvm.dbg.declare(metadata %class.GHOST_TimerManager** %this.addr, metadata !1193, metadata !DIExpression()), !dbg !1194
  %this1 = load %class.GHOST_TimerManager*, %class.GHOST_TimerManager** %this.addr, align 8
  call void @llvm.dbg.declare(metadata i64* %smallest, metadata !1195, metadata !DIExpression()), !dbg !1196
  store i64 -1, i64* %smallest, align 8, !dbg !1196
  call void @llvm.dbg.declare(metadata %"class.__gnu_cxx::__normal_iterator.0"* %iter, metadata !1197, metadata !DIExpression()), !dbg !1198
  call void @_ZN9__gnu_cxx17__normal_iteratorIPP15GHOST_TimerTaskSt6vectorIS2_SaIS2_EEEC2Ev(%"class.__gnu_cxx::__normal_iterator.0"* %iter) #8, !dbg !1198
  %m_timers = getelementptr inbounds %class.GHOST_TimerManager, %class.GHOST_TimerManager* %this1, i32 0, i32 1, !dbg !1199
  %call = call %class.GHOST_TimerTask** @_ZNSt6vectorIP15GHOST_TimerTaskSaIS1_EE5beginEv(%"class.std::vector"* %m_timers) #8, !dbg !1201
  %coerce.dive = getelementptr inbounds %"class.__gnu_cxx::__normal_iterator.0", %"class.__gnu_cxx::__normal_iterator.0"* %ref.tmp, i32 0, i32 0, !dbg !1201
  store %class.GHOST_TimerTask** %call, %class.GHOST_TimerTask*** %coerce.dive, align 8, !dbg !1201
  %0 = bitcast %"class.__gnu_cxx::__normal_iterator.0"* %iter to i8*, !dbg !1202
  %1 = bitcast %"class.__gnu_cxx::__normal_iterator.0"* %ref.tmp to i8*, !dbg !1202
  call void @llvm.memcpy.p0i8.p0i8.i64(i8* align 8 %0, i8* align 8 %1, i64 8, i1 false), !dbg !1202
  br label %for.cond, !dbg !1203

for.cond:                                         ; preds = %for.inc, %entry
  %m_timers3 = getelementptr inbounds %class.GHOST_TimerManager, %class.GHOST_TimerManager* %this1, i32 0, i32 1, !dbg !1204
  %call4 = call %class.GHOST_TimerTask** @_ZNSt6vectorIP15GHOST_TimerTaskSaIS1_EE3endEv(%"class.std::vector"* %m_timers3) #8, !dbg !1206
  %coerce.dive5 = getelementptr inbounds %"class.__gnu_cxx::__normal_iterator.0", %"class.__gnu_cxx::__normal_iterator.0"* %ref.tmp2, i32 0, i32 0, !dbg !1206
  store %class.GHOST_TimerTask** %call4, %class.GHOST_TimerTask*** %coerce.dive5, align 8, !dbg !1206
  %call6 = call zeroext i1 @_ZN9__gnu_cxxneIPP15GHOST_TimerTaskSt6vectorIS2_SaIS2_EEEEbRKNS_17__normal_iteratorIT_T0_EESC_(%"class.__gnu_cxx::__normal_iterator.0"* dereferenceable(8) %iter, %"class.__gnu_cxx::__normal_iterator.0"* dereferenceable(8) %ref.tmp2) #8, !dbg !1207
  br i1 %call6, label %for.body, label %for.end, !dbg !1208

for.body:                                         ; preds = %for.cond
  call void @llvm.dbg.declare(metadata i64* %next, metadata !1209, metadata !DIExpression()), !dbg !1211
  %call7 = call dereferenceable(8) %class.GHOST_TimerTask** @_ZNK9__gnu_cxx17__normal_iteratorIPP15GHOST_TimerTaskSt6vectorIS2_SaIS2_EEEdeEv(%"class.__gnu_cxx::__normal_iterator.0"* %iter) #8, !dbg !1212
  %2 = load %class.GHOST_TimerTask*, %class.GHOST_TimerTask** %call7, align 8, !dbg !1212
  %3 = bitcast %class.GHOST_TimerTask* %2 to i64 (%class.GHOST_TimerTask*)***, !dbg !1213
  %vtable = load i64 (%class.GHOST_TimerTask*)**, i64 (%class.GHOST_TimerTask*)*** %3, align 8, !dbg !1213
  %vfn = getelementptr inbounds i64 (%class.GHOST_TimerTask*)*, i64 (%class.GHOST_TimerTask*)** %vtable, i64 10, !dbg !1213
  %4 = load i64 (%class.GHOST_TimerTask*)*, i64 (%class.GHOST_TimerTask*)** %vfn, align 8, !dbg !1213
  %call8 = call i64 %4(%class.GHOST_TimerTask* %2), !dbg !1213
  store i64 %call8, i64* %next, align 8, !dbg !1211
  %5 = load i64, i64* %next, align 8, !dbg !1214
  %6 = load i64, i64* %smallest, align 8, !dbg !1216
  %cmp = icmp ult i64 %5, %6, !dbg !1217
  br i1 %cmp, label %if.then, label %if.end, !dbg !1218

if.then:                                          ; preds = %for.body
  %7 = load i64, i64* %next, align 8, !dbg !1219
  store i64 %7, i64* %smallest, align 8, !dbg !1220
  br label %if.end, !dbg !1221

if.end:                                           ; preds = %if.then, %for.body
  br label %for.inc, !dbg !1222

for.inc:                                          ; preds = %if.end
  %call9 = call dereferenceable(8) %"class.__gnu_cxx::__normal_iterator.0"* @_ZN9__gnu_cxx17__normal_iteratorIPP15GHOST_TimerTaskSt6vectorIS2_SaIS2_EEEppEv(%"class.__gnu_cxx::__normal_iterator.0"* %iter) #8, !dbg !1223
  br label %for.cond, !dbg !1224, !llvm.loop !1225

for.end:                                          ; preds = %for.cond
  %8 = load i64, i64* %smallest, align 8, !dbg !1227
  ret i64 %8, !dbg !1228
}

; Function Attrs: noinline nounwind uwtable
define linkonce_odr dso_local void @_ZN9__gnu_cxx17__normal_iteratorIPP15GHOST_TimerTaskSt6vectorIS2_SaIS2_EEEC2Ev(%"class.__gnu_cxx::__normal_iterator.0"* %this) unnamed_addr #0 comdat align 2 !dbg !1229 {
entry:
  %this.addr = alloca %"class.__gnu_cxx::__normal_iterator.0"*, align 8
  store %"class.__gnu_cxx::__normal_iterator.0"* %this, %"class.__gnu_cxx::__normal_iterator.0"** %this.addr, align 8
  call void @llvm.dbg.declare(metadata %"class.__gnu_cxx::__normal_iterator.0"** %this.addr, metadata !1230, metadata !DIExpression()), !dbg !1232
  %this1 = load %"class.__gnu_cxx::__normal_iterator.0"*, %"class.__gnu_cxx::__normal_iterator.0"** %this.addr, align 8
  %_M_current = getelementptr inbounds %"class.__gnu_cxx::__normal_iterator.0", %"class.__gnu_cxx::__normal_iterator.0"* %this1, i32 0, i32 0, !dbg !1233
  store %class.GHOST_TimerTask** null, %class.GHOST_TimerTask*** %_M_current, align 8, !dbg !1233
  ret void, !dbg !1234
}

; Function Attrs: argmemonly nounwind willreturn
declare void @llvm.memcpy.p0i8.p0i8.i64(i8* noalias nocapture writeonly, i8* noalias nocapture readonly, i64, i1 immarg) #5

; Function Attrs: noinline nounwind uwtable
define linkonce_odr dso_local dereferenceable(8) %class.GHOST_TimerTask** @_ZNK9__gnu_cxx17__normal_iteratorIPP15GHOST_TimerTaskSt6vectorIS2_SaIS2_EEEdeEv(%"class.__gnu_cxx::__normal_iterator.0"* %this) #0 comdat align 2 !dbg !1235 {
entry:
  %this.addr = alloca %"class.__gnu_cxx::__normal_iterator.0"*, align 8
  store %"class.__gnu_cxx::__normal_iterator.0"* %this, %"class.__gnu_cxx::__normal_iterator.0"** %this.addr, align 8
  call void @llvm.dbg.declare(metadata %"class.__gnu_cxx::__normal_iterator.0"** %this.addr, metadata !1236, metadata !DIExpression()), !dbg !1238
  %this1 = load %"class.__gnu_cxx::__normal_iterator.0"*, %"class.__gnu_cxx::__normal_iterator.0"** %this.addr, align 8
  %_M_current = getelementptr inbounds %"class.__gnu_cxx::__normal_iterator.0", %"class.__gnu_cxx::__normal_iterator.0"* %this1, i32 0, i32 0, !dbg !1239
  %0 = load %class.GHOST_TimerTask**, %class.GHOST_TimerTask*** %_M_current, align 8, !dbg !1239
  ret %class.GHOST_TimerTask** %0, !dbg !1240
}

; Function Attrs: noinline nounwind uwtable
define linkonce_odr dso_local dereferenceable(8) %"class.__gnu_cxx::__normal_iterator.0"* @_ZN9__gnu_cxx17__normal_iteratorIPP15GHOST_TimerTaskSt6vectorIS2_SaIS2_EEEppEv(%"class.__gnu_cxx::__normal_iterator.0"* %this) #0 comdat align 2 !dbg !1241 {
entry:
  %this.addr = alloca %"class.__gnu_cxx::__normal_iterator.0"*, align 8
  store %"class.__gnu_cxx::__normal_iterator.0"* %this, %"class.__gnu_cxx::__normal_iterator.0"** %this.addr, align 8
  call void @llvm.dbg.declare(metadata %"class.__gnu_cxx::__normal_iterator.0"** %this.addr, metadata !1242, metadata !DIExpression()), !dbg !1243
  %this1 = load %"class.__gnu_cxx::__normal_iterator.0"*, %"class.__gnu_cxx::__normal_iterator.0"** %this.addr, align 8
  %_M_current = getelementptr inbounds %"class.__gnu_cxx::__normal_iterator.0", %"class.__gnu_cxx::__normal_iterator.0"* %this1, i32 0, i32 0, !dbg !1244
  %0 = load %class.GHOST_TimerTask**, %class.GHOST_TimerTask*** %_M_current, align 8, !dbg !1245
  %incdec.ptr = getelementptr inbounds %class.GHOST_TimerTask*, %class.GHOST_TimerTask** %0, i32 1, !dbg !1245
  store %class.GHOST_TimerTask** %incdec.ptr, %class.GHOST_TimerTask*** %_M_current, align 8, !dbg !1245
  ret %"class.__gnu_cxx::__normal_iterator.0"* %this1, !dbg !1246
}

; Function Attrs: noinline uwtable
define dso_local zeroext i1 @_ZN18GHOST_TimerManager10fireTimersEy(%class.GHOST_TimerManager* %this, i64 %time) unnamed_addr #2 align 2 !dbg !1247 {
entry:
  %this.addr = alloca %class.GHOST_TimerManager*, align 8
  %time.addr = alloca i64, align 8
  %iter = alloca %"class.__gnu_cxx::__normal_iterator.0", align 8
  %anyProcessed = alloca i8, align 1
  %ref.tmp = alloca %"class.__gnu_cxx::__normal_iterator.0", align 8
  %ref.tmp2 = alloca %"class.__gnu_cxx::__normal_iterator.0", align 8
  store %class.GHOST_TimerManager* %this, %class.GHOST_TimerManager** %this.addr, align 8
  call void @llvm.dbg.declare(metadata %class.GHOST_TimerManager** %this.addr, metadata !1248, metadata !DIExpression()), !dbg !1249
  store i64 %time, i64* %time.addr, align 8
  call void @llvm.dbg.declare(metadata i64* %time.addr, metadata !1250, metadata !DIExpression()), !dbg !1251
  %this1 = load %class.GHOST_TimerManager*, %class.GHOST_TimerManager** %this.addr, align 8
  call void @llvm.dbg.declare(metadata %"class.__gnu_cxx::__normal_iterator.0"* %iter, metadata !1252, metadata !DIExpression()), !dbg !1253
  call void @_ZN9__gnu_cxx17__normal_iteratorIPP15GHOST_TimerTaskSt6vectorIS2_SaIS2_EEEC2Ev(%"class.__gnu_cxx::__normal_iterator.0"* %iter) #8, !dbg !1253
  call void @llvm.dbg.declare(metadata i8* %anyProcessed, metadata !1254, metadata !DIExpression()), !dbg !1255
  store i8 0, i8* %anyProcessed, align 1, !dbg !1255
  %m_timers = getelementptr inbounds %class.GHOST_TimerManager, %class.GHOST_TimerManager* %this1, i32 0, i32 1, !dbg !1256
  %call = call %class.GHOST_TimerTask** @_ZNSt6vectorIP15GHOST_TimerTaskSaIS1_EE5beginEv(%"class.std::vector"* %m_timers) #8, !dbg !1258
  %coerce.dive = getelementptr inbounds %"class.__gnu_cxx::__normal_iterator.0", %"class.__gnu_cxx::__normal_iterator.0"* %ref.tmp, i32 0, i32 0, !dbg !1258
  store %class.GHOST_TimerTask** %call, %class.GHOST_TimerTask*** %coerce.dive, align 8, !dbg !1258
  %0 = bitcast %"class.__gnu_cxx::__normal_iterator.0"* %iter to i8*, !dbg !1259
  %1 = bitcast %"class.__gnu_cxx::__normal_iterator.0"* %ref.tmp to i8*, !dbg !1259
  call void @llvm.memcpy.p0i8.p0i8.i64(i8* align 8 %0, i8* align 8 %1, i64 8, i1 false), !dbg !1259
  br label %for.cond, !dbg !1260

for.cond:                                         ; preds = %for.inc, %entry
  %m_timers3 = getelementptr inbounds %class.GHOST_TimerManager, %class.GHOST_TimerManager* %this1, i32 0, i32 1, !dbg !1261
  %call4 = call %class.GHOST_TimerTask** @_ZNSt6vectorIP15GHOST_TimerTaskSaIS1_EE3endEv(%"class.std::vector"* %m_timers3) #8, !dbg !1263
  %coerce.dive5 = getelementptr inbounds %"class.__gnu_cxx::__normal_iterator.0", %"class.__gnu_cxx::__normal_iterator.0"* %ref.tmp2, i32 0, i32 0, !dbg !1263
  store %class.GHOST_TimerTask** %call4, %class.GHOST_TimerTask*** %coerce.dive5, align 8, !dbg !1263
  %call6 = call zeroext i1 @_ZN9__gnu_cxxneIPP15GHOST_TimerTaskSt6vectorIS2_SaIS2_EEEEbRKNS_17__normal_iteratorIT_T0_EESC_(%"class.__gnu_cxx::__normal_iterator.0"* dereferenceable(8) %iter, %"class.__gnu_cxx::__normal_iterator.0"* dereferenceable(8) %ref.tmp2) #8, !dbg !1264
  br i1 %call6, label %for.body, label %for.end, !dbg !1265

for.body:                                         ; preds = %for.cond
  %2 = load i64, i64* %time.addr, align 8, !dbg !1266
  %call7 = call dereferenceable(8) %class.GHOST_TimerTask** @_ZNK9__gnu_cxx17__normal_iteratorIPP15GHOST_TimerTaskSt6vectorIS2_SaIS2_EEEdeEv(%"class.__gnu_cxx::__normal_iterator.0"* %iter) #8, !dbg !1269
  %3 = load %class.GHOST_TimerTask*, %class.GHOST_TimerTask** %call7, align 8, !dbg !1269
  %4 = bitcast %class.GHOST_TimerManager* %this1 to i1 (%class.GHOST_TimerManager*, i64, %class.GHOST_TimerTask*)***, !dbg !1270
  %vtable = load i1 (%class.GHOST_TimerManager*, i64, %class.GHOST_TimerTask*)**, i1 (%class.GHOST_TimerManager*, i64, %class.GHOST_TimerTask*)*** %4, align 8, !dbg !1270
  %vfn = getelementptr inbounds i1 (%class.GHOST_TimerManager*, i64, %class.GHOST_TimerTask*)*, i1 (%class.GHOST_TimerManager*, i64, %class.GHOST_TimerTask*)** %vtable, i64 8, !dbg !1270
  %5 = load i1 (%class.GHOST_TimerManager*, i64, %class.GHOST_TimerTask*)*, i1 (%class.GHOST_TimerManager*, i64, %class.GHOST_TimerTask*)** %vfn, align 8, !dbg !1270
  %call8 = call zeroext i1 %5(%class.GHOST_TimerManager* %this1, i64 %2, %class.GHOST_TimerTask* %3), !dbg !1270
  br i1 %call8, label %if.then, label %if.end, !dbg !1271

if.then:                                          ; preds = %for.body
  store i8 1, i8* %anyProcessed, align 1, !dbg !1272
  br label %if.end, !dbg !1273

if.end:                                           ; preds = %if.then, %for.body
  br label %for.inc, !dbg !1274

for.inc:                                          ; preds = %if.end
  %call9 = call dereferenceable(8) %"class.__gnu_cxx::__normal_iterator.0"* @_ZN9__gnu_cxx17__normal_iteratorIPP15GHOST_TimerTaskSt6vectorIS2_SaIS2_EEEppEv(%"class.__gnu_cxx::__normal_iterator.0"* %iter) #8, !dbg !1275
  br label %for.cond, !dbg !1276, !llvm.loop !1277

for.end:                                          ; preds = %for.cond
  %6 = load i8, i8* %anyProcessed, align 1, !dbg !1279
  %tobool = trunc i8 %6 to i1, !dbg !1279
  ret i1 %tobool, !dbg !1280
}

; Function Attrs: noinline uwtable
define dso_local zeroext i1 @_ZN18GHOST_TimerManager9fireTimerEyP15GHOST_TimerTask(%class.GHOST_TimerManager* %this, i64 %time, %class.GHOST_TimerTask* %task) unnamed_addr #2 align 2 !dbg !1281 {
entry:
  %retval = alloca i1, align 1
  %this.addr = alloca %class.GHOST_TimerManager*, align 8
  %time.addr = alloca i64, align 8
  %task.addr = alloca %class.GHOST_TimerTask*, align 8
  %next = alloca i64, align 8
  %timerProc = alloca void (%class.GHOST_ITimerTask*, i64)*, align 8
  %start = alloca i64, align 8
  %interval = alloca i64, align 8
  %numCalls = alloca i64, align 8
  store %class.GHOST_TimerManager* %this, %class.GHOST_TimerManager** %this.addr, align 8
  call void @llvm.dbg.declare(metadata %class.GHOST_TimerManager** %this.addr, metadata !1282, metadata !DIExpression()), !dbg !1283
  store i64 %time, i64* %time.addr, align 8
  call void @llvm.dbg.declare(metadata i64* %time.addr, metadata !1284, metadata !DIExpression()), !dbg !1285
  store %class.GHOST_TimerTask* %task, %class.GHOST_TimerTask** %task.addr, align 8
  call void @llvm.dbg.declare(metadata %class.GHOST_TimerTask** %task.addr, metadata !1286, metadata !DIExpression()), !dbg !1287
  %this1 = load %class.GHOST_TimerManager*, %class.GHOST_TimerManager** %this.addr, align 8
  call void @llvm.dbg.declare(metadata i64* %next, metadata !1288, metadata !DIExpression()), !dbg !1289
  %0 = load %class.GHOST_TimerTask*, %class.GHOST_TimerTask** %task.addr, align 8, !dbg !1290
  %1 = bitcast %class.GHOST_TimerTask* %0 to i64 (%class.GHOST_TimerTask*)***, !dbg !1291
  %vtable = load i64 (%class.GHOST_TimerTask*)**, i64 (%class.GHOST_TimerTask*)*** %1, align 8, !dbg !1291
  %vfn = getelementptr inbounds i64 (%class.GHOST_TimerTask*)*, i64 (%class.GHOST_TimerTask*)** %vtable, i64 10, !dbg !1291
  %2 = load i64 (%class.GHOST_TimerTask*)*, i64 (%class.GHOST_TimerTask*)** %vfn, align 8, !dbg !1291
  %call = call i64 %2(%class.GHOST_TimerTask* %0), !dbg !1291
  store i64 %call, i64* %next, align 8, !dbg !1289
  %3 = load i64, i64* %time.addr, align 8, !dbg !1292
  %4 = load i64, i64* %next, align 8, !dbg !1294
  %cmp = icmp ugt i64 %3, %4, !dbg !1295
  br i1 %cmp, label %if.then, label %if.else, !dbg !1296

if.then:                                          ; preds = %entry
  call void @llvm.dbg.declare(metadata void (%class.GHOST_ITimerTask*, i64)** %timerProc, metadata !1297, metadata !DIExpression()), !dbg !1306
  %5 = load %class.GHOST_TimerTask*, %class.GHOST_TimerTask** %task.addr, align 8, !dbg !1307
  %6 = bitcast %class.GHOST_TimerTask* %5 to void (%class.GHOST_ITimerTask*, i64)* (%class.GHOST_TimerTask*)***, !dbg !1308
  %vtable2 = load void (%class.GHOST_ITimerTask*, i64)* (%class.GHOST_TimerTask*)**, void (%class.GHOST_ITimerTask*, i64)* (%class.GHOST_TimerTask*)*** %6, align 8, !dbg !1308
  %vfn3 = getelementptr inbounds void (%class.GHOST_ITimerTask*, i64)* (%class.GHOST_TimerTask*)*, void (%class.GHOST_ITimerTask*, i64)* (%class.GHOST_TimerTask*)** %vtable2, i64 2, !dbg !1308
  %7 = load void (%class.GHOST_ITimerTask*, i64)* (%class.GHOST_TimerTask*)*, void (%class.GHOST_ITimerTask*, i64)* (%class.GHOST_TimerTask*)** %vfn3, align 8, !dbg !1308
  %call4 = call void (%class.GHOST_ITimerTask*, i64)* %7(%class.GHOST_TimerTask* %5), !dbg !1308
  store void (%class.GHOST_ITimerTask*, i64)* %call4, void (%class.GHOST_ITimerTask*, i64)** %timerProc, align 8, !dbg !1306
  call void @llvm.dbg.declare(metadata i64* %start, metadata !1309, metadata !DIExpression()), !dbg !1310
  %8 = load %class.GHOST_TimerTask*, %class.GHOST_TimerTask** %task.addr, align 8, !dbg !1311
  %9 = bitcast %class.GHOST_TimerTask* %8 to i64 (%class.GHOST_TimerTask*)***, !dbg !1312
  %vtable5 = load i64 (%class.GHOST_TimerTask*)**, i64 (%class.GHOST_TimerTask*)*** %9, align 8, !dbg !1312
  %vfn6 = getelementptr inbounds i64 (%class.GHOST_TimerTask*)*, i64 (%class.GHOST_TimerTask*)** %vtable5, i64 6, !dbg !1312
  %10 = load i64 (%class.GHOST_TimerTask*)*, i64 (%class.GHOST_TimerTask*)** %vfn6, align 8, !dbg !1312
  %call7 = call i64 %10(%class.GHOST_TimerTask* %8), !dbg !1312
  store i64 %call7, i64* %start, align 8, !dbg !1310
  %11 = load void (%class.GHOST_ITimerTask*, i64)*, void (%class.GHOST_ITimerTask*, i64)** %timerProc, align 8, !dbg !1313
  %12 = load %class.GHOST_TimerTask*, %class.GHOST_TimerTask** %task.addr, align 8, !dbg !1314
  %13 = bitcast %class.GHOST_TimerTask* %12 to %class.GHOST_ITimerTask*, !dbg !1314
  %14 = load i64, i64* %time.addr, align 8, !dbg !1315
  %15 = load i64, i64* %start, align 8, !dbg !1316
  %sub = sub i64 %14, %15, !dbg !1317
  call void %11(%class.GHOST_ITimerTask* %13, i64 %sub), !dbg !1313
  call void @llvm.dbg.declare(metadata i64* %interval, metadata !1318, metadata !DIExpression()), !dbg !1319
  %16 = load %class.GHOST_TimerTask*, %class.GHOST_TimerTask** %task.addr, align 8, !dbg !1320
  %17 = bitcast %class.GHOST_TimerTask* %16 to i64 (%class.GHOST_TimerTask*)***, !dbg !1321
  %vtable8 = load i64 (%class.GHOST_TimerTask*)**, i64 (%class.GHOST_TimerTask*)*** %17, align 8, !dbg !1321
  %vfn9 = getelementptr inbounds i64 (%class.GHOST_TimerTask*)*, i64 (%class.GHOST_TimerTask*)** %vtable8, i64 8, !dbg !1321
  %18 = load i64 (%class.GHOST_TimerTask*)*, i64 (%class.GHOST_TimerTask*)** %vfn9, align 8, !dbg !1321
  %call10 = call i64 %18(%class.GHOST_TimerTask* %16), !dbg !1321
  store i64 %call10, i64* %interval, align 8, !dbg !1319
  call void @llvm.dbg.declare(metadata i64* %numCalls, metadata !1322, metadata !DIExpression()), !dbg !1323
  %19 = load i64, i64* %next, align 8, !dbg !1324
  %20 = load i64, i64* %start, align 8, !dbg !1325
  %sub11 = sub i64 %19, %20, !dbg !1326
  %21 = load i64, i64* %interval, align 8, !dbg !1327
  %div = udiv i64 %sub11, %21, !dbg !1328
  store i64 %div, i64* %numCalls, align 8, !dbg !1323
  %22 = load i64, i64* %numCalls, align 8, !dbg !1329
  %inc = add i64 %22, 1, !dbg !1329
  store i64 %inc, i64* %numCalls, align 8, !dbg !1329
  %23 = load i64, i64* %start, align 8, !dbg !1330
  %24 = load i64, i64* %numCalls, align 8, !dbg !1331
  %25 = load i64, i64* %interval, align 8, !dbg !1332
  %mul = mul i64 %24, %25, !dbg !1333
  %add = add i64 %23, %mul, !dbg !1334
  store i64 %add, i64* %next, align 8, !dbg !1335
  %26 = load %class.GHOST_TimerTask*, %class.GHOST_TimerTask** %task.addr, align 8, !dbg !1336
  %27 = load i64, i64* %next, align 8, !dbg !1337
  %28 = bitcast %class.GHOST_TimerTask* %26 to void (%class.GHOST_TimerTask*, i64)***, !dbg !1338
  %vtable12 = load void (%class.GHOST_TimerTask*, i64)**, void (%class.GHOST_TimerTask*, i64)*** %28, align 8, !dbg !1338
  %vfn13 = getelementptr inbounds void (%class.GHOST_TimerTask*, i64)*, void (%class.GHOST_TimerTask*, i64)** %vtable12, i64 11, !dbg !1338
  %29 = load void (%class.GHOST_TimerTask*, i64)*, void (%class.GHOST_TimerTask*, i64)** %vfn13, align 8, !dbg !1338
  call void %29(%class.GHOST_TimerTask* %26, i64 %27), !dbg !1338
  store i1 true, i1* %retval, align 1, !dbg !1339
  br label %return, !dbg !1339

if.else:                                          ; preds = %entry
  store i1 false, i1* %retval, align 1, !dbg !1340
  br label %return, !dbg !1340

return:                                           ; preds = %if.else, %if.then
  %30 = load i1, i1* %retval, align 1, !dbg !1342
  ret i1 %30, !dbg !1342
}

; Function Attrs: noinline nounwind uwtable
define linkonce_odr dso_local zeroext i1 @_ZNKSt6vectorIP15GHOST_TimerTaskSaIS1_EE5emptyEv(%"class.std::vector"* %this) #0 comdat align 2 !dbg !1343 {
entry:
  %this.addr = alloca %"class.std::vector"*, align 8
  %ref.tmp = alloca %"class.__gnu_cxx::__normal_iterator", align 8
  %ref.tmp2 = alloca %"class.__gnu_cxx::__normal_iterator", align 8
  store %"class.std::vector"* %this, %"class.std::vector"** %this.addr, align 8
  call void @llvm.dbg.declare(metadata %"class.std::vector"** %this.addr, metadata !1344, metadata !DIExpression()), !dbg !1345
  %this1 = load %"class.std::vector"*, %"class.std::vector"** %this.addr, align 8
  %call = call %class.GHOST_TimerTask** @_ZNKSt6vectorIP15GHOST_TimerTaskSaIS1_EE5beginEv(%"class.std::vector"* %this1) #8, !dbg !1346
  %coerce.dive = getelementptr inbounds %"class.__gnu_cxx::__normal_iterator", %"class.__gnu_cxx::__normal_iterator"* %ref.tmp, i32 0, i32 0, !dbg !1346
  store %class.GHOST_TimerTask** %call, %class.GHOST_TimerTask*** %coerce.dive, align 8, !dbg !1346
  %call3 = call %class.GHOST_TimerTask** @_ZNKSt6vectorIP15GHOST_TimerTaskSaIS1_EE3endEv(%"class.std::vector"* %this1) #8, !dbg !1347
  %coerce.dive4 = getelementptr inbounds %"class.__gnu_cxx::__normal_iterator", %"class.__gnu_cxx::__normal_iterator"* %ref.tmp2, i32 0, i32 0, !dbg !1347
  store %class.GHOST_TimerTask** %call3, %class.GHOST_TimerTask*** %coerce.dive4, align 8, !dbg !1347
  %call5 = call zeroext i1 @_ZN9__gnu_cxxeqIPKP15GHOST_TimerTaskSt6vectorIS2_SaIS2_EEEEbRKNS_17__normal_iteratorIT_T0_EESD_(%"class.__gnu_cxx::__normal_iterator"* dereferenceable(8) %ref.tmp, %"class.__gnu_cxx::__normal_iterator"* dereferenceable(8) %ref.tmp2) #8, !dbg !1348
  ret i1 %call5, !dbg !1349
}

; Function Attrs: noinline nounwind uwtable
define linkonce_odr dso_local dereferenceable(8) %class.GHOST_TimerTask** @_ZNSt6vectorIP15GHOST_TimerTaskSaIS1_EEixEm(%"class.std::vector"* %this, i64 %__n) #0 comdat align 2 !dbg !1350 {
entry:
  %this.addr = alloca %"class.std::vector"*, align 8
  %__n.addr = alloca i64, align 8
  store %"class.std::vector"* %this, %"class.std::vector"** %this.addr, align 8
  call void @llvm.dbg.declare(metadata %"class.std::vector"** %this.addr, metadata !1351, metadata !DIExpression()), !dbg !1352
  store i64 %__n, i64* %__n.addr, align 8
  call void @llvm.dbg.declare(metadata i64* %__n.addr, metadata !1353, metadata !DIExpression()), !dbg !1354
  %this1 = load %"class.std::vector"*, %"class.std::vector"** %this.addr, align 8
  %0 = bitcast %"class.std::vector"* %this1 to %"struct.std::_Vector_base"*, !dbg !1355
  %_M_impl = getelementptr inbounds %"struct.std::_Vector_base", %"struct.std::_Vector_base"* %0, i32 0, i32 0, !dbg !1355
  %1 = bitcast %"struct.std::_Vector_base<GHOST_TimerTask *, std::allocator<GHOST_TimerTask *> >::_Vector_impl"* %_M_impl to %"struct.std::_Vector_base<GHOST_TimerTask *, std::allocator<GHOST_TimerTask *> >::_Vector_impl_data"*, !dbg !1356
  %_M_start = getelementptr inbounds %"struct.std::_Vector_base<GHOST_TimerTask *, std::allocator<GHOST_TimerTask *> >::_Vector_impl_data", %"struct.std::_Vector_base<GHOST_TimerTask *, std::allocator<GHOST_TimerTask *> >::_Vector_impl_data"* %1, i32 0, i32 0, !dbg !1357
  %2 = load %class.GHOST_TimerTask**, %class.GHOST_TimerTask*** %_M_start, align 8, !dbg !1357
  %3 = load i64, i64* %__n.addr, align 8, !dbg !1358
  %add.ptr = getelementptr inbounds %class.GHOST_TimerTask*, %class.GHOST_TimerTask** %2, i64 %3, !dbg !1359
  ret %class.GHOST_TimerTask** %add.ptr, !dbg !1360
}

; Function Attrs: noinline nounwind uwtable
define linkonce_odr dso_local void @_ZNSt12_Vector_baseIP15GHOST_TimerTaskSaIS1_EEC2Ev(%"struct.std::_Vector_base"* %this) unnamed_addr #0 comdat align 2 !dbg !1361 {
entry:
  %this.addr = alloca %"struct.std::_Vector_base"*, align 8
  store %"struct.std::_Vector_base"* %this, %"struct.std::_Vector_base"** %this.addr, align 8
  call void @llvm.dbg.declare(metadata %"struct.std::_Vector_base"** %this.addr, metadata !1362, metadata !DIExpression()), !dbg !1364
  %this1 = load %"struct.std::_Vector_base"*, %"struct.std::_Vector_base"** %this.addr, align 8
  %_M_impl = getelementptr inbounds %"struct.std::_Vector_base", %"struct.std::_Vector_base"* %this1, i32 0, i32 0, !dbg !1365
  call void @_ZNSt12_Vector_baseIP15GHOST_TimerTaskSaIS1_EE12_Vector_implC2Ev(%"struct.std::_Vector_base<GHOST_TimerTask *, std::allocator<GHOST_TimerTask *> >::_Vector_impl"* %_M_impl) #8, !dbg !1365
  ret void, !dbg !1366
}

; Function Attrs: noinline nounwind uwtable
define linkonce_odr dso_local void @_ZNSt12_Vector_baseIP15GHOST_TimerTaskSaIS1_EE12_Vector_implC2Ev(%"struct.std::_Vector_base<GHOST_TimerTask *, std::allocator<GHOST_TimerTask *> >::_Vector_impl"* %this) unnamed_addr #0 comdat align 2 !dbg !1367 {
entry:
  %this.addr = alloca %"struct.std::_Vector_base<GHOST_TimerTask *, std::allocator<GHOST_TimerTask *> >::_Vector_impl"*, align 8
  store %"struct.std::_Vector_base<GHOST_TimerTask *, std::allocator<GHOST_TimerTask *> >::_Vector_impl"* %this, %"struct.std::_Vector_base<GHOST_TimerTask *, std::allocator<GHOST_TimerTask *> >::_Vector_impl"** %this.addr, align 8
  call void @llvm.dbg.declare(metadata %"struct.std::_Vector_base<GHOST_TimerTask *, std::allocator<GHOST_TimerTask *> >::_Vector_impl"** %this.addr, metadata !1368, metadata !DIExpression()), !dbg !1370
  %this1 = load %"struct.std::_Vector_base<GHOST_TimerTask *, std::allocator<GHOST_TimerTask *> >::_Vector_impl"*, %"struct.std::_Vector_base<GHOST_TimerTask *, std::allocator<GHOST_TimerTask *> >::_Vector_impl"** %this.addr, align 8
  %0 = bitcast %"struct.std::_Vector_base<GHOST_TimerTask *, std::allocator<GHOST_TimerTask *> >::_Vector_impl"* %this1 to %"class.std::allocator"*, !dbg !1371
  call void @_ZNSaIP15GHOST_TimerTaskEC2Ev(%"class.std::allocator"* %0) #8, !dbg !1372
  %1 = bitcast %"struct.std::_Vector_base<GHOST_TimerTask *, std::allocator<GHOST_TimerTask *> >::_Vector_impl"* %this1 to %"struct.std::_Vector_base<GHOST_TimerTask *, std::allocator<GHOST_TimerTask *> >::_Vector_impl_data"*, !dbg !1371
  call void @_ZNSt12_Vector_baseIP15GHOST_TimerTaskSaIS1_EE17_Vector_impl_dataC2Ev(%"struct.std::_Vector_base<GHOST_TimerTask *, std::allocator<GHOST_TimerTask *> >::_Vector_impl_data"* %1) #8, !dbg !1373
  ret void, !dbg !1374
}

; Function Attrs: noinline nounwind uwtable
define linkonce_odr dso_local void @_ZNSaIP15GHOST_TimerTaskEC2Ev(%"class.std::allocator"* %this) unnamed_addr #0 comdat align 2 !dbg !1375 {
entry:
  %this.addr = alloca %"class.std::allocator"*, align 8
  store %"class.std::allocator"* %this, %"class.std::allocator"** %this.addr, align 8
  call void @llvm.dbg.declare(metadata %"class.std::allocator"** %this.addr, metadata !1376, metadata !DIExpression()), !dbg !1378
  %this1 = load %"class.std::allocator"*, %"class.std::allocator"** %this.addr, align 8
  %0 = bitcast %"class.std::allocator"* %this1 to %"class.__gnu_cxx::new_allocator"*, !dbg !1379
  call void @_ZN9__gnu_cxx13new_allocatorIP15GHOST_TimerTaskEC2Ev(%"class.__gnu_cxx::new_allocator"* %0) #8, !dbg !1380
  ret void, !dbg !1381
}

; Function Attrs: noinline nounwind uwtable
define linkonce_odr dso_local void @_ZNSt12_Vector_baseIP15GHOST_TimerTaskSaIS1_EE17_Vector_impl_dataC2Ev(%"struct.std::_Vector_base<GHOST_TimerTask *, std::allocator<GHOST_TimerTask *> >::_Vector_impl_data"* %this) unnamed_addr #0 comdat align 2 !dbg !1382 {
entry:
  %this.addr = alloca %"struct.std::_Vector_base<GHOST_TimerTask *, std::allocator<GHOST_TimerTask *> >::_Vector_impl_data"*, align 8
  store %"struct.std::_Vector_base<GHOST_TimerTask *, std::allocator<GHOST_TimerTask *> >::_Vector_impl_data"* %this, %"struct.std::_Vector_base<GHOST_TimerTask *, std::allocator<GHOST_TimerTask *> >::_Vector_impl_data"** %this.addr, align 8
  call void @llvm.dbg.declare(metadata %"struct.std::_Vector_base<GHOST_TimerTask *, std::allocator<GHOST_TimerTask *> >::_Vector_impl_data"** %this.addr, metadata !1383, metadata !DIExpression()), !dbg !1385
  %this1 = load %"struct.std::_Vector_base<GHOST_TimerTask *, std::allocator<GHOST_TimerTask *> >::_Vector_impl_data"*, %"struct.std::_Vector_base<GHOST_TimerTask *, std::allocator<GHOST_TimerTask *> >::_Vector_impl_data"** %this.addr, align 8
  %_M_start = getelementptr inbounds %"struct.std::_Vector_base<GHOST_TimerTask *, std::allocator<GHOST_TimerTask *> >::_Vector_impl_data", %"struct.std::_Vector_base<GHOST_TimerTask *, std::allocator<GHOST_TimerTask *> >::_Vector_impl_data"* %this1, i32 0, i32 0, !dbg !1386
  store %class.GHOST_TimerTask** null, %class.GHOST_TimerTask*** %_M_start, align 8, !dbg !1386
  %_M_finish = getelementptr inbounds %"struct.std::_Vector_base<GHOST_TimerTask *, std::allocator<GHOST_TimerTask *> >::_Vector_impl_data", %"struct.std::_Vector_base<GHOST_TimerTask *, std::allocator<GHOST_TimerTask *> >::_Vector_impl_data"* %this1, i32 0, i32 1, !dbg !1387
  store %class.GHOST_TimerTask** null, %class.GHOST_TimerTask*** %_M_finish, align 8, !dbg !1387
  %_M_end_of_storage = getelementptr inbounds %"struct.std::_Vector_base<GHOST_TimerTask *, std::allocator<GHOST_TimerTask *> >::_Vector_impl_data", %"struct.std::_Vector_base<GHOST_TimerTask *, std::allocator<GHOST_TimerTask *> >::_Vector_impl_data"* %this1, i32 0, i32 2, !dbg !1388
  store %class.GHOST_TimerTask** null, %class.GHOST_TimerTask*** %_M_end_of_storage, align 8, !dbg !1388
  ret void, !dbg !1389
}

; Function Attrs: noinline nounwind uwtable
define linkonce_odr dso_local void @_ZN9__gnu_cxx13new_allocatorIP15GHOST_TimerTaskEC2Ev(%"class.__gnu_cxx::new_allocator"* %this) unnamed_addr #0 comdat align 2 !dbg !1390 {
entry:
  %this.addr = alloca %"class.__gnu_cxx::new_allocator"*, align 8
  store %"class.__gnu_cxx::new_allocator"* %this, %"class.__gnu_cxx::new_allocator"** %this.addr, align 8
  call void @llvm.dbg.declare(metadata %"class.__gnu_cxx::new_allocator"** %this.addr, metadata !1391, metadata !DIExpression()), !dbg !1393
  %this1 = load %"class.__gnu_cxx::new_allocator"*, %"class.__gnu_cxx::new_allocator"** %this.addr, align 8
  ret void, !dbg !1394
}

; Function Attrs: noinline uwtable
define linkonce_odr dso_local void @_ZSt8_DestroyIPP15GHOST_TimerTaskS1_EvT_S3_RSaIT0_E(%class.GHOST_TimerTask** %__first, %class.GHOST_TimerTask** %__last, %"class.std::allocator"* dereferenceable(1) %0) #2 comdat !dbg !1395 {
entry:
  %__first.addr = alloca %class.GHOST_TimerTask**, align 8
  %__last.addr = alloca %class.GHOST_TimerTask**, align 8
  %.addr = alloca %"class.std::allocator"*, align 8
  store %class.GHOST_TimerTask** %__first, %class.GHOST_TimerTask*** %__first.addr, align 8
  call void @llvm.dbg.declare(metadata %class.GHOST_TimerTask*** %__first.addr, metadata !1400, metadata !DIExpression()), !dbg !1401
  store %class.GHOST_TimerTask** %__last, %class.GHOST_TimerTask*** %__last.addr, align 8
  call void @llvm.dbg.declare(metadata %class.GHOST_TimerTask*** %__last.addr, metadata !1402, metadata !DIExpression()), !dbg !1403
  store %"class.std::allocator"* %0, %"class.std::allocator"** %.addr, align 8
  call void @llvm.dbg.declare(metadata %"class.std::allocator"** %.addr, metadata !1404, metadata !DIExpression()), !dbg !1405
  %1 = load %class.GHOST_TimerTask**, %class.GHOST_TimerTask*** %__first.addr, align 8, !dbg !1406
  %2 = load %class.GHOST_TimerTask**, %class.GHOST_TimerTask*** %__last.addr, align 8, !dbg !1407
  call void @_ZSt8_DestroyIPP15GHOST_TimerTaskEvT_S3_(%class.GHOST_TimerTask** %1, %class.GHOST_TimerTask** %2), !dbg !1408
  ret void, !dbg !1409
}

; Function Attrs: noinline nounwind uwtable
define linkonce_odr dso_local dereferenceable(1) %"class.std::allocator"* @_ZNSt12_Vector_baseIP15GHOST_TimerTaskSaIS1_EE19_M_get_Tp_allocatorEv(%"struct.std::_Vector_base"* %this) #0 comdat align 2 !dbg !1410 {
entry:
  %this.addr = alloca %"struct.std::_Vector_base"*, align 8
  store %"struct.std::_Vector_base"* %this, %"struct.std::_Vector_base"** %this.addr, align 8
  call void @llvm.dbg.declare(metadata %"struct.std::_Vector_base"** %this.addr, metadata !1411, metadata !DIExpression()), !dbg !1412
  %this1 = load %"struct.std::_Vector_base"*, %"struct.std::_Vector_base"** %this.addr, align 8
  %_M_impl = getelementptr inbounds %"struct.std::_Vector_base", %"struct.std::_Vector_base"* %this1, i32 0, i32 0, !dbg !1413
  %0 = bitcast %"struct.std::_Vector_base<GHOST_TimerTask *, std::allocator<GHOST_TimerTask *> >::_Vector_impl"* %_M_impl to %"class.std::allocator"*, !dbg !1414
  ret %"class.std::allocator"* %0, !dbg !1415
}

; Function Attrs: noinline nounwind uwtable
define linkonce_odr dso_local void @_ZNSt12_Vector_baseIP15GHOST_TimerTaskSaIS1_EED2Ev(%"struct.std::_Vector_base"* %this) unnamed_addr #0 comdat align 2 personality i8* bitcast (i32 (...)* @__gxx_personality_v0 to i8*) !dbg !1416 {
entry:
  %this.addr = alloca %"struct.std::_Vector_base"*, align 8
  %exn.slot = alloca i8*
  %ehselector.slot = alloca i32
  store %"struct.std::_Vector_base"* %this, %"struct.std::_Vector_base"** %this.addr, align 8
  call void @llvm.dbg.declare(metadata %"struct.std::_Vector_base"** %this.addr, metadata !1417, metadata !DIExpression()), !dbg !1418
  %this1 = load %"struct.std::_Vector_base"*, %"struct.std::_Vector_base"** %this.addr, align 8
  %_M_impl = getelementptr inbounds %"struct.std::_Vector_base", %"struct.std::_Vector_base"* %this1, i32 0, i32 0, !dbg !1419
  %0 = bitcast %"struct.std::_Vector_base<GHOST_TimerTask *, std::allocator<GHOST_TimerTask *> >::_Vector_impl"* %_M_impl to %"struct.std::_Vector_base<GHOST_TimerTask *, std::allocator<GHOST_TimerTask *> >::_Vector_impl_data"*, !dbg !1419
  %_M_start = getelementptr inbounds %"struct.std::_Vector_base<GHOST_TimerTask *, std::allocator<GHOST_TimerTask *> >::_Vector_impl_data", %"struct.std::_Vector_base<GHOST_TimerTask *, std::allocator<GHOST_TimerTask *> >::_Vector_impl_data"* %0, i32 0, i32 0, !dbg !1421
  %1 = load %class.GHOST_TimerTask**, %class.GHOST_TimerTask*** %_M_start, align 8, !dbg !1421
  %_M_impl2 = getelementptr inbounds %"struct.std::_Vector_base", %"struct.std::_Vector_base"* %this1, i32 0, i32 0, !dbg !1422
  %2 = bitcast %"struct.std::_Vector_base<GHOST_TimerTask *, std::allocator<GHOST_TimerTask *> >::_Vector_impl"* %_M_impl2 to %"struct.std::_Vector_base<GHOST_TimerTask *, std::allocator<GHOST_TimerTask *> >::_Vector_impl_data"*, !dbg !1422
  %_M_end_of_storage = getelementptr inbounds %"struct.std::_Vector_base<GHOST_TimerTask *, std::allocator<GHOST_TimerTask *> >::_Vector_impl_data", %"struct.std::_Vector_base<GHOST_TimerTask *, std::allocator<GHOST_TimerTask *> >::_Vector_impl_data"* %2, i32 0, i32 2, !dbg !1423
  %3 = load %class.GHOST_TimerTask**, %class.GHOST_TimerTask*** %_M_end_of_storage, align 8, !dbg !1423
  %_M_impl3 = getelementptr inbounds %"struct.std::_Vector_base", %"struct.std::_Vector_base"* %this1, i32 0, i32 0, !dbg !1424
  %4 = bitcast %"struct.std::_Vector_base<GHOST_TimerTask *, std::allocator<GHOST_TimerTask *> >::_Vector_impl"* %_M_impl3 to %"struct.std::_Vector_base<GHOST_TimerTask *, std::allocator<GHOST_TimerTask *> >::_Vector_impl_data"*, !dbg !1424
  %_M_start4 = getelementptr inbounds %"struct.std::_Vector_base<GHOST_TimerTask *, std::allocator<GHOST_TimerTask *> >::_Vector_impl_data", %"struct.std::_Vector_base<GHOST_TimerTask *, std::allocator<GHOST_TimerTask *> >::_Vector_impl_data"* %4, i32 0, i32 0, !dbg !1425
  %5 = load %class.GHOST_TimerTask**, %class.GHOST_TimerTask*** %_M_start4, align 8, !dbg !1425
  %sub.ptr.lhs.cast = ptrtoint %class.GHOST_TimerTask** %3 to i64, !dbg !1426
  %sub.ptr.rhs.cast = ptrtoint %class.GHOST_TimerTask** %5 to i64, !dbg !1426
  %sub.ptr.sub = sub i64 %sub.ptr.lhs.cast, %sub.ptr.rhs.cast, !dbg !1426
  %sub.ptr.div = sdiv exact i64 %sub.ptr.sub, 8, !dbg !1426
  invoke void @_ZNSt12_Vector_baseIP15GHOST_TimerTaskSaIS1_EE13_M_deallocateEPS1_m(%"struct.std::_Vector_base"* %this1, %class.GHOST_TimerTask** %1, i64 %sub.ptr.div)
          to label %invoke.cont unwind label %lpad, !dbg !1427

invoke.cont:                                      ; preds = %entry
  %_M_impl5 = getelementptr inbounds %"struct.std::_Vector_base", %"struct.std::_Vector_base"* %this1, i32 0, i32 0, !dbg !1428
  call void @_ZNSt12_Vector_baseIP15GHOST_TimerTaskSaIS1_EE12_Vector_implD2Ev(%"struct.std::_Vector_base<GHOST_TimerTask *, std::allocator<GHOST_TimerTask *> >::_Vector_impl"* %_M_impl5) #8, !dbg !1428
  ret void, !dbg !1429

lpad:                                             ; preds = %entry
  %6 = landingpad { i8*, i32 }
          catch i8* null, !dbg !1428
  %7 = extractvalue { i8*, i32 } %6, 0, !dbg !1428
  store i8* %7, i8** %exn.slot, align 8, !dbg !1428
  %8 = extractvalue { i8*, i32 } %6, 1, !dbg !1428
  store i32 %8, i32* %ehselector.slot, align 4, !dbg !1428
  %_M_impl6 = getelementptr inbounds %"struct.std::_Vector_base", %"struct.std::_Vector_base"* %this1, i32 0, i32 0, !dbg !1428
  call void @_ZNSt12_Vector_baseIP15GHOST_TimerTaskSaIS1_EE12_Vector_implD2Ev(%"struct.std::_Vector_base<GHOST_TimerTask *, std::allocator<GHOST_TimerTask *> >::_Vector_impl"* %_M_impl6) #8, !dbg !1428
  br label %terminate.handler, !dbg !1428

terminate.handler:                                ; preds = %lpad
  %exn = load i8*, i8** %exn.slot, align 8, !dbg !1428
  call void @__clang_call_terminate(i8* %exn) #9, !dbg !1428
  unreachable, !dbg !1428
}

; Function Attrs: noinline uwtable
define linkonce_odr dso_local void @_ZSt8_DestroyIPP15GHOST_TimerTaskEvT_S3_(%class.GHOST_TimerTask** %__first, %class.GHOST_TimerTask** %__last) #2 comdat !dbg !1430 {
entry:
  %__first.addr = alloca %class.GHOST_TimerTask**, align 8
  %__last.addr = alloca %class.GHOST_TimerTask**, align 8
  store %class.GHOST_TimerTask** %__first, %class.GHOST_TimerTask*** %__first.addr, align 8
  call void @llvm.dbg.declare(metadata %class.GHOST_TimerTask*** %__first.addr, metadata !1435, metadata !DIExpression()), !dbg !1436
  store %class.GHOST_TimerTask** %__last, %class.GHOST_TimerTask*** %__last.addr, align 8
  call void @llvm.dbg.declare(metadata %class.GHOST_TimerTask*** %__last.addr, metadata !1437, metadata !DIExpression()), !dbg !1438
  %0 = load %class.GHOST_TimerTask**, %class.GHOST_TimerTask*** %__first.addr, align 8, !dbg !1439
  %1 = load %class.GHOST_TimerTask**, %class.GHOST_TimerTask*** %__last.addr, align 8, !dbg !1440
  call void @_ZNSt12_Destroy_auxILb1EE9__destroyIPP15GHOST_TimerTaskEEvT_S5_(%class.GHOST_TimerTask** %0, %class.GHOST_TimerTask** %1), !dbg !1441
  ret void, !dbg !1442
}

; Function Attrs: noinline nounwind uwtable
define linkonce_odr dso_local void @_ZNSt12_Destroy_auxILb1EE9__destroyIPP15GHOST_TimerTaskEEvT_S5_(%class.GHOST_TimerTask** %0, %class.GHOST_TimerTask** %1) #0 comdat align 2 !dbg !1443 {
entry:
  %.addr = alloca %class.GHOST_TimerTask**, align 8
  %.addr1 = alloca %class.GHOST_TimerTask**, align 8
  store %class.GHOST_TimerTask** %0, %class.GHOST_TimerTask*** %.addr, align 8
  call void @llvm.dbg.declare(metadata %class.GHOST_TimerTask*** %.addr, metadata !1448, metadata !DIExpression()), !dbg !1449
  store %class.GHOST_TimerTask** %1, %class.GHOST_TimerTask*** %.addr1, align 8
  call void @llvm.dbg.declare(metadata %class.GHOST_TimerTask*** %.addr1, metadata !1450, metadata !DIExpression()), !dbg !1451
  ret void, !dbg !1452
}

; Function Attrs: noinline uwtable
define linkonce_odr dso_local void @_ZNSt12_Vector_baseIP15GHOST_TimerTaskSaIS1_EE13_M_deallocateEPS1_m(%"struct.std::_Vector_base"* %this, %class.GHOST_TimerTask** %__p, i64 %__n) #2 comdat align 2 !dbg !1453 {
entry:
  %this.addr = alloca %"struct.std::_Vector_base"*, align 8
  %__p.addr = alloca %class.GHOST_TimerTask**, align 8
  %__n.addr = alloca i64, align 8
  store %"struct.std::_Vector_base"* %this, %"struct.std::_Vector_base"** %this.addr, align 8
  call void @llvm.dbg.declare(metadata %"struct.std::_Vector_base"** %this.addr, metadata !1454, metadata !DIExpression()), !dbg !1455
  store %class.GHOST_TimerTask** %__p, %class.GHOST_TimerTask*** %__p.addr, align 8
  call void @llvm.dbg.declare(metadata %class.GHOST_TimerTask*** %__p.addr, metadata !1456, metadata !DIExpression()), !dbg !1457
  store i64 %__n, i64* %__n.addr, align 8
  call void @llvm.dbg.declare(metadata i64* %__n.addr, metadata !1458, metadata !DIExpression()), !dbg !1459
  %this1 = load %"struct.std::_Vector_base"*, %"struct.std::_Vector_base"** %this.addr, align 8
  %0 = load %class.GHOST_TimerTask**, %class.GHOST_TimerTask*** %__p.addr, align 8, !dbg !1460
  %tobool = icmp ne %class.GHOST_TimerTask** %0, null, !dbg !1460
  br i1 %tobool, label %if.then, label %if.end, !dbg !1462

if.then:                                          ; preds = %entry
  %_M_impl = getelementptr inbounds %"struct.std::_Vector_base", %"struct.std::_Vector_base"* %this1, i32 0, i32 0, !dbg !1463
  %1 = bitcast %"struct.std::_Vector_base<GHOST_TimerTask *, std::allocator<GHOST_TimerTask *> >::_Vector_impl"* %_M_impl to %"class.std::allocator"*, !dbg !1463
  %2 = load %class.GHOST_TimerTask**, %class.GHOST_TimerTask*** %__p.addr, align 8, !dbg !1464
  %3 = load i64, i64* %__n.addr, align 8, !dbg !1465
  call void @_ZNSt16allocator_traitsISaIP15GHOST_TimerTaskEE10deallocateERS2_PS1_m(%"class.std::allocator"* dereferenceable(1) %1, %class.GHOST_TimerTask** %2, i64 %3), !dbg !1466
  br label %if.end, !dbg !1466

if.end:                                           ; preds = %if.then, %entry
  ret void, !dbg !1467
}

; Function Attrs: noinline nounwind uwtable
define linkonce_odr dso_local void @_ZNSt12_Vector_baseIP15GHOST_TimerTaskSaIS1_EE12_Vector_implD2Ev(%"struct.std::_Vector_base<GHOST_TimerTask *, std::allocator<GHOST_TimerTask *> >::_Vector_impl"* %this) unnamed_addr #0 comdat align 2 !dbg !1468 {
entry:
  %this.addr = alloca %"struct.std::_Vector_base<GHOST_TimerTask *, std::allocator<GHOST_TimerTask *> >::_Vector_impl"*, align 8
  store %"struct.std::_Vector_base<GHOST_TimerTask *, std::allocator<GHOST_TimerTask *> >::_Vector_impl"* %this, %"struct.std::_Vector_base<GHOST_TimerTask *, std::allocator<GHOST_TimerTask *> >::_Vector_impl"** %this.addr, align 8
  call void @llvm.dbg.declare(metadata %"struct.std::_Vector_base<GHOST_TimerTask *, std::allocator<GHOST_TimerTask *> >::_Vector_impl"** %this.addr, metadata !1470, metadata !DIExpression()), !dbg !1471
  %this1 = load %"struct.std::_Vector_base<GHOST_TimerTask *, std::allocator<GHOST_TimerTask *> >::_Vector_impl"*, %"struct.std::_Vector_base<GHOST_TimerTask *, std::allocator<GHOST_TimerTask *> >::_Vector_impl"** %this.addr, align 8
  %0 = bitcast %"struct.std::_Vector_base<GHOST_TimerTask *, std::allocator<GHOST_TimerTask *> >::_Vector_impl"* %this1 to %"class.std::allocator"*, !dbg !1472
  call void @_ZNSaIP15GHOST_TimerTaskED2Ev(%"class.std::allocator"* %0) #8, !dbg !1472
  ret void, !dbg !1474
}

; Function Attrs: noinline uwtable
define linkonce_odr dso_local void @_ZNSt16allocator_traitsISaIP15GHOST_TimerTaskEE10deallocateERS2_PS1_m(%"class.std::allocator"* dereferenceable(1) %__a, %class.GHOST_TimerTask** %__p, i64 %__n) #2 comdat align 2 !dbg !1475 {
entry:
  %__a.addr = alloca %"class.std::allocator"*, align 8
  %__p.addr = alloca %class.GHOST_TimerTask**, align 8
  %__n.addr = alloca i64, align 8
  store %"class.std::allocator"* %__a, %"class.std::allocator"** %__a.addr, align 8
  call void @llvm.dbg.declare(metadata %"class.std::allocator"** %__a.addr, metadata !1476, metadata !DIExpression()), !dbg !1477
  store %class.GHOST_TimerTask** %__p, %class.GHOST_TimerTask*** %__p.addr, align 8
  call void @llvm.dbg.declare(metadata %class.GHOST_TimerTask*** %__p.addr, metadata !1478, metadata !DIExpression()), !dbg !1479
  store i64 %__n, i64* %__n.addr, align 8
  call void @llvm.dbg.declare(metadata i64* %__n.addr, metadata !1480, metadata !DIExpression()), !dbg !1481
  %0 = load %"class.std::allocator"*, %"class.std::allocator"** %__a.addr, align 8, !dbg !1482
  %1 = bitcast %"class.std::allocator"* %0 to %"class.__gnu_cxx::new_allocator"*, !dbg !1482
  %2 = load %class.GHOST_TimerTask**, %class.GHOST_TimerTask*** %__p.addr, align 8, !dbg !1483
  %3 = load i64, i64* %__n.addr, align 8, !dbg !1484
  call void @_ZN9__gnu_cxx13new_allocatorIP15GHOST_TimerTaskE10deallocateEPS2_m(%"class.__gnu_cxx::new_allocator"* %1, %class.GHOST_TimerTask** %2, i64 %3), !dbg !1485
  ret void, !dbg !1486
}

; Function Attrs: noinline nounwind uwtable
define linkonce_odr dso_local void @_ZN9__gnu_cxx13new_allocatorIP15GHOST_TimerTaskE10deallocateEPS2_m(%"class.__gnu_cxx::new_allocator"* %this, %class.GHOST_TimerTask** %__p, i64 %__t) #0 comdat align 2 !dbg !1487 {
entry:
  %this.addr = alloca %"class.__gnu_cxx::new_allocator"*, align 8
  %__p.addr = alloca %class.GHOST_TimerTask**, align 8
  %__t.addr = alloca i64, align 8
  store %"class.__gnu_cxx::new_allocator"* %this, %"class.__gnu_cxx::new_allocator"** %this.addr, align 8
  call void @llvm.dbg.declare(metadata %"class.__gnu_cxx::new_allocator"** %this.addr, metadata !1488, metadata !DIExpression()), !dbg !1489
  store %class.GHOST_TimerTask** %__p, %class.GHOST_TimerTask*** %__p.addr, align 8
  call void @llvm.dbg.declare(metadata %class.GHOST_TimerTask*** %__p.addr, metadata !1490, metadata !DIExpression()), !dbg !1491
  store i64 %__t, i64* %__t.addr, align 8
  call void @llvm.dbg.declare(metadata i64* %__t.addr, metadata !1492, metadata !DIExpression()), !dbg !1493
  %this1 = load %"class.__gnu_cxx::new_allocator"*, %"class.__gnu_cxx::new_allocator"** %this.addr, align 8
  %0 = load %class.GHOST_TimerTask**, %class.GHOST_TimerTask*** %__p.addr, align 8, !dbg !1494
  %1 = bitcast %class.GHOST_TimerTask** %0 to i8*, !dbg !1494
  call void @_ZdlPv(i8* %1) #8, !dbg !1495
  ret void, !dbg !1496
}

; Function Attrs: noinline nounwind uwtable
define linkonce_odr dso_local void @_ZNSaIP15GHOST_TimerTaskED2Ev(%"class.std::allocator"* %this) unnamed_addr #0 comdat align 2 !dbg !1497 {
entry:
  %this.addr = alloca %"class.std::allocator"*, align 8
  store %"class.std::allocator"* %this, %"class.std::allocator"** %this.addr, align 8
  call void @llvm.dbg.declare(metadata %"class.std::allocator"** %this.addr, metadata !1498, metadata !DIExpression()), !dbg !1499
  %this1 = load %"class.std::allocator"*, %"class.std::allocator"** %this.addr, align 8
  %0 = bitcast %"class.std::allocator"* %this1 to %"class.__gnu_cxx::new_allocator"*, !dbg !1500
  call void @_ZN9__gnu_cxx13new_allocatorIP15GHOST_TimerTaskED2Ev(%"class.__gnu_cxx::new_allocator"* %0) #8, !dbg !1500
  ret void, !dbg !1502
}

; Function Attrs: noinline nounwind uwtable
define linkonce_odr dso_local void @_ZN9__gnu_cxx13new_allocatorIP15GHOST_TimerTaskED2Ev(%"class.__gnu_cxx::new_allocator"* %this) unnamed_addr #0 comdat align 2 !dbg !1503 {
entry:
  %this.addr = alloca %"class.__gnu_cxx::new_allocator"*, align 8
  store %"class.__gnu_cxx::new_allocator"* %this, %"class.__gnu_cxx::new_allocator"** %this.addr, align 8
  call void @llvm.dbg.declare(metadata %"class.__gnu_cxx::new_allocator"** %this.addr, metadata !1504, metadata !DIExpression()), !dbg !1505
  %this1 = load %"class.__gnu_cxx::new_allocator"*, %"class.__gnu_cxx::new_allocator"** %this.addr, align 8
  ret void, !dbg !1506
}

; Function Attrs: noinline nounwind uwtable
define linkonce_odr dso_local void @_ZN9__gnu_cxx17__normal_iteratorIPP15GHOST_TimerTaskSt6vectorIS2_SaIS2_EEEC2ERKS3_(%"class.__gnu_cxx::__normal_iterator.0"* %this, %class.GHOST_TimerTask*** dereferenceable(8) %__i) unnamed_addr #0 comdat align 2 !dbg !1507 {
entry:
  %this.addr = alloca %"class.__gnu_cxx::__normal_iterator.0"*, align 8
  %__i.addr = alloca %class.GHOST_TimerTask***, align 8
  store %"class.__gnu_cxx::__normal_iterator.0"* %this, %"class.__gnu_cxx::__normal_iterator.0"** %this.addr, align 8
  call void @llvm.dbg.declare(metadata %"class.__gnu_cxx::__normal_iterator.0"** %this.addr, metadata !1508, metadata !DIExpression()), !dbg !1509
  store %class.GHOST_TimerTask*** %__i, %class.GHOST_TimerTask**** %__i.addr, align 8
  call void @llvm.dbg.declare(metadata %class.GHOST_TimerTask**** %__i.addr, metadata !1510, metadata !DIExpression()), !dbg !1511
  %this1 = load %"class.__gnu_cxx::__normal_iterator.0"*, %"class.__gnu_cxx::__normal_iterator.0"** %this.addr, align 8
  %_M_current = getelementptr inbounds %"class.__gnu_cxx::__normal_iterator.0", %"class.__gnu_cxx::__normal_iterator.0"* %this1, i32 0, i32 0, !dbg !1512
  %0 = load %class.GHOST_TimerTask***, %class.GHOST_TimerTask**** %__i.addr, align 8, !dbg !1513
  %1 = load %class.GHOST_TimerTask**, %class.GHOST_TimerTask*** %0, align 8, !dbg !1513
  store %class.GHOST_TimerTask** %1, %class.GHOST_TimerTask*** %_M_current, align 8, !dbg !1512
  ret void, !dbg !1514
}

; Function Attrs: noinline uwtable
define linkonce_odr dso_local %class.GHOST_TimerTask** @_ZSt9__find_ifIN9__gnu_cxx17__normal_iteratorIPP15GHOST_TimerTaskSt6vectorIS3_SaIS3_EEEENS0_5__ops16_Iter_equals_valIKS3_EEET_SD_SD_T0_(%class.GHOST_TimerTask** %__first.coerce, %class.GHOST_TimerTask** %__last.coerce, %class.GHOST_TimerTask** %__pred.coerce) #2 comdat !dbg !1515 {
entry:
  %retval = alloca %"class.__gnu_cxx::__normal_iterator.0", align 8
  %__first = alloca %"class.__gnu_cxx::__normal_iterator.0", align 8
  %__last = alloca %"class.__gnu_cxx::__normal_iterator.0", align 8
  %__pred = alloca %"struct.__gnu_cxx::__ops::_Iter_equals_val", align 8
  %agg.tmp = alloca %"class.__gnu_cxx::__normal_iterator.0", align 8
  %agg.tmp3 = alloca %"class.__gnu_cxx::__normal_iterator.0", align 8
  %agg.tmp4 = alloca %"struct.__gnu_cxx::__ops::_Iter_equals_val", align 8
  %agg.tmp5 = alloca %"struct.std::random_access_iterator_tag", align 1
  %undef.agg.tmp = alloca %"struct.std::random_access_iterator_tag", align 1
  %coerce.dive = getelementptr inbounds %"class.__gnu_cxx::__normal_iterator.0", %"class.__gnu_cxx::__normal_iterator.0"* %__first, i32 0, i32 0
  store %class.GHOST_TimerTask** %__first.coerce, %class.GHOST_TimerTask*** %coerce.dive, align 8
  %coerce.dive1 = getelementptr inbounds %"class.__gnu_cxx::__normal_iterator.0", %"class.__gnu_cxx::__normal_iterator.0"* %__last, i32 0, i32 0
  store %class.GHOST_TimerTask** %__last.coerce, %class.GHOST_TimerTask*** %coerce.dive1, align 8
  %coerce.dive2 = getelementptr inbounds %"struct.__gnu_cxx::__ops::_Iter_equals_val", %"struct.__gnu_cxx::__ops::_Iter_equals_val"* %__pred, i32 0, i32 0
  store %class.GHOST_TimerTask** %__pred.coerce, %class.GHOST_TimerTask*** %coerce.dive2, align 8
  call void @llvm.dbg.declare(metadata %"class.__gnu_cxx::__normal_iterator.0"* %__first, metadata !1522, metadata !DIExpression()), !dbg !1523
  call void @llvm.dbg.declare(metadata %"class.__gnu_cxx::__normal_iterator.0"* %__last, metadata !1524, metadata !DIExpression()), !dbg !1525
  call void @llvm.dbg.declare(metadata %"struct.__gnu_cxx::__ops::_Iter_equals_val"* %__pred, metadata !1526, metadata !DIExpression()), !dbg !1527
  %0 = bitcast %"class.__gnu_cxx::__normal_iterator.0"* %agg.tmp to i8*, !dbg !1528
  %1 = bitcast %"class.__gnu_cxx::__normal_iterator.0"* %__first to i8*, !dbg !1528
  call void @llvm.memcpy.p0i8.p0i8.i64(i8* align 8 %0, i8* align 8 %1, i64 8, i1 false), !dbg !1528
  %2 = bitcast %"class.__gnu_cxx::__normal_iterator.0"* %agg.tmp3 to i8*, !dbg !1529
  %3 = bitcast %"class.__gnu_cxx::__normal_iterator.0"* %__last to i8*, !dbg !1529
  call void @llvm.memcpy.p0i8.p0i8.i64(i8* align 8 %2, i8* align 8 %3, i64 8, i1 false), !dbg !1529
  %4 = bitcast %"struct.__gnu_cxx::__ops::_Iter_equals_val"* %agg.tmp4 to i8*, !dbg !1530
  %5 = bitcast %"struct.__gnu_cxx::__ops::_Iter_equals_val"* %__pred to i8*, !dbg !1530
  call void @llvm.memcpy.p0i8.p0i8.i64(i8* align 8 %4, i8* align 8 %5, i64 8, i1 false), !dbg !1530
  call void @_ZSt19__iterator_categoryIN9__gnu_cxx17__normal_iteratorIPP15GHOST_TimerTaskSt6vectorIS3_SaIS3_EEEEENSt15iterator_traitsIT_E17iterator_categoryERKSA_(%"class.__gnu_cxx::__normal_iterator.0"* dereferenceable(8) %__first), !dbg !1531
  %coerce.dive6 = getelementptr inbounds %"class.__gnu_cxx::__normal_iterator.0", %"class.__gnu_cxx::__normal_iterator.0"* %agg.tmp, i32 0, i32 0, !dbg !1532
  %6 = load %class.GHOST_TimerTask**, %class.GHOST_TimerTask*** %coerce.dive6, align 8, !dbg !1532
  %coerce.dive7 = getelementptr inbounds %"class.__gnu_cxx::__normal_iterator.0", %"class.__gnu_cxx::__normal_iterator.0"* %agg.tmp3, i32 0, i32 0, !dbg !1532
  %7 = load %class.GHOST_TimerTask**, %class.GHOST_TimerTask*** %coerce.dive7, align 8, !dbg !1532
  %coerce.dive8 = getelementptr inbounds %"struct.__gnu_cxx::__ops::_Iter_equals_val", %"struct.__gnu_cxx::__ops::_Iter_equals_val"* %agg.tmp4, i32 0, i32 0, !dbg !1532
  %8 = load %class.GHOST_TimerTask**, %class.GHOST_TimerTask*** %coerce.dive8, align 8, !dbg !1532
  %call = call %class.GHOST_TimerTask** @_ZSt9__find_ifIN9__gnu_cxx17__normal_iteratorIPP15GHOST_TimerTaskSt6vectorIS3_SaIS3_EEEENS0_5__ops16_Iter_equals_valIKS3_EEET_SD_SD_T0_St26random_access_iterator_tag(%class.GHOST_TimerTask** %6, %class.GHOST_TimerTask** %7, %class.GHOST_TimerTask** %8), !dbg !1532
  %coerce.dive9 = getelementptr inbounds %"class.__gnu_cxx::__normal_iterator.0", %"class.__gnu_cxx::__normal_iterator.0"* %retval, i32 0, i32 0, !dbg !1532
  store %class.GHOST_TimerTask** %call, %class.GHOST_TimerTask*** %coerce.dive9, align 8, !dbg !1532
  %coerce.dive10 = getelementptr inbounds %"class.__gnu_cxx::__normal_iterator.0", %"class.__gnu_cxx::__normal_iterator.0"* %retval, i32 0, i32 0, !dbg !1533
  %9 = load %class.GHOST_TimerTask**, %class.GHOST_TimerTask*** %coerce.dive10, align 8, !dbg !1533
  ret %class.GHOST_TimerTask** %9, !dbg !1533
}

; Function Attrs: noinline uwtable
define linkonce_odr dso_local %class.GHOST_TimerTask** @_ZN9__gnu_cxx5__ops17__iter_equals_valIKP15GHOST_TimerTaskEENS0_16_Iter_equals_valIT_EERS6_(%class.GHOST_TimerTask** dereferenceable(8) %__val) #2 comdat !dbg !1534 {
entry:
  %retval = alloca %"struct.__gnu_cxx::__ops::_Iter_equals_val", align 8
  %__val.addr = alloca %class.GHOST_TimerTask**, align 8
  store %class.GHOST_TimerTask** %__val, %class.GHOST_TimerTask*** %__val.addr, align 8
  call void @llvm.dbg.declare(metadata %class.GHOST_TimerTask*** %__val.addr, metadata !1537, metadata !DIExpression()), !dbg !1538
  %0 = load %class.GHOST_TimerTask**, %class.GHOST_TimerTask*** %__val.addr, align 8, !dbg !1539
  call void @_ZN9__gnu_cxx5__ops16_Iter_equals_valIKP15GHOST_TimerTaskEC2ERS4_(%"struct.__gnu_cxx::__ops::_Iter_equals_val"* %retval, %class.GHOST_TimerTask** dereferenceable(8) %0), !dbg !1540
  %coerce.dive = getelementptr inbounds %"struct.__gnu_cxx::__ops::_Iter_equals_val", %"struct.__gnu_cxx::__ops::_Iter_equals_val"* %retval, i32 0, i32 0, !dbg !1541
  %1 = load %class.GHOST_TimerTask**, %class.GHOST_TimerTask*** %coerce.dive, align 8, !dbg !1541
  ret %class.GHOST_TimerTask** %1, !dbg !1541
}

; Function Attrs: noinline uwtable
define linkonce_odr dso_local %class.GHOST_TimerTask** @_ZSt9__find_ifIN9__gnu_cxx17__normal_iteratorIPP15GHOST_TimerTaskSt6vectorIS3_SaIS3_EEEENS0_5__ops16_Iter_equals_valIKS3_EEET_SD_SD_T0_St26random_access_iterator_tag(%class.GHOST_TimerTask** %__first.coerce, %class.GHOST_TimerTask** %__last.coerce, %class.GHOST_TimerTask** %__pred.coerce) #2 comdat !dbg !1542 {
entry:
  %retval = alloca %"class.__gnu_cxx::__normal_iterator.0", align 8
  %__first = alloca %"class.__gnu_cxx::__normal_iterator.0", align 8
  %__last = alloca %"class.__gnu_cxx::__normal_iterator.0", align 8
  %__pred = alloca %"struct.__gnu_cxx::__ops::_Iter_equals_val", align 8
  %0 = alloca %"struct.std::random_access_iterator_tag", align 1
  %__trip_count = alloca i64, align 8
  %agg.tmp = alloca %"class.__gnu_cxx::__normal_iterator.0", align 8
  %agg.tmp6 = alloca %"class.__gnu_cxx::__normal_iterator.0", align 8
  %agg.tmp12 = alloca %"class.__gnu_cxx::__normal_iterator.0", align 8
  %agg.tmp18 = alloca %"class.__gnu_cxx::__normal_iterator.0", align 8
  %agg.tmp25 = alloca %"class.__gnu_cxx::__normal_iterator.0", align 8
  %agg.tmp32 = alloca %"class.__gnu_cxx::__normal_iterator.0", align 8
  %agg.tmp39 = alloca %"class.__gnu_cxx::__normal_iterator.0", align 8
  %coerce.dive = getelementptr inbounds %"class.__gnu_cxx::__normal_iterator.0", %"class.__gnu_cxx::__normal_iterator.0"* %__first, i32 0, i32 0
  store %class.GHOST_TimerTask** %__first.coerce, %class.GHOST_TimerTask*** %coerce.dive, align 8
  %coerce.dive1 = getelementptr inbounds %"class.__gnu_cxx::__normal_iterator.0", %"class.__gnu_cxx::__normal_iterator.0"* %__last, i32 0, i32 0
  store %class.GHOST_TimerTask** %__last.coerce, %class.GHOST_TimerTask*** %coerce.dive1, align 8
  %coerce.dive2 = getelementptr inbounds %"struct.__gnu_cxx::__ops::_Iter_equals_val", %"struct.__gnu_cxx::__ops::_Iter_equals_val"* %__pred, i32 0, i32 0
  store %class.GHOST_TimerTask** %__pred.coerce, %class.GHOST_TimerTask*** %coerce.dive2, align 8
  call void @llvm.dbg.declare(metadata %"class.__gnu_cxx::__normal_iterator.0"* %__first, metadata !1557, metadata !DIExpression()), !dbg !1558
  call void @llvm.dbg.declare(metadata %"class.__gnu_cxx::__normal_iterator.0"* %__last, metadata !1559, metadata !DIExpression()), !dbg !1560
  call void @llvm.dbg.declare(metadata %"struct.__gnu_cxx::__ops::_Iter_equals_val"* %__pred, metadata !1561, metadata !DIExpression()), !dbg !1562
  call void @llvm.dbg.declare(metadata %"struct.std::random_access_iterator_tag"* %0, metadata !1563, metadata !DIExpression()), !dbg !1564
  call void @llvm.dbg.declare(metadata i64* %__trip_count, metadata !1565, metadata !DIExpression()), !dbg !1570
  %call = call i64 @_ZN9__gnu_cxxmiIPP15GHOST_TimerTaskSt6vectorIS2_SaIS2_EEEENS_17__normal_iteratorIT_T0_E15difference_typeERKSA_SD_(%"class.__gnu_cxx::__normal_iterator.0"* dereferenceable(8) %__last, %"class.__gnu_cxx::__normal_iterator.0"* dereferenceable(8) %__first) #8, !dbg !1571
  %shr = ashr i64 %call, 2, !dbg !1572
  store i64 %shr, i64* %__trip_count, align 8, !dbg !1570
  br label %for.cond, !dbg !1573

for.cond:                                         ; preds = %for.inc, %entry
  %1 = load i64, i64* %__trip_count, align 8, !dbg !1574
  %cmp = icmp sgt i64 %1, 0, !dbg !1577
  br i1 %cmp, label %for.body, label %for.end, !dbg !1578

for.body:                                         ; preds = %for.cond
  %2 = bitcast %"class.__gnu_cxx::__normal_iterator.0"* %agg.tmp to i8*, !dbg !1579
  %3 = bitcast %"class.__gnu_cxx::__normal_iterator.0"* %__first to i8*, !dbg !1579
  call void @llvm.memcpy.p0i8.p0i8.i64(i8* align 8 %2, i8* align 8 %3, i64 8, i1 false), !dbg !1579
  %coerce.dive3 = getelementptr inbounds %"class.__gnu_cxx::__normal_iterator.0", %"class.__gnu_cxx::__normal_iterator.0"* %agg.tmp, i32 0, i32 0, !dbg !1582
  %4 = load %class.GHOST_TimerTask**, %class.GHOST_TimerTask*** %coerce.dive3, align 8, !dbg !1582
  %call4 = call zeroext i1 @_ZN9__gnu_cxx5__ops16_Iter_equals_valIKP15GHOST_TimerTaskEclINS_17__normal_iteratorIPS3_St6vectorIS3_SaIS3_EEEEEEbT_(%"struct.__gnu_cxx::__ops::_Iter_equals_val"* %__pred, %class.GHOST_TimerTask** %4), !dbg !1582
  br i1 %call4, label %if.then, label %if.end, !dbg !1583

if.then:                                          ; preds = %for.body
  %5 = bitcast %"class.__gnu_cxx::__normal_iterator.0"* %retval to i8*, !dbg !1584
  %6 = bitcast %"class.__gnu_cxx::__normal_iterator.0"* %__first to i8*, !dbg !1584
  call void @llvm.memcpy.p0i8.p0i8.i64(i8* align 8 %5, i8* align 8 %6, i64 8, i1 false), !dbg !1584
  br label %return, !dbg !1585

if.end:                                           ; preds = %for.body
  %call5 = call dereferenceable(8) %"class.__gnu_cxx::__normal_iterator.0"* @_ZN9__gnu_cxx17__normal_iteratorIPP15GHOST_TimerTaskSt6vectorIS2_SaIS2_EEEppEv(%"class.__gnu_cxx::__normal_iterator.0"* %__first) #8, !dbg !1586
  %7 = bitcast %"class.__gnu_cxx::__normal_iterator.0"* %agg.tmp6 to i8*, !dbg !1587
  %8 = bitcast %"class.__gnu_cxx::__normal_iterator.0"* %__first to i8*, !dbg !1587
  call void @llvm.memcpy.p0i8.p0i8.i64(i8* align 8 %7, i8* align 8 %8, i64 8, i1 false), !dbg !1587
  %coerce.dive7 = getelementptr inbounds %"class.__gnu_cxx::__normal_iterator.0", %"class.__gnu_cxx::__normal_iterator.0"* %agg.tmp6, i32 0, i32 0, !dbg !1589
  %9 = load %class.GHOST_TimerTask**, %class.GHOST_TimerTask*** %coerce.dive7, align 8, !dbg !1589
  %call8 = call zeroext i1 @_ZN9__gnu_cxx5__ops16_Iter_equals_valIKP15GHOST_TimerTaskEclINS_17__normal_iteratorIPS3_St6vectorIS3_SaIS3_EEEEEEbT_(%"struct.__gnu_cxx::__ops::_Iter_equals_val"* %__pred, %class.GHOST_TimerTask** %9), !dbg !1589
  br i1 %call8, label %if.then9, label %if.end10, !dbg !1590

if.then9:                                         ; preds = %if.end
  %10 = bitcast %"class.__gnu_cxx::__normal_iterator.0"* %retval to i8*, !dbg !1591
  %11 = bitcast %"class.__gnu_cxx::__normal_iterator.0"* %__first to i8*, !dbg !1591
  call void @llvm.memcpy.p0i8.p0i8.i64(i8* align 8 %10, i8* align 8 %11, i64 8, i1 false), !dbg !1591
  br label %return, !dbg !1592

if.end10:                                         ; preds = %if.end
  %call11 = call dereferenceable(8) %"class.__gnu_cxx::__normal_iterator.0"* @_ZN9__gnu_cxx17__normal_iteratorIPP15GHOST_TimerTaskSt6vectorIS2_SaIS2_EEEppEv(%"class.__gnu_cxx::__normal_iterator.0"* %__first) #8, !dbg !1593
  %12 = bitcast %"class.__gnu_cxx::__normal_iterator.0"* %agg.tmp12 to i8*, !dbg !1594
  %13 = bitcast %"class.__gnu_cxx::__normal_iterator.0"* %__first to i8*, !dbg !1594
  call void @llvm.memcpy.p0i8.p0i8.i64(i8* align 8 %12, i8* align 8 %13, i64 8, i1 false), !dbg !1594
  %coerce.dive13 = getelementptr inbounds %"class.__gnu_cxx::__normal_iterator.0", %"class.__gnu_cxx::__normal_iterator.0"* %agg.tmp12, i32 0, i32 0, !dbg !1596
  %14 = load %class.GHOST_TimerTask**, %class.GHOST_TimerTask*** %coerce.dive13, align 8, !dbg !1596
  %call14 = call zeroext i1 @_ZN9__gnu_cxx5__ops16_Iter_equals_valIKP15GHOST_TimerTaskEclINS_17__normal_iteratorIPS3_St6vectorIS3_SaIS3_EEEEEEbT_(%"struct.__gnu_cxx::__ops::_Iter_equals_val"* %__pred, %class.GHOST_TimerTask** %14), !dbg !1596
  br i1 %call14, label %if.then15, label %if.end16, !dbg !1597

if.then15:                                        ; preds = %if.end10
  %15 = bitcast %"class.__gnu_cxx::__normal_iterator.0"* %retval to i8*, !dbg !1598
  %16 = bitcast %"class.__gnu_cxx::__normal_iterator.0"* %__first to i8*, !dbg !1598
  call void @llvm.memcpy.p0i8.p0i8.i64(i8* align 8 %15, i8* align 8 %16, i64 8, i1 false), !dbg !1598
  br label %return, !dbg !1599

if.end16:                                         ; preds = %if.end10
  %call17 = call dereferenceable(8) %"class.__gnu_cxx::__normal_iterator.0"* @_ZN9__gnu_cxx17__normal_iteratorIPP15GHOST_TimerTaskSt6vectorIS2_SaIS2_EEEppEv(%"class.__gnu_cxx::__normal_iterator.0"* %__first) #8, !dbg !1600
  %17 = bitcast %"class.__gnu_cxx::__normal_iterator.0"* %agg.tmp18 to i8*, !dbg !1601
  %18 = bitcast %"class.__gnu_cxx::__normal_iterator.0"* %__first to i8*, !dbg !1601
  call void @llvm.memcpy.p0i8.p0i8.i64(i8* align 8 %17, i8* align 8 %18, i64 8, i1 false), !dbg !1601
  %coerce.dive19 = getelementptr inbounds %"class.__gnu_cxx::__normal_iterator.0", %"class.__gnu_cxx::__normal_iterator.0"* %agg.tmp18, i32 0, i32 0, !dbg !1603
  %19 = load %class.GHOST_TimerTask**, %class.GHOST_TimerTask*** %coerce.dive19, align 8, !dbg !1603
  %call20 = call zeroext i1 @_ZN9__gnu_cxx5__ops16_Iter_equals_valIKP15GHOST_TimerTaskEclINS_17__normal_iteratorIPS3_St6vectorIS3_SaIS3_EEEEEEbT_(%"struct.__gnu_cxx::__ops::_Iter_equals_val"* %__pred, %class.GHOST_TimerTask** %19), !dbg !1603
  br i1 %call20, label %if.then21, label %if.end22, !dbg !1604

if.then21:                                        ; preds = %if.end16
  %20 = bitcast %"class.__gnu_cxx::__normal_iterator.0"* %retval to i8*, !dbg !1605
  %21 = bitcast %"class.__gnu_cxx::__normal_iterator.0"* %__first to i8*, !dbg !1605
  call void @llvm.memcpy.p0i8.p0i8.i64(i8* align 8 %20, i8* align 8 %21, i64 8, i1 false), !dbg !1605
  br label %return, !dbg !1606

if.end22:                                         ; preds = %if.end16
  %call23 = call dereferenceable(8) %"class.__gnu_cxx::__normal_iterator.0"* @_ZN9__gnu_cxx17__normal_iteratorIPP15GHOST_TimerTaskSt6vectorIS2_SaIS2_EEEppEv(%"class.__gnu_cxx::__normal_iterator.0"* %__first) #8, !dbg !1607
  br label %for.inc, !dbg !1608

for.inc:                                          ; preds = %if.end22
  %22 = load i64, i64* %__trip_count, align 8, !dbg !1609
  %dec = add nsw i64 %22, -1, !dbg !1609
  store i64 %dec, i64* %__trip_count, align 8, !dbg !1609
  br label %for.cond, !dbg !1610, !llvm.loop !1611

for.end:                                          ; preds = %for.cond
  %call24 = call i64 @_ZN9__gnu_cxxmiIPP15GHOST_TimerTaskSt6vectorIS2_SaIS2_EEEENS_17__normal_iteratorIT_T0_E15difference_typeERKSA_SD_(%"class.__gnu_cxx::__normal_iterator.0"* dereferenceable(8) %__last, %"class.__gnu_cxx::__normal_iterator.0"* dereferenceable(8) %__first) #8, !dbg !1613
  switch i64 %call24, label %sw.default [
    i64 3, label %sw.bb
    i64 2, label %sw.bb31
    i64 1, label %sw.bb38
    i64 0, label %sw.bb45
  ], !dbg !1614

sw.bb:                                            ; preds = %for.end
  %23 = bitcast %"class.__gnu_cxx::__normal_iterator.0"* %agg.tmp25 to i8*, !dbg !1615
  %24 = bitcast %"class.__gnu_cxx::__normal_iterator.0"* %__first to i8*, !dbg !1615
  call void @llvm.memcpy.p0i8.p0i8.i64(i8* align 8 %23, i8* align 8 %24, i64 8, i1 false), !dbg !1615
  %coerce.dive26 = getelementptr inbounds %"class.__gnu_cxx::__normal_iterator.0", %"class.__gnu_cxx::__normal_iterator.0"* %agg.tmp25, i32 0, i32 0, !dbg !1618
  %25 = load %class.GHOST_TimerTask**, %class.GHOST_TimerTask*** %coerce.dive26, align 8, !dbg !1618
  %call27 = call zeroext i1 @_ZN9__gnu_cxx5__ops16_Iter_equals_valIKP15GHOST_TimerTaskEclINS_17__normal_iteratorIPS3_St6vectorIS3_SaIS3_EEEEEEbT_(%"struct.__gnu_cxx::__ops::_Iter_equals_val"* %__pred, %class.GHOST_TimerTask** %25), !dbg !1618
  br i1 %call27, label %if.then28, label %if.end29, !dbg !1619

if.then28:                                        ; preds = %sw.bb
  %26 = bitcast %"class.__gnu_cxx::__normal_iterator.0"* %retval to i8*, !dbg !1620
  %27 = bitcast %"class.__gnu_cxx::__normal_iterator.0"* %__first to i8*, !dbg !1620
  call void @llvm.memcpy.p0i8.p0i8.i64(i8* align 8 %26, i8* align 8 %27, i64 8, i1 false), !dbg !1620
  br label %return, !dbg !1621

if.end29:                                         ; preds = %sw.bb
  %call30 = call dereferenceable(8) %"class.__gnu_cxx::__normal_iterator.0"* @_ZN9__gnu_cxx17__normal_iteratorIPP15GHOST_TimerTaskSt6vectorIS2_SaIS2_EEEppEv(%"class.__gnu_cxx::__normal_iterator.0"* %__first) #8, !dbg !1622
  br label %sw.bb31, !dbg !1622

sw.bb31:                                          ; preds = %for.end, %if.end29
  %28 = bitcast %"class.__gnu_cxx::__normal_iterator.0"* %agg.tmp32 to i8*, !dbg !1623
  %29 = bitcast %"class.__gnu_cxx::__normal_iterator.0"* %__first to i8*, !dbg !1623
  call void @llvm.memcpy.p0i8.p0i8.i64(i8* align 8 %28, i8* align 8 %29, i64 8, i1 false), !dbg !1623
  %coerce.dive33 = getelementptr inbounds %"class.__gnu_cxx::__normal_iterator.0", %"class.__gnu_cxx::__normal_iterator.0"* %agg.tmp32, i32 0, i32 0, !dbg !1625
  %30 = load %class.GHOST_TimerTask**, %class.GHOST_TimerTask*** %coerce.dive33, align 8, !dbg !1625
  %call34 = call zeroext i1 @_ZN9__gnu_cxx5__ops16_Iter_equals_valIKP15GHOST_TimerTaskEclINS_17__normal_iteratorIPS3_St6vectorIS3_SaIS3_EEEEEEbT_(%"struct.__gnu_cxx::__ops::_Iter_equals_val"* %__pred, %class.GHOST_TimerTask** %30), !dbg !1625
  br i1 %call34, label %if.then35, label %if.end36, !dbg !1626

if.then35:                                        ; preds = %sw.bb31
  %31 = bitcast %"class.__gnu_cxx::__normal_iterator.0"* %retval to i8*, !dbg !1627
  %32 = bitcast %"class.__gnu_cxx::__normal_iterator.0"* %__first to i8*, !dbg !1627
  call void @llvm.memcpy.p0i8.p0i8.i64(i8* align 8 %31, i8* align 8 %32, i64 8, i1 false), !dbg !1627
  br label %return, !dbg !1628

if.end36:                                         ; preds = %sw.bb31
  %call37 = call dereferenceable(8) %"class.__gnu_cxx::__normal_iterator.0"* @_ZN9__gnu_cxx17__normal_iteratorIPP15GHOST_TimerTaskSt6vectorIS2_SaIS2_EEEppEv(%"class.__gnu_cxx::__normal_iterator.0"* %__first) #8, !dbg !1629
  br label %sw.bb38, !dbg !1629

sw.bb38:                                          ; preds = %for.end, %if.end36
  %33 = bitcast %"class.__gnu_cxx::__normal_iterator.0"* %agg.tmp39 to i8*, !dbg !1630
  %34 = bitcast %"class.__gnu_cxx::__normal_iterator.0"* %__first to i8*, !dbg !1630
  call void @llvm.memcpy.p0i8.p0i8.i64(i8* align 8 %33, i8* align 8 %34, i64 8, i1 false), !dbg !1630
  %coerce.dive40 = getelementptr inbounds %"class.__gnu_cxx::__normal_iterator.0", %"class.__gnu_cxx::__normal_iterator.0"* %agg.tmp39, i32 0, i32 0, !dbg !1632
  %35 = load %class.GHOST_TimerTask**, %class.GHOST_TimerTask*** %coerce.dive40, align 8, !dbg !1632
  %call41 = call zeroext i1 @_ZN9__gnu_cxx5__ops16_Iter_equals_valIKP15GHOST_TimerTaskEclINS_17__normal_iteratorIPS3_St6vectorIS3_SaIS3_EEEEEEbT_(%"struct.__gnu_cxx::__ops::_Iter_equals_val"* %__pred, %class.GHOST_TimerTask** %35), !dbg !1632
  br i1 %call41, label %if.then42, label %if.end43, !dbg !1633

if.then42:                                        ; preds = %sw.bb38
  %36 = bitcast %"class.__gnu_cxx::__normal_iterator.0"* %retval to i8*, !dbg !1634
  %37 = bitcast %"class.__gnu_cxx::__normal_iterator.0"* %__first to i8*, !dbg !1634
  call void @llvm.memcpy.p0i8.p0i8.i64(i8* align 8 %36, i8* align 8 %37, i64 8, i1 false), !dbg !1634
  br label %return, !dbg !1635

if.end43:                                         ; preds = %sw.bb38
  %call44 = call dereferenceable(8) %"class.__gnu_cxx::__normal_iterator.0"* @_ZN9__gnu_cxx17__normal_iteratorIPP15GHOST_TimerTaskSt6vectorIS2_SaIS2_EEEppEv(%"class.__gnu_cxx::__normal_iterator.0"* %__first) #8, !dbg !1636
  br label %sw.bb45, !dbg !1636

sw.bb45:                                          ; preds = %for.end, %if.end43
  br label %sw.default, !dbg !1636

sw.default:                                       ; preds = %for.end, %sw.bb45
  %38 = bitcast %"class.__gnu_cxx::__normal_iterator.0"* %retval to i8*, !dbg !1637
  %39 = bitcast %"class.__gnu_cxx::__normal_iterator.0"* %__last to i8*, !dbg !1637
  call void @llvm.memcpy.p0i8.p0i8.i64(i8* align 8 %38, i8* align 8 %39, i64 8, i1 false), !dbg !1637
  br label %return, !dbg !1638

return:                                           ; preds = %sw.default, %if.then42, %if.then35, %if.then28, %if.then21, %if.then15, %if.then9, %if.then
  %coerce.dive46 = getelementptr inbounds %"class.__gnu_cxx::__normal_iterator.0", %"class.__gnu_cxx::__normal_iterator.0"* %retval, i32 0, i32 0, !dbg !1639
  %40 = load %class.GHOST_TimerTask**, %class.GHOST_TimerTask*** %coerce.dive46, align 8, !dbg !1639
  ret %class.GHOST_TimerTask** %40, !dbg !1639
}

; Function Attrs: noinline nounwind uwtable
define linkonce_odr dso_local void @_ZSt19__iterator_categoryIN9__gnu_cxx17__normal_iteratorIPP15GHOST_TimerTaskSt6vectorIS3_SaIS3_EEEEENSt15iterator_traitsIT_E17iterator_categoryERKSA_(%"class.__gnu_cxx::__normal_iterator.0"* dereferenceable(8) %0) #0 comdat !dbg !1640 {
entry:
  %.addr = alloca %"class.__gnu_cxx::__normal_iterator.0"*, align 8
  store %"class.__gnu_cxx::__normal_iterator.0"* %0, %"class.__gnu_cxx::__normal_iterator.0"** %.addr, align 8
  call void @llvm.dbg.declare(metadata %"class.__gnu_cxx::__normal_iterator.0"** %.addr, metadata !1648, metadata !DIExpression()), !dbg !1649
  ret void, !dbg !1650
}

; Function Attrs: noinline nounwind uwtable
define linkonce_odr dso_local i64 @_ZN9__gnu_cxxmiIPP15GHOST_TimerTaskSt6vectorIS2_SaIS2_EEEENS_17__normal_iteratorIT_T0_E15difference_typeERKSA_SD_(%"class.__gnu_cxx::__normal_iterator.0"* dereferenceable(8) %__lhs, %"class.__gnu_cxx::__normal_iterator.0"* dereferenceable(8) %__rhs) #0 comdat !dbg !1651 {
entry:
  %__lhs.addr = alloca %"class.__gnu_cxx::__normal_iterator.0"*, align 8
  %__rhs.addr = alloca %"class.__gnu_cxx::__normal_iterator.0"*, align 8
  store %"class.__gnu_cxx::__normal_iterator.0"* %__lhs, %"class.__gnu_cxx::__normal_iterator.0"** %__lhs.addr, align 8
  call void @llvm.dbg.declare(metadata %"class.__gnu_cxx::__normal_iterator.0"** %__lhs.addr, metadata !1654, metadata !DIExpression()), !dbg !1655
  store %"class.__gnu_cxx::__normal_iterator.0"* %__rhs, %"class.__gnu_cxx::__normal_iterator.0"** %__rhs.addr, align 8
  call void @llvm.dbg.declare(metadata %"class.__gnu_cxx::__normal_iterator.0"** %__rhs.addr, metadata !1656, metadata !DIExpression()), !dbg !1657
  %0 = load %"class.__gnu_cxx::__normal_iterator.0"*, %"class.__gnu_cxx::__normal_iterator.0"** %__lhs.addr, align 8, !dbg !1658
  %call = call dereferenceable(8) %class.GHOST_TimerTask*** @_ZNK9__gnu_cxx17__normal_iteratorIPP15GHOST_TimerTaskSt6vectorIS2_SaIS2_EEE4baseEv(%"class.__gnu_cxx::__normal_iterator.0"* %0) #8, !dbg !1659
  %1 = load %class.GHOST_TimerTask**, %class.GHOST_TimerTask*** %call, align 8, !dbg !1659
  %2 = load %"class.__gnu_cxx::__normal_iterator.0"*, %"class.__gnu_cxx::__normal_iterator.0"** %__rhs.addr, align 8, !dbg !1660
  %call1 = call dereferenceable(8) %class.GHOST_TimerTask*** @_ZNK9__gnu_cxx17__normal_iteratorIPP15GHOST_TimerTaskSt6vectorIS2_SaIS2_EEE4baseEv(%"class.__gnu_cxx::__normal_iterator.0"* %2) #8, !dbg !1661
  %3 = load %class.GHOST_TimerTask**, %class.GHOST_TimerTask*** %call1, align 8, !dbg !1661
  %sub.ptr.lhs.cast = ptrtoint %class.GHOST_TimerTask** %1 to i64, !dbg !1662
  %sub.ptr.rhs.cast = ptrtoint %class.GHOST_TimerTask** %3 to i64, !dbg !1662
  %sub.ptr.sub = sub i64 %sub.ptr.lhs.cast, %sub.ptr.rhs.cast, !dbg !1662
  %sub.ptr.div = sdiv exact i64 %sub.ptr.sub, 8, !dbg !1662
  ret i64 %sub.ptr.div, !dbg !1663
}

; Function Attrs: noinline nounwind uwtable
define linkonce_odr dso_local zeroext i1 @_ZN9__gnu_cxx5__ops16_Iter_equals_valIKP15GHOST_TimerTaskEclINS_17__normal_iteratorIPS3_St6vectorIS3_SaIS3_EEEEEEbT_(%"struct.__gnu_cxx::__ops::_Iter_equals_val"* %this, %class.GHOST_TimerTask** %__it.coerce) #0 comdat align 2 !dbg !1664 {
entry:
  %__it = alloca %"class.__gnu_cxx::__normal_iterator.0", align 8
  %this.addr = alloca %"struct.__gnu_cxx::__ops::_Iter_equals_val"*, align 8
  %coerce.dive = getelementptr inbounds %"class.__gnu_cxx::__normal_iterator.0", %"class.__gnu_cxx::__normal_iterator.0"* %__it, i32 0, i32 0
  store %class.GHOST_TimerTask** %__it.coerce, %class.GHOST_TimerTask*** %coerce.dive, align 8
  store %"struct.__gnu_cxx::__ops::_Iter_equals_val"* %this, %"struct.__gnu_cxx::__ops::_Iter_equals_val"** %this.addr, align 8
  call void @llvm.dbg.declare(metadata %"struct.__gnu_cxx::__ops::_Iter_equals_val"** %this.addr, metadata !1669, metadata !DIExpression()), !dbg !1671
  call void @llvm.dbg.declare(metadata %"class.__gnu_cxx::__normal_iterator.0"* %__it, metadata !1672, metadata !DIExpression()), !dbg !1673
  %this1 = load %"struct.__gnu_cxx::__ops::_Iter_equals_val"*, %"struct.__gnu_cxx::__ops::_Iter_equals_val"** %this.addr, align 8
  %call = call dereferenceable(8) %class.GHOST_TimerTask** @_ZNK9__gnu_cxx17__normal_iteratorIPP15GHOST_TimerTaskSt6vectorIS2_SaIS2_EEEdeEv(%"class.__gnu_cxx::__normal_iterator.0"* %__it) #8, !dbg !1674
  %0 = load %class.GHOST_TimerTask*, %class.GHOST_TimerTask** %call, align 8, !dbg !1674
  %_M_value = getelementptr inbounds %"struct.__gnu_cxx::__ops::_Iter_equals_val", %"struct.__gnu_cxx::__ops::_Iter_equals_val"* %this1, i32 0, i32 0, !dbg !1675
  %1 = load %class.GHOST_TimerTask**, %class.GHOST_TimerTask*** %_M_value, align 8, !dbg !1675
  %2 = load %class.GHOST_TimerTask*, %class.GHOST_TimerTask** %1, align 8, !dbg !1675
  %cmp = icmp eq %class.GHOST_TimerTask* %0, %2, !dbg !1676
  ret i1 %cmp, !dbg !1677
}

; Function Attrs: noinline nounwind uwtable
define linkonce_odr dso_local dereferenceable(8) %class.GHOST_TimerTask*** @_ZNK9__gnu_cxx17__normal_iteratorIPP15GHOST_TimerTaskSt6vectorIS2_SaIS2_EEE4baseEv(%"class.__gnu_cxx::__normal_iterator.0"* %this) #0 comdat align 2 !dbg !1678 {
entry:
  %this.addr = alloca %"class.__gnu_cxx::__normal_iterator.0"*, align 8
  store %"class.__gnu_cxx::__normal_iterator.0"* %this, %"class.__gnu_cxx::__normal_iterator.0"** %this.addr, align 8
  call void @llvm.dbg.declare(metadata %"class.__gnu_cxx::__normal_iterator.0"** %this.addr, metadata !1679, metadata !DIExpression()), !dbg !1680
  %this1 = load %"class.__gnu_cxx::__normal_iterator.0"*, %"class.__gnu_cxx::__normal_iterator.0"** %this.addr, align 8
  %_M_current = getelementptr inbounds %"class.__gnu_cxx::__normal_iterator.0", %"class.__gnu_cxx::__normal_iterator.0"* %this1, i32 0, i32 0, !dbg !1681
  ret %class.GHOST_TimerTask*** %_M_current, !dbg !1682
}

; Function Attrs: noinline nounwind uwtable
define linkonce_odr dso_local void @_ZN9__gnu_cxx5__ops16_Iter_equals_valIKP15GHOST_TimerTaskEC2ERS4_(%"struct.__gnu_cxx::__ops::_Iter_equals_val"* %this, %class.GHOST_TimerTask** dereferenceable(8) %__value) unnamed_addr #0 comdat align 2 !dbg !1683 {
entry:
  %this.addr = alloca %"struct.__gnu_cxx::__ops::_Iter_equals_val"*, align 8
  %__value.addr = alloca %class.GHOST_TimerTask**, align 8
  store %"struct.__gnu_cxx::__ops::_Iter_equals_val"* %this, %"struct.__gnu_cxx::__ops::_Iter_equals_val"** %this.addr, align 8
  call void @llvm.dbg.declare(metadata %"struct.__gnu_cxx::__ops::_Iter_equals_val"** %this.addr, metadata !1684, metadata !DIExpression()), !dbg !1685
  store %class.GHOST_TimerTask** %__value, %class.GHOST_TimerTask*** %__value.addr, align 8
  call void @llvm.dbg.declare(metadata %class.GHOST_TimerTask*** %__value.addr, metadata !1686, metadata !DIExpression()), !dbg !1687
  %this1 = load %"struct.__gnu_cxx::__ops::_Iter_equals_val"*, %"struct.__gnu_cxx::__ops::_Iter_equals_val"** %this.addr, align 8
  %_M_value = getelementptr inbounds %"struct.__gnu_cxx::__ops::_Iter_equals_val", %"struct.__gnu_cxx::__ops::_Iter_equals_val"* %this1, i32 0, i32 0, !dbg !1688
  %0 = load %class.GHOST_TimerTask**, %class.GHOST_TimerTask*** %__value.addr, align 8, !dbg !1689
  store %class.GHOST_TimerTask** %0, %class.GHOST_TimerTask*** %_M_value, align 8, !dbg !1688
  ret void, !dbg !1690
}

; Function Attrs: noinline nounwind uwtable
define linkonce_odr dso_local dereferenceable(8) %class.GHOST_TimerTask*** @_ZNK9__gnu_cxx17__normal_iteratorIPKP15GHOST_TimerTaskSt6vectorIS2_SaIS2_EEE4baseEv(%"class.__gnu_cxx::__normal_iterator"* %this) #0 comdat align 2 !dbg !1691 {
entry:
  %this.addr = alloca %"class.__gnu_cxx::__normal_iterator"*, align 8
  store %"class.__gnu_cxx::__normal_iterator"* %this, %"class.__gnu_cxx::__normal_iterator"** %this.addr, align 8
  call void @llvm.dbg.declare(metadata %"class.__gnu_cxx::__normal_iterator"** %this.addr, metadata !1692, metadata !DIExpression()), !dbg !1694
  %this1 = load %"class.__gnu_cxx::__normal_iterator"*, %"class.__gnu_cxx::__normal_iterator"** %this.addr, align 8
  %_M_current = getelementptr inbounds %"class.__gnu_cxx::__normal_iterator", %"class.__gnu_cxx::__normal_iterator"* %this1, i32 0, i32 0, !dbg !1695
  ret %class.GHOST_TimerTask*** %_M_current, !dbg !1696
}

; Function Attrs: noinline nounwind uwtable
define linkonce_odr dso_local void @_ZNSt16allocator_traitsISaIP15GHOST_TimerTaskEE9constructIS1_JRKS1_EEEvRS2_PT_DpOT0_(%"class.std::allocator"* dereferenceable(1) %__a, %class.GHOST_TimerTask** %__p, %class.GHOST_TimerTask** dereferenceable(8) %__args) #0 comdat align 2 !dbg !1697 {
entry:
  %__a.addr = alloca %"class.std::allocator"*, align 8
  %__p.addr = alloca %class.GHOST_TimerTask**, align 8
  %__args.addr = alloca %class.GHOST_TimerTask**, align 8
  store %"class.std::allocator"* %__a, %"class.std::allocator"** %__a.addr, align 8
  call void @llvm.dbg.declare(metadata %"class.std::allocator"** %__a.addr, metadata !1706, metadata !DIExpression()), !dbg !1707
  store %class.GHOST_TimerTask** %__p, %class.GHOST_TimerTask*** %__p.addr, align 8
  call void @llvm.dbg.declare(metadata %class.GHOST_TimerTask*** %__p.addr, metadata !1708, metadata !DIExpression()), !dbg !1709
  store %class.GHOST_TimerTask** %__args, %class.GHOST_TimerTask*** %__args.addr, align 8
  call void @llvm.dbg.declare(metadata %class.GHOST_TimerTask*** %__args.addr, metadata !1710, metadata !DIExpression()), !dbg !1711
  %0 = load %"class.std::allocator"*, %"class.std::allocator"** %__a.addr, align 8, !dbg !1712
  %1 = bitcast %"class.std::allocator"* %0 to %"class.__gnu_cxx::new_allocator"*, !dbg !1712
  %2 = load %class.GHOST_TimerTask**, %class.GHOST_TimerTask*** %__p.addr, align 8, !dbg !1713
  %3 = load %class.GHOST_TimerTask**, %class.GHOST_TimerTask*** %__args.addr, align 8, !dbg !1714
  %call = call dereferenceable(8) %class.GHOST_TimerTask** @_ZSt7forwardIRKP15GHOST_TimerTaskEOT_RNSt16remove_referenceIS4_E4typeE(%class.GHOST_TimerTask** dereferenceable(8) %3) #8, !dbg !1715
  call void @_ZN9__gnu_cxx13new_allocatorIP15GHOST_TimerTaskE9constructIS2_JRKS2_EEEvPT_DpOT0_(%"class.__gnu_cxx::new_allocator"* %1, %class.GHOST_TimerTask** %2, %class.GHOST_TimerTask** dereferenceable(8) %call) #8, !dbg !1716
  ret void, !dbg !1717
}

; Function Attrs: noinline uwtable
define linkonce_odr dso_local void @_ZNSt6vectorIP15GHOST_TimerTaskSaIS1_EE17_M_realloc_insertIJRKS1_EEEvN9__gnu_cxx17__normal_iteratorIPS1_S3_EEDpOT_(%"class.std::vector"* %this, %class.GHOST_TimerTask** %__position.coerce, %class.GHOST_TimerTask** dereferenceable(8) %__args) #2 comdat align 2 !dbg !1718 {
entry:
  %__position = alloca %"class.__gnu_cxx::__normal_iterator.0", align 8
  %this.addr = alloca %"class.std::vector"*, align 8
  %__args.addr = alloca %class.GHOST_TimerTask**, align 8
  %__len = alloca i64, align 8
  %__old_start = alloca %class.GHOST_TimerTask**, align 8
  %__old_finish = alloca %class.GHOST_TimerTask**, align 8
  %__elems_before = alloca i64, align 8
  %ref.tmp = alloca %"class.__gnu_cxx::__normal_iterator.0", align 8
  %__new_start = alloca %class.GHOST_TimerTask**, align 8
  %__new_finish = alloca %class.GHOST_TimerTask**, align 8
  %coerce.dive = getelementptr inbounds %"class.__gnu_cxx::__normal_iterator.0", %"class.__gnu_cxx::__normal_iterator.0"* %__position, i32 0, i32 0
  store %class.GHOST_TimerTask** %__position.coerce, %class.GHOST_TimerTask*** %coerce.dive, align 8
  store %"class.std::vector"* %this, %"class.std::vector"** %this.addr, align 8
  call void @llvm.dbg.declare(metadata %"class.std::vector"** %this.addr, metadata !1724, metadata !DIExpression()), !dbg !1725
  call void @llvm.dbg.declare(metadata %"class.__gnu_cxx::__normal_iterator.0"* %__position, metadata !1726, metadata !DIExpression()), !dbg !1727
  store %class.GHOST_TimerTask** %__args, %class.GHOST_TimerTask*** %__args.addr, align 8
  call void @llvm.dbg.declare(metadata %class.GHOST_TimerTask*** %__args.addr, metadata !1728, metadata !DIExpression()), !dbg !1729
  %this1 = load %"class.std::vector"*, %"class.std::vector"** %this.addr, align 8
  call void @llvm.dbg.declare(metadata i64* %__len, metadata !1730, metadata !DIExpression()), !dbg !1732
  %call = call i64 @_ZNKSt6vectorIP15GHOST_TimerTaskSaIS1_EE12_M_check_lenEmPKc(%"class.std::vector"* %this1, i64 1, i8* getelementptr inbounds ([26 x i8], [26 x i8]* @.str, i64 0, i64 0)), !dbg !1733
  store i64 %call, i64* %__len, align 8, !dbg !1732
  call void @llvm.dbg.declare(metadata %class.GHOST_TimerTask*** %__old_start, metadata !1734, metadata !DIExpression()), !dbg !1735
  %0 = bitcast %"class.std::vector"* %this1 to %"struct.std::_Vector_base"*, !dbg !1736
  %_M_impl = getelementptr inbounds %"struct.std::_Vector_base", %"struct.std::_Vector_base"* %0, i32 0, i32 0, !dbg !1736
  %1 = bitcast %"struct.std::_Vector_base<GHOST_TimerTask *, std::allocator<GHOST_TimerTask *> >::_Vector_impl"* %_M_impl to %"struct.std::_Vector_base<GHOST_TimerTask *, std::allocator<GHOST_TimerTask *> >::_Vector_impl_data"*, !dbg !1737
  %_M_start = getelementptr inbounds %"struct.std::_Vector_base<GHOST_TimerTask *, std::allocator<GHOST_TimerTask *> >::_Vector_impl_data", %"struct.std::_Vector_base<GHOST_TimerTask *, std::allocator<GHOST_TimerTask *> >::_Vector_impl_data"* %1, i32 0, i32 0, !dbg !1738
  %2 = load %class.GHOST_TimerTask**, %class.GHOST_TimerTask*** %_M_start, align 8, !dbg !1738
  store %class.GHOST_TimerTask** %2, %class.GHOST_TimerTask*** %__old_start, align 8, !dbg !1735
  call void @llvm.dbg.declare(metadata %class.GHOST_TimerTask*** %__old_finish, metadata !1739, metadata !DIExpression()), !dbg !1740
  %3 = bitcast %"class.std::vector"* %this1 to %"struct.std::_Vector_base"*, !dbg !1741
  %_M_impl2 = getelementptr inbounds %"struct.std::_Vector_base", %"struct.std::_Vector_base"* %3, i32 0, i32 0, !dbg !1741
  %4 = bitcast %"struct.std::_Vector_base<GHOST_TimerTask *, std::allocator<GHOST_TimerTask *> >::_Vector_impl"* %_M_impl2 to %"struct.std::_Vector_base<GHOST_TimerTask *, std::allocator<GHOST_TimerTask *> >::_Vector_impl_data"*, !dbg !1742
  %_M_finish = getelementptr inbounds %"struct.std::_Vector_base<GHOST_TimerTask *, std::allocator<GHOST_TimerTask *> >::_Vector_impl_data", %"struct.std::_Vector_base<GHOST_TimerTask *, std::allocator<GHOST_TimerTask *> >::_Vector_impl_data"* %4, i32 0, i32 1, !dbg !1743
  %5 = load %class.GHOST_TimerTask**, %class.GHOST_TimerTask*** %_M_finish, align 8, !dbg !1743
  store %class.GHOST_TimerTask** %5, %class.GHOST_TimerTask*** %__old_finish, align 8, !dbg !1740
  call void @llvm.dbg.declare(metadata i64* %__elems_before, metadata !1744, metadata !DIExpression()), !dbg !1745
  %call3 = call %class.GHOST_TimerTask** @_ZNSt6vectorIP15GHOST_TimerTaskSaIS1_EE5beginEv(%"class.std::vector"* %this1) #8, !dbg !1746
  %coerce.dive4 = getelementptr inbounds %"class.__gnu_cxx::__normal_iterator.0", %"class.__gnu_cxx::__normal_iterator.0"* %ref.tmp, i32 0, i32 0, !dbg !1746
  store %class.GHOST_TimerTask** %call3, %class.GHOST_TimerTask*** %coerce.dive4, align 8, !dbg !1746
  %call5 = call i64 @_ZN9__gnu_cxxmiIPP15GHOST_TimerTaskSt6vectorIS2_SaIS2_EEEENS_17__normal_iteratorIT_T0_E15difference_typeERKSA_SD_(%"class.__gnu_cxx::__normal_iterator.0"* dereferenceable(8) %__position, %"class.__gnu_cxx::__normal_iterator.0"* dereferenceable(8) %ref.tmp) #8, !dbg !1747
  store i64 %call5, i64* %__elems_before, align 8, !dbg !1745
  call void @llvm.dbg.declare(metadata %class.GHOST_TimerTask*** %__new_start, metadata !1748, metadata !DIExpression()), !dbg !1749
  %6 = bitcast %"class.std::vector"* %this1 to %"struct.std::_Vector_base"*, !dbg !1750
  %7 = load i64, i64* %__len, align 8, !dbg !1751
  %call6 = call %class.GHOST_TimerTask** @_ZNSt12_Vector_baseIP15GHOST_TimerTaskSaIS1_EE11_M_allocateEm(%"struct.std::_Vector_base"* %6, i64 %7), !dbg !1750
  store %class.GHOST_TimerTask** %call6, %class.GHOST_TimerTask*** %__new_start, align 8, !dbg !1749
  call void @llvm.dbg.declare(metadata %class.GHOST_TimerTask*** %__new_finish, metadata !1752, metadata !DIExpression()), !dbg !1753
  %8 = load %class.GHOST_TimerTask**, %class.GHOST_TimerTask*** %__new_start, align 8, !dbg !1754
  store %class.GHOST_TimerTask** %8, %class.GHOST_TimerTask*** %__new_finish, align 8, !dbg !1753
  %9 = bitcast %"class.std::vector"* %this1 to %"struct.std::_Vector_base"*, !dbg !1755
  %_M_impl7 = getelementptr inbounds %"struct.std::_Vector_base", %"struct.std::_Vector_base"* %9, i32 0, i32 0, !dbg !1755
  %10 = bitcast %"struct.std::_Vector_base<GHOST_TimerTask *, std::allocator<GHOST_TimerTask *> >::_Vector_impl"* %_M_impl7 to %"class.std::allocator"*, !dbg !1757
  %11 = load %class.GHOST_TimerTask**, %class.GHOST_TimerTask*** %__new_start, align 8, !dbg !1758
  %12 = load i64, i64* %__elems_before, align 8, !dbg !1759
  %add.ptr = getelementptr inbounds %class.GHOST_TimerTask*, %class.GHOST_TimerTask** %11, i64 %12, !dbg !1760
  %13 = load %class.GHOST_TimerTask**, %class.GHOST_TimerTask*** %__args.addr, align 8, !dbg !1761
  %call8 = call dereferenceable(8) %class.GHOST_TimerTask** @_ZSt7forwardIRKP15GHOST_TimerTaskEOT_RNSt16remove_referenceIS4_E4typeE(%class.GHOST_TimerTask** dereferenceable(8) %13) #8, !dbg !1762
  call void @_ZNSt16allocator_traitsISaIP15GHOST_TimerTaskEE9constructIS1_JRKS1_EEEvRS2_PT_DpOT0_(%"class.std::allocator"* dereferenceable(1) %10, %class.GHOST_TimerTask** %add.ptr, %class.GHOST_TimerTask** dereferenceable(8) %call8) #8, !dbg !1763
  store %class.GHOST_TimerTask** null, %class.GHOST_TimerTask*** %__new_finish, align 8, !dbg !1764
  %14 = load %class.GHOST_TimerTask**, %class.GHOST_TimerTask*** %__old_start, align 8, !dbg !1765
  %call9 = call dereferenceable(8) %class.GHOST_TimerTask*** @_ZNK9__gnu_cxx17__normal_iteratorIPP15GHOST_TimerTaskSt6vectorIS2_SaIS2_EEE4baseEv(%"class.__gnu_cxx::__normal_iterator.0"* %__position) #8, !dbg !1768
  %15 = load %class.GHOST_TimerTask**, %class.GHOST_TimerTask*** %call9, align 8, !dbg !1768
  %16 = load %class.GHOST_TimerTask**, %class.GHOST_TimerTask*** %__new_start, align 8, !dbg !1769
  %17 = bitcast %"class.std::vector"* %this1 to %"struct.std::_Vector_base"*, !dbg !1770
  %call10 = call dereferenceable(1) %"class.std::allocator"* @_ZNSt12_Vector_baseIP15GHOST_TimerTaskSaIS1_EE19_M_get_Tp_allocatorEv(%"struct.std::_Vector_base"* %17) #8, !dbg !1770
  %call11 = call %class.GHOST_TimerTask** @_ZNSt6vectorIP15GHOST_TimerTaskSaIS1_EE11_S_relocateEPS1_S4_S4_RS2_(%class.GHOST_TimerTask** %14, %class.GHOST_TimerTask** %15, %class.GHOST_TimerTask** %16, %"class.std::allocator"* dereferenceable(1) %call10) #8, !dbg !1771
  store %class.GHOST_TimerTask** %call11, %class.GHOST_TimerTask*** %__new_finish, align 8, !dbg !1772
  %18 = load %class.GHOST_TimerTask**, %class.GHOST_TimerTask*** %__new_finish, align 8, !dbg !1773
  %incdec.ptr = getelementptr inbounds %class.GHOST_TimerTask*, %class.GHOST_TimerTask** %18, i32 1, !dbg !1773
  store %class.GHOST_TimerTask** %incdec.ptr, %class.GHOST_TimerTask*** %__new_finish, align 8, !dbg !1773
  %call12 = call dereferenceable(8) %class.GHOST_TimerTask*** @_ZNK9__gnu_cxx17__normal_iteratorIPP15GHOST_TimerTaskSt6vectorIS2_SaIS2_EEE4baseEv(%"class.__gnu_cxx::__normal_iterator.0"* %__position) #8, !dbg !1774
  %19 = load %class.GHOST_TimerTask**, %class.GHOST_TimerTask*** %call12, align 8, !dbg !1774
  %20 = load %class.GHOST_TimerTask**, %class.GHOST_TimerTask*** %__old_finish, align 8, !dbg !1775
  %21 = load %class.GHOST_TimerTask**, %class.GHOST_TimerTask*** %__new_finish, align 8, !dbg !1776
  %22 = bitcast %"class.std::vector"* %this1 to %"struct.std::_Vector_base"*, !dbg !1777
  %call13 = call dereferenceable(1) %"class.std::allocator"* @_ZNSt12_Vector_baseIP15GHOST_TimerTaskSaIS1_EE19_M_get_Tp_allocatorEv(%"struct.std::_Vector_base"* %22) #8, !dbg !1777
  %call14 = call %class.GHOST_TimerTask** @_ZNSt6vectorIP15GHOST_TimerTaskSaIS1_EE11_S_relocateEPS1_S4_S4_RS2_(%class.GHOST_TimerTask** %19, %class.GHOST_TimerTask** %20, %class.GHOST_TimerTask** %21, %"class.std::allocator"* dereferenceable(1) %call13) #8, !dbg !1778
  store %class.GHOST_TimerTask** %call14, %class.GHOST_TimerTask*** %__new_finish, align 8, !dbg !1779
  %23 = bitcast %"class.std::vector"* %this1 to %"struct.std::_Vector_base"*, !dbg !1780
  %24 = load %class.GHOST_TimerTask**, %class.GHOST_TimerTask*** %__old_start, align 8, !dbg !1781
  %25 = bitcast %"class.std::vector"* %this1 to %"struct.std::_Vector_base"*, !dbg !1782
  %_M_impl15 = getelementptr inbounds %"struct.std::_Vector_base", %"struct.std::_Vector_base"* %25, i32 0, i32 0, !dbg !1782
  %26 = bitcast %"struct.std::_Vector_base<GHOST_TimerTask *, std::allocator<GHOST_TimerTask *> >::_Vector_impl"* %_M_impl15 to %"struct.std::_Vector_base<GHOST_TimerTask *, std::allocator<GHOST_TimerTask *> >::_Vector_impl_data"*, !dbg !1783
  %_M_end_of_storage = getelementptr inbounds %"struct.std::_Vector_base<GHOST_TimerTask *, std::allocator<GHOST_TimerTask *> >::_Vector_impl_data", %"struct.std::_Vector_base<GHOST_TimerTask *, std::allocator<GHOST_TimerTask *> >::_Vector_impl_data"* %26, i32 0, i32 2, !dbg !1784
  %27 = load %class.GHOST_TimerTask**, %class.GHOST_TimerTask*** %_M_end_of_storage, align 8, !dbg !1784
  %28 = load %class.GHOST_TimerTask**, %class.GHOST_TimerTask*** %__old_start, align 8, !dbg !1785
  %sub.ptr.lhs.cast = ptrtoint %class.GHOST_TimerTask** %27 to i64, !dbg !1786
  %sub.ptr.rhs.cast = ptrtoint %class.GHOST_TimerTask** %28 to i64, !dbg !1786
  %sub.ptr.sub = sub i64 %sub.ptr.lhs.cast, %sub.ptr.rhs.cast, !dbg !1786
  %sub.ptr.div = sdiv exact i64 %sub.ptr.sub, 8, !dbg !1786
  call void @_ZNSt12_Vector_baseIP15GHOST_TimerTaskSaIS1_EE13_M_deallocateEPS1_m(%"struct.std::_Vector_base"* %23, %class.GHOST_TimerTask** %24, i64 %sub.ptr.div), !dbg !1780
  %29 = load %class.GHOST_TimerTask**, %class.GHOST_TimerTask*** %__new_start, align 8, !dbg !1787
  %30 = bitcast %"class.std::vector"* %this1 to %"struct.std::_Vector_base"*, !dbg !1788
  %_M_impl16 = getelementptr inbounds %"struct.std::_Vector_base", %"struct.std::_Vector_base"* %30, i32 0, i32 0, !dbg !1788
  %31 = bitcast %"struct.std::_Vector_base<GHOST_TimerTask *, std::allocator<GHOST_TimerTask *> >::_Vector_impl"* %_M_impl16 to %"struct.std::_Vector_base<GHOST_TimerTask *, std::allocator<GHOST_TimerTask *> >::_Vector_impl_data"*, !dbg !1789
  %_M_start17 = getelementptr inbounds %"struct.std::_Vector_base<GHOST_TimerTask *, std::allocator<GHOST_TimerTask *> >::_Vector_impl_data", %"struct.std::_Vector_base<GHOST_TimerTask *, std::allocator<GHOST_TimerTask *> >::_Vector_impl_data"* %31, i32 0, i32 0, !dbg !1790
  store %class.GHOST_TimerTask** %29, %class.GHOST_TimerTask*** %_M_start17, align 8, !dbg !1791
  %32 = load %class.GHOST_TimerTask**, %class.GHOST_TimerTask*** %__new_finish, align 8, !dbg !1792
  %33 = bitcast %"class.std::vector"* %this1 to %"struct.std::_Vector_base"*, !dbg !1793
  %_M_impl18 = getelementptr inbounds %"struct.std::_Vector_base", %"struct.std::_Vector_base"* %33, i32 0, i32 0, !dbg !1793
  %34 = bitcast %"struct.std::_Vector_base<GHOST_TimerTask *, std::allocator<GHOST_TimerTask *> >::_Vector_impl"* %_M_impl18 to %"struct.std::_Vector_base<GHOST_TimerTask *, std::allocator<GHOST_TimerTask *> >::_Vector_impl_data"*, !dbg !1794
  %_M_finish19 = getelementptr inbounds %"struct.std::_Vector_base<GHOST_TimerTask *, std::allocator<GHOST_TimerTask *> >::_Vector_impl_data", %"struct.std::_Vector_base<GHOST_TimerTask *, std::allocator<GHOST_TimerTask *> >::_Vector_impl_data"* %34, i32 0, i32 1, !dbg !1795
  store %class.GHOST_TimerTask** %32, %class.GHOST_TimerTask*** %_M_finish19, align 8, !dbg !1796
  %35 = load %class.GHOST_TimerTask**, %class.GHOST_TimerTask*** %__new_start, align 8, !dbg !1797
  %36 = load i64, i64* %__len, align 8, !dbg !1798
  %add.ptr20 = getelementptr inbounds %class.GHOST_TimerTask*, %class.GHOST_TimerTask** %35, i64 %36, !dbg !1799
  %37 = bitcast %"class.std::vector"* %this1 to %"struct.std::_Vector_base"*, !dbg !1800
  %_M_impl21 = getelementptr inbounds %"struct.std::_Vector_base", %"struct.std::_Vector_base"* %37, i32 0, i32 0, !dbg !1800
  %38 = bitcast %"struct.std::_Vector_base<GHOST_TimerTask *, std::allocator<GHOST_TimerTask *> >::_Vector_impl"* %_M_impl21 to %"struct.std::_Vector_base<GHOST_TimerTask *, std::allocator<GHOST_TimerTask *> >::_Vector_impl_data"*, !dbg !1801
  %_M_end_of_storage22 = getelementptr inbounds %"struct.std::_Vector_base<GHOST_TimerTask *, std::allocator<GHOST_TimerTask *> >::_Vector_impl_data", %"struct.std::_Vector_base<GHOST_TimerTask *, std::allocator<GHOST_TimerTask *> >::_Vector_impl_data"* %38, i32 0, i32 2, !dbg !1802
  store %class.GHOST_TimerTask** %add.ptr20, %class.GHOST_TimerTask*** %_M_end_of_storage22, align 8, !dbg !1803
  ret void, !dbg !1804
}

; Function Attrs: noinline nounwind uwtable
define linkonce_odr dso_local void @_ZN9__gnu_cxx13new_allocatorIP15GHOST_TimerTaskE9constructIS2_JRKS2_EEEvPT_DpOT0_(%"class.__gnu_cxx::new_allocator"* %this, %class.GHOST_TimerTask** %__p, %class.GHOST_TimerTask** dereferenceable(8) %__args) #0 comdat align 2 !dbg !1805 {
entry:
  %this.addr = alloca %"class.__gnu_cxx::new_allocator"*, align 8
  %__p.addr = alloca %class.GHOST_TimerTask**, align 8
  %__args.addr = alloca %class.GHOST_TimerTask**, align 8
  store %"class.__gnu_cxx::new_allocator"* %this, %"class.__gnu_cxx::new_allocator"** %this.addr, align 8
  call void @llvm.dbg.declare(metadata %"class.__gnu_cxx::new_allocator"** %this.addr, metadata !1809, metadata !DIExpression()), !dbg !1810
  store %class.GHOST_TimerTask** %__p, %class.GHOST_TimerTask*** %__p.addr, align 8
  call void @llvm.dbg.declare(metadata %class.GHOST_TimerTask*** %__p.addr, metadata !1811, metadata !DIExpression()), !dbg !1812
  store %class.GHOST_TimerTask** %__args, %class.GHOST_TimerTask*** %__args.addr, align 8
  call void @llvm.dbg.declare(metadata %class.GHOST_TimerTask*** %__args.addr, metadata !1813, metadata !DIExpression()), !dbg !1814
  %this1 = load %"class.__gnu_cxx::new_allocator"*, %"class.__gnu_cxx::new_allocator"** %this.addr, align 8
  %0 = load %class.GHOST_TimerTask**, %class.GHOST_TimerTask*** %__p.addr, align 8, !dbg !1815
  %1 = bitcast %class.GHOST_TimerTask** %0 to i8*, !dbg !1815
  %2 = bitcast i8* %1 to %class.GHOST_TimerTask**, !dbg !1816
  %3 = load %class.GHOST_TimerTask**, %class.GHOST_TimerTask*** %__args.addr, align 8, !dbg !1817
  %call = call dereferenceable(8) %class.GHOST_TimerTask** @_ZSt7forwardIRKP15GHOST_TimerTaskEOT_RNSt16remove_referenceIS4_E4typeE(%class.GHOST_TimerTask** dereferenceable(8) %3) #8, !dbg !1818
  %4 = load %class.GHOST_TimerTask*, %class.GHOST_TimerTask** %call, align 8, !dbg !1818
  store %class.GHOST_TimerTask* %4, %class.GHOST_TimerTask** %2, align 8, !dbg !1816
  ret void, !dbg !1819
}

; Function Attrs: noinline nounwind uwtable
define linkonce_odr dso_local dereferenceable(8) %class.GHOST_TimerTask** @_ZSt7forwardIRKP15GHOST_TimerTaskEOT_RNSt16remove_referenceIS4_E4typeE(%class.GHOST_TimerTask** dereferenceable(8) %__t) #0 comdat !dbg !1820 {
entry:
  %__t.addr = alloca %class.GHOST_TimerTask**, align 8
  store %class.GHOST_TimerTask** %__t, %class.GHOST_TimerTask*** %__t.addr, align 8
  call void @llvm.dbg.declare(metadata %class.GHOST_TimerTask*** %__t.addr, metadata !1829, metadata !DIExpression()), !dbg !1830
  %0 = load %class.GHOST_TimerTask**, %class.GHOST_TimerTask*** %__t.addr, align 8, !dbg !1831
  ret %class.GHOST_TimerTask** %0, !dbg !1832
}

; Function Attrs: noinline uwtable
define linkonce_odr dso_local i64 @_ZNKSt6vectorIP15GHOST_TimerTaskSaIS1_EE12_M_check_lenEmPKc(%"class.std::vector"* %this, i64 %__n, i8* %__s) #2 comdat align 2 !dbg !1833 {
entry:
  %this.addr = alloca %"class.std::vector"*, align 8
  %__n.addr = alloca i64, align 8
  %__s.addr = alloca i8*, align 8
  %__len = alloca i64, align 8
  %ref.tmp = alloca i64, align 8
  store %"class.std::vector"* %this, %"class.std::vector"** %this.addr, align 8
  call void @llvm.dbg.declare(metadata %"class.std::vector"** %this.addr, metadata !1834, metadata !DIExpression()), !dbg !1835
  store i64 %__n, i64* %__n.addr, align 8
  call void @llvm.dbg.declare(metadata i64* %__n.addr, metadata !1836, metadata !DIExpression()), !dbg !1837
  store i8* %__s, i8** %__s.addr, align 8
  call void @llvm.dbg.declare(metadata i8** %__s.addr, metadata !1838, metadata !DIExpression()), !dbg !1839
  %this1 = load %"class.std::vector"*, %"class.std::vector"** %this.addr, align 8
  %call = call i64 @_ZNKSt6vectorIP15GHOST_TimerTaskSaIS1_EE8max_sizeEv(%"class.std::vector"* %this1) #8, !dbg !1840
  %call2 = call i64 @_ZNKSt6vectorIP15GHOST_TimerTaskSaIS1_EE4sizeEv(%"class.std::vector"* %this1) #8, !dbg !1842
  %sub = sub i64 %call, %call2, !dbg !1843
  %0 = load i64, i64* %__n.addr, align 8, !dbg !1844
  %cmp = icmp ult i64 %sub, %0, !dbg !1845
  br i1 %cmp, label %if.then, label %if.end, !dbg !1846

if.then:                                          ; preds = %entry
  %1 = load i8*, i8** %__s.addr, align 8, !dbg !1847
  call void @_ZSt20__throw_length_errorPKc(i8* %1) #11, !dbg !1848
  unreachable, !dbg !1848

if.end:                                           ; preds = %entry
  call void @llvm.dbg.declare(metadata i64* %__len, metadata !1849, metadata !DIExpression()), !dbg !1850
  %call3 = call i64 @_ZNKSt6vectorIP15GHOST_TimerTaskSaIS1_EE4sizeEv(%"class.std::vector"* %this1) #8, !dbg !1851
  %call4 = call i64 @_ZNKSt6vectorIP15GHOST_TimerTaskSaIS1_EE4sizeEv(%"class.std::vector"* %this1) #8, !dbg !1852
  store i64 %call4, i64* %ref.tmp, align 8, !dbg !1852
  %call5 = call dereferenceable(8) i64* @_ZSt3maxImERKT_S2_S2_(i64* dereferenceable(8) %ref.tmp, i64* dereferenceable(8) %__n.addr), !dbg !1853
  %2 = load i64, i64* %call5, align 8, !dbg !1853
  %add = add i64 %call3, %2, !dbg !1854
  store i64 %add, i64* %__len, align 8, !dbg !1850
  %3 = load i64, i64* %__len, align 8, !dbg !1855
  %call6 = call i64 @_ZNKSt6vectorIP15GHOST_TimerTaskSaIS1_EE4sizeEv(%"class.std::vector"* %this1) #8, !dbg !1856
  %cmp7 = icmp ult i64 %3, %call6, !dbg !1857
  br i1 %cmp7, label %cond.true, label %lor.lhs.false, !dbg !1858

lor.lhs.false:                                    ; preds = %if.end
  %4 = load i64, i64* %__len, align 8, !dbg !1859
  %call8 = call i64 @_ZNKSt6vectorIP15GHOST_TimerTaskSaIS1_EE8max_sizeEv(%"class.std::vector"* %this1) #8, !dbg !1860
  %cmp9 = icmp ugt i64 %4, %call8, !dbg !1861
  br i1 %cmp9, label %cond.true, label %cond.false, !dbg !1862

cond.true:                                        ; preds = %lor.lhs.false, %if.end
  %call10 = call i64 @_ZNKSt6vectorIP15GHOST_TimerTaskSaIS1_EE8max_sizeEv(%"class.std::vector"* %this1) #8, !dbg !1863
  br label %cond.end, !dbg !1862

cond.false:                                       ; preds = %lor.lhs.false
  %5 = load i64, i64* %__len, align 8, !dbg !1864
  br label %cond.end, !dbg !1862

cond.end:                                         ; preds = %cond.false, %cond.true
  %cond = phi i64 [ %call10, %cond.true ], [ %5, %cond.false ], !dbg !1862
  ret i64 %cond, !dbg !1865
}

; Function Attrs: noinline uwtable
define linkonce_odr dso_local %class.GHOST_TimerTask** @_ZNSt12_Vector_baseIP15GHOST_TimerTaskSaIS1_EE11_M_allocateEm(%"struct.std::_Vector_base"* %this, i64 %__n) #2 comdat align 2 !dbg !1866 {
entry:
  %this.addr = alloca %"struct.std::_Vector_base"*, align 8
  %__n.addr = alloca i64, align 8
  store %"struct.std::_Vector_base"* %this, %"struct.std::_Vector_base"** %this.addr, align 8
  call void @llvm.dbg.declare(metadata %"struct.std::_Vector_base"** %this.addr, metadata !1867, metadata !DIExpression()), !dbg !1868
  store i64 %__n, i64* %__n.addr, align 8
  call void @llvm.dbg.declare(metadata i64* %__n.addr, metadata !1869, metadata !DIExpression()), !dbg !1870
  %this1 = load %"struct.std::_Vector_base"*, %"struct.std::_Vector_base"** %this.addr, align 8
  %0 = load i64, i64* %__n.addr, align 8, !dbg !1871
  %cmp = icmp ne i64 %0, 0, !dbg !1872
  br i1 %cmp, label %cond.true, label %cond.false, !dbg !1871

cond.true:                                        ; preds = %entry
  %_M_impl = getelementptr inbounds %"struct.std::_Vector_base", %"struct.std::_Vector_base"* %this1, i32 0, i32 0, !dbg !1873
  %1 = bitcast %"struct.std::_Vector_base<GHOST_TimerTask *, std::allocator<GHOST_TimerTask *> >::_Vector_impl"* %_M_impl to %"class.std::allocator"*, !dbg !1873
  %2 = load i64, i64* %__n.addr, align 8, !dbg !1874
  %call = call %class.GHOST_TimerTask** @_ZNSt16allocator_traitsISaIP15GHOST_TimerTaskEE8allocateERS2_m(%"class.std::allocator"* dereferenceable(1) %1, i64 %2), !dbg !1875
  br label %cond.end, !dbg !1871

cond.false:                                       ; preds = %entry
  br label %cond.end, !dbg !1871

cond.end:                                         ; preds = %cond.false, %cond.true
  %cond = phi %class.GHOST_TimerTask** [ %call, %cond.true ], [ null, %cond.false ], !dbg !1871
  ret %class.GHOST_TimerTask** %cond, !dbg !1876
}

; Function Attrs: noinline nounwind uwtable
define linkonce_odr dso_local %class.GHOST_TimerTask** @_ZNSt6vectorIP15GHOST_TimerTaskSaIS1_EE11_S_relocateEPS1_S4_S4_RS2_(%class.GHOST_TimerTask** %__first, %class.GHOST_TimerTask** %__last, %class.GHOST_TimerTask** %__result, %"class.std::allocator"* dereferenceable(1) %__alloc) #0 comdat align 2 !dbg !627 {
entry:
  %__first.addr = alloca %class.GHOST_TimerTask**, align 8
  %__last.addr = alloca %class.GHOST_TimerTask**, align 8
  %__result.addr = alloca %class.GHOST_TimerTask**, align 8
  %__alloc.addr = alloca %"class.std::allocator"*, align 8
  %agg.tmp = alloca %"struct.std::integral_constant", align 1
  store %class.GHOST_TimerTask** %__first, %class.GHOST_TimerTask*** %__first.addr, align 8
  call void @llvm.dbg.declare(metadata %class.GHOST_TimerTask*** %__first.addr, metadata !1877, metadata !DIExpression()), !dbg !1878
  store %class.GHOST_TimerTask** %__last, %class.GHOST_TimerTask*** %__last.addr, align 8
  call void @llvm.dbg.declare(metadata %class.GHOST_TimerTask*** %__last.addr, metadata !1879, metadata !DIExpression()), !dbg !1880
  store %class.GHOST_TimerTask** %__result, %class.GHOST_TimerTask*** %__result.addr, align 8
  call void @llvm.dbg.declare(metadata %class.GHOST_TimerTask*** %__result.addr, metadata !1881, metadata !DIExpression()), !dbg !1882
  store %"class.std::allocator"* %__alloc, %"class.std::allocator"** %__alloc.addr, align 8
  call void @llvm.dbg.declare(metadata %"class.std::allocator"** %__alloc.addr, metadata !1883, metadata !DIExpression()), !dbg !1884
  %0 = load %class.GHOST_TimerTask**, %class.GHOST_TimerTask*** %__first.addr, align 8, !dbg !1885
  %1 = load %class.GHOST_TimerTask**, %class.GHOST_TimerTask*** %__last.addr, align 8, !dbg !1886
  %2 = load %class.GHOST_TimerTask**, %class.GHOST_TimerTask*** %__result.addr, align 8, !dbg !1887
  %3 = load %"class.std::allocator"*, %"class.std::allocator"** %__alloc.addr, align 8, !dbg !1888
  %call = call %class.GHOST_TimerTask** @_ZNSt6vectorIP15GHOST_TimerTaskSaIS1_EE14_S_do_relocateEPS1_S4_S4_RS2_St17integral_constantIbLb1EE(%class.GHOST_TimerTask** %0, %class.GHOST_TimerTask** %1, %class.GHOST_TimerTask** %2, %"class.std::allocator"* dereferenceable(1) %3) #8, !dbg !1889
  ret %class.GHOST_TimerTask** %call, !dbg !1890
}

; Function Attrs: noinline nounwind uwtable
define linkonce_odr dso_local i64 @_ZNKSt6vectorIP15GHOST_TimerTaskSaIS1_EE8max_sizeEv(%"class.std::vector"* %this) #0 comdat align 2 !dbg !1891 {
entry:
  %this.addr = alloca %"class.std::vector"*, align 8
  store %"class.std::vector"* %this, %"class.std::vector"** %this.addr, align 8
  call void @llvm.dbg.declare(metadata %"class.std::vector"** %this.addr, metadata !1892, metadata !DIExpression()), !dbg !1893
  %this1 = load %"class.std::vector"*, %"class.std::vector"** %this.addr, align 8
  %0 = bitcast %"class.std::vector"* %this1 to %"struct.std::_Vector_base"*, !dbg !1894
  %call = call dereferenceable(1) %"class.std::allocator"* @_ZNKSt12_Vector_baseIP15GHOST_TimerTaskSaIS1_EE19_M_get_Tp_allocatorEv(%"struct.std::_Vector_base"* %0) #8, !dbg !1894
  %call2 = call i64 @_ZNSt6vectorIP15GHOST_TimerTaskSaIS1_EE11_S_max_sizeERKS2_(%"class.std::allocator"* dereferenceable(1) %call) #8, !dbg !1895
  ret i64 %call2, !dbg !1896
}

; Function Attrs: noreturn
declare dso_local void @_ZSt20__throw_length_errorPKc(i8*) #6

; Function Attrs: noinline nounwind uwtable
define linkonce_odr dso_local dereferenceable(8) i64* @_ZSt3maxImERKT_S2_S2_(i64* dereferenceable(8) %__a, i64* dereferenceable(8) %__b) #0 comdat !dbg !1897 {
entry:
  %retval = alloca i64*, align 8
  %__a.addr = alloca i64*, align 8
  %__b.addr = alloca i64*, align 8
  store i64* %__a, i64** %__a.addr, align 8
  call void @llvm.dbg.declare(metadata i64** %__a.addr, metadata !1904, metadata !DIExpression()), !dbg !1905
  store i64* %__b, i64** %__b.addr, align 8
  call void @llvm.dbg.declare(metadata i64** %__b.addr, metadata !1906, metadata !DIExpression()), !dbg !1907
  %0 = load i64*, i64** %__a.addr, align 8, !dbg !1908
  %1 = load i64, i64* %0, align 8, !dbg !1908
  %2 = load i64*, i64** %__b.addr, align 8, !dbg !1910
  %3 = load i64, i64* %2, align 8, !dbg !1910
  %cmp = icmp ult i64 %1, %3, !dbg !1911
  br i1 %cmp, label %if.then, label %if.end, !dbg !1912

if.then:                                          ; preds = %entry
  %4 = load i64*, i64** %__b.addr, align 8, !dbg !1913
  store i64* %4, i64** %retval, align 8, !dbg !1914
  br label %return, !dbg !1914

if.end:                                           ; preds = %entry
  %5 = load i64*, i64** %__a.addr, align 8, !dbg !1915
  store i64* %5, i64** %retval, align 8, !dbg !1916
  br label %return, !dbg !1916

return:                                           ; preds = %if.end, %if.then
  %6 = load i64*, i64** %retval, align 8, !dbg !1917
  ret i64* %6, !dbg !1917
}

; Function Attrs: noinline nounwind uwtable
define linkonce_odr dso_local i64 @_ZNSt6vectorIP15GHOST_TimerTaskSaIS1_EE11_S_max_sizeERKS2_(%"class.std::allocator"* dereferenceable(1) %__a) #0 comdat align 2 personality i8* bitcast (i32 (...)* @__gxx_personality_v0 to i8*) !dbg !1918 {
entry:
  %__a.addr = alloca %"class.std::allocator"*, align 8
  %__diffmax = alloca i64, align 8
  %__allocmax = alloca i64, align 8
  store %"class.std::allocator"* %__a, %"class.std::allocator"** %__a.addr, align 8
  call void @llvm.dbg.declare(metadata %"class.std::allocator"** %__a.addr, metadata !1919, metadata !DIExpression()), !dbg !1920
  call void @llvm.dbg.declare(metadata i64* %__diffmax, metadata !1921, metadata !DIExpression()), !dbg !1923
  store i64 1152921504606846975, i64* %__diffmax, align 8, !dbg !1923
  call void @llvm.dbg.declare(metadata i64* %__allocmax, metadata !1924, metadata !DIExpression()), !dbg !1925
  %0 = load %"class.std::allocator"*, %"class.std::allocator"** %__a.addr, align 8, !dbg !1926
  %call = call i64 @_ZNSt16allocator_traitsISaIP15GHOST_TimerTaskEE8max_sizeERKS2_(%"class.std::allocator"* dereferenceable(1) %0) #8, !dbg !1927
  store i64 %call, i64* %__allocmax, align 8, !dbg !1925
  %call1 = invoke dereferenceable(8) i64* @_ZSt3minImERKT_S2_S2_(i64* dereferenceable(8) %__diffmax, i64* dereferenceable(8) %__allocmax)
          to label %invoke.cont unwind label %terminate.lpad, !dbg !1928

invoke.cont:                                      ; preds = %entry
  %1 = load i64, i64* %call1, align 8, !dbg !1928
  ret i64 %1, !dbg !1929

terminate.lpad:                                   ; preds = %entry
  %2 = landingpad { i8*, i32 }
          catch i8* null, !dbg !1928
  %3 = extractvalue { i8*, i32 } %2, 0, !dbg !1928
  call void @__clang_call_terminate(i8* %3) #9, !dbg !1928
  unreachable, !dbg !1928
}

; Function Attrs: noinline nounwind uwtable
define linkonce_odr dso_local dereferenceable(1) %"class.std::allocator"* @_ZNKSt12_Vector_baseIP15GHOST_TimerTaskSaIS1_EE19_M_get_Tp_allocatorEv(%"struct.std::_Vector_base"* %this) #0 comdat align 2 !dbg !1930 {
entry:
  %this.addr = alloca %"struct.std::_Vector_base"*, align 8
  store %"struct.std::_Vector_base"* %this, %"struct.std::_Vector_base"** %this.addr, align 8
  call void @llvm.dbg.declare(metadata %"struct.std::_Vector_base"** %this.addr, metadata !1931, metadata !DIExpression()), !dbg !1933
  %this1 = load %"struct.std::_Vector_base"*, %"struct.std::_Vector_base"** %this.addr, align 8
  %_M_impl = getelementptr inbounds %"struct.std::_Vector_base", %"struct.std::_Vector_base"* %this1, i32 0, i32 0, !dbg !1934
  %0 = bitcast %"struct.std::_Vector_base<GHOST_TimerTask *, std::allocator<GHOST_TimerTask *> >::_Vector_impl"* %_M_impl to %"class.std::allocator"*, !dbg !1935
  ret %"class.std::allocator"* %0, !dbg !1936
}

; Function Attrs: noinline nounwind uwtable
define linkonce_odr dso_local i64 @_ZNSt16allocator_traitsISaIP15GHOST_TimerTaskEE8max_sizeERKS2_(%"class.std::allocator"* dereferenceable(1) %__a) #0 comdat align 2 !dbg !1937 {
entry:
  %__a.addr = alloca %"class.std::allocator"*, align 8
  store %"class.std::allocator"* %__a, %"class.std::allocator"** %__a.addr, align 8
  call void @llvm.dbg.declare(metadata %"class.std::allocator"** %__a.addr, metadata !1938, metadata !DIExpression()), !dbg !1939
  %0 = load %"class.std::allocator"*, %"class.std::allocator"** %__a.addr, align 8, !dbg !1940
  %1 = bitcast %"class.std::allocator"* %0 to %"class.__gnu_cxx::new_allocator"*, !dbg !1940
  %call = call i64 @_ZNK9__gnu_cxx13new_allocatorIP15GHOST_TimerTaskE8max_sizeEv(%"class.__gnu_cxx::new_allocator"* %1) #8, !dbg !1941
  ret i64 %call, !dbg !1942
}

; Function Attrs: noinline nounwind uwtable
define linkonce_odr dso_local dereferenceable(8) i64* @_ZSt3minImERKT_S2_S2_(i64* dereferenceable(8) %__a, i64* dereferenceable(8) %__b) #0 comdat !dbg !1943 {
entry:
  %retval = alloca i64*, align 8
  %__a.addr = alloca i64*, align 8
  %__b.addr = alloca i64*, align 8
  store i64* %__a, i64** %__a.addr, align 8
  call void @llvm.dbg.declare(metadata i64** %__a.addr, metadata !1944, metadata !DIExpression()), !dbg !1945
  store i64* %__b, i64** %__b.addr, align 8
  call void @llvm.dbg.declare(metadata i64** %__b.addr, metadata !1946, metadata !DIExpression()), !dbg !1947
  %0 = load i64*, i64** %__b.addr, align 8, !dbg !1948
  %1 = load i64, i64* %0, align 8, !dbg !1948
  %2 = load i64*, i64** %__a.addr, align 8, !dbg !1950
  %3 = load i64, i64* %2, align 8, !dbg !1950
  %cmp = icmp ult i64 %1, %3, !dbg !1951
  br i1 %cmp, label %if.then, label %if.end, !dbg !1952

if.then:                                          ; preds = %entry
  %4 = load i64*, i64** %__b.addr, align 8, !dbg !1953
  store i64* %4, i64** %retval, align 8, !dbg !1954
  br label %return, !dbg !1954

if.end:                                           ; preds = %entry
  %5 = load i64*, i64** %__a.addr, align 8, !dbg !1955
  store i64* %5, i64** %retval, align 8, !dbg !1956
  br label %return, !dbg !1956

return:                                           ; preds = %if.end, %if.then
  %6 = load i64*, i64** %retval, align 8, !dbg !1957
  ret i64* %6, !dbg !1957
}

; Function Attrs: noinline nounwind uwtable
define linkonce_odr dso_local i64 @_ZNK9__gnu_cxx13new_allocatorIP15GHOST_TimerTaskE8max_sizeEv(%"class.__gnu_cxx::new_allocator"* %this) #0 comdat align 2 !dbg !1958 {
entry:
  %this.addr = alloca %"class.__gnu_cxx::new_allocator"*, align 8
  store %"class.__gnu_cxx::new_allocator"* %this, %"class.__gnu_cxx::new_allocator"** %this.addr, align 8
  call void @llvm.dbg.declare(metadata %"class.__gnu_cxx::new_allocator"** %this.addr, metadata !1959, metadata !DIExpression()), !dbg !1961
  %this1 = load %"class.__gnu_cxx::new_allocator"*, %"class.__gnu_cxx::new_allocator"** %this.addr, align 8
  %call = call i64 @_ZNK9__gnu_cxx13new_allocatorIP15GHOST_TimerTaskE11_M_max_sizeEv(%"class.__gnu_cxx::new_allocator"* %this1) #8, !dbg !1962
  ret i64 %call, !dbg !1963
}

; Function Attrs: noinline nounwind uwtable
define linkonce_odr dso_local i64 @_ZNK9__gnu_cxx13new_allocatorIP15GHOST_TimerTaskE11_M_max_sizeEv(%"class.__gnu_cxx::new_allocator"* %this) #0 comdat align 2 !dbg !1964 {
entry:
  %this.addr = alloca %"class.__gnu_cxx::new_allocator"*, align 8
  store %"class.__gnu_cxx::new_allocator"* %this, %"class.__gnu_cxx::new_allocator"** %this.addr, align 8
  call void @llvm.dbg.declare(metadata %"class.__gnu_cxx::new_allocator"** %this.addr, metadata !1965, metadata !DIExpression()), !dbg !1966
  %this1 = load %"class.__gnu_cxx::new_allocator"*, %"class.__gnu_cxx::new_allocator"** %this.addr, align 8
  ret i64 1152921504606846975, !dbg !1967
}

; Function Attrs: noinline uwtable
define linkonce_odr dso_local %class.GHOST_TimerTask** @_ZNSt16allocator_traitsISaIP15GHOST_TimerTaskEE8allocateERS2_m(%"class.std::allocator"* dereferenceable(1) %__a, i64 %__n) #2 comdat align 2 !dbg !1968 {
entry:
  %__a.addr = alloca %"class.std::allocator"*, align 8
  %__n.addr = alloca i64, align 8
  store %"class.std::allocator"* %__a, %"class.std::allocator"** %__a.addr, align 8
  call void @llvm.dbg.declare(metadata %"class.std::allocator"** %__a.addr, metadata !1969, metadata !DIExpression()), !dbg !1970
  store i64 %__n, i64* %__n.addr, align 8
  call void @llvm.dbg.declare(metadata i64* %__n.addr, metadata !1971, metadata !DIExpression()), !dbg !1972
  %0 = load %"class.std::allocator"*, %"class.std::allocator"** %__a.addr, align 8, !dbg !1973
  %1 = bitcast %"class.std::allocator"* %0 to %"class.__gnu_cxx::new_allocator"*, !dbg !1973
  %2 = load i64, i64* %__n.addr, align 8, !dbg !1974
  %call = call %class.GHOST_TimerTask** @_ZN9__gnu_cxx13new_allocatorIP15GHOST_TimerTaskE8allocateEmPKv(%"class.__gnu_cxx::new_allocator"* %1, i64 %2, i8* null), !dbg !1975
  ret %class.GHOST_TimerTask** %call, !dbg !1976
}

; Function Attrs: noinline uwtable
define linkonce_odr dso_local %class.GHOST_TimerTask** @_ZN9__gnu_cxx13new_allocatorIP15GHOST_TimerTaskE8allocateEmPKv(%"class.__gnu_cxx::new_allocator"* %this, i64 %__n, i8* %0) #2 comdat align 2 !dbg !1977 {
entry:
  %this.addr = alloca %"class.__gnu_cxx::new_allocator"*, align 8
  %__n.addr = alloca i64, align 8
  %.addr = alloca i8*, align 8
  store %"class.__gnu_cxx::new_allocator"* %this, %"class.__gnu_cxx::new_allocator"** %this.addr, align 8
  call void @llvm.dbg.declare(metadata %"class.__gnu_cxx::new_allocator"** %this.addr, metadata !1978, metadata !DIExpression()), !dbg !1979
  store i64 %__n, i64* %__n.addr, align 8
  call void @llvm.dbg.declare(metadata i64* %__n.addr, metadata !1980, metadata !DIExpression()), !dbg !1981
  store i8* %0, i8** %.addr, align 8
  call void @llvm.dbg.declare(metadata i8** %.addr, metadata !1982, metadata !DIExpression()), !dbg !1983
  %this1 = load %"class.__gnu_cxx::new_allocator"*, %"class.__gnu_cxx::new_allocator"** %this.addr, align 8
  %1 = load i64, i64* %__n.addr, align 8, !dbg !1984
  %call = call i64 @_ZNK9__gnu_cxx13new_allocatorIP15GHOST_TimerTaskE11_M_max_sizeEv(%"class.__gnu_cxx::new_allocator"* %this1) #8, !dbg !1986
  %cmp = icmp ugt i64 %1, %call, !dbg !1987
  br i1 %cmp, label %if.then, label %if.end, !dbg !1988

if.then:                                          ; preds = %entry
  call void @_ZSt17__throw_bad_allocv() #11, !dbg !1989
  unreachable, !dbg !1989

if.end:                                           ; preds = %entry
  %2 = load i64, i64* %__n.addr, align 8, !dbg !1990
  %mul = mul i64 %2, 8, !dbg !1991
  %call2 = call i8* @_Znwm(i64 %mul), !dbg !1992
  %3 = bitcast i8* %call2 to %class.GHOST_TimerTask**, !dbg !1993
  ret %class.GHOST_TimerTask** %3, !dbg !1994
}

; Function Attrs: noreturn
declare dso_local void @_ZSt17__throw_bad_allocv() #6

; Function Attrs: nobuiltin
declare dso_local noalias i8* @_Znwm(i64) #7

; Function Attrs: noinline nounwind uwtable
define linkonce_odr dso_local %class.GHOST_TimerTask** @_ZNSt6vectorIP15GHOST_TimerTaskSaIS1_EE14_S_do_relocateEPS1_S4_S4_RS2_St17integral_constantIbLb1EE(%class.GHOST_TimerTask** %__first, %class.GHOST_TimerTask** %__last, %class.GHOST_TimerTask** %__result, %"class.std::allocator"* dereferenceable(1) %__alloc) #0 comdat align 2 !dbg !1995 {
entry:
  %0 = alloca %"struct.std::integral_constant", align 1
  %__first.addr = alloca %class.GHOST_TimerTask**, align 8
  %__last.addr = alloca %class.GHOST_TimerTask**, align 8
  %__result.addr = alloca %class.GHOST_TimerTask**, align 8
  %__alloc.addr = alloca %"class.std::allocator"*, align 8
  store %class.GHOST_TimerTask** %__first, %class.GHOST_TimerTask*** %__first.addr, align 8
  call void @llvm.dbg.declare(metadata %class.GHOST_TimerTask*** %__first.addr, metadata !1996, metadata !DIExpression()), !dbg !1997
  store %class.GHOST_TimerTask** %__last, %class.GHOST_TimerTask*** %__last.addr, align 8
  call void @llvm.dbg.declare(metadata %class.GHOST_TimerTask*** %__last.addr, metadata !1998, metadata !DIExpression()), !dbg !1999
  store %class.GHOST_TimerTask** %__result, %class.GHOST_TimerTask*** %__result.addr, align 8
  call void @llvm.dbg.declare(metadata %class.GHOST_TimerTask*** %__result.addr, metadata !2000, metadata !DIExpression()), !dbg !2001
  store %"class.std::allocator"* %__alloc, %"class.std::allocator"** %__alloc.addr, align 8
  call void @llvm.dbg.declare(metadata %"class.std::allocator"** %__alloc.addr, metadata !2002, metadata !DIExpression()), !dbg !2003
  call void @llvm.dbg.declare(metadata %"struct.std::integral_constant"* %0, metadata !2004, metadata !DIExpression()), !dbg !2005
  %1 = load %class.GHOST_TimerTask**, %class.GHOST_TimerTask*** %__first.addr, align 8, !dbg !2006
  %2 = load %class.GHOST_TimerTask**, %class.GHOST_TimerTask*** %__last.addr, align 8, !dbg !2007
  %3 = load %class.GHOST_TimerTask**, %class.GHOST_TimerTask*** %__result.addr, align 8, !dbg !2008
  %4 = load %"class.std::allocator"*, %"class.std::allocator"** %__alloc.addr, align 8, !dbg !2009
  %call = call %class.GHOST_TimerTask** @_ZSt12__relocate_aIPP15GHOST_TimerTaskS2_SaIS1_EET0_T_S5_S4_RT1_(%class.GHOST_TimerTask** %1, %class.GHOST_TimerTask** %2, %class.GHOST_TimerTask** %3, %"class.std::allocator"* dereferenceable(1) %4) #8, !dbg !2010
  ret %class.GHOST_TimerTask** %call, !dbg !2011
}

; Function Attrs: noinline nounwind uwtable
define linkonce_odr dso_local %class.GHOST_TimerTask** @_ZSt12__relocate_aIPP15GHOST_TimerTaskS2_SaIS1_EET0_T_S5_S4_RT1_(%class.GHOST_TimerTask** %__first, %class.GHOST_TimerTask** %__last, %class.GHOST_TimerTask** %__result, %"class.std::allocator"* dereferenceable(1) %__alloc) #0 comdat !dbg !2012 {
entry:
  %__first.addr = alloca %class.GHOST_TimerTask**, align 8
  %__last.addr = alloca %class.GHOST_TimerTask**, align 8
  %__result.addr = alloca %class.GHOST_TimerTask**, align 8
  %__alloc.addr = alloca %"class.std::allocator"*, align 8
  store %class.GHOST_TimerTask** %__first, %class.GHOST_TimerTask*** %__first.addr, align 8
  call void @llvm.dbg.declare(metadata %class.GHOST_TimerTask*** %__first.addr, metadata !2019, metadata !DIExpression()), !dbg !2020
  store %class.GHOST_TimerTask** %__last, %class.GHOST_TimerTask*** %__last.addr, align 8
  call void @llvm.dbg.declare(metadata %class.GHOST_TimerTask*** %__last.addr, metadata !2021, metadata !DIExpression()), !dbg !2022
  store %class.GHOST_TimerTask** %__result, %class.GHOST_TimerTask*** %__result.addr, align 8
  call void @llvm.dbg.declare(metadata %class.GHOST_TimerTask*** %__result.addr, metadata !2023, metadata !DIExpression()), !dbg !2024
  store %"class.std::allocator"* %__alloc, %"class.std::allocator"** %__alloc.addr, align 8
  call void @llvm.dbg.declare(metadata %"class.std::allocator"** %__alloc.addr, metadata !2025, metadata !DIExpression()), !dbg !2026
  %0 = load %class.GHOST_TimerTask**, %class.GHOST_TimerTask*** %__first.addr, align 8, !dbg !2027
  %call = call %class.GHOST_TimerTask** @_ZSt12__niter_baseIPP15GHOST_TimerTaskET_S3_(%class.GHOST_TimerTask** %0) #8, !dbg !2028
  %1 = load %class.GHOST_TimerTask**, %class.GHOST_TimerTask*** %__last.addr, align 8, !dbg !2029
  %call1 = call %class.GHOST_TimerTask** @_ZSt12__niter_baseIPP15GHOST_TimerTaskET_S3_(%class.GHOST_TimerTask** %1) #8, !dbg !2030
  %2 = load %class.GHOST_TimerTask**, %class.GHOST_TimerTask*** %__result.addr, align 8, !dbg !2031
  %call2 = call %class.GHOST_TimerTask** @_ZSt12__niter_baseIPP15GHOST_TimerTaskET_S3_(%class.GHOST_TimerTask** %2) #8, !dbg !2032
  %3 = load %"class.std::allocator"*, %"class.std::allocator"** %__alloc.addr, align 8, !dbg !2033
  %call3 = call %class.GHOST_TimerTask** @_ZSt14__relocate_a_1IP15GHOST_TimerTaskS1_ENSt9enable_ifIXsr3std24__is_bitwise_relocatableIT_EE5valueEPS3_E4typeES4_S4_S4_RSaIT0_E(%class.GHOST_TimerTask** %call, %class.GHOST_TimerTask** %call1, %class.GHOST_TimerTask** %call2, %"class.std::allocator"* dereferenceable(1) %3) #8, !dbg !2034
  ret %class.GHOST_TimerTask** %call3, !dbg !2035
}

; Function Attrs: noinline nounwind uwtable
define linkonce_odr dso_local %class.GHOST_TimerTask** @_ZSt14__relocate_a_1IP15GHOST_TimerTaskS1_ENSt9enable_ifIXsr3std24__is_bitwise_relocatableIT_EE5valueEPS3_E4typeES4_S4_S4_RSaIT0_E(%class.GHOST_TimerTask** %__first, %class.GHOST_TimerTask** %__last, %class.GHOST_TimerTask** %__result, %"class.std::allocator"* dereferenceable(1) %0) #0 comdat !dbg !2036 {
entry:
  %__first.addr = alloca %class.GHOST_TimerTask**, align 8
  %__last.addr = alloca %class.GHOST_TimerTask**, align 8
  %__result.addr = alloca %class.GHOST_TimerTask**, align 8
  %.addr = alloca %"class.std::allocator"*, align 8
  %__count = alloca i64, align 8
  store %class.GHOST_TimerTask** %__first, %class.GHOST_TimerTask*** %__first.addr, align 8
  call void @llvm.dbg.declare(metadata %class.GHOST_TimerTask*** %__first.addr, metadata !2045, metadata !DIExpression()), !dbg !2046
  store %class.GHOST_TimerTask** %__last, %class.GHOST_TimerTask*** %__last.addr, align 8
  call void @llvm.dbg.declare(metadata %class.GHOST_TimerTask*** %__last.addr, metadata !2047, metadata !DIExpression()), !dbg !2048
  store %class.GHOST_TimerTask** %__result, %class.GHOST_TimerTask*** %__result.addr, align 8
  call void @llvm.dbg.declare(metadata %class.GHOST_TimerTask*** %__result.addr, metadata !2049, metadata !DIExpression()), !dbg !2050
  store %"class.std::allocator"* %0, %"class.std::allocator"** %.addr, align 8
  call void @llvm.dbg.declare(metadata %"class.std::allocator"** %.addr, metadata !2051, metadata !DIExpression()), !dbg !2052
  call void @llvm.dbg.declare(metadata i64* %__count, metadata !2053, metadata !DIExpression()), !dbg !2054
  %1 = load %class.GHOST_TimerTask**, %class.GHOST_TimerTask*** %__last.addr, align 8, !dbg !2055
  %2 = load %class.GHOST_TimerTask**, %class.GHOST_TimerTask*** %__first.addr, align 8, !dbg !2056
  %sub.ptr.lhs.cast = ptrtoint %class.GHOST_TimerTask** %1 to i64, !dbg !2057
  %sub.ptr.rhs.cast = ptrtoint %class.GHOST_TimerTask** %2 to i64, !dbg !2057
  %sub.ptr.sub = sub i64 %sub.ptr.lhs.cast, %sub.ptr.rhs.cast, !dbg !2057
  %sub.ptr.div = sdiv exact i64 %sub.ptr.sub, 8, !dbg !2057
  store i64 %sub.ptr.div, i64* %__count, align 8, !dbg !2054
  %3 = load i64, i64* %__count, align 8, !dbg !2058
  %cmp = icmp sgt i64 %3, 0, !dbg !2060
  br i1 %cmp, label %if.then, label %if.end, !dbg !2061

if.then:                                          ; preds = %entry
  %4 = load %class.GHOST_TimerTask**, %class.GHOST_TimerTask*** %__result.addr, align 8, !dbg !2062
  %5 = bitcast %class.GHOST_TimerTask** %4 to i8*, !dbg !2063
  %6 = load %class.GHOST_TimerTask**, %class.GHOST_TimerTask*** %__first.addr, align 8, !dbg !2064
  %7 = bitcast %class.GHOST_TimerTask** %6 to i8*, !dbg !2063
  %8 = load i64, i64* %__count, align 8, !dbg !2065
  %mul = mul i64 %8, 8, !dbg !2066
  call void @llvm.memmove.p0i8.p0i8.i64(i8* align 8 %5, i8* align 8 %7, i64 %mul, i1 false), !dbg !2063
  br label %if.end, !dbg !2063

if.end:                                           ; preds = %if.then, %entry
  %9 = load %class.GHOST_TimerTask**, %class.GHOST_TimerTask*** %__result.addr, align 8, !dbg !2067
  %10 = load i64, i64* %__count, align 8, !dbg !2068
  %add.ptr = getelementptr inbounds %class.GHOST_TimerTask*, %class.GHOST_TimerTask** %9, i64 %10, !dbg !2069
  ret %class.GHOST_TimerTask** %add.ptr, !dbg !2070
}

; Function Attrs: noinline nounwind uwtable
define linkonce_odr dso_local %class.GHOST_TimerTask** @_ZSt12__niter_baseIPP15GHOST_TimerTaskET_S3_(%class.GHOST_TimerTask** %__it) #0 comdat !dbg !2071 {
entry:
  %__it.addr = alloca %class.GHOST_TimerTask**, align 8
  store %class.GHOST_TimerTask** %__it, %class.GHOST_TimerTask*** %__it.addr, align 8
  call void @llvm.dbg.declare(metadata %class.GHOST_TimerTask*** %__it.addr, metadata !2074, metadata !DIExpression()), !dbg !2075
  %0 = load %class.GHOST_TimerTask**, %class.GHOST_TimerTask*** %__it.addr, align 8, !dbg !2076
  ret %class.GHOST_TimerTask** %0, !dbg !2077
}

; Function Attrs: argmemonly nounwind willreturn
declare void @llvm.memmove.p0i8.p0i8.i64(i8* nocapture, i8* nocapture readonly, i64, i1 immarg) #5

; Function Attrs: noinline uwtable
define linkonce_odr dso_local %class.GHOST_TimerTask** @_ZNSt6vectorIP15GHOST_TimerTaskSaIS1_EE8_M_eraseEN9__gnu_cxx17__normal_iteratorIPS1_S3_EE(%"class.std::vector"* %this, %class.GHOST_TimerTask** %__position.coerce) #2 comdat align 2 !dbg !2078 {
entry:
  %retval = alloca %"class.__gnu_cxx::__normal_iterator.0", align 8
  %__position = alloca %"class.__gnu_cxx::__normal_iterator.0", align 8
  %this.addr = alloca %"class.std::vector"*, align 8
  %ref.tmp = alloca %"class.__gnu_cxx::__normal_iterator.0", align 8
  %ref.tmp3 = alloca %"class.__gnu_cxx::__normal_iterator.0", align 8
  %agg.tmp = alloca %"class.__gnu_cxx::__normal_iterator.0", align 8
  %agg.tmp9 = alloca %"class.__gnu_cxx::__normal_iterator.0", align 8
  %agg.tmp12 = alloca %"class.__gnu_cxx::__normal_iterator.0", align 8
  %coerce = alloca %"class.__gnu_cxx::__normal_iterator.0", align 8
  %coerce.dive = getelementptr inbounds %"class.__gnu_cxx::__normal_iterator.0", %"class.__gnu_cxx::__normal_iterator.0"* %__position, i32 0, i32 0
  store %class.GHOST_TimerTask** %__position.coerce, %class.GHOST_TimerTask*** %coerce.dive, align 8
  store %"class.std::vector"* %this, %"class.std::vector"** %this.addr, align 8
  call void @llvm.dbg.declare(metadata %"class.std::vector"** %this.addr, metadata !2079, metadata !DIExpression()), !dbg !2080
  call void @llvm.dbg.declare(metadata %"class.__gnu_cxx::__normal_iterator.0"* %__position, metadata !2081, metadata !DIExpression()), !dbg !2082
  %this1 = load %"class.std::vector"*, %"class.std::vector"** %this.addr, align 8
  %call = call %class.GHOST_TimerTask** @_ZNK9__gnu_cxx17__normal_iteratorIPP15GHOST_TimerTaskSt6vectorIS2_SaIS2_EEEplEl(%"class.__gnu_cxx::__normal_iterator.0"* %__position, i64 1) #8, !dbg !2083
  %coerce.dive2 = getelementptr inbounds %"class.__gnu_cxx::__normal_iterator.0", %"class.__gnu_cxx::__normal_iterator.0"* %ref.tmp, i32 0, i32 0, !dbg !2083
  store %class.GHOST_TimerTask** %call, %class.GHOST_TimerTask*** %coerce.dive2, align 8, !dbg !2083
  %call4 = call %class.GHOST_TimerTask** @_ZNSt6vectorIP15GHOST_TimerTaskSaIS1_EE3endEv(%"class.std::vector"* %this1) #8, !dbg !2085
  %coerce.dive5 = getelementptr inbounds %"class.__gnu_cxx::__normal_iterator.0", %"class.__gnu_cxx::__normal_iterator.0"* %ref.tmp3, i32 0, i32 0, !dbg !2085
  store %class.GHOST_TimerTask** %call4, %class.GHOST_TimerTask*** %coerce.dive5, align 8, !dbg !2085
  %call6 = call zeroext i1 @_ZN9__gnu_cxxneIPP15GHOST_TimerTaskSt6vectorIS2_SaIS2_EEEEbRKNS_17__normal_iteratorIT_T0_EESC_(%"class.__gnu_cxx::__normal_iterator.0"* dereferenceable(8) %ref.tmp, %"class.__gnu_cxx::__normal_iterator.0"* dereferenceable(8) %ref.tmp3) #8, !dbg !2086
  br i1 %call6, label %if.then, label %if.end, !dbg !2087

if.then:                                          ; preds = %entry
  %call7 = call %class.GHOST_TimerTask** @_ZNK9__gnu_cxx17__normal_iteratorIPP15GHOST_TimerTaskSt6vectorIS2_SaIS2_EEEplEl(%"class.__gnu_cxx::__normal_iterator.0"* %__position, i64 1) #8, !dbg !2088
  %coerce.dive8 = getelementptr inbounds %"class.__gnu_cxx::__normal_iterator.0", %"class.__gnu_cxx::__normal_iterator.0"* %agg.tmp, i32 0, i32 0, !dbg !2088
  store %class.GHOST_TimerTask** %call7, %class.GHOST_TimerTask*** %coerce.dive8, align 8, !dbg !2088
  %call10 = call %class.GHOST_TimerTask** @_ZNSt6vectorIP15GHOST_TimerTaskSaIS1_EE3endEv(%"class.std::vector"* %this1) #8, !dbg !2088
  %coerce.dive11 = getelementptr inbounds %"class.__gnu_cxx::__normal_iterator.0", %"class.__gnu_cxx::__normal_iterator.0"* %agg.tmp9, i32 0, i32 0, !dbg !2088
  store %class.GHOST_TimerTask** %call10, %class.GHOST_TimerTask*** %coerce.dive11, align 8, !dbg !2088
  %0 = bitcast %"class.__gnu_cxx::__normal_iterator.0"* %agg.tmp12 to i8*, !dbg !2088
  %1 = bitcast %"class.__gnu_cxx::__normal_iterator.0"* %__position to i8*, !dbg !2088
  call void @llvm.memcpy.p0i8.p0i8.i64(i8* align 8 %0, i8* align 8 %1, i64 8, i1 false), !dbg !2088
  %coerce.dive13 = getelementptr inbounds %"class.__gnu_cxx::__normal_iterator.0", %"class.__gnu_cxx::__normal_iterator.0"* %agg.tmp, i32 0, i32 0, !dbg !2088
  %2 = load %class.GHOST_TimerTask**, %class.GHOST_TimerTask*** %coerce.dive13, align 8, !dbg !2088
  %coerce.dive14 = getelementptr inbounds %"class.__gnu_cxx::__normal_iterator.0", %"class.__gnu_cxx::__normal_iterator.0"* %agg.tmp9, i32 0, i32 0, !dbg !2088
  %3 = load %class.GHOST_TimerTask**, %class.GHOST_TimerTask*** %coerce.dive14, align 8, !dbg !2088
  %coerce.dive15 = getelementptr inbounds %"class.__gnu_cxx::__normal_iterator.0", %"class.__gnu_cxx::__normal_iterator.0"* %agg.tmp12, i32 0, i32 0, !dbg !2088
  %4 = load %class.GHOST_TimerTask**, %class.GHOST_TimerTask*** %coerce.dive15, align 8, !dbg !2088
  %call16 = call %class.GHOST_TimerTask** @_ZSt4moveIN9__gnu_cxx17__normal_iteratorIPP15GHOST_TimerTaskSt6vectorIS3_SaIS3_EEEES8_ET0_T_SA_S9_(%class.GHOST_TimerTask** %2, %class.GHOST_TimerTask** %3, %class.GHOST_TimerTask** %4), !dbg !2088
  %coerce.dive17 = getelementptr inbounds %"class.__gnu_cxx::__normal_iterator.0", %"class.__gnu_cxx::__normal_iterator.0"* %coerce, i32 0, i32 0, !dbg !2088
  store %class.GHOST_TimerTask** %call16, %class.GHOST_TimerTask*** %coerce.dive17, align 8, !dbg !2088
  br label %if.end, !dbg !2088

if.end:                                           ; preds = %if.then, %entry
  %5 = bitcast %"class.std::vector"* %this1 to %"struct.std::_Vector_base"*, !dbg !2089
  %_M_impl = getelementptr inbounds %"struct.std::_Vector_base", %"struct.std::_Vector_base"* %5, i32 0, i32 0, !dbg !2089
  %6 = bitcast %"struct.std::_Vector_base<GHOST_TimerTask *, std::allocator<GHOST_TimerTask *> >::_Vector_impl"* %_M_impl to %"struct.std::_Vector_base<GHOST_TimerTask *, std::allocator<GHOST_TimerTask *> >::_Vector_impl_data"*, !dbg !2090
  %_M_finish = getelementptr inbounds %"struct.std::_Vector_base<GHOST_TimerTask *, std::allocator<GHOST_TimerTask *> >::_Vector_impl_data", %"struct.std::_Vector_base<GHOST_TimerTask *, std::allocator<GHOST_TimerTask *> >::_Vector_impl_data"* %6, i32 0, i32 1, !dbg !2091
  %7 = load %class.GHOST_TimerTask**, %class.GHOST_TimerTask*** %_M_finish, align 8, !dbg !2092
  %incdec.ptr = getelementptr inbounds %class.GHOST_TimerTask*, %class.GHOST_TimerTask** %7, i32 -1, !dbg !2092
  store %class.GHOST_TimerTask** %incdec.ptr, %class.GHOST_TimerTask*** %_M_finish, align 8, !dbg !2092
  %8 = bitcast %"class.std::vector"* %this1 to %"struct.std::_Vector_base"*, !dbg !2093
  %_M_impl18 = getelementptr inbounds %"struct.std::_Vector_base", %"struct.std::_Vector_base"* %8, i32 0, i32 0, !dbg !2093
  %9 = bitcast %"struct.std::_Vector_base<GHOST_TimerTask *, std::allocator<GHOST_TimerTask *> >::_Vector_impl"* %_M_impl18 to %"class.std::allocator"*, !dbg !2094
  %10 = bitcast %"class.std::vector"* %this1 to %"struct.std::_Vector_base"*, !dbg !2095
  %_M_impl19 = getelementptr inbounds %"struct.std::_Vector_base", %"struct.std::_Vector_base"* %10, i32 0, i32 0, !dbg !2095
  %11 = bitcast %"struct.std::_Vector_base<GHOST_TimerTask *, std::allocator<GHOST_TimerTask *> >::_Vector_impl"* %_M_impl19 to %"struct.std::_Vector_base<GHOST_TimerTask *, std::allocator<GHOST_TimerTask *> >::_Vector_impl_data"*, !dbg !2096
  %_M_finish20 = getelementptr inbounds %"struct.std::_Vector_base<GHOST_TimerTask *, std::allocator<GHOST_TimerTask *> >::_Vector_impl_data", %"struct.std::_Vector_base<GHOST_TimerTask *, std::allocator<GHOST_TimerTask *> >::_Vector_impl_data"* %11, i32 0, i32 1, !dbg !2097
  %12 = load %class.GHOST_TimerTask**, %class.GHOST_TimerTask*** %_M_finish20, align 8, !dbg !2097
  call void @_ZNSt16allocator_traitsISaIP15GHOST_TimerTaskEE7destroyIS1_EEvRS2_PT_(%"class.std::allocator"* dereferenceable(1) %9, %class.GHOST_TimerTask** %12) #8, !dbg !2098
  %13 = bitcast %"class.__gnu_cxx::__normal_iterator.0"* %retval to i8*, !dbg !2099
  %14 = bitcast %"class.__gnu_cxx::__normal_iterator.0"* %__position to i8*, !dbg !2099
  call void @llvm.memcpy.p0i8.p0i8.i64(i8* align 8 %13, i8* align 8 %14, i64 8, i1 false), !dbg !2099
  %coerce.dive21 = getelementptr inbounds %"class.__gnu_cxx::__normal_iterator.0", %"class.__gnu_cxx::__normal_iterator.0"* %retval, i32 0, i32 0, !dbg !2100
  %15 = load %class.GHOST_TimerTask**, %class.GHOST_TimerTask*** %coerce.dive21, align 8, !dbg !2100
  ret %class.GHOST_TimerTask** %15, !dbg !2100
}

; Function Attrs: noinline nounwind uwtable
define linkonce_odr dso_local %class.GHOST_TimerTask** @_ZNK9__gnu_cxx17__normal_iteratorIPP15GHOST_TimerTaskSt6vectorIS2_SaIS2_EEEplEl(%"class.__gnu_cxx::__normal_iterator.0"* %this, i64 %__n) #0 comdat align 2 !dbg !2101 {
entry:
  %retval = alloca %"class.__gnu_cxx::__normal_iterator.0", align 8
  %this.addr = alloca %"class.__gnu_cxx::__normal_iterator.0"*, align 8
  %__n.addr = alloca i64, align 8
  %ref.tmp = alloca %class.GHOST_TimerTask**, align 8
  store %"class.__gnu_cxx::__normal_iterator.0"* %this, %"class.__gnu_cxx::__normal_iterator.0"** %this.addr, align 8
  call void @llvm.dbg.declare(metadata %"class.__gnu_cxx::__normal_iterator.0"** %this.addr, metadata !2102, metadata !DIExpression()), !dbg !2103
  store i64 %__n, i64* %__n.addr, align 8
  call void @llvm.dbg.declare(metadata i64* %__n.addr, metadata !2104, metadata !DIExpression()), !dbg !2105
  %this1 = load %"class.__gnu_cxx::__normal_iterator.0"*, %"class.__gnu_cxx::__normal_iterator.0"** %this.addr, align 8
  %_M_current = getelementptr inbounds %"class.__gnu_cxx::__normal_iterator.0", %"class.__gnu_cxx::__normal_iterator.0"* %this1, i32 0, i32 0, !dbg !2106
  %0 = load %class.GHOST_TimerTask**, %class.GHOST_TimerTask*** %_M_current, align 8, !dbg !2106
  %1 = load i64, i64* %__n.addr, align 8, !dbg !2107
  %add.ptr = getelementptr inbounds %class.GHOST_TimerTask*, %class.GHOST_TimerTask** %0, i64 %1, !dbg !2108
  store %class.GHOST_TimerTask** %add.ptr, %class.GHOST_TimerTask*** %ref.tmp, align 8, !dbg !2106
  call void @_ZN9__gnu_cxx17__normal_iteratorIPP15GHOST_TimerTaskSt6vectorIS2_SaIS2_EEEC2ERKS3_(%"class.__gnu_cxx::__normal_iterator.0"* %retval, %class.GHOST_TimerTask*** dereferenceable(8) %ref.tmp) #8, !dbg !2109
  %coerce.dive = getelementptr inbounds %"class.__gnu_cxx::__normal_iterator.0", %"class.__gnu_cxx::__normal_iterator.0"* %retval, i32 0, i32 0, !dbg !2110
  %2 = load %class.GHOST_TimerTask**, %class.GHOST_TimerTask*** %coerce.dive, align 8, !dbg !2110
  ret %class.GHOST_TimerTask** %2, !dbg !2110
}

; Function Attrs: noinline nounwind uwtable
define linkonce_odr dso_local i64 @_ZN9__gnu_cxxmiIPKP15GHOST_TimerTaskSt6vectorIS2_SaIS2_EEEENS_17__normal_iteratorIT_T0_E15difference_typeERKSB_SE_(%"class.__gnu_cxx::__normal_iterator"* dereferenceable(8) %__lhs, %"class.__gnu_cxx::__normal_iterator"* dereferenceable(8) %__rhs) #0 comdat !dbg !2111 {
entry:
  %__lhs.addr = alloca %"class.__gnu_cxx::__normal_iterator"*, align 8
  %__rhs.addr = alloca %"class.__gnu_cxx::__normal_iterator"*, align 8
  store %"class.__gnu_cxx::__normal_iterator"* %__lhs, %"class.__gnu_cxx::__normal_iterator"** %__lhs.addr, align 8
  call void @llvm.dbg.declare(metadata %"class.__gnu_cxx::__normal_iterator"** %__lhs.addr, metadata !2114, metadata !DIExpression()), !dbg !2115
  store %"class.__gnu_cxx::__normal_iterator"* %__rhs, %"class.__gnu_cxx::__normal_iterator"** %__rhs.addr, align 8
  call void @llvm.dbg.declare(metadata %"class.__gnu_cxx::__normal_iterator"** %__rhs.addr, metadata !2116, metadata !DIExpression()), !dbg !2117
  %0 = load %"class.__gnu_cxx::__normal_iterator"*, %"class.__gnu_cxx::__normal_iterator"** %__lhs.addr, align 8, !dbg !2118
  %call = call dereferenceable(8) %class.GHOST_TimerTask*** @_ZNK9__gnu_cxx17__normal_iteratorIPKP15GHOST_TimerTaskSt6vectorIS2_SaIS2_EEE4baseEv(%"class.__gnu_cxx::__normal_iterator"* %0) #8, !dbg !2119
  %1 = load %class.GHOST_TimerTask**, %class.GHOST_TimerTask*** %call, align 8, !dbg !2119
  %2 = load %"class.__gnu_cxx::__normal_iterator"*, %"class.__gnu_cxx::__normal_iterator"** %__rhs.addr, align 8, !dbg !2120
  %call1 = call dereferenceable(8) %class.GHOST_TimerTask*** @_ZNK9__gnu_cxx17__normal_iteratorIPKP15GHOST_TimerTaskSt6vectorIS2_SaIS2_EEE4baseEv(%"class.__gnu_cxx::__normal_iterator"* %2) #8, !dbg !2121
  %3 = load %class.GHOST_TimerTask**, %class.GHOST_TimerTask*** %call1, align 8, !dbg !2121
  %sub.ptr.lhs.cast = ptrtoint %class.GHOST_TimerTask** %1 to i64, !dbg !2122
  %sub.ptr.rhs.cast = ptrtoint %class.GHOST_TimerTask** %3 to i64, !dbg !2122
  %sub.ptr.sub = sub i64 %sub.ptr.lhs.cast, %sub.ptr.rhs.cast, !dbg !2122
  %sub.ptr.div = sdiv exact i64 %sub.ptr.sub, 8, !dbg !2122
  ret i64 %sub.ptr.div, !dbg !2123
}

; Function Attrs: noinline nounwind uwtable
define linkonce_odr dso_local %class.GHOST_TimerTask** @_ZNKSt6vectorIP15GHOST_TimerTaskSaIS1_EE6cbeginEv(%"class.std::vector"* %this) #0 comdat align 2 !dbg !2124 {
entry:
  %retval = alloca %"class.__gnu_cxx::__normal_iterator", align 8
  %this.addr = alloca %"class.std::vector"*, align 8
  store %"class.std::vector"* %this, %"class.std::vector"** %this.addr, align 8
  call void @llvm.dbg.declare(metadata %"class.std::vector"** %this.addr, metadata !2125, metadata !DIExpression()), !dbg !2126
  %this1 = load %"class.std::vector"*, %"class.std::vector"** %this.addr, align 8
  %0 = bitcast %"class.std::vector"* %this1 to %"struct.std::_Vector_base"*, !dbg !2127
  %_M_impl = getelementptr inbounds %"struct.std::_Vector_base", %"struct.std::_Vector_base"* %0, i32 0, i32 0, !dbg !2127
  %1 = bitcast %"struct.std::_Vector_base<GHOST_TimerTask *, std::allocator<GHOST_TimerTask *> >::_Vector_impl"* %_M_impl to %"struct.std::_Vector_base<GHOST_TimerTask *, std::allocator<GHOST_TimerTask *> >::_Vector_impl_data"*, !dbg !2128
  %_M_start = getelementptr inbounds %"struct.std::_Vector_base<GHOST_TimerTask *, std::allocator<GHOST_TimerTask *> >::_Vector_impl_data", %"struct.std::_Vector_base<GHOST_TimerTask *, std::allocator<GHOST_TimerTask *> >::_Vector_impl_data"* %1, i32 0, i32 0, !dbg !2129
  call void @_ZN9__gnu_cxx17__normal_iteratorIPKP15GHOST_TimerTaskSt6vectorIS2_SaIS2_EEEC2ERKS4_(%"class.__gnu_cxx::__normal_iterator"* %retval, %class.GHOST_TimerTask*** dereferenceable(8) %_M_start) #8, !dbg !2130
  %coerce.dive = getelementptr inbounds %"class.__gnu_cxx::__normal_iterator", %"class.__gnu_cxx::__normal_iterator"* %retval, i32 0, i32 0, !dbg !2131
  %2 = load %class.GHOST_TimerTask**, %class.GHOST_TimerTask*** %coerce.dive, align 8, !dbg !2131
  ret %class.GHOST_TimerTask** %2, !dbg !2131
}

; Function Attrs: noinline uwtable
define linkonce_odr dso_local %class.GHOST_TimerTask** @_ZSt4moveIN9__gnu_cxx17__normal_iteratorIPP15GHOST_TimerTaskSt6vectorIS3_SaIS3_EEEES8_ET0_T_SA_S9_(%class.GHOST_TimerTask** %__first.coerce, %class.GHOST_TimerTask** %__last.coerce, %class.GHOST_TimerTask** %__result.coerce) #2 comdat !dbg !2132 {
entry:
  %retval = alloca %"class.__gnu_cxx::__normal_iterator.0", align 8
  %__first = alloca %"class.__gnu_cxx::__normal_iterator.0", align 8
  %__last = alloca %"class.__gnu_cxx::__normal_iterator.0", align 8
  %__result = alloca %"class.__gnu_cxx::__normal_iterator.0", align 8
  %agg.tmp = alloca %"class.__gnu_cxx::__normal_iterator.0", align 8
  %agg.tmp3 = alloca %"class.__gnu_cxx::__normal_iterator.0", align 8
  %agg.tmp6 = alloca %"class.__gnu_cxx::__normal_iterator.0", align 8
  %agg.tmp7 = alloca %"class.__gnu_cxx::__normal_iterator.0", align 8
  %agg.tmp11 = alloca %"class.__gnu_cxx::__normal_iterator.0", align 8
  %coerce.dive = getelementptr inbounds %"class.__gnu_cxx::__normal_iterator.0", %"class.__gnu_cxx::__normal_iterator.0"* %__first, i32 0, i32 0
  store %class.GHOST_TimerTask** %__first.coerce, %class.GHOST_TimerTask*** %coerce.dive, align 8
  %coerce.dive1 = getelementptr inbounds %"class.__gnu_cxx::__normal_iterator.0", %"class.__gnu_cxx::__normal_iterator.0"* %__last, i32 0, i32 0
  store %class.GHOST_TimerTask** %__last.coerce, %class.GHOST_TimerTask*** %coerce.dive1, align 8
  %coerce.dive2 = getelementptr inbounds %"class.__gnu_cxx::__normal_iterator.0", %"class.__gnu_cxx::__normal_iterator.0"* %__result, i32 0, i32 0
  store %class.GHOST_TimerTask** %__result.coerce, %class.GHOST_TimerTask*** %coerce.dive2, align 8
  call void @llvm.dbg.declare(metadata %"class.__gnu_cxx::__normal_iterator.0"* %__first, metadata !2138, metadata !DIExpression()), !dbg !2139
  call void @llvm.dbg.declare(metadata %"class.__gnu_cxx::__normal_iterator.0"* %__last, metadata !2140, metadata !DIExpression()), !dbg !2141
  call void @llvm.dbg.declare(metadata %"class.__gnu_cxx::__normal_iterator.0"* %__result, metadata !2142, metadata !DIExpression()), !dbg !2143
  %0 = bitcast %"class.__gnu_cxx::__normal_iterator.0"* %agg.tmp3 to i8*, !dbg !2144
  %1 = bitcast %"class.__gnu_cxx::__normal_iterator.0"* %__first to i8*, !dbg !2144
  call void @llvm.memcpy.p0i8.p0i8.i64(i8* align 8 %0, i8* align 8 %1, i64 8, i1 false), !dbg !2144
  %coerce.dive4 = getelementptr inbounds %"class.__gnu_cxx::__normal_iterator.0", %"class.__gnu_cxx::__normal_iterator.0"* %agg.tmp3, i32 0, i32 0, !dbg !2145
  %2 = load %class.GHOST_TimerTask**, %class.GHOST_TimerTask*** %coerce.dive4, align 8, !dbg !2145
  %call = call %class.GHOST_TimerTask** @_ZSt12__miter_baseIN9__gnu_cxx17__normal_iteratorIPP15GHOST_TimerTaskSt6vectorIS3_SaIS3_EEEEET_S9_(%class.GHOST_TimerTask** %2), !dbg !2145
  %coerce.dive5 = getelementptr inbounds %"class.__gnu_cxx::__normal_iterator.0", %"class.__gnu_cxx::__normal_iterator.0"* %agg.tmp, i32 0, i32 0, !dbg !2145
  store %class.GHOST_TimerTask** %call, %class.GHOST_TimerTask*** %coerce.dive5, align 8, !dbg !2145
  %3 = bitcast %"class.__gnu_cxx::__normal_iterator.0"* %agg.tmp7 to i8*, !dbg !2146
  %4 = bitcast %"class.__gnu_cxx::__normal_iterator.0"* %__last to i8*, !dbg !2146
  call void @llvm.memcpy.p0i8.p0i8.i64(i8* align 8 %3, i8* align 8 %4, i64 8, i1 false), !dbg !2146
  %coerce.dive8 = getelementptr inbounds %"class.__gnu_cxx::__normal_iterator.0", %"class.__gnu_cxx::__normal_iterator.0"* %agg.tmp7, i32 0, i32 0, !dbg !2147
  %5 = load %class.GHOST_TimerTask**, %class.GHOST_TimerTask*** %coerce.dive8, align 8, !dbg !2147
  %call9 = call %class.GHOST_TimerTask** @_ZSt12__miter_baseIN9__gnu_cxx17__normal_iteratorIPP15GHOST_TimerTaskSt6vectorIS3_SaIS3_EEEEET_S9_(%class.GHOST_TimerTask** %5), !dbg !2147
  %coerce.dive10 = getelementptr inbounds %"class.__gnu_cxx::__normal_iterator.0", %"class.__gnu_cxx::__normal_iterator.0"* %agg.tmp6, i32 0, i32 0, !dbg !2147
  store %class.GHOST_TimerTask** %call9, %class.GHOST_TimerTask*** %coerce.dive10, align 8, !dbg !2147
  %6 = bitcast %"class.__gnu_cxx::__normal_iterator.0"* %agg.tmp11 to i8*, !dbg !2148
  %7 = bitcast %"class.__gnu_cxx::__normal_iterator.0"* %__result to i8*, !dbg !2148
  call void @llvm.memcpy.p0i8.p0i8.i64(i8* align 8 %6, i8* align 8 %7, i64 8, i1 false), !dbg !2148
  %coerce.dive12 = getelementptr inbounds %"class.__gnu_cxx::__normal_iterator.0", %"class.__gnu_cxx::__normal_iterator.0"* %agg.tmp, i32 0, i32 0, !dbg !2149
  %8 = load %class.GHOST_TimerTask**, %class.GHOST_TimerTask*** %coerce.dive12, align 8, !dbg !2149
  %coerce.dive13 = getelementptr inbounds %"class.__gnu_cxx::__normal_iterator.0", %"class.__gnu_cxx::__normal_iterator.0"* %agg.tmp6, i32 0, i32 0, !dbg !2149
  %9 = load %class.GHOST_TimerTask**, %class.GHOST_TimerTask*** %coerce.dive13, align 8, !dbg !2149
  %coerce.dive14 = getelementptr inbounds %"class.__gnu_cxx::__normal_iterator.0", %"class.__gnu_cxx::__normal_iterator.0"* %agg.tmp11, i32 0, i32 0, !dbg !2149
  %10 = load %class.GHOST_TimerTask**, %class.GHOST_TimerTask*** %coerce.dive14, align 8, !dbg !2149
  %call15 = call %class.GHOST_TimerTask** @_ZSt13__copy_move_aILb1EN9__gnu_cxx17__normal_iteratorIPP15GHOST_TimerTaskSt6vectorIS3_SaIS3_EEEES8_ET1_T0_SA_S9_(%class.GHOST_TimerTask** %8, %class.GHOST_TimerTask** %9, %class.GHOST_TimerTask** %10), !dbg !2149
  %coerce.dive16 = getelementptr inbounds %"class.__gnu_cxx::__normal_iterator.0", %"class.__gnu_cxx::__normal_iterator.0"* %retval, i32 0, i32 0, !dbg !2149
  store %class.GHOST_TimerTask** %call15, %class.GHOST_TimerTask*** %coerce.dive16, align 8, !dbg !2149
  %coerce.dive17 = getelementptr inbounds %"class.__gnu_cxx::__normal_iterator.0", %"class.__gnu_cxx::__normal_iterator.0"* %retval, i32 0, i32 0, !dbg !2150
  %11 = load %class.GHOST_TimerTask**, %class.GHOST_TimerTask*** %coerce.dive17, align 8, !dbg !2150
  ret %class.GHOST_TimerTask** %11, !dbg !2150
}

; Function Attrs: noinline nounwind uwtable
define linkonce_odr dso_local void @_ZNSt16allocator_traitsISaIP15GHOST_TimerTaskEE7destroyIS1_EEvRS2_PT_(%"class.std::allocator"* dereferenceable(1) %__a, %class.GHOST_TimerTask** %__p) #0 comdat align 2 !dbg !2151 {
entry:
  %__a.addr = alloca %"class.std::allocator"*, align 8
  %__p.addr = alloca %class.GHOST_TimerTask**, align 8
  store %"class.std::allocator"* %__a, %"class.std::allocator"** %__a.addr, align 8
  call void @llvm.dbg.declare(metadata %"class.std::allocator"** %__a.addr, metadata !2156, metadata !DIExpression()), !dbg !2157
  store %class.GHOST_TimerTask** %__p, %class.GHOST_TimerTask*** %__p.addr, align 8
  call void @llvm.dbg.declare(metadata %class.GHOST_TimerTask*** %__p.addr, metadata !2158, metadata !DIExpression()), !dbg !2159
  %0 = load %"class.std::allocator"*, %"class.std::allocator"** %__a.addr, align 8, !dbg !2160
  %1 = bitcast %"class.std::allocator"* %0 to %"class.__gnu_cxx::new_allocator"*, !dbg !2160
  %2 = load %class.GHOST_TimerTask**, %class.GHOST_TimerTask*** %__p.addr, align 8, !dbg !2161
  call void @_ZN9__gnu_cxx13new_allocatorIP15GHOST_TimerTaskE7destroyIS2_EEvPT_(%"class.__gnu_cxx::new_allocator"* %1, %class.GHOST_TimerTask** %2) #8, !dbg !2162
  ret void, !dbg !2163
}

; Function Attrs: noinline uwtable
define linkonce_odr dso_local %class.GHOST_TimerTask** @_ZSt13__copy_move_aILb1EN9__gnu_cxx17__normal_iteratorIPP15GHOST_TimerTaskSt6vectorIS3_SaIS3_EEEES8_ET1_T0_SA_S9_(%class.GHOST_TimerTask** %__first.coerce, %class.GHOST_TimerTask** %__last.coerce, %class.GHOST_TimerTask** %__result.coerce) #2 comdat !dbg !2164 {
entry:
  %retval = alloca %"class.__gnu_cxx::__normal_iterator.0", align 8
  %__first = alloca %"class.__gnu_cxx::__normal_iterator.0", align 8
  %__last = alloca %"class.__gnu_cxx::__normal_iterator.0", align 8
  %__result = alloca %"class.__gnu_cxx::__normal_iterator.0", align 8
  %agg.tmp = alloca %"class.__gnu_cxx::__normal_iterator.0", align 8
  %agg.tmp3 = alloca %"class.__gnu_cxx::__normal_iterator.0", align 8
  %agg.tmp5 = alloca %"class.__gnu_cxx::__normal_iterator.0", align 8
  %agg.tmp8 = alloca %"class.__gnu_cxx::__normal_iterator.0", align 8
  %coerce.dive = getelementptr inbounds %"class.__gnu_cxx::__normal_iterator.0", %"class.__gnu_cxx::__normal_iterator.0"* %__first, i32 0, i32 0
  store %class.GHOST_TimerTask** %__first.coerce, %class.GHOST_TimerTask*** %coerce.dive, align 8
  %coerce.dive1 = getelementptr inbounds %"class.__gnu_cxx::__normal_iterator.0", %"class.__gnu_cxx::__normal_iterator.0"* %__last, i32 0, i32 0
  store %class.GHOST_TimerTask** %__last.coerce, %class.GHOST_TimerTask*** %coerce.dive1, align 8
  %coerce.dive2 = getelementptr inbounds %"class.__gnu_cxx::__normal_iterator.0", %"class.__gnu_cxx::__normal_iterator.0"* %__result, i32 0, i32 0
  store %class.GHOST_TimerTask** %__result.coerce, %class.GHOST_TimerTask*** %coerce.dive2, align 8
  call void @llvm.dbg.declare(metadata %"class.__gnu_cxx::__normal_iterator.0"* %__first, metadata !2167, metadata !DIExpression()), !dbg !2168
  call void @llvm.dbg.declare(metadata %"class.__gnu_cxx::__normal_iterator.0"* %__last, metadata !2169, metadata !DIExpression()), !dbg !2170
  call void @llvm.dbg.declare(metadata %"class.__gnu_cxx::__normal_iterator.0"* %__result, metadata !2171, metadata !DIExpression()), !dbg !2172
  %0 = bitcast %"class.__gnu_cxx::__normal_iterator.0"* %agg.tmp to i8*, !dbg !2173
  %1 = bitcast %"class.__gnu_cxx::__normal_iterator.0"* %__result to i8*, !dbg !2173
  call void @llvm.memcpy.p0i8.p0i8.i64(i8* align 8 %0, i8* align 8 %1, i64 8, i1 false), !dbg !2173
  %2 = bitcast %"class.__gnu_cxx::__normal_iterator.0"* %agg.tmp3 to i8*, !dbg !2174
  %3 = bitcast %"class.__gnu_cxx::__normal_iterator.0"* %__first to i8*, !dbg !2174
  call void @llvm.memcpy.p0i8.p0i8.i64(i8* align 8 %2, i8* align 8 %3, i64 8, i1 false), !dbg !2174
  %coerce.dive4 = getelementptr inbounds %"class.__gnu_cxx::__normal_iterator.0", %"class.__gnu_cxx::__normal_iterator.0"* %agg.tmp3, i32 0, i32 0, !dbg !2175
  %4 = load %class.GHOST_TimerTask**, %class.GHOST_TimerTask*** %coerce.dive4, align 8, !dbg !2175
  %call = call %class.GHOST_TimerTask** @_ZSt12__niter_baseIPP15GHOST_TimerTaskSt6vectorIS1_SaIS1_EEET_N9__gnu_cxx17__normal_iteratorIS6_T0_EE(%class.GHOST_TimerTask** %4) #8, !dbg !2175
  %5 = bitcast %"class.__gnu_cxx::__normal_iterator.0"* %agg.tmp5 to i8*, !dbg !2176
  %6 = bitcast %"class.__gnu_cxx::__normal_iterator.0"* %__last to i8*, !dbg !2176
  call void @llvm.memcpy.p0i8.p0i8.i64(i8* align 8 %5, i8* align 8 %6, i64 8, i1 false), !dbg !2176
  %coerce.dive6 = getelementptr inbounds %"class.__gnu_cxx::__normal_iterator.0", %"class.__gnu_cxx::__normal_iterator.0"* %agg.tmp5, i32 0, i32 0, !dbg !2177
  %7 = load %class.GHOST_TimerTask**, %class.GHOST_TimerTask*** %coerce.dive6, align 8, !dbg !2177
  %call7 = call %class.GHOST_TimerTask** @_ZSt12__niter_baseIPP15GHOST_TimerTaskSt6vectorIS1_SaIS1_EEET_N9__gnu_cxx17__normal_iteratorIS6_T0_EE(%class.GHOST_TimerTask** %7) #8, !dbg !2177
  %8 = bitcast %"class.__gnu_cxx::__normal_iterator.0"* %agg.tmp8 to i8*, !dbg !2178
  %9 = bitcast %"class.__gnu_cxx::__normal_iterator.0"* %__result to i8*, !dbg !2178
  call void @llvm.memcpy.p0i8.p0i8.i64(i8* align 8 %8, i8* align 8 %9, i64 8, i1 false), !dbg !2178
  %coerce.dive9 = getelementptr inbounds %"class.__gnu_cxx::__normal_iterator.0", %"class.__gnu_cxx::__normal_iterator.0"* %agg.tmp8, i32 0, i32 0, !dbg !2179
  %10 = load %class.GHOST_TimerTask**, %class.GHOST_TimerTask*** %coerce.dive9, align 8, !dbg !2179
  %call10 = call %class.GHOST_TimerTask** @_ZSt12__niter_baseIPP15GHOST_TimerTaskSt6vectorIS1_SaIS1_EEET_N9__gnu_cxx17__normal_iteratorIS6_T0_EE(%class.GHOST_TimerTask** %10) #8, !dbg !2179
  %call11 = call %class.GHOST_TimerTask** @_ZSt14__copy_move_a1ILb1EPP15GHOST_TimerTaskS2_ET1_T0_S4_S3_(%class.GHOST_TimerTask** %call, %class.GHOST_TimerTask** %call7, %class.GHOST_TimerTask** %call10), !dbg !2180
  %coerce.dive12 = getelementptr inbounds %"class.__gnu_cxx::__normal_iterator.0", %"class.__gnu_cxx::__normal_iterator.0"* %agg.tmp, i32 0, i32 0, !dbg !2181
  %11 = load %class.GHOST_TimerTask**, %class.GHOST_TimerTask*** %coerce.dive12, align 8, !dbg !2181
  %call13 = call %class.GHOST_TimerTask** @_ZSt12__niter_wrapIN9__gnu_cxx17__normal_iteratorIPP15GHOST_TimerTaskSt6vectorIS3_SaIS3_EEEES4_ET_S9_T0_(%class.GHOST_TimerTask** %11, %class.GHOST_TimerTask** %call11), !dbg !2181
  %coerce.dive14 = getelementptr inbounds %"class.__gnu_cxx::__normal_iterator.0", %"class.__gnu_cxx::__normal_iterator.0"* %retval, i32 0, i32 0, !dbg !2181
  store %class.GHOST_TimerTask** %call13, %class.GHOST_TimerTask*** %coerce.dive14, align 8, !dbg !2181
  %coerce.dive15 = getelementptr inbounds %"class.__gnu_cxx::__normal_iterator.0", %"class.__gnu_cxx::__normal_iterator.0"* %retval, i32 0, i32 0, !dbg !2182
  %12 = load %class.GHOST_TimerTask**, %class.GHOST_TimerTask*** %coerce.dive15, align 8, !dbg !2182
  ret %class.GHOST_TimerTask** %12, !dbg !2182
}

; Function Attrs: noinline nounwind uwtable
define linkonce_odr dso_local %class.GHOST_TimerTask** @_ZSt12__miter_baseIN9__gnu_cxx17__normal_iteratorIPP15GHOST_TimerTaskSt6vectorIS3_SaIS3_EEEEET_S9_(%class.GHOST_TimerTask** %__it.coerce) #0 comdat !dbg !2183 {
entry:
  %retval = alloca %"class.__gnu_cxx::__normal_iterator.0", align 8
  %__it = alloca %"class.__gnu_cxx::__normal_iterator.0", align 8
  %coerce.dive = getelementptr inbounds %"class.__gnu_cxx::__normal_iterator.0", %"class.__gnu_cxx::__normal_iterator.0"* %__it, i32 0, i32 0
  store %class.GHOST_TimerTask** %__it.coerce, %class.GHOST_TimerTask*** %coerce.dive, align 8
  call void @llvm.dbg.declare(metadata %"class.__gnu_cxx::__normal_iterator.0"* %__it, metadata !2187, metadata !DIExpression()), !dbg !2188
  %0 = bitcast %"class.__gnu_cxx::__normal_iterator.0"* %retval to i8*, !dbg !2189
  %1 = bitcast %"class.__gnu_cxx::__normal_iterator.0"* %__it to i8*, !dbg !2189
  call void @llvm.memcpy.p0i8.p0i8.i64(i8* align 8 %0, i8* align 8 %1, i64 8, i1 false), !dbg !2189
  %coerce.dive1 = getelementptr inbounds %"class.__gnu_cxx::__normal_iterator.0", %"class.__gnu_cxx::__normal_iterator.0"* %retval, i32 0, i32 0, !dbg !2190
  %2 = load %class.GHOST_TimerTask**, %class.GHOST_TimerTask*** %coerce.dive1, align 8, !dbg !2190
  ret %class.GHOST_TimerTask** %2, !dbg !2190
}

; Function Attrs: noinline nounwind uwtable
define linkonce_odr dso_local %class.GHOST_TimerTask** @_ZSt12__niter_wrapIN9__gnu_cxx17__normal_iteratorIPP15GHOST_TimerTaskSt6vectorIS3_SaIS3_EEEES4_ET_S9_T0_(%class.GHOST_TimerTask** %__from.coerce, %class.GHOST_TimerTask** %__res) #0 comdat !dbg !2191 {
entry:
  %retval = alloca %"class.__gnu_cxx::__normal_iterator.0", align 8
  %__from = alloca %"class.__gnu_cxx::__normal_iterator.0", align 8
  %__res.addr = alloca %class.GHOST_TimerTask**, align 8
  %agg.tmp = alloca %"class.__gnu_cxx::__normal_iterator.0", align 8
  %coerce.dive = getelementptr inbounds %"class.__gnu_cxx::__normal_iterator.0", %"class.__gnu_cxx::__normal_iterator.0"* %__from, i32 0, i32 0
  store %class.GHOST_TimerTask** %__from.coerce, %class.GHOST_TimerTask*** %coerce.dive, align 8
  call void @llvm.dbg.declare(metadata %"class.__gnu_cxx::__normal_iterator.0"* %__from, metadata !2197, metadata !DIExpression()), !dbg !2198
  store %class.GHOST_TimerTask** %__res, %class.GHOST_TimerTask*** %__res.addr, align 8
  call void @llvm.dbg.declare(metadata %class.GHOST_TimerTask*** %__res.addr, metadata !2199, metadata !DIExpression()), !dbg !2200
  %0 = load %class.GHOST_TimerTask**, %class.GHOST_TimerTask*** %__res.addr, align 8, !dbg !2201
  %1 = bitcast %"class.__gnu_cxx::__normal_iterator.0"* %agg.tmp to i8*, !dbg !2202
  %2 = bitcast %"class.__gnu_cxx::__normal_iterator.0"* %__from to i8*, !dbg !2202
  call void @llvm.memcpy.p0i8.p0i8.i64(i8* align 8 %1, i8* align 8 %2, i64 8, i1 false), !dbg !2202
  %coerce.dive1 = getelementptr inbounds %"class.__gnu_cxx::__normal_iterator.0", %"class.__gnu_cxx::__normal_iterator.0"* %agg.tmp, i32 0, i32 0, !dbg !2203
  %3 = load %class.GHOST_TimerTask**, %class.GHOST_TimerTask*** %coerce.dive1, align 8, !dbg !2203
  %call = call %class.GHOST_TimerTask** @_ZSt12__niter_baseIPP15GHOST_TimerTaskSt6vectorIS1_SaIS1_EEET_N9__gnu_cxx17__normal_iteratorIS6_T0_EE(%class.GHOST_TimerTask** %3) #8, !dbg !2203
  %sub.ptr.lhs.cast = ptrtoint %class.GHOST_TimerTask** %0 to i64, !dbg !2204
  %sub.ptr.rhs.cast = ptrtoint %class.GHOST_TimerTask** %call to i64, !dbg !2204
  %sub.ptr.sub = sub i64 %sub.ptr.lhs.cast, %sub.ptr.rhs.cast, !dbg !2204
  %sub.ptr.div = sdiv exact i64 %sub.ptr.sub, 8, !dbg !2204
  %call2 = call %class.GHOST_TimerTask** @_ZNK9__gnu_cxx17__normal_iteratorIPP15GHOST_TimerTaskSt6vectorIS2_SaIS2_EEEplEl(%"class.__gnu_cxx::__normal_iterator.0"* %__from, i64 %sub.ptr.div) #8, !dbg !2205
  %coerce.dive3 = getelementptr inbounds %"class.__gnu_cxx::__normal_iterator.0", %"class.__gnu_cxx::__normal_iterator.0"* %retval, i32 0, i32 0, !dbg !2205
  store %class.GHOST_TimerTask** %call2, %class.GHOST_TimerTask*** %coerce.dive3, align 8, !dbg !2205
  %coerce.dive4 = getelementptr inbounds %"class.__gnu_cxx::__normal_iterator.0", %"class.__gnu_cxx::__normal_iterator.0"* %retval, i32 0, i32 0, !dbg !2206
  %4 = load %class.GHOST_TimerTask**, %class.GHOST_TimerTask*** %coerce.dive4, align 8, !dbg !2206
  ret %class.GHOST_TimerTask** %4, !dbg !2206
}

; Function Attrs: noinline uwtable
define linkonce_odr dso_local %class.GHOST_TimerTask** @_ZSt14__copy_move_a1ILb1EPP15GHOST_TimerTaskS2_ET1_T0_S4_S3_(%class.GHOST_TimerTask** %__first, %class.GHOST_TimerTask** %__last, %class.GHOST_TimerTask** %__result) #2 comdat !dbg !2207 {
entry:
  %__first.addr = alloca %class.GHOST_TimerTask**, align 8
  %__last.addr = alloca %class.GHOST_TimerTask**, align 8
  %__result.addr = alloca %class.GHOST_TimerTask**, align 8
  store %class.GHOST_TimerTask** %__first, %class.GHOST_TimerTask*** %__first.addr, align 8
  call void @llvm.dbg.declare(metadata %class.GHOST_TimerTask*** %__first.addr, metadata !2213, metadata !DIExpression()), !dbg !2214
  store %class.GHOST_TimerTask** %__last, %class.GHOST_TimerTask*** %__last.addr, align 8
  call void @llvm.dbg.declare(metadata %class.GHOST_TimerTask*** %__last.addr, metadata !2215, metadata !DIExpression()), !dbg !2216
  store %class.GHOST_TimerTask** %__result, %class.GHOST_TimerTask*** %__result.addr, align 8
  call void @llvm.dbg.declare(metadata %class.GHOST_TimerTask*** %__result.addr, metadata !2217, metadata !DIExpression()), !dbg !2218
  %0 = load %class.GHOST_TimerTask**, %class.GHOST_TimerTask*** %__first.addr, align 8, !dbg !2219
  %1 = load %class.GHOST_TimerTask**, %class.GHOST_TimerTask*** %__last.addr, align 8, !dbg !2220
  %2 = load %class.GHOST_TimerTask**, %class.GHOST_TimerTask*** %__result.addr, align 8, !dbg !2221
  %call = call %class.GHOST_TimerTask** @_ZSt14__copy_move_a2ILb1EPP15GHOST_TimerTaskS2_ET1_T0_S4_S3_(%class.GHOST_TimerTask** %0, %class.GHOST_TimerTask** %1, %class.GHOST_TimerTask** %2), !dbg !2222
  ret %class.GHOST_TimerTask** %call, !dbg !2223
}

; Function Attrs: noinline nounwind uwtable
define linkonce_odr dso_local %class.GHOST_TimerTask** @_ZSt12__niter_baseIPP15GHOST_TimerTaskSt6vectorIS1_SaIS1_EEET_N9__gnu_cxx17__normal_iteratorIS6_T0_EE(%class.GHOST_TimerTask** %__it.coerce) #0 comdat !dbg !2224 {
entry:
  %__it = alloca %"class.__gnu_cxx::__normal_iterator.0", align 8
  %coerce.dive = getelementptr inbounds %"class.__gnu_cxx::__normal_iterator.0", %"class.__gnu_cxx::__normal_iterator.0"* %__it, i32 0, i32 0
  store %class.GHOST_TimerTask** %__it.coerce, %class.GHOST_TimerTask*** %coerce.dive, align 8
  call void @llvm.dbg.declare(metadata %"class.__gnu_cxx::__normal_iterator.0"* %__it, metadata !2227, metadata !DIExpression()), !dbg !2228
  %call = call dereferenceable(8) %class.GHOST_TimerTask*** @_ZNK9__gnu_cxx17__normal_iteratorIPP15GHOST_TimerTaskSt6vectorIS2_SaIS2_EEE4baseEv(%"class.__gnu_cxx::__normal_iterator.0"* %__it) #8, !dbg !2229
  %0 = load %class.GHOST_TimerTask**, %class.GHOST_TimerTask*** %call, align 8, !dbg !2229
  ret %class.GHOST_TimerTask** %0, !dbg !2230
}

; Function Attrs: noinline uwtable
define linkonce_odr dso_local %class.GHOST_TimerTask** @_ZSt14__copy_move_a2ILb1EPP15GHOST_TimerTaskS2_ET1_T0_S4_S3_(%class.GHOST_TimerTask** %__first, %class.GHOST_TimerTask** %__last, %class.GHOST_TimerTask** %__result) #2 comdat !dbg !2231 {
entry:
  %__first.addr = alloca %class.GHOST_TimerTask**, align 8
  %__last.addr = alloca %class.GHOST_TimerTask**, align 8
  %__result.addr = alloca %class.GHOST_TimerTask**, align 8
  store %class.GHOST_TimerTask** %__first, %class.GHOST_TimerTask*** %__first.addr, align 8
  call void @llvm.dbg.declare(metadata %class.GHOST_TimerTask*** %__first.addr, metadata !2232, metadata !DIExpression()), !dbg !2233
  store %class.GHOST_TimerTask** %__last, %class.GHOST_TimerTask*** %__last.addr, align 8
  call void @llvm.dbg.declare(metadata %class.GHOST_TimerTask*** %__last.addr, metadata !2234, metadata !DIExpression()), !dbg !2235
  store %class.GHOST_TimerTask** %__result, %class.GHOST_TimerTask*** %__result.addr, align 8
  call void @llvm.dbg.declare(metadata %class.GHOST_TimerTask*** %__result.addr, metadata !2236, metadata !DIExpression()), !dbg !2237
  %0 = load %class.GHOST_TimerTask**, %class.GHOST_TimerTask*** %__first.addr, align 8, !dbg !2238
  %1 = load %class.GHOST_TimerTask**, %class.GHOST_TimerTask*** %__last.addr, align 8, !dbg !2239
  %2 = load %class.GHOST_TimerTask**, %class.GHOST_TimerTask*** %__result.addr, align 8, !dbg !2240
  %call = call %class.GHOST_TimerTask** @_ZNSt11__copy_moveILb1ELb1ESt26random_access_iterator_tagE8__copy_mIP15GHOST_TimerTaskEEPT_PKS5_S8_S6_(%class.GHOST_TimerTask** %0, %class.GHOST_TimerTask** %1, %class.GHOST_TimerTask** %2), !dbg !2241
  ret %class.GHOST_TimerTask** %call, !dbg !2242
}

; Function Attrs: noinline nounwind uwtable
define linkonce_odr dso_local %class.GHOST_TimerTask** @_ZNSt11__copy_moveILb1ELb1ESt26random_access_iterator_tagE8__copy_mIP15GHOST_TimerTaskEEPT_PKS5_S8_S6_(%class.GHOST_TimerTask** %__first, %class.GHOST_TimerTask** %__last, %class.GHOST_TimerTask** %__result) #0 comdat align 2 !dbg !2243 {
entry:
  %__first.addr = alloca %class.GHOST_TimerTask**, align 8
  %__last.addr = alloca %class.GHOST_TimerTask**, align 8
  %__result.addr = alloca %class.GHOST_TimerTask**, align 8
  %_Num = alloca i64, align 8
  store %class.GHOST_TimerTask** %__first, %class.GHOST_TimerTask*** %__first.addr, align 8
  call void @llvm.dbg.declare(metadata %class.GHOST_TimerTask*** %__first.addr, metadata !2251, metadata !DIExpression()), !dbg !2252
  store %class.GHOST_TimerTask** %__last, %class.GHOST_TimerTask*** %__last.addr, align 8
  call void @llvm.dbg.declare(metadata %class.GHOST_TimerTask*** %__last.addr, metadata !2253, metadata !DIExpression()), !dbg !2254
  store %class.GHOST_TimerTask** %__result, %class.GHOST_TimerTask*** %__result.addr, align 8
  call void @llvm.dbg.declare(metadata %class.GHOST_TimerTask*** %__result.addr, metadata !2255, metadata !DIExpression()), !dbg !2256
  call void @llvm.dbg.declare(metadata i64* %_Num, metadata !2257, metadata !DIExpression()), !dbg !2259
  %0 = load %class.GHOST_TimerTask**, %class.GHOST_TimerTask*** %__last.addr, align 8, !dbg !2260
  %1 = load %class.GHOST_TimerTask**, %class.GHOST_TimerTask*** %__first.addr, align 8, !dbg !2261
  %sub.ptr.lhs.cast = ptrtoint %class.GHOST_TimerTask** %0 to i64, !dbg !2262
  %sub.ptr.rhs.cast = ptrtoint %class.GHOST_TimerTask** %1 to i64, !dbg !2262
  %sub.ptr.sub = sub i64 %sub.ptr.lhs.cast, %sub.ptr.rhs.cast, !dbg !2262
  %sub.ptr.div = sdiv exact i64 %sub.ptr.sub, 8, !dbg !2262
  store i64 %sub.ptr.div, i64* %_Num, align 8, !dbg !2259
  %2 = load i64, i64* %_Num, align 8, !dbg !2263
  %tobool = icmp ne i64 %2, 0, !dbg !2263
  br i1 %tobool, label %if.then, label %if.end, !dbg !2265

if.then:                                          ; preds = %entry
  %3 = load %class.GHOST_TimerTask**, %class.GHOST_TimerTask*** %__result.addr, align 8, !dbg !2266
  %4 = bitcast %class.GHOST_TimerTask** %3 to i8*, !dbg !2267
  %5 = load %class.GHOST_TimerTask**, %class.GHOST_TimerTask*** %__first.addr, align 8, !dbg !2268
  %6 = bitcast %class.GHOST_TimerTask** %5 to i8*, !dbg !2267
  %7 = load i64, i64* %_Num, align 8, !dbg !2269
  %mul = mul i64 8, %7, !dbg !2270
  call void @llvm.memmove.p0i8.p0i8.i64(i8* align 8 %4, i8* align 8 %6, i64 %mul, i1 false), !dbg !2267
  br label %if.end, !dbg !2267

if.end:                                           ; preds = %if.then, %entry
  %8 = load %class.GHOST_TimerTask**, %class.GHOST_TimerTask*** %__result.addr, align 8, !dbg !2271
  %9 = load i64, i64* %_Num, align 8, !dbg !2272
  %add.ptr = getelementptr inbounds %class.GHOST_TimerTask*, %class.GHOST_TimerTask** %8, i64 %9, !dbg !2273
  ret %class.GHOST_TimerTask** %add.ptr, !dbg !2274
}

; Function Attrs: noinline nounwind uwtable
define linkonce_odr dso_local void @_ZN9__gnu_cxx13new_allocatorIP15GHOST_TimerTaskE7destroyIS2_EEvPT_(%"class.__gnu_cxx::new_allocator"* %this, %class.GHOST_TimerTask** %__p) #0 comdat align 2 !dbg !2275 {
entry:
  %this.addr = alloca %"class.__gnu_cxx::new_allocator"*, align 8
  %__p.addr = alloca %class.GHOST_TimerTask**, align 8
  store %"class.__gnu_cxx::new_allocator"* %this, %"class.__gnu_cxx::new_allocator"** %this.addr, align 8
  call void @llvm.dbg.declare(metadata %"class.__gnu_cxx::new_allocator"** %this.addr, metadata !2279, metadata !DIExpression()), !dbg !2280
  store %class.GHOST_TimerTask** %__p, %class.GHOST_TimerTask*** %__p.addr, align 8
  call void @llvm.dbg.declare(metadata %class.GHOST_TimerTask*** %__p.addr, metadata !2281, metadata !DIExpression()), !dbg !2282
  %this1 = load %"class.__gnu_cxx::new_allocator"*, %"class.__gnu_cxx::new_allocator"** %this.addr, align 8
  ret void, !dbg !2283
}

; Function Attrs: noinline nounwind uwtable
define linkonce_odr dso_local void @_ZN9__gnu_cxx17__normal_iteratorIPKP15GHOST_TimerTaskSt6vectorIS2_SaIS2_EEEC2ERKS4_(%"class.__gnu_cxx::__normal_iterator"* %this, %class.GHOST_TimerTask*** dereferenceable(8) %__i) unnamed_addr #0 comdat align 2 !dbg !2284 {
entry:
  %this.addr = alloca %"class.__gnu_cxx::__normal_iterator"*, align 8
  %__i.addr = alloca %class.GHOST_TimerTask***, align 8
  store %"class.__gnu_cxx::__normal_iterator"* %this, %"class.__gnu_cxx::__normal_iterator"** %this.addr, align 8
  call void @llvm.dbg.declare(metadata %"class.__gnu_cxx::__normal_iterator"** %this.addr, metadata !2285, metadata !DIExpression()), !dbg !2286
  store %class.GHOST_TimerTask*** %__i, %class.GHOST_TimerTask**** %__i.addr, align 8
  call void @llvm.dbg.declare(metadata %class.GHOST_TimerTask**** %__i.addr, metadata !2287, metadata !DIExpression()), !dbg !2288
  %this1 = load %"class.__gnu_cxx::__normal_iterator"*, %"class.__gnu_cxx::__normal_iterator"** %this.addr, align 8
  %_M_current = getelementptr inbounds %"class.__gnu_cxx::__normal_iterator", %"class.__gnu_cxx::__normal_iterator"* %this1, i32 0, i32 0, !dbg !2289
  %0 = load %class.GHOST_TimerTask***, %class.GHOST_TimerTask**** %__i.addr, align 8, !dbg !2290
  %1 = load %class.GHOST_TimerTask**, %class.GHOST_TimerTask*** %0, align 8, !dbg !2290
  store %class.GHOST_TimerTask** %1, %class.GHOST_TimerTask*** %_M_current, align 8, !dbg !2289
  ret void, !dbg !2291
}

; Function Attrs: noinline nounwind uwtable
define linkonce_odr dso_local zeroext i1 @_ZN9__gnu_cxxeqIPKP15GHOST_TimerTaskSt6vectorIS2_SaIS2_EEEEbRKNS_17__normal_iteratorIT_T0_EESD_(%"class.__gnu_cxx::__normal_iterator"* dereferenceable(8) %__lhs, %"class.__gnu_cxx::__normal_iterator"* dereferenceable(8) %__rhs) #0 comdat !dbg !2292 {
entry:
  %__lhs.addr = alloca %"class.__gnu_cxx::__normal_iterator"*, align 8
  %__rhs.addr = alloca %"class.__gnu_cxx::__normal_iterator"*, align 8
  store %"class.__gnu_cxx::__normal_iterator"* %__lhs, %"class.__gnu_cxx::__normal_iterator"** %__lhs.addr, align 8
  call void @llvm.dbg.declare(metadata %"class.__gnu_cxx::__normal_iterator"** %__lhs.addr, metadata !2295, metadata !DIExpression()), !dbg !2296
  store %"class.__gnu_cxx::__normal_iterator"* %__rhs, %"class.__gnu_cxx::__normal_iterator"** %__rhs.addr, align 8
  call void @llvm.dbg.declare(metadata %"class.__gnu_cxx::__normal_iterator"** %__rhs.addr, metadata !2297, metadata !DIExpression()), !dbg !2298
  %0 = load %"class.__gnu_cxx::__normal_iterator"*, %"class.__gnu_cxx::__normal_iterator"** %__lhs.addr, align 8, !dbg !2299
  %call = call dereferenceable(8) %class.GHOST_TimerTask*** @_ZNK9__gnu_cxx17__normal_iteratorIPKP15GHOST_TimerTaskSt6vectorIS2_SaIS2_EEE4baseEv(%"class.__gnu_cxx::__normal_iterator"* %0) #8, !dbg !2300
  %1 = load %class.GHOST_TimerTask**, %class.GHOST_TimerTask*** %call, align 8, !dbg !2300
  %2 = load %"class.__gnu_cxx::__normal_iterator"*, %"class.__gnu_cxx::__normal_iterator"** %__rhs.addr, align 8, !dbg !2301
  %call1 = call dereferenceable(8) %class.GHOST_TimerTask*** @_ZNK9__gnu_cxx17__normal_iteratorIPKP15GHOST_TimerTaskSt6vectorIS2_SaIS2_EEE4baseEv(%"class.__gnu_cxx::__normal_iterator"* %2) #8, !dbg !2302
  %3 = load %class.GHOST_TimerTask**, %class.GHOST_TimerTask*** %call1, align 8, !dbg !2302
  %cmp = icmp eq %class.GHOST_TimerTask** %1, %3, !dbg !2303
  ret i1 %cmp, !dbg !2304
}

; Function Attrs: noinline nounwind uwtable
define linkonce_odr dso_local %class.GHOST_TimerTask** @_ZNKSt6vectorIP15GHOST_TimerTaskSaIS1_EE5beginEv(%"class.std::vector"* %this) #0 comdat align 2 !dbg !2305 {
entry:
  %retval = alloca %"class.__gnu_cxx::__normal_iterator", align 8
  %this.addr = alloca %"class.std::vector"*, align 8
  store %"class.std::vector"* %this, %"class.std::vector"** %this.addr, align 8
  call void @llvm.dbg.declare(metadata %"class.std::vector"** %this.addr, metadata !2306, metadata !DIExpression()), !dbg !2307
  %this1 = load %"class.std::vector"*, %"class.std::vector"** %this.addr, align 8
  %0 = bitcast %"class.std::vector"* %this1 to %"struct.std::_Vector_base"*, !dbg !2308
  %_M_impl = getelementptr inbounds %"struct.std::_Vector_base", %"struct.std::_Vector_base"* %0, i32 0, i32 0, !dbg !2308
  %1 = bitcast %"struct.std::_Vector_base<GHOST_TimerTask *, std::allocator<GHOST_TimerTask *> >::_Vector_impl"* %_M_impl to %"struct.std::_Vector_base<GHOST_TimerTask *, std::allocator<GHOST_TimerTask *> >::_Vector_impl_data"*, !dbg !2309
  %_M_start = getelementptr inbounds %"struct.std::_Vector_base<GHOST_TimerTask *, std::allocator<GHOST_TimerTask *> >::_Vector_impl_data", %"struct.std::_Vector_base<GHOST_TimerTask *, std::allocator<GHOST_TimerTask *> >::_Vector_impl_data"* %1, i32 0, i32 0, !dbg !2310
  call void @_ZN9__gnu_cxx17__normal_iteratorIPKP15GHOST_TimerTaskSt6vectorIS2_SaIS2_EEEC2ERKS4_(%"class.__gnu_cxx::__normal_iterator"* %retval, %class.GHOST_TimerTask*** dereferenceable(8) %_M_start) #8, !dbg !2311
  %coerce.dive = getelementptr inbounds %"class.__gnu_cxx::__normal_iterator", %"class.__gnu_cxx::__normal_iterator"* %retval, i32 0, i32 0, !dbg !2312
  %2 = load %class.GHOST_TimerTask**, %class.GHOST_TimerTask*** %coerce.dive, align 8, !dbg !2312
  ret %class.GHOST_TimerTask** %2, !dbg !2312
}

; Function Attrs: noinline nounwind uwtable
define linkonce_odr dso_local %class.GHOST_TimerTask** @_ZNKSt6vectorIP15GHOST_TimerTaskSaIS1_EE3endEv(%"class.std::vector"* %this) #0 comdat align 2 !dbg !2313 {
entry:
  %retval = alloca %"class.__gnu_cxx::__normal_iterator", align 8
  %this.addr = alloca %"class.std::vector"*, align 8
  store %"class.std::vector"* %this, %"class.std::vector"** %this.addr, align 8
  call void @llvm.dbg.declare(metadata %"class.std::vector"** %this.addr, metadata !2314, metadata !DIExpression()), !dbg !2315
  %this1 = load %"class.std::vector"*, %"class.std::vector"** %this.addr, align 8
  %0 = bitcast %"class.std::vector"* %this1 to %"struct.std::_Vector_base"*, !dbg !2316
  %_M_impl = getelementptr inbounds %"struct.std::_Vector_base", %"struct.std::_Vector_base"* %0, i32 0, i32 0, !dbg !2316
  %1 = bitcast %"struct.std::_Vector_base<GHOST_TimerTask *, std::allocator<GHOST_TimerTask *> >::_Vector_impl"* %_M_impl to %"struct.std::_Vector_base<GHOST_TimerTask *, std::allocator<GHOST_TimerTask *> >::_Vector_impl_data"*, !dbg !2317
  %_M_finish = getelementptr inbounds %"struct.std::_Vector_base<GHOST_TimerTask *, std::allocator<GHOST_TimerTask *> >::_Vector_impl_data", %"struct.std::_Vector_base<GHOST_TimerTask *, std::allocator<GHOST_TimerTask *> >::_Vector_impl_data"* %1, i32 0, i32 1, !dbg !2318
  call void @_ZN9__gnu_cxx17__normal_iteratorIPKP15GHOST_TimerTaskSt6vectorIS2_SaIS2_EEEC2ERKS4_(%"class.__gnu_cxx::__normal_iterator"* %retval, %class.GHOST_TimerTask*** dereferenceable(8) %_M_finish) #8, !dbg !2319
  %coerce.dive = getelementptr inbounds %"class.__gnu_cxx::__normal_iterator", %"class.__gnu_cxx::__normal_iterator"* %retval, i32 0, i32 0, !dbg !2320
  %2 = load %class.GHOST_TimerTask**, %class.GHOST_TimerTask*** %coerce.dive, align 8, !dbg !2320
  ret %class.GHOST_TimerTask** %2, !dbg !2320
}

attributes #0 = { noinline nounwind uwtable "correctly-rounded-divide-sqrt-fp-math"="false" "disable-tail-calls"="false" "frame-pointer"="all" "less-precise-fpmad"="false" "min-legal-vector-width"="0" "no-infs-fp-math"="false" "no-jump-tables"="false" "no-nans-fp-math"="false" "no-signed-zeros-fp-math"="false" "no-trapping-math"="false" "stack-protector-buffer-size"="8" "target-cpu"="x86-64" "target-features"="+cx8,+fxsr,+mmx,+sse,+sse2,+x87" "unsafe-fp-math"="false" "use-soft-float"="false" }
attributes #1 = { nounwind readnone speculatable willreturn }
attributes #2 = { noinline uwtable "correctly-rounded-divide-sqrt-fp-math"="false" "disable-tail-calls"="false" "frame-pointer"="all" "less-precise-fpmad"="false" "min-legal-vector-width"="0" "no-infs-fp-math"="false" "no-jump-tables"="false" "no-nans-fp-math"="false" "no-signed-zeros-fp-math"="false" "no-trapping-math"="false" "stack-protector-buffer-size"="8" "target-cpu"="x86-64" "target-features"="+cx8,+fxsr,+mmx,+sse,+sse2,+x87" "unsafe-fp-math"="false" "use-soft-float"="false" }
attributes #3 = { noinline noreturn nounwind }
attributes #4 = { nobuiltin nounwind "correctly-rounded-divide-sqrt-fp-math"="false" "disable-tail-calls"="false" "frame-pointer"="all" "less-precise-fpmad"="false" "no-infs-fp-math"="false" "no-nans-fp-math"="false" "no-signed-zeros-fp-math"="false" "no-trapping-math"="false" "stack-protector-buffer-size"="8" "target-cpu"="x86-64" "target-features"="+cx8,+fxsr,+mmx,+sse,+sse2,+x87" "unsafe-fp-math"="false" "use-soft-float"="false" }
attributes #5 = { argmemonly nounwind willreturn }
attributes #6 = { noreturn "correctly-rounded-divide-sqrt-fp-math"="false" "disable-tail-calls"="false" "frame-pointer"="all" "less-precise-fpmad"="false" "no-infs-fp-math"="false" "no-nans-fp-math"="false" "no-signed-zeros-fp-math"="false" "no-trapping-math"="false" "stack-protector-buffer-size"="8" "target-cpu"="x86-64" "target-features"="+cx8,+fxsr,+mmx,+sse,+sse2,+x87" "unsafe-fp-math"="false" "use-soft-float"="false" }
attributes #7 = { nobuiltin "correctly-rounded-divide-sqrt-fp-math"="false" "disable-tail-calls"="false" "frame-pointer"="all" "less-precise-fpmad"="false" "no-infs-fp-math"="false" "no-nans-fp-math"="false" "no-signed-zeros-fp-math"="false" "no-trapping-math"="false" "stack-protector-buffer-size"="8" "target-cpu"="x86-64" "target-features"="+cx8,+fxsr,+mmx,+sse,+sse2,+x87" "unsafe-fp-math"="false" "use-soft-float"="false" }
attributes #8 = { nounwind }
attributes #9 = { noreturn nounwind }
attributes #10 = { builtin nounwind }
attributes #11 = { noreturn }

!llvm.dbg.cu = !{!0}
!llvm.module.flags = !{!888, !889, !890}
!llvm.ident = !{!891}

!0 = distinct !DICompileUnit(language: DW_LANG_C_plus_plus_14, file: !1, producer: "clang version 10.0.1 (https://github.com/svkeerthy/IR2Vec-LoopOptimizationFramework.git 561ac470e63b728263a0ac06ef987886ac648486)", isOptimized: false, runtimeVersion: 0, emissionKind: FullDebug, enums: !2, retainedTypes: !13, imports: !629, splitDebugInlining: false, nameTableKind: None)
!1 = !DIFile(filename: "blender/intern/ghost/intern/GHOST_TimerManager.cpp", directory: "/home/venkat/IF-DV/spec_build_release/CPU_2017/benchspec/CPU/526.blender_r/build/build_base_ld-loop-ext-m64.0000")
!2 = !{!3, !9}
!3 = !DICompositeType(tag: DW_TAG_enumeration_type, file: !4, line: 63, baseType: !5, size: 32, elements: !6, identifier: "_ZTS14GHOST_TSuccess")
!4 = !DIFile(filename: "blender/intern/ghost/GHOST_Types.h", directory: "/home/venkat/IF-DV/spec_build_release/CPU_2017/benchspec/CPU/526.blender_r/build/build_base_ld-loop-ext-m64.0000")
!5 = !DIBasicType(name: "unsigned int", size: 32, encoding: DW_ATE_unsigned)
!6 = !{!7, !8}
!7 = !DIEnumerator(name: "GHOST_kFailure", value: 0, isUnsigned: true)
!8 = !DIEnumerator(name: "GHOST_kSuccess", value: 1, isUnsigned: true)
!9 = !DICompositeType(tag: DW_TAG_enumeration_type, file: !4, line: 96, baseType: !10, size: 32, elements: !11, identifier: "_ZTS23GHOST_TFireTimeConstant")
!10 = !DIBasicType(name: "int", size: 32, encoding: DW_ATE_signed)
!11 = !{!12}
!12 = !DIEnumerator(name: "GHOST_kFireTimeNever", value: -1)
!13 = !{!14, !15, !21, !614, !625, !17, !90, !46, !626, !561, !363}
!14 = !DIDerivedType(tag: DW_TAG_typedef, name: "GHOST_TUns32", file: !4, line: 51, baseType: !5)
!15 = !DIDerivedType(tag: DW_TAG_typedef, name: "size_type", file: !16, line: 424, baseType: !17)
!16 = !DIFile(filename: "/usr/lib/gcc/x86_64-linux-gnu/10/../../../../include/c++/10/bits/stl_vector.h", directory: "")
!17 = !DIDerivedType(tag: DW_TAG_typedef, name: "size_t", scope: !19, file: !18, line: 260, baseType: !20)
!18 = !DIFile(filename: "/usr/lib/gcc/x86_64-linux-gnu/10/../../../../include/x86_64-linux-gnu/c++/10/bits/c++config.h", directory: "")
!19 = !DINamespace(name: "std", scope: null)
!20 = !DIBasicType(name: "long unsigned int", size: 64, encoding: DW_ATE_unsigned)
!21 = !DIDerivedType(tag: DW_TAG_typedef, name: "iterator", scope: !22, file: !16, line: 419, baseType: !561)
!22 = distinct !DICompositeType(tag: DW_TAG_class_type, name: "vector<GHOST_TimerTask *, std::allocator<GHOST_TimerTask *> >", scope: !19, file: !16, line: 389, size: 192, flags: DIFlagTypePassByReference | DIFlagNonTrivial, elements: !23, templateParams: !246, identifier: "_ZTSSt6vectorIP15GHOST_TimerTaskSaIS1_EE")
!23 = !{!24, !247, !266, !282, !283, !289, !292, !295, !299, !305, !308, !314, !319, !323, !326, !329, !332, !335, !340, !341, !345, !348, !351, !354, !357, !360, !423, !424, !425, !430, !435, !436, !437, !438, !439, !440, !441, !444, !445, !448, !449, !450, !451, !454, !455, !463, !470, !473, !474, !475, !478, !481, !482, !483, !486, !489, !492, !496, !497, !500, !503, !506, !509, !512, !515, !518, !519, !520, !521, !522, !525, !526, !529, !530, !531, !538, !541, !546, !549, !552, !555, !558}
!24 = !DIDerivedType(tag: DW_TAG_inheritance, scope: !22, baseType: !25, flags: DIFlagProtected, extraData: i32 0)
!25 = distinct !DICompositeType(tag: DW_TAG_structure_type, name: "_Vector_base<GHOST_TimerTask *, std::allocator<GHOST_TimerTask *> >", scope: !19, file: !16, line: 84, size: 192, flags: DIFlagTypePassByReference | DIFlagNonTrivial, elements: !26, templateParams: !246, identifier: "_ZTSSt12_Vector_baseIP15GHOST_TimerTaskSaIS1_EE")
!26 = !{!27, !197, !202, !207, !211, !214, !219, !222, !225, !229, !232, !235, !238, !239, !242, !245}
!27 = !DIDerivedType(tag: DW_TAG_member, name: "_M_impl", scope: !25, file: !16, line: 340, baseType: !28, size: 192)
!28 = distinct !DICompositeType(tag: DW_TAG_structure_type, name: "_Vector_impl", scope: !25, file: !16, line: 128, size: 192, flags: DIFlagTypePassByReference | DIFlagNonTrivial, elements: !29, identifier: "_ZTSNSt12_Vector_baseIP15GHOST_TimerTaskSaIS1_EE12_Vector_implE")
