; ModuleID = 'draw.cpp'
source_filename = "draw.cpp"
target datalayout = "e-m:e-p270:32:32-p271:32:32-p272:64:64-i64:64-f80:128-n8:16:32:64-S128"
target triple = "x86_64-unknown-linux-gnu"

%struct.gamestate_t = type { i32, i32, i32, i32, i32, i32, i32, i32, i32, i32, i32, i32, i32, i32, i32, i32, [1000 x i32], [1000 x %struct.move_x], i64, i32, i32, i32, i32, i32, i32, i32, i32 }
%struct.move_x = type { i32, i32, i32, i32, i64, i64 }
%struct.state_t = type { i32, [64 x i32], i64, i64, i64, [13 x i64], i32, i32, [13 x i32], i32, i32, i32, i32, i32, i32, i32, i64, i64, [64 x %struct.move_x], [64 x i32], [64 x i32], [64 x %struct.anon], i64, i64, i32, [64 x i32], i32, i32, i32, i32, i32, i32, i32, i32, i32, i32, [1000 x i64] }
%struct.anon = type { i32, i32, i32, i32 }

; Function Attrs: noinline nounwind uwtable
define dso_local i32 @_Z7is_drawP11gamestate_tP7state_t(%struct.gamestate_t* %g, %struct.state_t* %s) #0 !dbg !253 {
entry:
  %retval = alloca i32, align 4
  %g.addr = alloca %struct.gamestate_t*, align 8
  %s.addr = alloca %struct.state_t*, align 8
  %i = alloca i32, align 4
  %repeats = alloca i32, align 4
  %end = alloca i32, align 4
  %start = alloca i32, align 4
  store %struct.gamestate_t* %g, %struct.gamestate_t** %g.addr, align 8
  call void @llvm.dbg.declare(metadata %struct.gamestate_t** %g.addr, metadata !359, metadata !DIExpression()), !dbg !360
  store %struct.state_t* %s, %struct.state_t** %s.addr, align 8
  call void @llvm.dbg.declare(metadata %struct.state_t** %s.addr, metadata !361, metadata !DIExpression()), !dbg !362
  call void @llvm.dbg.declare(metadata i32* %i, metadata !363, metadata !DIExpression()), !dbg !364
  call void @llvm.dbg.declare(metadata i32* %repeats, metadata !365, metadata !DIExpression()), !dbg !366
  call void @llvm.dbg.declare(metadata i32* %end, metadata !367, metadata !DIExpression()), !dbg !368
  call void @llvm.dbg.declare(metadata i32* %start, metadata !369, metadata !DIExpression()), !dbg !370
  %0 = load %struct.state_t*, %struct.state_t** %s.addr, align 8, !dbg !371
  %fifty = getelementptr inbounds %struct.state_t, %struct.state_t* %0, i32 0, i32 15, !dbg !373
  %1 = load i32, i32* %fifty, align 4, !dbg !373
  %cmp = icmp sge i32 %1, 4, !dbg !374
  br i1 %cmp, label %land.lhs.true, label %if.end14, !dbg !375

land.lhs.true:                                    ; preds = %entry
  %2 = load %struct.state_t*, %struct.state_t** %s.addr, align 8, !dbg !376
  %ply = getelementptr inbounds %struct.state_t, %struct.state_t* %2, i32 0, i32 14, !dbg !377
  %3 = load i32, i32* %ply, align 8, !dbg !377
  %cmp1 = icmp sgt i32 %3, 1, !dbg !378
  br i1 %cmp1, label %if.then, label %if.end14, !dbg !379

if.then:                                          ; preds = %land.lhs.true
  %4 = load %struct.gamestate_t*, %struct.gamestate_t** %g.addr, align 8, !dbg !380
  %move_number = getelementptr inbounds %struct.gamestate_t, %struct.gamestate_t* %4, i32 0, i32 15, !dbg !382
  %5 = load i32, i32* %move_number, align 4, !dbg !382
  %6 = load %struct.state_t*, %struct.state_t** %s.addr, align 8, !dbg !383
  %ply2 = getelementptr inbounds %struct.state_t, %struct.state_t* %6, i32 0, i32 14, !dbg !384
  %7 = load i32, i32* %ply2, align 8, !dbg !384
  %add = add nsw i32 %5, %7, !dbg !385
  %sub = sub nsw i32 %add, 1, !dbg !386
  %8 = load %struct.state_t*, %struct.state_t** %s.addr, align 8, !dbg !387
  %fifty3 = getelementptr inbounds %struct.state_t, %struct.state_t* %8, i32 0, i32 15, !dbg !388
  %9 = load i32, i32* %fifty3, align 4, !dbg !388
  %sub4 = sub nsw i32 %sub, %9, !dbg !389
  store i32 %sub4, i32* %end, align 4, !dbg !390
  %10 = load %struct.gamestate_t*, %struct.gamestate_t** %g.addr, align 8, !dbg !391
  %move_number5 = getelementptr inbounds %struct.gamestate_t, %struct.gamestate_t* %10, i32 0, i32 15, !dbg !393
  %11 = load i32, i32* %move_number5, align 4, !dbg !393
  %12 = load %struct.state_t*, %struct.state_t** %s.addr, align 8, !dbg !394
  %ply6 = getelementptr inbounds %struct.state_t, %struct.state_t* %12, i32 0, i32 14, !dbg !395
  %13 = load i32, i32* %ply6, align 8, !dbg !395
  %add7 = add nsw i32 %11, %13, !dbg !396
  %sub8 = sub nsw i32 %add7, 3, !dbg !397
  store i32 %sub8, i32* %i, align 4, !dbg !398
  br label %for.cond, !dbg !399

for.cond:                                         ; preds = %for.inc, %if.then
  %14 = load i32, i32* %i, align 4, !dbg !400
  %cmp9 = icmp sge i32 %14, 0, !dbg !402
  br i1 %cmp9, label %land.rhs, label %land.end, !dbg !403

land.rhs:                                         ; preds = %for.cond
  %15 = load i32, i32* %i, align 4, !dbg !404
  %16 = load i32, i32* %end, align 4, !dbg !405
  %cmp10 = icmp sge i32 %15, %16, !dbg !406
  br label %land.end

land.end:                                         ; preds = %land.rhs, %for.cond
  %17 = phi i1 [ false, %for.cond ], [ %cmp10, %land.rhs ], !dbg !407
  br i1 %17, label %for.body, label %for.end, !dbg !408

for.body:                                         ; preds = %land.end
  %18 = load %struct.state_t*, %struct.state_t** %s.addr, align 8, !dbg !409
  %hash = getelementptr inbounds %struct.state_t, %struct.state_t* %18, i32 0, i32 16, !dbg !412
  %19 = load i64, i64* %hash, align 8, !dbg !412
  %20 = load %struct.state_t*, %struct.state_t** %s.addr, align 8, !dbg !413
  %hash_history = getelementptr inbounds %struct.state_t, %struct.state_t* %20, i32 0, i32 36, !dbg !414
  %21 = load i32, i32* %i, align 4, !dbg !415
  %idxprom = sext i32 %21 to i64, !dbg !413
  %arrayidx = getelementptr inbounds [1000 x i64], [1000 x i64]* %hash_history, i64 0, i64 %idxprom, !dbg !413
  %22 = load i64, i64* %arrayidx, align 8, !dbg !413
  %cmp11 = icmp eq i64 %19, %22, !dbg !416
  br i1 %cmp11, label %if.then12, label %if.end, !dbg !417

if.then12:                                        ; preds = %for.body
  store i32 1, i32* %retval, align 4, !dbg !418
  br label %return, !dbg !418

if.end:                                           ; preds = %for.body
  br label %for.inc, !dbg !420

for.inc:                                          ; preds = %if.end
  %23 = load i32, i32* %i, align 4, !dbg !421
  %sub13 = sub nsw i32 %23, 2, !dbg !421
  store i32 %sub13, i32* %i, align 4, !dbg !421
  br label %for.cond, !dbg !422, !llvm.loop !423

for.end:                                          ; preds = %land.end
  br label %if.end14, !dbg !425

if.end14:                                         ; preds = %for.end, %land.lhs.true, %entry
  %24 = load %struct.state_t*, %struct.state_t** %s.addr, align 8, !dbg !426
  %fifty15 = getelementptr inbounds %struct.state_t, %struct.state_t* %24, i32 0, i32 15, !dbg !428
  %25 = load i32, i32* %fifty15, align 4, !dbg !428
  %cmp16 = icmp sge i32 %25, 6, !dbg !429
  br i1 %cmp16, label %land.lhs.true17, label %if.end48, !dbg !430

land.lhs.true17:                                  ; preds = %if.end14
  %26 = load %struct.state_t*, %struct.state_t** %s.addr, align 8, !dbg !431
  %ply18 = getelementptr inbounds %struct.state_t, %struct.state_t* %26, i32 0, i32 14, !dbg !432
  %27 = load i32, i32* %ply18, align 8, !dbg !432
  %cmp19 = icmp sle i32 %27, 1, !dbg !433
  br i1 %cmp19, label %if.then20, label %if.end48, !dbg !434

if.then20:                                        ; preds = %land.lhs.true17
  %28 = load %struct.gamestate_t*, %struct.gamestate_t** %g.addr, align 8, !dbg !435
  %move_number21 = getelementptr inbounds %struct.gamestate_t, %struct.gamestate_t* %28, i32 0, i32 15, !dbg !437
  %29 = load i32, i32* %move_number21, align 4, !dbg !437
  %30 = load %struct.state_t*, %struct.state_t** %s.addr, align 8, !dbg !438
  %ply22 = getelementptr inbounds %struct.state_t, %struct.state_t* %30, i32 0, i32 14, !dbg !439
  %31 = load i32, i32* %ply22, align 8, !dbg !439
  %add23 = add nsw i32 %29, %31, !dbg !440
  store i32 %add23, i32* %start, align 4, !dbg !441
  %32 = load %struct.gamestate_t*, %struct.gamestate_t** %g.addr, align 8, !dbg !442
  %move_number24 = getelementptr inbounds %struct.gamestate_t, %struct.gamestate_t* %32, i32 0, i32 15, !dbg !443
  %33 = load i32, i32* %move_number24, align 4, !dbg !443
  %34 = load %struct.state_t*, %struct.state_t** %s.addr, align 8, !dbg !444
  %ply25 = getelementptr inbounds %struct.state_t, %struct.state_t* %34, i32 0, i32 14, !dbg !445
  %35 = load i32, i32* %ply25, align 8, !dbg !445
  %add26 = add nsw i32 %33, %35, !dbg !446
  %36 = load %struct.state_t*, %struct.state_t** %s.addr, align 8, !dbg !447
  %fifty27 = getelementptr inbounds %struct.state_t, %struct.state_t* %36, i32 0, i32 15, !dbg !448
  %37 = load i32, i32* %fifty27, align 4, !dbg !448
  %sub28 = sub nsw i32 %add26, %37, !dbg !449
  store i32 %sub28, i32* %end, align 4, !dbg !450
  store i32 0, i32* %repeats, align 4, !dbg !451
  %38 = load i32, i32* %start, align 4, !dbg !452
  store i32 %38, i32* %i, align 4, !dbg !454
  br label %for.cond29, !dbg !455

for.cond29:                                       ; preds = %for.inc45, %if.then20
  %39 = load i32, i32* %i, align 4, !dbg !456
  %cmp30 = icmp sge i32 %39, 0, !dbg !458
  br i1 %cmp30, label %land.rhs31, label %land.end33, !dbg !459

land.rhs31:                                       ; preds = %for.cond29
  %40 = load i32, i32* %i, align 4, !dbg !460
  %41 = load i32, i32* %end, align 4, !dbg !461
  %cmp32 = icmp sge i32 %40, %41, !dbg !462
  br label %land.end33

land.end33:                                       ; preds = %land.rhs31, %for.cond29
  %42 = phi i1 [ false, %for.cond29 ], [ %cmp32, %land.rhs31 ], !dbg !463
  br i1 %42, label %for.body34, label %for.end47, !dbg !464

for.body34:                                       ; preds = %land.end33
  %43 = load %struct.state_t*, %struct.state_t** %s.addr, align 8, !dbg !465
  %hash35 = getelementptr inbounds %struct.state_t, %struct.state_t* %43, i32 0, i32 16, !dbg !468
  %44 = load i64, i64* %hash35, align 8, !dbg !468
  %45 = load %struct.state_t*, %struct.state_t** %s.addr, align 8, !dbg !469
  %hash_history36 = getelementptr inbounds %struct.state_t, %struct.state_t* %45, i32 0, i32 36, !dbg !470
  %46 = load i32, i32* %i, align 4, !dbg !471
  %idxprom37 = sext i32 %46 to i64, !dbg !469
  %arrayidx38 = getelementptr inbounds [1000 x i64], [1000 x i64]* %hash_history36, i64 0, i64 %idxprom37, !dbg !469
  %47 = load i64, i64* %arrayidx38, align 8, !dbg !469
  %cmp39 = icmp eq i64 %44, %47, !dbg !472
  br i1 %cmp39, label %if.then40, label %if.end44, !dbg !473

if.then40:                                        ; preds = %for.body34
  %48 = load i32, i32* %repeats, align 4, !dbg !474
  %inc = add nsw i32 %48, 1, !dbg !474
  store i32 %inc, i32* %repeats, align 4, !dbg !474
  %49 = load i32, i32* %repeats, align 4, !dbg !476
  %cmp41 = icmp sge i32 %49, 2, !dbg !478
  br i1 %cmp41, label %if.then42, label %if.end43, !dbg !479

if.then42:                                        ; preds = %if.then40
  store i32 1, i32* %retval, align 4, !dbg !480
  br label %return, !dbg !480

if.end43:                                         ; preds = %if.then40
  br label %if.end44, !dbg !482

if.end44:                                         ; preds = %if.end43, %for.body34
  br label %for.inc45, !dbg !483

for.inc45:                                        ; preds = %if.end44
  %50 = load i32, i32* %i, align 4, !dbg !484
  %sub46 = sub nsw i32 %50, 2, !dbg !484
  store i32 %sub46, i32* %i, align 4, !dbg !484
  br label %for.cond29, !dbg !485, !llvm.loop !486

for.end47:                                        ; preds = %land.end33
  br label %if.end48, !dbg !488

if.end48:                                         ; preds = %for.end47, %land.lhs.true17, %if.end14
  store i32 0, i32* %retval, align 4, !dbg !489
  br label %return, !dbg !489

return:                                           ; preds = %if.end48, %if.then42, %if.then12
  %51 = load i32, i32* %retval, align 4, !dbg !490
  ret i32 %51, !dbg !490
}

; Function Attrs: nounwind readnone speculatable willreturn
declare void @llvm.dbg.declare(metadata, metadata, metadata) #1

; Function Attrs: noinline nounwind uwtable
define dso_local i32 @_Z21insufficient_materialP7state_t(%struct.state_t* %s) #0 !dbg !491 {
entry:
  %retval = alloca i32, align 4
  %s.addr = alloca %struct.state_t*, align 8
  %npieces = alloca i32*, align 8
  store %struct.state_t* %s, %struct.state_t** %s.addr, align 8
  call void @llvm.dbg.declare(metadata %struct.state_t** %s.addr, metadata !494, metadata !DIExpression()), !dbg !495
  call void @llvm.dbg.declare(metadata i32** %npieces, metadata !496, metadata !DIExpression()), !dbg !498
  %0 = load %struct.state_t*, %struct.state_t** %s.addr, align 8, !dbg !499
  %npieces1 = getelementptr inbounds %struct.state_t, %struct.state_t* %0, i32 0, i32 8, !dbg !500
  %arraydecay = getelementptr inbounds [13 x i32], [13 x i32]* %npieces1, i64 0, i64 0, !dbg !499
  store i32* %arraydecay, i32** %npieces, align 8, !dbg !498
  %1 = load i32*, i32** %npieces, align 8, !dbg !501
  %arrayidx = getelementptr inbounds i32, i32* %1, i64 1, !dbg !501
  %2 = load i32, i32* %arrayidx, align 4, !dbg !501
  %tobool = icmp ne i32 %2, 0, !dbg !501
  br i1 %tobool, label %if.end40, label %land.lhs.true, !dbg !503

land.lhs.true:                                    ; preds = %entry
  %3 = load i32*, i32** %npieces, align 8, !dbg !504
  %arrayidx2 = getelementptr inbounds i32, i32* %3, i64 2, !dbg !504
  %4 = load i32, i32* %arrayidx2, align 4, !dbg !504
  %tobool3 = icmp ne i32 %4, 0, !dbg !504
  br i1 %tobool3, label %if.end40, label %land.lhs.true4, !dbg !505

land.lhs.true4:                                   ; preds = %land.lhs.true
  %5 = load i32*, i32** %npieces, align 8, !dbg !506
  %arrayidx5 = getelementptr inbounds i32, i32* %5, i64 7, !dbg !506
  %6 = load i32, i32* %arrayidx5, align 4, !dbg !506
  %tobool6 = icmp ne i32 %6, 0, !dbg !506
  br i1 %tobool6, label %if.end40, label %land.lhs.true7, !dbg !507

land.lhs.true7:                                   ; preds = %land.lhs.true4
  %7 = load i32*, i32** %npieces, align 8, !dbg !508
  %arrayidx8 = getelementptr inbounds i32, i32* %7, i64 8, !dbg !508
  %8 = load i32, i32* %arrayidx8, align 4, !dbg !508
  %tobool9 = icmp ne i32 %8, 0, !dbg !508
  br i1 %tobool9, label %if.end40, label %land.lhs.true10, !dbg !509

land.lhs.true10:                                  ; preds = %land.lhs.true7
  %9 = load i32*, i32** %npieces, align 8, !dbg !510
  %arrayidx11 = getelementptr inbounds i32, i32* %9, i64 9, !dbg !510
  %10 = load i32, i32* %arrayidx11, align 4, !dbg !510
  %tobool12 = icmp ne i32 %10, 0, !dbg !510
  br i1 %tobool12, label %if.end40, label %land.lhs.true13, !dbg !511

land.lhs.true13:                                  ; preds = %land.lhs.true10
  %11 = load i32*, i32** %npieces, align 8, !dbg !512
  %arrayidx14 = getelementptr inbounds i32, i32* %11, i64 10, !dbg !512
  %12 = load i32, i32* %arrayidx14, align 4, !dbg !512
  %tobool15 = icmp ne i32 %12, 0, !dbg !512
  br i1 %tobool15, label %if.end40, label %if.then, !dbg !513

if.then:                                          ; preds = %land.lhs.true13
  %13 = load i32*, i32** %npieces, align 8, !dbg !514
  %arrayidx16 = getelementptr inbounds i32, i32* %13, i64 12, !dbg !514
  %14 = load i32, i32* %arrayidx16, align 4, !dbg !514
  %cmp = icmp sle i32 %14, 1, !dbg !517
  br i1 %cmp, label %land.lhs.true17, label %if.end, !dbg !518

land.lhs.true17:                                  ; preds = %if.then
  %15 = load i32*, i32** %npieces, align 8, !dbg !519
  %arrayidx18 = getelementptr inbounds i32, i32* %15, i64 11, !dbg !519
  %16 = load i32, i32* %arrayidx18, align 4, !dbg !519
  %cmp19 = icmp sle i32 %16, 1, !dbg !520
  br i1 %cmp19, label %land.lhs.true20, label %if.end, !dbg !521

land.lhs.true20:                                  ; preds = %land.lhs.true17
  %17 = load i32*, i32** %npieces, align 8, !dbg !522
  %arrayidx21 = getelementptr inbounds i32, i32* %17, i64 4, !dbg !522
  %18 = load i32, i32* %arrayidx21, align 4, !dbg !522
  %tobool22 = icmp ne i32 %18, 0, !dbg !522
  br i1 %tobool22, label %if.end, label %land.lhs.true23, !dbg !523

land.lhs.true23:                                  ; preds = %land.lhs.true20
  %19 = load i32*, i32** %npieces, align 8, !dbg !524
  %arrayidx24 = getelementptr inbounds i32, i32* %19, i64 3, !dbg !524
  %20 = load i32, i32* %arrayidx24, align 4, !dbg !524
  %tobool25 = icmp ne i32 %20, 0, !dbg !524
  br i1 %tobool25, label %if.end, label %if.then26, !dbg !525

if.then26:                                        ; preds = %land.lhs.true23
  store i32 1, i32* %retval, align 4, !dbg !526
  br label %return, !dbg !526

if.end:                                           ; preds = %land.lhs.true23, %land.lhs.true20, %land.lhs.true17, %if.then
  %21 = load i32*, i32** %npieces, align 8, !dbg !528
  %arrayidx27 = getelementptr inbounds i32, i32* %21, i64 11, !dbg !528
  %22 = load i32, i32* %arrayidx27, align 4, !dbg !528
  %tobool28 = icmp ne i32 %22, 0, !dbg !528
  br i1 %tobool28, label %if.end39, label %land.lhs.true29, !dbg !530

land.lhs.true29:                                  ; preds = %if.end
  %23 = load i32*, i32** %npieces, align 8, !dbg !531
  %arrayidx30 = getelementptr inbounds i32, i32* %23, i64 12, !dbg !531
  %24 = load i32, i32* %arrayidx30, align 4, !dbg !531
  %tobool31 = icmp ne i32 %24, 0, !dbg !531
  br i1 %tobool31, label %if.end39, label %land.lhs.true32, !dbg !532

land.lhs.true32:                                  ; preds = %land.lhs.true29
  %25 = load i32*, i32** %npieces, align 8, !dbg !533
  %arrayidx33 = getelementptr inbounds i32, i32* %25, i64 3, !dbg !533
  %26 = load i32, i32* %arrayidx33, align 4, !dbg !533
  %cmp34 = icmp sle i32 %26, 2, !dbg !534
  br i1 %cmp34, label %land.lhs.true35, label %if.end39, !dbg !535

land.lhs.true35:                                  ; preds = %land.lhs.true32
  %27 = load i32*, i32** %npieces, align 8, !dbg !536
  %arrayidx36 = getelementptr inbounds i32, i32* %27, i64 4, !dbg !536
  %28 = load i32, i32* %arrayidx36, align 4, !dbg !536
  %cmp37 = icmp sle i32 %28, 2, !dbg !537
  br i1 %cmp37, label %if.then38, label %if.end39, !dbg !538

if.then38:                                        ; preds = %land.lhs.true35
  store i32 1, i32* %retval, align 4, !dbg !539
  br label %return, !dbg !539

if.end39:                                         ; preds = %land.lhs.true35, %land.lhs.true32, %land.lhs.true29, %if.end
  br label %if.end40, !dbg !541

if.end40:                                         ; preds = %if.end39, %land.lhs.true13, %land.lhs.true10, %land.lhs.true7, %land.lhs.true4, %land.lhs.true, %entry
  store i32 0, i32* %retval, align 4, !dbg !542
  br label %return, !dbg !542

return:                                           ; preds = %if.end40, %if.then38, %if.then26
  %29 = load i32, i32* %retval, align 4, !dbg !543
  ret i32 %29, !dbg !543
}

attributes #0 = { noinline nounwind uwtable "correctly-rounded-divide-sqrt-fp-math"="false" "disable-tail-calls"="false" "frame-pointer"="all" "less-precise-fpmad"="false" "min-legal-vector-width"="0" "no-infs-fp-math"="false" "no-jump-tables"="false" "no-nans-fp-math"="false" "no-signed-zeros-fp-math"="false" "no-trapping-math"="false" "stack-protector-buffer-size"="8" "target-cpu"="x86-64" "target-features"="+cx8,+fxsr,+mmx,+sse,+sse2,+x87" "unsafe-fp-math"="false" "use-soft-float"="false" }
attributes #1 = { nounwind readnone speculatable willreturn }

!llvm.dbg.cu = !{!0}
!llvm.module.flags = !{!249, !250, !251}
!llvm.ident = !{!252}

!0 = distinct !DICompileUnit(language: DW_LANG_C_plus_plus_14, file: !1, producer: "clang version 10.0.1 (https://github.com/svkeerthy/IR2Vec-LoopOptimizationFramework.git 561ac470e63b728263a0ac06ef987886ac648486)", isOptimized: false, runtimeVersion: 0, emissionKind: FullDebug, enums: !2, imports: !3, splitDebugInlining: false, nameTableKind: None)
!1 = !DIFile(filename: "draw.cpp", directory: "/home/venkat/IF-DV/spec_build_release/CPU_2017/benchspec/CPU/531.deepsjeng_r/build/build_base_ld-loop-ext-m64.0000")
!2 = !{}
!3 = !{!4, !12, !16, !23, !27, !32, !34, !42, !46, !50, !64, !68, !72, !76, !80, !85, !89, !93, !97, !101, !109, !113, !117, !119, !123, !127, !132, !138, !142, !146, !148, !156, !160, !168, !170, !174, !178, !182, !186, !191, !196, !201, !202, !203, !204, !206, !207, !208, !209, !210, !211, !212, !214, !215, !216, !217, !218, !219, !220, !225, !226, !227, !228, !229, !230, !231, !232, !233, !234, !235, !236, !237, !238, !239, !240, !241, !242, !243, !244, !245, !246, !247, !248}
!4 = !DIImportedEntity(tag: DW_TAG_imported_declaration, scope: !5, entity: !6, file: !11, line: 52)
!5 = !DINamespace(name: "std", scope: null)
!6 = !DISubprogram(name: "abs", scope: !7, file: !7, line: 840, type: !8, flags: DIFlagPrototyped, spFlags: 0)
!7 = !DIFile(filename: "/usr/include/stdlib.h", directory: "")
!8 = !DISubroutineType(types: !9)
!9 = !{!10, !10}
!10 = !DIBasicType(name: "int", size: 32, encoding: DW_ATE_signed)
!11 = !DIFile(filename: "/usr/lib/gcc/x86_64-linux-gnu/10/../../../../include/c++/10/bits/std_abs.h", directory: "")
!12 = !DIImportedEntity(tag: DW_TAG_imported_declaration, scope: !5, entity: !13, file: !15, line: 127)
!13 = !DIDerivedType(tag: DW_TAG_typedef, name: "div_t", file: !7, line: 62, baseType: !14)
!14 = !DICompositeType(tag: DW_TAG_structure_type, file: !7, line: 58, flags: DIFlagFwdDecl, identifier: "_ZTS5div_t")
!15 = !DIFile(filename: "/usr/lib/gcc/x86_64-linux-gnu/10/../../../../include/c++/10/cstdlib", directory: "")
!16 = !DIImportedEntity(tag: DW_TAG_imported_declaration, scope: !5, entity: !17, file: !15, line: 128)
!17 = !DIDerivedType(tag: DW_TAG_typedef, name: "ldiv_t", file: !7, line: 70, baseType: !18)
!18 = distinct !DICompositeType(tag: DW_TAG_structure_type, file: !7, line: 66, size: 128, flags: DIFlagTypePassByValue, elements: !19, identifier: "_ZTS6ldiv_t")
!19 = !{!20, !22}
!20 = !DIDerivedType(tag: DW_TAG_member, name: "quot", scope: !18, file: !7, line: 68, baseType: !21, size: 64)
!21 = !DIBasicType(name: "long int", size: 64, encoding: DW_ATE_signed)
!22 = !DIDerivedType(tag: DW_TAG_member, name: "rem", scope: !18, file: !7, line: 69, baseType: !21, size: 64, offset: 64)
!23 = !DIImportedEntity(tag: DW_TAG_imported_declaration, scope: !5, entity: !24, file: !15, line: 130)
!24 = !DISubprogram(name: "abort", scope: !7, file: !7, line: 591, type: !25, flags: DIFlagPrototyped | DIFlagNoReturn, spFlags: 0)
!25 = !DISubroutineType(types: !26)
!26 = !{null}
!27 = !DIImportedEntity(tag: DW_TAG_imported_declaration, scope: !5, entity: !28, file: !15, line: 134)
!28 = !DISubprogram(name: "atexit", scope: !7, file: !7, line: 595, type: !29, flags: DIFlagPrototyped, spFlags: 0)
!29 = !DISubroutineType(types: !30)
!30 = !{!10, !31}
!31 = !DIDerivedType(tag: DW_TAG_pointer_type, baseType: !25, size: 64)
!32 = !DIImportedEntity(tag: DW_TAG_imported_declaration, scope: !5, entity: !33, file: !15, line: 137)
!33 = !DISubprogram(name: "at_quick_exit", scope: !7, file: !7, line: 600, type: !29, flags: DIFlagPrototyped, spFlags: 0)
!34 = !DIImportedEntity(tag: DW_TAG_imported_declaration, scope: !5, entity: !35, file: !15, line: 140)
!35 = !DISubprogram(name: "atof", scope: !7, file: !7, line: 101, type: !36, flags: DIFlagPrototyped, spFlags: 0)
!36 = !DISubroutineType(types: !37)
!37 = !{!38, !39}
!38 = !DIBasicType(name: "double", size: 64, encoding: DW_ATE_float)
!39 = !DIDerivedType(tag: DW_TAG_pointer_type, baseType: !40, size: 64)
!40 = !DIDerivedType(tag: DW_TAG_const_type, baseType: !41)
!41 = !DIBasicType(name: "char", size: 8, encoding: DW_ATE_signed_char)
!42 = !DIImportedEntity(tag: DW_TAG_imported_declaration, scope: !5, entity: !43, file: !15, line: 141)
!43 = !DISubprogram(name: "atoi", scope: !7, file: !7, line: 104, type: !44, flags: DIFlagPrototyped, spFlags: 0)
!44 = !DISubroutineType(types: !45)
!45 = !{!10, !39}
!46 = !DIImportedEntity(tag: DW_TAG_imported_declaration, scope: !5, entity: !47, file: !15, line: 142)
!47 = !DISubprogram(name: "atol", scope: !7, file: !7, line: 107, type: !48, flags: DIFlagPrototyped, spFlags: 0)
!48 = !DISubroutineType(types: !49)
!49 = !{!21, !39}
!50 = !DIImportedEntity(tag: DW_TAG_imported_declaration, scope: !5, entity: !51, file: !15, line: 143)
!51 = !DISubprogram(name: "bsearch", scope: !7, file: !7, line: 820, type: !52, flags: DIFlagPrototyped, spFlags: 0)
!52 = !DISubroutineType(types: !53)
!53 = !{!54, !55, !55, !57, !57, !60}
!54 = !DIDerivedType(tag: DW_TAG_pointer_type, baseType: null, size: 64)
!55 = !DIDerivedType(tag: DW_TAG_pointer_type, baseType: !56, size: 64)
!56 = !DIDerivedType(tag: DW_TAG_const_type, baseType: null)
!57 = !DIDerivedType(tag: DW_TAG_typedef, name: "size_t", file: !58, line: 46, baseType: !59)
!58 = !DIFile(filename: "Rohit/IR2Vec-LoopOptimizationFramework/build_REL_AsrtON/lib/clang/10.0.1/include/stddef.h", directory: "/home/venkat/IF-DV")
!59 = !DIBasicType(name: "long unsigned int", size: 64, encoding: DW_ATE_unsigned)
!60 = !DIDerivedType(tag: DW_TAG_typedef, name: "__compar_fn_t", file: !7, line: 808, baseType: !61)
!61 = !DIDerivedType(tag: DW_TAG_pointer_type, baseType: !62, size: 64)
!62 = !DISubroutineType(types: !63)
!63 = !{!10, !55, !55}
!64 = !DIImportedEntity(tag: DW_TAG_imported_declaration, scope: !5, entity: !65, file: !15, line: 144)
!65 = !DISubprogram(name: "calloc", scope: !7, file: !7, line: 542, type: !66, flags: DIFlagPrototyped, spFlags: 0)
!66 = !DISubroutineType(types: !67)
!67 = !{!54, !57, !57}
!68 = !DIImportedEntity(tag: DW_TAG_imported_declaration, scope: !5, entity: !69, file: !15, line: 145)
!69 = !DISubprogram(name: "div", scope: !7, file: !7, line: 852, type: !70, flags: DIFlagPrototyped, spFlags: 0)
!70 = !DISubroutineType(types: !71)
!71 = !{!13, !10, !10}
!72 = !DIImportedEntity(tag: DW_TAG_imported_declaration, scope: !5, entity: !73, file: !15, line: 146)
!73 = !DISubprogram(name: "exit", scope: !7, file: !7, line: 617, type: !74, flags: DIFlagPrototyped | DIFlagNoReturn, spFlags: 0)
!74 = !DISubroutineType(types: !75)
!75 = !{null, !10}
!76 = !DIImportedEntity(tag: DW_TAG_imported_declaration, scope: !5, entity: !77, file: !15, line: 147)
!77 = !DISubprogram(name: "free", scope: !7, file: !7, line: 565, type: !78, flags: DIFlagPrototyped, spFlags: 0)
!78 = !DISubroutineType(types: !79)
!79 = !{null, !54}
!80 = !DIImportedEntity(tag: DW_TAG_imported_declaration, scope: !5, entity: !81, file: !15, line: 148)
!81 = !DISubprogram(name: "getenv", scope: !7, file: !7, line: 634, type: !82, flags: DIFlagPrototyped, spFlags: 0)
!82 = !DISubroutineType(types: !83)
!83 = !{!84, !39}
!84 = !DIDerivedType(tag: DW_TAG_pointer_type, baseType: !41, size: 64)
!85 = !DIImportedEntity(tag: DW_TAG_imported_declaration, scope: !5, entity: !86, file: !15, line: 149)
!86 = !DISubprogram(name: "labs", scope: !7, file: !7, line: 841, type: !87, flags: DIFlagPrototyped, spFlags: 0)
!87 = !DISubroutineType(types: !88)
!88 = !{!21, !21}
!89 = !DIImportedEntity(tag: DW_TAG_imported_declaration, scope: !5, entity: !90, file: !15, line: 150)
!90 = !DISubprogram(name: "ldiv", scope: !7, file: !7, line: 854, type: !91, flags: DIFlagPrototyped, spFlags: 0)
!91 = !DISubroutineType(types: !92)
!92 = !{!17, !21, !21}
!93 = !DIImportedEntity(tag: DW_TAG_imported_declaration, scope: !5, entity: !94, file: !15, line: 151)
!94 = !DISubprogram(name: "malloc", scope: !7, file: !7, line: 539, type: !95, flags: DIFlagPrototyped, spFlags: 0)
!95 = !DISubroutineType(types: !96)
!96 = !{!54, !57}
!97 = !DIImportedEntity(tag: DW_TAG_imported_declaration, scope: !5, entity: !98, file: !15, line: 153)
!98 = !DISubprogram(name: "mblen", scope: !7, file: !7, line: 922, type: !99, flags: DIFlagPrototyped, spFlags: 0)
!99 = !DISubroutineType(types: !100)
!100 = !{!10, !39, !57}
!101 = !DIImportedEntity(tag: DW_TAG_imported_declaration, scope: !5, entity: !102, file: !15, line: 154)
!102 = !DISubprogram(name: "mbstowcs", scope: !7, file: !7, line: 933, type: !103, flags: DIFlagPrototyped, spFlags: 0)
!103 = !DISubroutineType(types: !104)
!104 = !{!57, !105, !108, !57}
!105 = !DIDerivedType(tag: DW_TAG_restrict_type, baseType: !106)
!106 = !DIDerivedType(tag: DW_TAG_pointer_type, baseType: !107, size: 64)
!107 = !DIBasicType(name: "wchar_t", size: 32, encoding: DW_ATE_signed)
!108 = !DIDerivedType(tag: DW_TAG_restrict_type, baseType: !39)
!109 = !DIImportedEntity(tag: DW_TAG_imported_declaration, scope: !5, entity: !110, file: !15, line: 155)
!110 = !DISubprogram(name: "mbtowc", scope: !7, file: !7, line: 925, type: !111, flags: DIFlagPrototyped, spFlags: 0)
!111 = !DISubroutineType(types: !112)
!112 = !{!10, !105, !108, !57}
!113 = !DIImportedEntity(tag: DW_TAG_imported_declaration, scope: !5, entity: !114, file: !15, line: 157)
!114 = !DISubprogram(name: "qsort", scope: !7, file: !7, line: 830, type: !115, flags: DIFlagPrototyped, spFlags: 0)
!115 = !DISubroutineType(types: !116)
!116 = !{null, !54, !57, !57, !60}
!117 = !DIImportedEntity(tag: DW_TAG_imported_declaration, scope: !5, entity: !118, file: !15, line: 160)
!118 = !DISubprogram(name: "quick_exit", scope: !7, file: !7, line: 623, type: !74, flags: DIFlagPrototyped | DIFlagNoReturn, spFlags: 0)
!119 = !DIImportedEntity(tag: DW_TAG_imported_declaration, scope: !5, entity: !120, file: !15, line: 163)
!120 = !DISubprogram(name: "rand", scope: !7, file: !7, line: 453, type: !121, flags: DIFlagPrototyped, spFlags: 0)
!121 = !DISubroutineType(types: !122)
!122 = !{!10}
!123 = !DIImportedEntity(tag: DW_TAG_imported_declaration, scope: !5, entity: !124, file: !15, line: 164)
!124 = !DISubprogram(name: "realloc", scope: !7, file: !7, line: 550, type: !125, flags: DIFlagPrototyped, spFlags: 0)
!125 = !DISubroutineType(types: !126)
!126 = !{!54, !54, !57}
!127 = !DIImportedEntity(tag: DW_TAG_imported_declaration, scope: !5, entity: !128, file: !15, line: 165)
!128 = !DISubprogram(name: "srand", scope: !7, file: !7, line: 455, type: !129, flags: DIFlagPrototyped, spFlags: 0)
!129 = !DISubroutineType(types: !130)
!130 = !{null, !131}
!131 = !DIBasicType(name: "unsigned int", size: 32, encoding: DW_ATE_unsigned)
!132 = !DIImportedEntity(tag: DW_TAG_imported_declaration, scope: !5, entity: !133, file: !15, line: 166)
!133 = !DISubprogram(name: "strtod", scope: !7, file: !7, line: 117, type: !134, flags: DIFlagPrototyped, spFlags: 0)
!134 = !DISubroutineType(types: !135)
!135 = !{!38, !108, !136}
!136 = !DIDerivedType(tag: DW_TAG_restrict_type, baseType: !137)
!137 = !DIDerivedType(tag: DW_TAG_pointer_type, baseType: !84, size: 64)
!138 = !DIImportedEntity(tag: DW_TAG_imported_declaration, scope: !5, entity: !139, file: !15, line: 167)
!139 = !DISubprogram(name: "strtol", scope: !7, file: !7, line: 176, type: !140, flags: DIFlagPrototyped, spFlags: 0)
!140 = !DISubroutineType(types: !141)
!141 = !{!21, !108, !136, !10}
!142 = !DIImportedEntity(tag: DW_TAG_imported_declaration, scope: !5, entity: !143, file: !15, line: 168)
!143 = !DISubprogram(name: "strtoul", scope: !7, file: !7, line: 180, type: !144, flags: DIFlagPrototyped, spFlags: 0)
!144 = !DISubroutineType(types: !145)
!145 = !{!59, !108, !136, !10}
!146 = !DIImportedEntity(tag: DW_TAG_imported_declaration, scope: !5, entity: !147, file: !15, line: 169)
!147 = !DISubprogram(name: "system", scope: !7, file: !7, line: 784, type: !44, flags: DIFlagPrototyped, spFlags: 0)
!148 = !DIImportedEntity(tag: DW_TAG_imported_declaration, scope: !5, entity: !149, file: !15, line: 171)
!149 = !DISubprogram(name: "wcstombs", scope: !7, file: !7, line: 936, type: !150, flags: DIFlagPrototyped, spFlags: 0)
!150 = !DISubroutineType(types: !151)
!151 = !{!57, !152, !153, !57}
!152 = !DIDerivedType(tag: DW_TAG_restrict_type, baseType: !84)
!153 = !DIDerivedType(tag: DW_TAG_restrict_type, baseType: !154)
!154 = !DIDerivedType(tag: DW_TAG_pointer_type, baseType: !155, size: 64)
!155 = !DIDerivedType(tag: DW_TAG_const_type, baseType: !107)
!156 = !DIImportedEntity(tag: DW_TAG_imported_declaration, scope: !5, entity: !157, file: !15, line: 172)
!157 = !DISubprogram(name: "wctomb", scope: !7, file: !7, line: 929, type: !158, flags: DIFlagPrototyped, spFlags: 0)
!158 = !DISubroutineType(types: !159)
!159 = !{!10, !84, !107}
!160 = !DIImportedEntity(tag: DW_TAG_imported_declaration, scope: !161, entity: !162, file: !15, line: 200)
!161 = !DINamespace(name: "__gnu_cxx", scope: null)
!162 = !DIDerivedType(tag: DW_TAG_typedef, name: "lldiv_t", file: !7, line: 80, baseType: !163)
!163 = distinct !DICompositeType(tag: DW_TAG_structure_type, file: !7, line: 76, size: 128, flags: DIFlagTypePassByValue, elements: !164, identifier: "_ZTS7lldiv_t")
!164 = !{!165, !167}
!165 = !DIDerivedType(tag: DW_TAG_member, name: "quot", scope: !163, file: !7, line: 78, baseType: !166, size: 64)
!166 = !DIBasicType(name: "long long int", size: 64, encoding: DW_ATE_signed)
!167 = !DIDerivedType(tag: DW_TAG_member, name: "rem", scope: !163, file: !7, line: 79, baseType: !166, size: 64, offset: 64)
!168 = !DIImportedEntity(tag: DW_TAG_imported_declaration, scope: !161, entity: !169, file: !15, line: 206)
!169 = !DISubprogram(name: "_Exit", scope: !7, file: !7, line: 629, type: !74, flags: DIFlagPrototyped | DIFlagNoReturn, spFlags: 0)
!170 = !DIImportedEntity(tag: DW_TAG_imported_declaration, scope: !161, entity: !171, file: !15, line: 210)
!171 = !DISubprogram(name: "llabs", scope: !7, file: !7, line: 844, type: !172, flags: DIFlagPrototyped, spFlags: 0)
!172 = !DISubroutineType(types: !173)
!173 = !{!166, !166}
!174 = !DIImportedEntity(tag: DW_TAG_imported_declaration, scope: !161, entity: !175, file: !15, line: 216)
!175 = !DISubprogram(name: "lldiv", scope: !7, file: !7, line: 858, type: !176, flags: DIFlagPrototyped, spFlags: 0)
!176 = !DISubroutineType(types: !177)
!177 = !{!162, !166, !166}
!178 = !DIImportedEntity(tag: DW_TAG_imported_declaration, scope: !161, entity: !179, file: !15, line: 227)
!179 = !DISubprogram(name: "atoll", scope: !7, file: !7, line: 112, type: !180, flags: DIFlagPrototyped, spFlags: 0)
!180 = !DISubroutineType(types: !181)
!181 = !{!166, !39}
!182 = !DIImportedEntity(tag: DW_TAG_imported_declaration, scope: !161, entity: !183, file: !15, line: 228)
!183 = !DISubprogram(name: "strtoll", scope: !7, file: !7, line: 200, type: !184, flags: DIFlagPrototyped, spFlags: 0)
!184 = !DISubroutineType(types: !185)
!185 = !{!166, !108, !136, !10}
!186 = !DIImportedEntity(tag: DW_TAG_imported_declaration, scope: !161, entity: !187, file: !15, line: 229)
!187 = !DISubprogram(name: "strtoull", scope: !7, file: !7, line: 205, type: !188, flags: DIFlagPrototyped, spFlags: 0)
!188 = !DISubroutineType(types: !189)
!189 = !{!190, !108, !136, !10}
!190 = !DIBasicType(name: "long long unsigned int", size: 64, encoding: DW_ATE_unsigned)
!191 = !DIImportedEntity(tag: DW_TAG_imported_declaration, scope: !161, entity: !192, file: !15, line: 231)
!192 = !DISubprogram(name: "strtof", scope: !7, file: !7, line: 123, type: !193, flags: DIFlagPrototyped, spFlags: 0)
!193 = !DISubroutineType(types: !194)
!194 = !{!195, !108, !136}
!195 = !DIBasicType(name: "float", size: 32, encoding: DW_ATE_float)
!196 = !DIImportedEntity(tag: DW_TAG_imported_declaration, scope: !161, entity: !197, file: !15, line: 232)
!197 = !DISubprogram(name: "strtold", scope: !7, file: !7, line: 126, type: !198, flags: DIFlagPrototyped, spFlags: 0)
!198 = !DISubroutineType(types: !199)
!199 = !{!200, !108, !136}
!200 = !DIBasicType(name: "long double", size: 128, encoding: DW_ATE_float)
!201 = !DIImportedEntity(tag: DW_TAG_imported_declaration, scope: !5, entity: !162, file: !15, line: 240)
!202 = !DIImportedEntity(tag: DW_TAG_imported_declaration, scope: !5, entity: !169, file: !15, line: 242)
!203 = !DIImportedEntity(tag: DW_TAG_imported_declaration, scope: !5, entity: !171, file: !15, line: 244)
!204 = !DIImportedEntity(tag: DW_TAG_imported_declaration, scope: !5, entity: !205, file: !15, line: 245)
!205 = !DISubprogram(name: "div", linkageName: "_ZN9__gnu_cxx3divExx", scope: !161, file: !15, line: 213, type: !176, flags: DIFlagPrototyped, spFlags: 0)
!206 = !DIImportedEntity(tag: DW_TAG_imported_declaration, scope: !5, entity: !175, file: !15, line: 246)
!207 = !DIImportedEntity(tag: DW_TAG_imported_declaration, scope: !5, entity: !179, file: !15, line: 248)
!208 = !DIImportedEntity(tag: DW_TAG_imported_declaration, scope: !5, entity: !192, file: !15, line: 249)
!209 = !DIImportedEntity(tag: DW_TAG_imported_declaration, scope: !5, entity: !183, file: !15, line: 250)
!210 = !DIImportedEntity(tag: DW_TAG_imported_declaration, scope: !5, entity: !187, file: !15, line: 251)
!211 = !DIImportedEntity(tag: DW_TAG_imported_declaration, scope: !5, entity: !197, file: !15, line: 252)
!212 = !DIImportedEntity(tag: DW_TAG_imported_declaration, scope: !0, entity: !24, file: !213, line: 38)
!213 = !DIFile(filename: "/usr/lib/gcc/x86_64-linux-gnu/10/../../../../include/c++/10/stdlib.h", directory: "")
!214 = !DIImportedEntity(tag: DW_TAG_imported_declaration, scope: !0, entity: !28, file: !213, line: 39)
!215 = !DIImportedEntity(tag: DW_TAG_imported_declaration, scope: !0, entity: !73, file: !213, line: 40)
!216 = !DIImportedEntity(tag: DW_TAG_imported_declaration, scope: !0, entity: !33, file: !213, line: 43)
!217 = !DIImportedEntity(tag: DW_TAG_imported_declaration, scope: !0, entity: !118, file: !213, line: 46)
!218 = !DIImportedEntity(tag: DW_TAG_imported_declaration, scope: !0, entity: !13, file: !213, line: 51)
!219 = !DIImportedEntity(tag: DW_TAG_imported_declaration, scope: !0, entity: !17, file: !213, line: 52)
!220 = !DIImportedEntity(tag: DW_TAG_imported_declaration, scope: !0, entity: !221, file: !213, line: 54)
!221 = !DISubprogram(name: "abs", linkageName: "_ZSt3absg", scope: !5, file: !11, line: 103, type: !222, flags: DIFlagPrototyped, spFlags: 0)
!222 = !DISubroutineType(types: !223)
!223 = !{!224, !224}
!224 = !DIBasicType(name: "__float128", size: 128, encoding: DW_ATE_float)
!225 = !DIImportedEntity(tag: DW_TAG_imported_declaration, scope: !0, entity: !35, file: !213, line: 55)
!226 = !DIImportedEntity(tag: DW_TAG_imported_declaration, scope: !0, entity: !43, file: !213, line: 56)
!227 = !DIImportedEntity(tag: DW_TAG_imported_declaration, scope: !0, entity: !47, file: !213, line: 57)
!228 = !DIImportedEntity(tag: DW_TAG_imported_declaration, scope: !0, entity: !51, file: !213, line: 58)
!229 = !DIImportedEntity(tag: DW_TAG_imported_declaration, scope: !0, entity: !65, file: !213, line: 59)
!230 = !DIImportedEntity(tag: DW_TAG_imported_declaration, scope: !0, entity: !205, file: !213, line: 60)
!231 = !DIImportedEntity(tag: DW_TAG_imported_declaration, scope: !0, entity: !77, file: !213, line: 61)
!232 = !DIImportedEntity(tag: DW_TAG_imported_declaration, scope: !0, entity: !81, file: !213, line: 62)
!233 = !DIImportedEntity(tag: DW_TAG_imported_declaration, scope: !0, entity: !86, file: !213, line: 63)
!234 = !DIImportedEntity(tag: DW_TAG_imported_declaration, scope: !0, entity: !90, file: !213, line: 64)
!235 = !DIImportedEntity(tag: DW_TAG_imported_declaration, scope: !0, entity: !94, file: !213, line: 65)
!236 = !DIImportedEntity(tag: DW_TAG_imported_declaration, scope: !0, entity: !98, file: !213, line: 67)
!237 = !DIImportedEntity(tag: DW_TAG_imported_declaration, scope: !0, entity: !102, file: !213, line: 68)
!238 = !DIImportedEntity(tag: DW_TAG_imported_declaration, scope: !0, entity: !110, file: !213, line: 69)
!239 = !DIImportedEntity(tag: DW_TAG_imported_declaration, scope: !0, entity: !114, file: !213, line: 71)
!240 = !DIImportedEntity(tag: DW_TAG_imported_declaration, scope: !0, entity: !120, file: !213, line: 72)
!241 = !DIImportedEntity(tag: DW_TAG_imported_declaration, scope: !0, entity: !124, file: !213, line: 73)
!242 = !DIImportedEntity(tag: DW_TAG_imported_declaration, scope: !0, entity: !128, file: !213, line: 74)
!243 = !DIImportedEntity(tag: DW_TAG_imported_declaration, scope: !0, entity: !133, file: !213, line: 75)
!244 = !DIImportedEntity(tag: DW_TAG_imported_declaration, scope: !0, entity: !139, file: !213, line: 76)
!245 = !DIImportedEntity(tag: DW_TAG_imported_declaration, scope: !0, entity: !143, file: !213, line: 77)
!246 = !DIImportedEntity(tag: DW_TAG_imported_declaration, scope: !0, entity: !147, file: !213, line: 78)
!247 = !DIImportedEntity(tag: DW_TAG_imported_declaration, scope: !0, entity: !149, file: !213, line: 80)
!248 = !DIImportedEntity(tag: DW_TAG_imported_declaration, scope: !0, entity: !157, file: !213, line: 81)
!249 = !{i32 7, !"Dwarf Version", i32 4}
!250 = !{i32 2, !"Debug Info Version", i32 3}
!251 = !{i32 1, !"wchar_size", i32 4}
!252 = !{!"clang version 10.0.1 (https://github.com/svkeerthy/IR2Vec-LoopOptimizationFramework.git 561ac470e63b728263a0ac06ef987886ac648486)"}
!253 = distinct !DISubprogram(name: "is_draw", linkageName: "_Z7is_drawP11gamestate_tP7state_t", scope: !1, file: !1, line: 15, type: !254, scopeLine: 15, flags: DIFlagPrototyped, spFlags: DISPFlagDefinition, unit: !0, retainedNodes: !2)
!254 = !DISubroutineType(types: !255)
!255 = !{!10, !256, !302}
!256 = !DIDerivedType(tag: DW_TAG_pointer_type, baseType: !257, size: 64)
!257 = distinct !DICompositeType(tag: DW_TAG_structure_type, name: "gamestate_t", file: !258, line: 72, size: 288832, flags: DIFlagTypePassByValue, elements: !259, identifier: "_ZTS11gamestate_t")
!258 = !DIFile(filename: "./state.h", directory: "/home/venkat/IF-DV/spec_build_release/CPU_2017/benchspec/CPU/531.deepsjeng_r/build/build_base_ld-loop-ext-m64.0000")
!259 = !{!260, !261, !262, !263, !264, !265, !266, !267, !268, !269, !270, !271, !272, !273, !274, !275, !276, !282, !293, !294, !295, !296, !297, !298, !299, !300, !301}
!260 = !DIDerivedType(tag: DW_TAG_member, name: "cur_score", scope: !257, file: !258, line: 73, baseType: !10, size: 32)
!261 = !DIDerivedType(tag: DW_TAG_member, name: "phase", scope: !257, file: !258, line: 74, baseType: !10, size: 32, offset: 32)
!262 = !DIDerivedType(tag: DW_TAG_member, name: "root_to_move", scope: !257, file: !258, line: 75, baseType: !10, size: 32, offset: 64)
!263 = !DIDerivedType(tag: DW_TAG_member, name: "comp_color", scope: !257, file: !258, line: 76, baseType: !10, size: 32, offset: 96)
!264 = !DIDerivedType(tag: DW_TAG_member, name: "result", scope: !257, file: !258, line: 76, baseType: !10, size: 32, offset: 128)
!265 = !DIDerivedType(tag: DW_TAG_member, name: "i_depth", scope: !257, file: !258, line: 76, baseType: !10, size: 32, offset: 160)
!266 = !DIDerivedType(tag: DW_TAG_member, name: "moves_to_tc", scope: !257, file: !258, line: 77, baseType: !10, size: 32, offset: 192)
!267 = !DIDerivedType(tag: DW_TAG_member, name: "min_per_game", scope: !257, file: !258, line: 77, baseType: !10, size: 32, offset: 224)
!268 = !DIDerivedType(tag: DW_TAG_member, name: "sec_per_game", scope: !257, file: !258, line: 77, baseType: !10, size: 32, offset: 256)
!269 = !DIDerivedType(tag: DW_TAG_member, name: "inc", scope: !257, file: !258, line: 77, baseType: !10, size: 32, offset: 288)
!270 = !DIDerivedType(tag: DW_TAG_member, name: "time_left", scope: !257, file: !258, line: 78, baseType: !10, size: 32, offset: 320)
!271 = !DIDerivedType(tag: DW_TAG_member, name: "opp_time", scope: !257, file: !258, line: 78, baseType: !10, size: 32, offset: 352)
!272 = !DIDerivedType(tag: DW_TAG_member, name: "time_for_move", scope: !257, file: !258, line: 78, baseType: !10, size: 32, offset: 384)
!273 = !DIDerivedType(tag: DW_TAG_member, name: "fixed_time", scope: !257, file: !258, line: 79, baseType: !10, size: 32, offset: 416)
!274 = !DIDerivedType(tag: DW_TAG_member, name: "maxdepth", scope: !257, file: !258, line: 80, baseType: !10, size: 32, offset: 448)
!275 = !DIDerivedType(tag: DW_TAG_member, name: "move_number", scope: !257, file: !258, line: 82, baseType: !10, size: 32, offset: 480)
!276 = !DIDerivedType(tag: DW_TAG_member, name: "game_history", scope: !257, file: !258, line: 83, baseType: !277, size: 32000, offset: 512)
!277 = !DICompositeType(tag: DW_TAG_array_type, baseType: !278, size: 32000, elements: !280)
!278 = !DIDerivedType(tag: DW_TAG_typedef, name: "move_s", file: !279, line: 121, baseType: !10)
!279 = !DIFile(filename: "./sjeng.h", directory: "/home/venkat/IF-DV/spec_build_release/CPU_2017/benchspec/CPU/531.deepsjeng_r/build/build_base_ld-loop-ext-m64.0000")
!280 = !{!281}
!281 = !DISubrange(count: 1000)
!282 = !DIDerivedType(tag: DW_TAG_member, name: "game_history_x", scope: !257, file: !258, line: 84, baseType: !283, size: 256000, offset: 32512)
!283 = !DICompositeType(tag: DW_TAG_array_type, baseType: !284, size: 256000, elements: !280)
!284 = distinct !DICompositeType(tag: DW_TAG_structure_type, name: "move_x", file: !279, line: 130, size: 256, flags: DIFlagTypePassByValue, elements: !285, identifier: "_ZTS6move_x")
!285 = !{!286, !287, !288, !289, !290, !292}
!286 = !DIDerivedType(tag: DW_TAG_member, name: "epsq", scope: !284, file: !279, line: 131, baseType: !10, size: 32)
!287 = !DIDerivedType(tag: DW_TAG_member, name: "fifty", scope: !284, file: !279, line: 132, baseType: !10, size: 32, offset: 32)
!288 = !DIDerivedType(tag: DW_TAG_member, name: "castleflag", scope: !284, file: !279, line: 133, baseType: !10, size: 32, offset: 64)
!289 = !DIDerivedType(tag: DW_TAG_member, name: "psq_score", scope: !284, file: !279, line: 134, baseType: !10, size: 32, offset: 96)
!290 = !DIDerivedType(tag: DW_TAG_member, name: "hash", scope: !284, file: !279, line: 135, baseType: !291, size: 64, offset: 128)
!291 = !DIDerivedType(tag: DW_TAG_typedef, name: "BITBOARD", file: !279, line: 33, baseType: !190)
!292 = !DIDerivedType(tag: DW_TAG_member, name: "pawnhash", scope: !284, file: !279, line: 136, baseType: !291, size: 64, offset: 192)
!293 = !DIDerivedType(tag: DW_TAG_member, name: "pvnodecount", scope: !257, file: !258, line: 85, baseType: !291, size: 64, offset: 288512)
!294 = !DIDerivedType(tag: DW_TAG_member, name: "start_time", scope: !257, file: !258, line: 86, baseType: !10, size: 32, offset: 288576)
!295 = !DIDerivedType(tag: DW_TAG_member, name: "pv_best", scope: !257, file: !258, line: 88, baseType: !131, size: 32, offset: 288608)
!296 = !DIDerivedType(tag: DW_TAG_member, name: "legals", scope: !257, file: !258, line: 89, baseType: !10, size: 32, offset: 288640)
!297 = !DIDerivedType(tag: DW_TAG_member, name: "failed", scope: !257, file: !258, line: 90, baseType: !10, size: 32, offset: 288672)
!298 = !DIDerivedType(tag: DW_TAG_member, name: "failedhigh", scope: !257, file: !258, line: 91, baseType: !10, size: 32, offset: 288704)
!299 = !DIDerivedType(tag: DW_TAG_member, name: "extendedtime", scope: !257, file: !258, line: 92, baseType: !10, size: 32, offset: 288736)
!300 = !DIDerivedType(tag: DW_TAG_member, name: "time_exit", scope: !257, file: !258, line: 93, baseType: !10, size: 32, offset: 288768)
!301 = !DIDerivedType(tag: DW_TAG_member, name: "time_failure", scope: !257, file: !258, line: 93, baseType: !10, size: 32, offset: 288800)
!302 = !DIDerivedType(tag: DW_TAG_pointer_type, baseType: !303, size: 64)
!303 = distinct !DICompositeType(tag: DW_TAG_structure_type, name: "state_t", file: !258, line: 11, size: 99200, flags: DIFlagTypePassByValue, elements: !304, identifier: "_ZTS7state_t")
!304 = !{!305, !306, !310, !311, !312, !313, !317, !318, !319, !321, !322, !323, !324, !325, !326, !327, !328, !329, !330, !332, !334, !335, !343, !344, !345, !346, !347, !348, !349, !350, !351, !352, !353, !354, !355, !356, !357}
!305 = !DIDerivedType(tag: DW_TAG_member, name: "threadid", scope: !303, file: !258, line: 13, baseType: !10, size: 32)
!306 = !DIDerivedType(tag: DW_TAG_member, name: "sboard", scope: !303, file: !258, line: 15, baseType: !307, size: 2048, offset: 32)
!307 = !DICompositeType(tag: DW_TAG_array_type, baseType: !10, size: 2048, elements: !308)
!308 = !{!309}
!309 = !DISubrange(count: 64)
!310 = !DIDerivedType(tag: DW_TAG_member, name: "All", scope: !303, file: !258, line: 16, baseType: !291, size: 64, offset: 2112)
!311 = !DIDerivedType(tag: DW_TAG_member, name: "BlackPieces", scope: !303, file: !258, line: 17, baseType: !291, size: 64, offset: 2176)
!312 = !DIDerivedType(tag: DW_TAG_member, name: "WhitePieces", scope: !303, file: !258, line: 17, baseType: !291, size: 64, offset: 2240)
!313 = !DIDerivedType(tag: DW_TAG_member, name: "BitBoard", scope: !303, file: !258, line: 18, baseType: !314, size: 832, offset: 2304)
!314 = !DICompositeType(tag: DW_TAG_array_type, baseType: !291, size: 832, elements: !315)
!315 = !{!316}
!316 = !DISubrange(count: 13)
!317 = !DIDerivedType(tag: DW_TAG_member, name: "Material", scope: !303, file: !258, line: 20, baseType: !10, size: 32, offset: 3136)
!318 = !DIDerivedType(tag: DW_TAG_member, name: "psq_score", scope: !303, file: !258, line: 21, baseType: !10, size: 32, offset: 3168)
!319 = !DIDerivedType(tag: DW_TAG_member, name: "npieces", scope: !303, file: !258, line: 22, baseType: !320, size: 416, offset: 3200)
!320 = !DICompositeType(tag: DW_TAG_array_type, baseType: !10, size: 416, elements: !315)
!321 = !DIDerivedType(tag: DW_TAG_member, name: "castleflag", scope: !303, file: !258, line: 23, baseType: !10, size: 32, offset: 3616)
!322 = !DIDerivedType(tag: DW_TAG_member, name: "ep_square", scope: !303, file: !258, line: 25, baseType: !10, size: 32, offset: 3648)
!323 = !DIDerivedType(tag: DW_TAG_member, name: "white_to_move", scope: !303, file: !258, line: 25, baseType: !10, size: 32, offset: 3680)
!324 = !DIDerivedType(tag: DW_TAG_member, name: "wking_loc", scope: !303, file: !258, line: 25, baseType: !10, size: 32, offset: 3712)
!325 = !DIDerivedType(tag: DW_TAG_member, name: "bking_loc", scope: !303, file: !258, line: 25, baseType: !10, size: 32, offset: 3744)
!326 = !DIDerivedType(tag: DW_TAG_member, name: "ply", scope: !303, file: !258, line: 26, baseType: !10, size: 32, offset: 3776)
!327 = !DIDerivedType(tag: DW_TAG_member, name: "fifty", scope: !303, file: !258, line: 26, baseType: !10, size: 32, offset: 3808)
!328 = !DIDerivedType(tag: DW_TAG_member, name: "hash", scope: !303, file: !258, line: 28, baseType: !291, size: 64, offset: 3840)
!329 = !DIDerivedType(tag: DW_TAG_member, name: "pawnhash", scope: !303, file: !258, line: 29, baseType: !291, size: 64, offset: 3904)
!330 = !DIDerivedType(tag: DW_TAG_member, name: "path_x", scope: !303, file: !258, line: 31, baseType: !331, size: 16384, offset: 3968)
!331 = !DICompositeType(tag: DW_TAG_array_type, baseType: !284, size: 16384, elements: !308)
!332 = !DIDerivedType(tag: DW_TAG_member, name: "path", scope: !303, file: !258, line: 32, baseType: !333, size: 2048, offset: 20352)
!333 = !DICompositeType(tag: DW_TAG_array_type, baseType: !278, size: 2048, elements: !308)
!334 = !DIDerivedType(tag: DW_TAG_member, name: "plyeval", scope: !303, file: !258, line: 33, baseType: !307, size: 2048, offset: 22400)
!335 = !DIDerivedType(tag: DW_TAG_member, name: "killerstack", scope: !303, file: !258, line: 41, baseType: !336, size: 8192, offset: 24448)
!336 = !DICompositeType(tag: DW_TAG_array_type, baseType: !337, size: 8192, elements: !308)
!337 = distinct !DICompositeType(tag: DW_TAG_structure_type, scope: !303, file: !258, line: 36, size: 128, flags: DIFlagTypePassByValue, elements: !338, identifier: "_ZTSN7state_tUt_E")
!338 = !{!339, !340, !341, !342}
!339 = !DIDerivedType(tag: DW_TAG_member, name: "killer1", scope: !337, file: !258, line: 37, baseType: !278, size: 32)
!340 = !DIDerivedType(tag: DW_TAG_member, name: "killer2", scope: !337, file: !258, line: 38, baseType: !278, size: 32, offset: 32)
!341 = !DIDerivedType(tag: DW_TAG_member, name: "killer3", scope: !337, file: !258, line: 39, baseType: !278, size: 32, offset: 64)
!342 = !DIDerivedType(tag: DW_TAG_member, name: "killer4", scope: !337, file: !258, line: 40, baseType: !278, size: 32, offset: 96)
!343 = !DIDerivedType(tag: DW_TAG_member, name: "nodes", scope: !303, file: !258, line: 43, baseType: !291, size: 64, offset: 32640)
!344 = !DIDerivedType(tag: DW_TAG_member, name: "qnodes", scope: !303, file: !258, line: 43, baseType: !291, size: 64, offset: 32704)
!345 = !DIDerivedType(tag: DW_TAG_member, name: "maxply", scope: !303, file: !258, line: 44, baseType: !10, size: 32, offset: 32768)
!346 = !DIDerivedType(tag: DW_TAG_member, name: "checks", scope: !303, file: !258, line: 45, baseType: !307, size: 2048, offset: 32800)
!347 = !DIDerivedType(tag: DW_TAG_member, name: "TTProbes", scope: !303, file: !258, line: 51, baseType: !131, size: 32, offset: 34848)
!348 = !DIDerivedType(tag: DW_TAG_member, name: "TTHits", scope: !303, file: !258, line: 52, baseType: !131, size: 32, offset: 34880)
!349 = !DIDerivedType(tag: DW_TAG_member, name: "TTStores", scope: !303, file: !258, line: 53, baseType: !131, size: 32, offset: 34912)
!350 = !DIDerivedType(tag: DW_TAG_member, name: "TTColls", scope: !303, file: !258, line: 54, baseType: !131, size: 32, offset: 34944)
!351 = !DIDerivedType(tag: DW_TAG_member, name: "wking_start", scope: !303, file: !258, line: 60, baseType: !10, size: 32, offset: 34976)
!352 = !DIDerivedType(tag: DW_TAG_member, name: "bking_start", scope: !303, file: !258, line: 61, baseType: !10, size: 32, offset: 35008)
!353 = !DIDerivedType(tag: DW_TAG_member, name: "wlrook_start", scope: !303, file: !258, line: 62, baseType: !10, size: 32, offset: 35040)
!354 = !DIDerivedType(tag: DW_TAG_member, name: "wrrook_start", scope: !303, file: !258, line: 63, baseType: !10, size: 32, offset: 35072)
!355 = !DIDerivedType(tag: DW_TAG_member, name: "blrook_start", scope: !303, file: !258, line: 64, baseType: !10, size: 32, offset: 35104)
!356 = !DIDerivedType(tag: DW_TAG_member, name: "brrook_start", scope: !303, file: !258, line: 65, baseType: !10, size: 32, offset: 35136)
!357 = !DIDerivedType(tag: DW_TAG_member, name: "hash_history", scope: !303, file: !258, line: 69, baseType: !358, size: 64000, offset: 35200)
!358 = !DICompositeType(tag: DW_TAG_array_type, baseType: !291, size: 64000, elements: !280)
!359 = !DILocalVariable(name: "g", arg: 1, scope: !253, file: !1, line: 15, type: !256)
!360 = !DILocation(line: 15, column: 27, scope: !253)
!361 = !DILocalVariable(name: "s", arg: 2, scope: !253, file: !1, line: 15, type: !302)
!362 = !DILocation(line: 15, column: 39, scope: !253)
!363 = !DILocalVariable(name: "i", scope: !253, file: !1, line: 16, type: !10)
!364 = !DILocation(line: 16, column: 9, scope: !253)
!365 = !DILocalVariable(name: "repeats", scope: !253, file: !1, line: 16, type: !10)
!366 = !DILocation(line: 16, column: 12, scope: !253)
!367 = !DILocalVariable(name: "end", scope: !253, file: !1, line: 16, type: !10)
!368 = !DILocation(line: 16, column: 21, scope: !253)
!369 = !DILocalVariable(name: "start", scope: !253, file: !1, line: 16, type: !10)
!370 = !DILocation(line: 16, column: 26, scope: !253)
!371 = !DILocation(line: 19, column: 9, scope: !372)
!372 = distinct !DILexicalBlock(scope: !253, file: !1, line: 19, column: 9)
!373 = !DILocation(line: 19, column: 12, scope: !372)
!374 = !DILocation(line: 19, column: 18, scope: !372)
!375 = !DILocation(line: 19, column: 23, scope: !372)
!376 = !DILocation(line: 19, column: 26, scope: !372)
!377 = !DILocation(line: 19, column: 29, scope: !372)
!378 = !DILocation(line: 19, column: 33, scope: !372)
!379 = !DILocation(line: 19, column: 9, scope: !253)
!380 = !DILocation(line: 21, column: 15, scope: !381)
!381 = distinct !DILexicalBlock(scope: !372, file: !1, line: 19, column: 38)
!382 = !DILocation(line: 21, column: 18, scope: !381)
!383 = !DILocation(line: 21, column: 32, scope: !381)
!384 = !DILocation(line: 21, column: 35, scope: !381)
!385 = !DILocation(line: 21, column: 30, scope: !381)
!386 = !DILocation(line: 21, column: 39, scope: !381)
!387 = !DILocation(line: 21, column: 45, scope: !381)
!388 = !DILocation(line: 21, column: 48, scope: !381)
!389 = !DILocation(line: 21, column: 43, scope: !381)
!390 = !DILocation(line: 21, column: 13, scope: !381)
!391 = !DILocation(line: 23, column: 19, scope: !392)
!392 = distinct !DILexicalBlock(scope: !381, file: !1, line: 23, column: 9)
!393 = !DILocation(line: 23, column: 22, scope: !392)
!394 = !DILocation(line: 23, column: 36, scope: !392)
!395 = !DILocation(line: 23, column: 39, scope: !392)
!396 = !DILocation(line: 23, column: 34, scope: !392)
!397 = !DILocation(line: 23, column: 43, scope: !392)
!398 = !DILocation(line: 23, column: 16, scope: !392)
!399 = !DILocation(line: 23, column: 14, scope: !392)
!400 = !DILocation(line: 23, column: 49, scope: !401)
!401 = distinct !DILexicalBlock(scope: !392, file: !1, line: 23, column: 9)
!402 = !DILocation(line: 23, column: 51, scope: !401)
!403 = !DILocation(line: 23, column: 56, scope: !401)
!404 = !DILocation(line: 23, column: 59, scope: !401)
!405 = !DILocation(line: 23, column: 64, scope: !401)
!406 = !DILocation(line: 23, column: 61, scope: !401)
!407 = !DILocation(line: 0, scope: !401)
!408 = !DILocation(line: 23, column: 9, scope: !392)
!409 = !DILocation(line: 24, column: 17, scope: !410)
!410 = distinct !DILexicalBlock(scope: !411, file: !1, line: 24, column: 17)
!411 = distinct !DILexicalBlock(scope: !401, file: !1, line: 23, column: 77)
!412 = !DILocation(line: 24, column: 20, scope: !410)
!413 = !DILocation(line: 24, column: 28, scope: !410)
!414 = !DILocation(line: 24, column: 31, scope: !410)
!415 = !DILocation(line: 24, column: 44, scope: !410)
!416 = !DILocation(line: 24, column: 25, scope: !410)
!417 = !DILocation(line: 24, column: 17, scope: !411)
!418 = !DILocation(line: 25, column: 17, scope: !419)
!419 = distinct !DILexicalBlock(scope: !410, file: !1, line: 24, column: 48)
!420 = !DILocation(line: 27, column: 9, scope: !411)
!421 = !DILocation(line: 23, column: 71, scope: !401)
!422 = !DILocation(line: 23, column: 9, scope: !401)
!423 = distinct !{!423, !408, !424}
!424 = !DILocation(line: 27, column: 9, scope: !392)
!425 = !DILocation(line: 28, column: 5, scope: !381)
!426 = !DILocation(line: 31, column: 9, scope: !427)
!427 = distinct !DILexicalBlock(scope: !253, file: !1, line: 31, column: 9)
!428 = !DILocation(line: 31, column: 12, scope: !427)
!429 = !DILocation(line: 31, column: 18, scope: !427)
!430 = !DILocation(line: 31, column: 23, scope: !427)
!431 = !DILocation(line: 31, column: 26, scope: !427)
!432 = !DILocation(line: 31, column: 29, scope: !427)
!433 = !DILocation(line: 31, column: 33, scope: !427)
!434 = !DILocation(line: 31, column: 9, scope: !253)
!435 = !DILocation(line: 32, column: 17, scope: !436)
!436 = distinct !DILexicalBlock(scope: !427, file: !1, line: 31, column: 39)
!437 = !DILocation(line: 32, column: 20, scope: !436)
!438 = !DILocation(line: 32, column: 34, scope: !436)
!439 = !DILocation(line: 32, column: 37, scope: !436)
!440 = !DILocation(line: 32, column: 32, scope: !436)
!441 = !DILocation(line: 32, column: 15, scope: !436)
!442 = !DILocation(line: 33, column: 15, scope: !436)
!443 = !DILocation(line: 33, column: 18, scope: !436)
!444 = !DILocation(line: 33, column: 32, scope: !436)
!445 = !DILocation(line: 33, column: 35, scope: !436)
!446 = !DILocation(line: 33, column: 30, scope: !436)
!447 = !DILocation(line: 33, column: 41, scope: !436)
!448 = !DILocation(line: 33, column: 44, scope: !436)
!449 = !DILocation(line: 33, column: 39, scope: !436)
!450 = !DILocation(line: 33, column: 13, scope: !436)
!451 = !DILocation(line: 35, column: 17, scope: !436)
!452 = !DILocation(line: 37, column: 18, scope: !453)
!453 = distinct !DILexicalBlock(scope: !436, file: !1, line: 37, column: 9)
!454 = !DILocation(line: 37, column: 16, scope: !453)
!455 = !DILocation(line: 37, column: 14, scope: !453)
!456 = !DILocation(line: 37, column: 25, scope: !457)
!457 = distinct !DILexicalBlock(scope: !453, file: !1, line: 37, column: 9)
!458 = !DILocation(line: 37, column: 27, scope: !457)
!459 = !DILocation(line: 37, column: 32, scope: !457)
!460 = !DILocation(line: 37, column: 35, scope: !457)
!461 = !DILocation(line: 37, column: 40, scope: !457)
!462 = !DILocation(line: 37, column: 37, scope: !457)
!463 = !DILocation(line: 0, scope: !457)
!464 = !DILocation(line: 37, column: 9, scope: !453)
!465 = !DILocation(line: 38, column: 17, scope: !466)
!466 = distinct !DILexicalBlock(scope: !467, file: !1, line: 38, column: 17)
!467 = distinct !DILexicalBlock(scope: !457, file: !1, line: 37, column: 51)
!468 = !DILocation(line: 38, column: 20, scope: !466)
!469 = !DILocation(line: 38, column: 28, scope: !466)
!470 = !DILocation(line: 38, column: 31, scope: !466)
!471 = !DILocation(line: 38, column: 44, scope: !466)
!472 = !DILocation(line: 38, column: 25, scope: !466)
!473 = !DILocation(line: 38, column: 17, scope: !467)
!474 = !DILocation(line: 39, column: 24, scope: !475)
!475 = distinct !DILexicalBlock(scope: !466, file: !1, line: 38, column: 48)
!476 = !DILocation(line: 40, column: 21, scope: !477)
!477 = distinct !DILexicalBlock(scope: !475, file: !1, line: 40, column: 21)
!478 = !DILocation(line: 40, column: 29, scope: !477)
!479 = !DILocation(line: 40, column: 21, scope: !475)
!480 = !DILocation(line: 41, column: 21, scope: !481)
!481 = distinct !DILexicalBlock(scope: !477, file: !1, line: 40, column: 35)
!482 = !DILocation(line: 43, column: 13, scope: !475)
!483 = !DILocation(line: 44, column: 9, scope: !467)
!484 = !DILocation(line: 37, column: 46, scope: !457)
!485 = !DILocation(line: 37, column: 9, scope: !457)
!486 = distinct !{!486, !464, !487}
!487 = !DILocation(line: 44, column: 9, scope: !453)
!488 = !DILocation(line: 45, column: 5, scope: !436)
!489 = !DILocation(line: 47, column: 5, scope: !253)
!490 = !DILocation(line: 48, column: 1, scope: !253)
!491 = distinct !DISubprogram(name: "insufficient_material", linkageName: "_Z21insufficient_materialP7state_t", scope: !1, file: !1, line: 50, type: !492, scopeLine: 50, flags: DIFlagPrototyped, spFlags: DISPFlagDefinition, unit: !0, retainedNodes: !2)
!492 = !DISubroutineType(types: !493)
!493 = !{!10, !302}
!494 = !DILocalVariable(name: "s", arg: 1, scope: !491, file: !1, line: 50, type: !302)
!495 = !DILocation(line: 50, column: 36, scope: !491)
!496 = !DILocalVariable(name: "npieces", scope: !491, file: !1, line: 51, type: !497)
!497 = !DIDerivedType(tag: DW_TAG_pointer_type, baseType: !10, size: 64)
!498 = !DILocation(line: 51, column: 10, scope: !491)
!499 = !DILocation(line: 51, column: 20, scope: !491)
!500 = !DILocation(line: 51, column: 23, scope: !491)
!501 = !DILocation(line: 54, column: 10, scope: !502)
!502 = distinct !DILexicalBlock(scope: !491, file: !1, line: 54, column: 9)
!503 = !DILocation(line: 54, column: 25, scope: !502)
!504 = !DILocation(line: 54, column: 29, scope: !502)
!505 = !DILocation(line: 55, column: 9, scope: !502)
!506 = !DILocation(line: 55, column: 13, scope: !502)
!507 = !DILocation(line: 55, column: 28, scope: !502)
!508 = !DILocation(line: 55, column: 32, scope: !502)
!509 = !DILocation(line: 56, column: 9, scope: !502)
!510 = !DILocation(line: 56, column: 13, scope: !502)
!511 = !DILocation(line: 57, column: 9, scope: !502)
!512 = !DILocation(line: 57, column: 13, scope: !502)
!513 = !DILocation(line: 54, column: 9, scope: !491)
!514 = !DILocation(line: 59, column: 15, scope: !515)
!515 = distinct !DILexicalBlock(scope: !516, file: !1, line: 59, column: 13)
!516 = distinct !DILexicalBlock(scope: !502, file: !1, line: 57, column: 31)
!517 = !DILocation(line: 59, column: 32, scope: !515)
!518 = !DILocation(line: 60, column: 13, scope: !515)
!519 = !DILocation(line: 60, column: 17, scope: !515)
!520 = !DILocation(line: 60, column: 34, scope: !515)
!521 = !DILocation(line: 61, column: 13, scope: !515)
!522 = !DILocation(line: 61, column: 17, scope: !515)
!523 = !DILocation(line: 62, column: 13, scope: !515)
!524 = !DILocation(line: 62, column: 17, scope: !515)
!525 = !DILocation(line: 59, column: 13, scope: !516)
!526 = !DILocation(line: 63, column: 13, scope: !527)
!527 = distinct !DILexicalBlock(scope: !515, file: !1, line: 62, column: 35)
!528 = !DILocation(line: 66, column: 14, scope: !529)
!529 = distinct !DILexicalBlock(scope: !516, file: !1, line: 66, column: 13)
!530 = !DILocation(line: 67, column: 13, scope: !529)
!531 = !DILocation(line: 67, column: 17, scope: !529)
!532 = !DILocation(line: 68, column: 13, scope: !529)
!533 = !DILocation(line: 68, column: 17, scope: !529)
!534 = !DILocation(line: 68, column: 34, scope: !529)
!535 = !DILocation(line: 69, column: 13, scope: !529)
!536 = !DILocation(line: 69, column: 16, scope: !529)
!537 = !DILocation(line: 69, column: 33, scope: !529)
!538 = !DILocation(line: 66, column: 13, scope: !516)
!539 = !DILocation(line: 70, column: 13, scope: !540)
!540 = distinct !DILexicalBlock(scope: !529, file: !1, line: 69, column: 40)
!541 = !DILocation(line: 72, column: 5, scope: !516)
!542 = !DILocation(line: 73, column: 5, scope: !491)
!543 = !DILocation(line: 74, column: 1, scope: !491)
