; ModuleID = 'see.cpp'
source_filename = "see.cpp"
target datalayout = "e-m:e-p270:32:32-p271:32:32-p272:64:64-i64:64-f80:128-n8:16:32:64-S128"
target triple = "x86_64-unknown-linux-gnu"

%struct.state_t = type { i32, [64 x i32], i64, i64, i64, [13 x i64], i32, i32, [13 x i32], i32, i32, i32, i32, i32, i32, i32, i64, i64, [64 x %struct.move_x], [64 x i32], [64 x i32], [64 x %struct.anon], i64, i64, i32, [64 x i32], i32, i32, i32, i32, i32, i32, i32, i32, i32, i32, [1000 x i64] }
%struct.move_x = type { i32, i32, i32, i32, i64, i64 }
%struct.anon = type { i32, i32, i32, i32 }

@Mask = external dso_local global [64 x i64], align 16
@material = external dso_local constant [14 x i32], align 16
@RookMask = external dso_local global [64 x i64], align 16
@BishopMask = external dso_local global [64 x i64], align 16

; Function Attrs: noinline uwtable
define dso_local i32 @_Z3seeP7state_tiiii(%struct.state_t* %s, i32 %color, i32 %from, i32 %to, i32 %promoted) #0 !dbg !253 {
entry:
  %retval = alloca i32, align 4
  %s.addr = alloca %struct.state_t*, align 8
  %color.addr = alloca i32, align 4
  %from.addr = alloca i32, align 4
  %to.addr = alloca i32, align 4
  %promoted.addr = alloca i32, align 4
  %attacks = alloca i64, align 8
  %tmp = alloca i64, align 8
  %origAll = alloca i64, align 8
  %origBB = alloca i64, align 8
  %XRayR = alloca i64, align 8
  %XRayB = alloca i64, align 8
  %captured = alloca [32 x i32], align 16
  %p = alloca i32, align 4
  %np = alloca i32, align 4
  %side = alloca i32, align 4
  %num_captures = alloca i32, align 4
  %score = alloca i32, align 4
  %ptype = alloca i32, align 4
  %BitBoard = alloca i64*, align 8
  store %struct.state_t* %s, %struct.state_t** %s.addr, align 8
  call void @llvm.dbg.declare(metadata %struct.state_t** %s.addr, metadata !328, metadata !DIExpression()), !dbg !329
  store i32 %color, i32* %color.addr, align 4
  call void @llvm.dbg.declare(metadata i32* %color.addr, metadata !330, metadata !DIExpression()), !dbg !331
  store i32 %from, i32* %from.addr, align 4
  call void @llvm.dbg.declare(metadata i32* %from.addr, metadata !332, metadata !DIExpression()), !dbg !333
  store i32 %to, i32* %to.addr, align 4
  call void @llvm.dbg.declare(metadata i32* %to.addr, metadata !334, metadata !DIExpression()), !dbg !335
  store i32 %promoted, i32* %promoted.addr, align 4
  call void @llvm.dbg.declare(metadata i32* %promoted.addr, metadata !336, metadata !DIExpression()), !dbg !337
  call void @llvm.dbg.declare(metadata i64* %attacks, metadata !338, metadata !DIExpression()), !dbg !339
  call void @llvm.dbg.declare(metadata i64* %tmp, metadata !340, metadata !DIExpression()), !dbg !341
  call void @llvm.dbg.declare(metadata i64* %origAll, metadata !342, metadata !DIExpression()), !dbg !343
  call void @llvm.dbg.declare(metadata i64* %origBB, metadata !344, metadata !DIExpression()), !dbg !345
  call void @llvm.dbg.declare(metadata i64* %XRayR, metadata !346, metadata !DIExpression()), !dbg !347
  call void @llvm.dbg.declare(metadata i64* %XRayB, metadata !348, metadata !DIExpression()), !dbg !349
  call void @llvm.dbg.declare(metadata [32 x i32]* %captured, metadata !350, metadata !DIExpression()), !dbg !354
  call void @llvm.dbg.declare(metadata i32* %p, metadata !355, metadata !DIExpression()), !dbg !356
  call void @llvm.dbg.declare(metadata i32* %np, metadata !357, metadata !DIExpression()), !dbg !358
  call void @llvm.dbg.declare(metadata i32* %side, metadata !359, metadata !DIExpression()), !dbg !360
  call void @llvm.dbg.declare(metadata i32* %num_captures, metadata !361, metadata !DIExpression()), !dbg !362
  call void @llvm.dbg.declare(metadata i32* %score, metadata !363, metadata !DIExpression()), !dbg !364
  call void @llvm.dbg.declare(metadata i32* %ptype, metadata !365, metadata !DIExpression()), !dbg !366
  call void @llvm.dbg.declare(metadata i64** %BitBoard, metadata !367, metadata !DIExpression()), !dbg !369
  %0 = load %struct.state_t*, %struct.state_t** %s.addr, align 8, !dbg !370
  %BitBoard1 = getelementptr inbounds %struct.state_t, %struct.state_t* %0, i32 0, i32 5, !dbg !371
  %arraydecay = getelementptr inbounds [13 x i64], [13 x i64]* %BitBoard1, i64 0, i64 0, !dbg !370
  store i64* %arraydecay, i64** %BitBoard, align 8, !dbg !369
  store i32 1, i32* %num_captures, align 4, !dbg !372
  %1 = load i32, i32* %color.addr, align 4, !dbg !373
  store i32 %1, i32* %side, align 4, !dbg !374
  %2 = load %struct.state_t*, %struct.state_t** %s.addr, align 8, !dbg !375
  %sboard = getelementptr inbounds %struct.state_t, %struct.state_t* %2, i32 0, i32 1, !dbg !376
  %3 = load i32, i32* %from.addr, align 4, !dbg !377
  %idxprom = sext i32 %3 to i64, !dbg !375
  %arrayidx = getelementptr inbounds [64 x i32], [64 x i32]* %sboard, i64 0, i64 %idxprom, !dbg !375
  %4 = load i32, i32* %arrayidx, align 4, !dbg !375
  store i32 %4, i32* %ptype, align 4, !dbg !378
  %5 = load %struct.state_t*, %struct.state_t** %s.addr, align 8, !dbg !379
  %All = getelementptr inbounds %struct.state_t, %struct.state_t* %5, i32 0, i32 2, !dbg !380
  %6 = load i64, i64* %All, align 8, !dbg !380
  store i64 %6, i64* %origAll, align 8, !dbg !381
  %7 = load i64*, i64** %BitBoard, align 8, !dbg !382
  %8 = load i32, i32* %ptype, align 4, !dbg !383
  %idxprom2 = sext i32 %8 to i64, !dbg !382
  %arrayidx3 = getelementptr inbounds i64, i64* %7, i64 %idxprom2, !dbg !382
  %9 = load i64, i64* %arrayidx3, align 8, !dbg !382
  store i64 %9, i64* %origBB, align 8, !dbg !384
  %10 = load i32, i32* %from.addr, align 4, !dbg !385
  %idxprom4 = sext i32 %10 to i64, !dbg !386
  %arrayidx5 = getelementptr inbounds [64 x i64], [64 x i64]* @Mask, i64 0, i64 %idxprom4, !dbg !386
  %11 = load i64, i64* %arrayidx5, align 8, !dbg !386
  %12 = load %struct.state_t*, %struct.state_t** %s.addr, align 8, !dbg !387
  %All6 = getelementptr inbounds %struct.state_t, %struct.state_t* %12, i32 0, i32 2, !dbg !388
  %13 = load i64, i64* %All6, align 8, !dbg !389
  %xor = xor i64 %13, %11, !dbg !389
  store i64 %xor, i64* %All6, align 8, !dbg !389
  %14 = load i32, i32* %from.addr, align 4, !dbg !390
  %idxprom7 = sext i32 %14 to i64, !dbg !391
  %arrayidx8 = getelementptr inbounds [64 x i64], [64 x i64]* @Mask, i64 0, i64 %idxprom7, !dbg !391
  %15 = load i64, i64* %arrayidx8, align 8, !dbg !391
  %16 = load i64*, i64** %BitBoard, align 8, !dbg !392
  %17 = load i32, i32* %ptype, align 4, !dbg !393
  %idxprom9 = sext i32 %17 to i64, !dbg !392
  %arrayidx10 = getelementptr inbounds i64, i64* %16, i64 %idxprom9, !dbg !392
  %18 = load i64, i64* %arrayidx10, align 8, !dbg !394
  %xor11 = xor i64 %18, %15, !dbg !394
  store i64 %xor11, i64* %arrayidx10, align 8, !dbg !394
  %19 = load %struct.state_t*, %struct.state_t** %s.addr, align 8, !dbg !395
  %20 = load i32, i32* %to.addr, align 4, !dbg !396
  %call = call i64 @_Z10attacks_toP7state_ti(%struct.state_t* %19, i32 %20), !dbg !397
  store i64 %call, i64* %attacks, align 8, !dbg !398
  %21 = load %struct.state_t*, %struct.state_t** %s.addr, align 8, !dbg !399
  %sboard12 = getelementptr inbounds %struct.state_t, %struct.state_t* %21, i32 0, i32 1, !dbg !400
  %22 = load i32, i32* %to.addr, align 4, !dbg !401
  %idxprom13 = sext i32 %22 to i64, !dbg !399
  %arrayidx14 = getelementptr inbounds [64 x i32], [64 x i32]* %sboard12, i64 0, i64 %idxprom13, !dbg !399
  %23 = load i32, i32* %arrayidx14, align 4, !dbg !399
  %idxprom15 = sext i32 %23 to i64, !dbg !402
  %arrayidx16 = getelementptr inbounds [14 x i32], [14 x i32]* @material, i64 0, i64 %idxprom15, !dbg !402
  %24 = load i32, i32* %arrayidx16, align 4, !dbg !402
  %call17 = call i32 @abs(i32 %24) #4, !dbg !403
  %arrayidx18 = getelementptr inbounds [32 x i32], [32 x i32]* %captured, i64 0, i64 0, !dbg !404
  store i32 %call17, i32* %arrayidx18, align 16, !dbg !405
  %25 = load i32, i32* %promoted.addr, align 4, !dbg !406
  %tobool = icmp ne i32 %25, 0, !dbg !406
  br i1 %tobool, label %if.else, label %if.then, !dbg !408

if.then:                                          ; preds = %entry
  %26 = load i32, i32* %ptype, align 4, !dbg !409
  %idxprom19 = sext i32 %26 to i64, !dbg !411
  %arrayidx20 = getelementptr inbounds [14 x i32], [14 x i32]* @material, i64 0, i64 %idxprom19, !dbg !411
  %27 = load i32, i32* %arrayidx20, align 4, !dbg !411
  %call21 = call i32 @abs(i32 %27) #4, !dbg !412
  store i32 %call21, i32* %p, align 4, !dbg !413
  br label %if.end, !dbg !414

if.else:                                          ; preds = %entry
  %28 = load i32, i32* %promoted.addr, align 4, !dbg !415
  %idxprom22 = sext i32 %28 to i64, !dbg !417
  %arrayidx23 = getelementptr inbounds [14 x i32], [14 x i32]* @material, i64 0, i64 %idxprom22, !dbg !417
  %29 = load i32, i32* %arrayidx23, align 4, !dbg !417
  %call24 = call i32 @abs(i32 %29) #4, !dbg !418
  %sub = sub nsw i32 %call24, 85, !dbg !419
  store i32 %sub, i32* %p, align 4, !dbg !420
  br label %if.end

if.end:                                           ; preds = %if.else, %if.then
  %30 = load i64*, i64** %BitBoard, align 8, !dbg !421
  %arrayidx25 = getelementptr inbounds i64, i64* %30, i64 9, !dbg !421
  %31 = load i64, i64* %arrayidx25, align 8, !dbg !421
  %32 = load i64*, i64** %BitBoard, align 8, !dbg !422
  %arrayidx26 = getelementptr inbounds i64, i64* %32, i64 10, !dbg !422
  %33 = load i64, i64* %arrayidx26, align 8, !dbg !422
  %or = or i64 %31, %33, !dbg !423
  %34 = load i64*, i64** %BitBoard, align 8, !dbg !424
  %arrayidx27 = getelementptr inbounds i64, i64* %34, i64 7, !dbg !424
  %35 = load i64, i64* %arrayidx27, align 8, !dbg !424
  %or28 = or i64 %or, %35, !dbg !425
  %36 = load i64*, i64** %BitBoard, align 8, !dbg !426
  %arrayidx29 = getelementptr inbounds i64, i64* %36, i64 8, !dbg !426
  %37 = load i64, i64* %arrayidx29, align 8, !dbg !426
  %or30 = or i64 %or28, %37, !dbg !427
  store i64 %or30, i64* %XRayR, align 8, !dbg !428
  %38 = load i64*, i64** %BitBoard, align 8, !dbg !429
  %arrayidx31 = getelementptr inbounds i64, i64* %38, i64 9, !dbg !429
  %39 = load i64, i64* %arrayidx31, align 8, !dbg !429
  %40 = load i64*, i64** %BitBoard, align 8, !dbg !430
  %arrayidx32 = getelementptr inbounds i64, i64* %40, i64 10, !dbg !430
  %41 = load i64, i64* %arrayidx32, align 8, !dbg !430
  %or33 = or i64 %39, %41, !dbg !431
  %42 = load i64*, i64** %BitBoard, align 8, !dbg !432
  %arrayidx34 = getelementptr inbounds i64, i64* %42, i64 11, !dbg !432
  %43 = load i64, i64* %arrayidx34, align 8, !dbg !432
  %or35 = or i64 %or33, %43, !dbg !433
  %44 = load i64*, i64** %BitBoard, align 8, !dbg !434
  %arrayidx36 = getelementptr inbounds i64, i64* %44, i64 12, !dbg !434
  %45 = load i64, i64* %arrayidx36, align 8, !dbg !434
  %or37 = or i64 %or35, %45, !dbg !435
  store i64 %or37, i64* %XRayB, align 8, !dbg !436
  %46 = load i32, i32* %side, align 4, !dbg !437
  %xor38 = xor i32 %46, 1, !dbg !437
  store i32 %xor38, i32* %side, align 4, !dbg !437
  br label %while.cond, !dbg !438

while.cond:                                       ; preds = %if.end139, %if.end
  %47 = load i64, i64* %attacks, align 8, !dbg !439
  %tobool39 = icmp ne i64 %47, 0, !dbg !439
  br i1 %tobool39, label %while.body, label %while.end, !dbg !438

while.body:                                       ; preds = %while.cond
  %48 = load i32, i32* %side, align 4, !dbg !440
  %cmp = icmp eq i32 %48, 0, !dbg !443
  br i1 %cmp, label %if.then40, label %if.else75, !dbg !444

if.then40:                                        ; preds = %while.body
  %49 = load i64*, i64** %BitBoard, align 8, !dbg !445
  %arrayidx41 = getelementptr inbounds i64, i64* %49, i64 1, !dbg !445
  %50 = load i64, i64* %arrayidx41, align 8, !dbg !445
  %51 = load i64, i64* %attacks, align 8, !dbg !447
  %and = and i64 %50, %51, !dbg !448
  store i64 %and, i64* %tmp, align 8, !dbg !449
  %52 = load i64, i64* %tmp, align 8, !dbg !450
  %tobool42 = icmp ne i64 %52, 0, !dbg !450
  br i1 %tobool42, label %if.then43, label %if.else44, !dbg !452

if.then43:                                        ; preds = %if.then40
  store i32 85, i32* %np, align 4, !dbg !453
  br label %if.end74, !dbg !455

if.else44:                                        ; preds = %if.then40
  %53 = load i64*, i64** %BitBoard, align 8, !dbg !456
  %arrayidx45 = getelementptr inbounds i64, i64* %53, i64 3, !dbg !456
  %54 = load i64, i64* %arrayidx45, align 8, !dbg !456
  %55 = load i64, i64* %attacks, align 8, !dbg !458
  %and46 = and i64 %54, %55, !dbg !459
  store i64 %and46, i64* %tmp, align 8, !dbg !460
  %56 = load i64, i64* %tmp, align 8, !dbg !461
  %tobool47 = icmp ne i64 %56, 0, !dbg !461
  br i1 %tobool47, label %if.then48, label %if.else49, !dbg !463

if.then48:                                        ; preds = %if.else44
  store i32 305, i32* %np, align 4, !dbg !464
  br label %if.end73, !dbg !466

if.else49:                                        ; preds = %if.else44
  %57 = load i64*, i64** %BitBoard, align 8, !dbg !467
  %arrayidx50 = getelementptr inbounds i64, i64* %57, i64 11, !dbg !467
  %58 = load i64, i64* %arrayidx50, align 8, !dbg !467
  %59 = load i64, i64* %attacks, align 8, !dbg !469
  %and51 = and i64 %58, %59, !dbg !470
  store i64 %and51, i64* %tmp, align 8, !dbg !471
  %60 = load i64, i64* %tmp, align 8, !dbg !472
  %tobool52 = icmp ne i64 %60, 0, !dbg !472
  br i1 %tobool52, label %if.then53, label %if.else54, !dbg !474

if.then53:                                        ; preds = %if.else49
  store i32 330, i32* %np, align 4, !dbg !475
  br label %if.end72, !dbg !477

if.else54:                                        ; preds = %if.else49
  %61 = load i64*, i64** %BitBoard, align 8, !dbg !478
  %arrayidx55 = getelementptr inbounds i64, i64* %61, i64 7, !dbg !478
  %62 = load i64, i64* %arrayidx55, align 8, !dbg !478
  %63 = load i64, i64* %attacks, align 8, !dbg !480
  %and56 = and i64 %62, %63, !dbg !481
  store i64 %and56, i64* %tmp, align 8, !dbg !482
  %64 = load i64, i64* %tmp, align 8, !dbg !483
  %tobool57 = icmp ne i64 %64, 0, !dbg !483
  br i1 %tobool57, label %if.then58, label %if.else59, !dbg !485

if.then58:                                        ; preds = %if.else54
  store i32 490, i32* %np, align 4, !dbg !486
  br label %if.end71, !dbg !488

if.else59:                                        ; preds = %if.else54
  %65 = load i64*, i64** %BitBoard, align 8, !dbg !489
  %arrayidx60 = getelementptr inbounds i64, i64* %65, i64 9, !dbg !489
  %66 = load i64, i64* %arrayidx60, align 8, !dbg !489
  %67 = load i64, i64* %attacks, align 8, !dbg !491
  %and61 = and i64 %66, %67, !dbg !492
  store i64 %and61, i64* %tmp, align 8, !dbg !493
  %68 = load i64, i64* %tmp, align 8, !dbg !494
  %tobool62 = icmp ne i64 %68, 0, !dbg !494
  br i1 %tobool62, label %if.then63, label %if.else64, !dbg !496

if.then63:                                        ; preds = %if.else59
  store i32 935, i32* %np, align 4, !dbg !497
  br label %if.end70, !dbg !499

if.else64:                                        ; preds = %if.else59
  %69 = load i64*, i64** %BitBoard, align 8, !dbg !500
  %arrayidx65 = getelementptr inbounds i64, i64* %69, i64 5, !dbg !500
  %70 = load i64, i64* %arrayidx65, align 8, !dbg !500
  %71 = load i64, i64* %attacks, align 8, !dbg !502
  %and66 = and i64 %70, %71, !dbg !503
  store i64 %and66, i64* %tmp, align 8, !dbg !504
  %72 = load i64, i64* %tmp, align 8, !dbg !505
  %tobool67 = icmp ne i64 %72, 0, !dbg !505
  br i1 %tobool67, label %if.end69, label %if.then68, !dbg !507

if.then68:                                        ; preds = %if.else64
  br label %while.end, !dbg !508

if.end69:                                         ; preds = %if.else64
  store i32 1000000, i32* %np, align 4, !dbg !510
  br label %if.end70

if.end70:                                         ; preds = %if.end69, %if.then63
  br label %if.end71

if.end71:                                         ; preds = %if.end70, %if.then58
  br label %if.end72

if.end72:                                         ; preds = %if.end71, %if.then53
  br label %if.end73

if.end73:                                         ; preds = %if.end72, %if.then48
  br label %if.end74

if.end74:                                         ; preds = %if.end73, %if.then43
  br label %if.end111, !dbg !511

if.else75:                                        ; preds = %while.body
  %73 = load i64*, i64** %BitBoard, align 8, !dbg !512
  %arrayidx76 = getelementptr inbounds i64, i64* %73, i64 2, !dbg !512
  %74 = load i64, i64* %arrayidx76, align 8, !dbg !512
  %75 = load i64, i64* %attacks, align 8, !dbg !514
  %and77 = and i64 %74, %75, !dbg !515
  store i64 %and77, i64* %tmp, align 8, !dbg !516
  %76 = load i64, i64* %tmp, align 8, !dbg !517
  %tobool78 = icmp ne i64 %76, 0, !dbg !517
  br i1 %tobool78, label %if.then79, label %if.else80, !dbg !519

if.then79:                                        ; preds = %if.else75
  store i32 85, i32* %np, align 4, !dbg !520
  br label %if.end110, !dbg !522

if.else80:                                        ; preds = %if.else75
  %77 = load i64*, i64** %BitBoard, align 8, !dbg !523
  %arrayidx81 = getelementptr inbounds i64, i64* %77, i64 4, !dbg !523
  %78 = load i64, i64* %arrayidx81, align 8, !dbg !523
  %79 = load i64, i64* %attacks, align 8, !dbg !525
  %and82 = and i64 %78, %79, !dbg !526
  store i64 %and82, i64* %tmp, align 8, !dbg !527
  %80 = load i64, i64* %tmp, align 8, !dbg !528
  %tobool83 = icmp ne i64 %80, 0, !dbg !528
  br i1 %tobool83, label %if.then84, label %if.else85, !dbg !530

if.then84:                                        ; preds = %if.else80
  store i32 305, i32* %np, align 4, !dbg !531
  br label %if.end109, !dbg !533

if.else85:                                        ; preds = %if.else80
  %81 = load i64*, i64** %BitBoard, align 8, !dbg !534
  %arrayidx86 = getelementptr inbounds i64, i64* %81, i64 12, !dbg !534
  %82 = load i64, i64* %arrayidx86, align 8, !dbg !534
  %83 = load i64, i64* %attacks, align 8, !dbg !536
  %and87 = and i64 %82, %83, !dbg !537
  store i64 %and87, i64* %tmp, align 8, !dbg !538
  %84 = load i64, i64* %tmp, align 8, !dbg !539
  %tobool88 = icmp ne i64 %84, 0, !dbg !539
  br i1 %tobool88, label %if.then89, label %if.else90, !dbg !541

if.then89:                                        ; preds = %if.else85
  store i32 330, i32* %np, align 4, !dbg !542
  br label %if.end108, !dbg !544

if.else90:                                        ; preds = %if.else85
  %85 = load i64*, i64** %BitBoard, align 8, !dbg !545
  %arrayidx91 = getelementptr inbounds i64, i64* %85, i64 8, !dbg !545
  %86 = load i64, i64* %arrayidx91, align 8, !dbg !545
  %87 = load i64, i64* %attacks, align 8, !dbg !547
  %and92 = and i64 %86, %87, !dbg !548
  store i64 %and92, i64* %tmp, align 8, !dbg !549
  %88 = load i64, i64* %tmp, align 8, !dbg !550
  %tobool93 = icmp ne i64 %88, 0, !dbg !550
  br i1 %tobool93, label %if.then94, label %if.else95, !dbg !552

if.then94:                                        ; preds = %if.else90
  store i32 490, i32* %np, align 4, !dbg !553
  br label %if.end107, !dbg !555

if.else95:                                        ; preds = %if.else90
  %89 = load i64*, i64** %BitBoard, align 8, !dbg !556
  %arrayidx96 = getelementptr inbounds i64, i64* %89, i64 10, !dbg !556
  %90 = load i64, i64* %arrayidx96, align 8, !dbg !556
  %91 = load i64, i64* %attacks, align 8, !dbg !558
  %and97 = and i64 %90, %91, !dbg !559
  store i64 %and97, i64* %tmp, align 8, !dbg !560
  %92 = load i64, i64* %tmp, align 8, !dbg !561
  %tobool98 = icmp ne i64 %92, 0, !dbg !561
  br i1 %tobool98, label %if.then99, label %if.else100, !dbg !563

if.then99:                                        ; preds = %if.else95
  store i32 935, i32* %np, align 4, !dbg !564
  br label %if.end106, !dbg !566

if.else100:                                       ; preds = %if.else95
  %93 = load i64*, i64** %BitBoard, align 8, !dbg !567
  %arrayidx101 = getelementptr inbounds i64, i64* %93, i64 6, !dbg !567
  %94 = load i64, i64* %arrayidx101, align 8, !dbg !567
  %95 = load i64, i64* %attacks, align 8, !dbg !569
  %and102 = and i64 %94, %95, !dbg !570
  store i64 %and102, i64* %tmp, align 8, !dbg !571
  %96 = load i64, i64* %tmp, align 8, !dbg !572
  %tobool103 = icmp ne i64 %96, 0, !dbg !572
  br i1 %tobool103, label %if.end105, label %if.then104, !dbg !574

if.then104:                                       ; preds = %if.else100
  br label %while.end, !dbg !575

if.end105:                                        ; preds = %if.else100
  store i32 1000000, i32* %np, align 4, !dbg !577
  br label %if.end106

if.end106:                                        ; preds = %if.end105, %if.then99
  br label %if.end107

if.end107:                                        ; preds = %if.end106, %if.then94
  br label %if.end108

if.end108:                                        ; preds = %if.end107, %if.then89
  br label %if.end109

if.end109:                                        ; preds = %if.end108, %if.then84
  br label %if.end110

if.end110:                                        ; preds = %if.end109, %if.then79
  br label %if.end111

if.end111:                                        ; preds = %if.end110, %if.end74
  %97 = load i32, i32* %num_captures, align 4, !dbg !578
  %sub112 = sub nsw i32 %97, 1, !dbg !579
  %idxprom113 = sext i32 %sub112 to i64, !dbg !580
  %arrayidx114 = getelementptr inbounds [32 x i32], [32 x i32]* %captured, i64 0, i64 %idxprom113, !dbg !580
  %98 = load i32, i32* %arrayidx114, align 4, !dbg !580
  %sub115 = sub nsw i32 0, %98, !dbg !581
  %99 = load i32, i32* %p, align 4, !dbg !582
  %add = add nsw i32 %sub115, %99, !dbg !583
  %100 = load i32, i32* %num_captures, align 4, !dbg !584
  %idxprom116 = sext i32 %100 to i64, !dbg !585
  %arrayidx117 = getelementptr inbounds [32 x i32], [32 x i32]* %captured, i64 0, i64 %idxprom116, !dbg !585
  store i32 %add, i32* %arrayidx117, align 4, !dbg !586
  %101 = load i32, i32* %num_captures, align 4, !dbg !587
  %inc = add nsw i32 %101, 1, !dbg !587
  store i32 %inc, i32* %num_captures, align 4, !dbg !587
  %102 = load i32, i32* %np, align 4, !dbg !588
  store i32 %102, i32* %p, align 4, !dbg !589
  %103 = load i64, i64* %tmp, align 8, !dbg !590
  %sub118 = sub i64 0, %103, !dbg !591
  %104 = load i64, i64* %tmp, align 8, !dbg !592
  %and119 = and i64 %104, %sub118, !dbg !592
  store i64 %and119, i64* %tmp, align 8, !dbg !592
  %105 = load i64, i64* %tmp, align 8, !dbg !593
  %106 = load %struct.state_t*, %struct.state_t** %s.addr, align 8, !dbg !594
  %All120 = getelementptr inbounds %struct.state_t, %struct.state_t* %106, i32 0, i32 2, !dbg !595
  %107 = load i64, i64* %All120, align 8, !dbg !596
  %xor121 = xor i64 %107, %105, !dbg !596
  store i64 %xor121, i64* %All120, align 8, !dbg !596
  %108 = load i64, i64* %XRayR, align 8, !dbg !597
  %109 = load i32, i32* %to.addr, align 4, !dbg !599
  %idxprom122 = sext i32 %109 to i64, !dbg !600
  %arrayidx123 = getelementptr inbounds [64 x i64], [64 x i64]* @RookMask, i64 0, i64 %idxprom122, !dbg !600
  %110 = load i64, i64* %arrayidx123, align 8, !dbg !600
  %and124 = and i64 %108, %110, !dbg !601
  %tobool125 = icmp ne i64 %and124, 0, !dbg !597
  br i1 %tobool125, label %if.then126, label %if.end130, !dbg !602

if.then126:                                       ; preds = %if.end111
  %111 = load %struct.state_t*, %struct.state_t** %s.addr, align 8, !dbg !603
  %112 = load i32, i32* %to.addr, align 4, !dbg !605
  %call127 = call i64 @_Z11RookAttacksP7state_ti(%struct.state_t* %111, i32 %112), !dbg !606
  %113 = load i64, i64* %XRayR, align 8, !dbg !607
  %and128 = and i64 %call127, %113, !dbg !608
  %114 = load i64, i64* %attacks, align 8, !dbg !609
  %or129 = or i64 %114, %and128, !dbg !609
  store i64 %or129, i64* %attacks, align 8, !dbg !609
  br label %if.end130, !dbg !610

if.end130:                                        ; preds = %if.then126, %if.end111
  %115 = load i64, i64* %XRayB, align 8, !dbg !611
  %116 = load i32, i32* %to.addr, align 4, !dbg !613
  %idxprom131 = sext i32 %116 to i64, !dbg !614
  %arrayidx132 = getelementptr inbounds [64 x i64], [64 x i64]* @BishopMask, i64 0, i64 %idxprom131, !dbg !614
  %117 = load i64, i64* %arrayidx132, align 8, !dbg !614
  %and133 = and i64 %115, %117, !dbg !615
  %tobool134 = icmp ne i64 %and133, 0, !dbg !611
  br i1 %tobool134, label %if.then135, label %if.end139, !dbg !616

if.then135:                                       ; preds = %if.end130
  %118 = load %struct.state_t*, %struct.state_t** %s.addr, align 8, !dbg !617
  %119 = load i32, i32* %to.addr, align 4, !dbg !619
  %call136 = call i64 @_Z13BishopAttacksP7state_ti(%struct.state_t* %118, i32 %119), !dbg !620
  %120 = load i64, i64* %XRayB, align 8, !dbg !621
  %and137 = and i64 %call136, %120, !dbg !622
  %121 = load i64, i64* %attacks, align 8, !dbg !623
  %or138 = or i64 %121, %and137, !dbg !623
  store i64 %or138, i64* %attacks, align 8, !dbg !623
  br label %if.end139, !dbg !624

if.end139:                                        ; preds = %if.then135, %if.end130
  %122 = load %struct.state_t*, %struct.state_t** %s.addr, align 8, !dbg !625
  %All140 = getelementptr inbounds %struct.state_t, %struct.state_t* %122, i32 0, i32 2, !dbg !626
  %123 = load i64, i64* %All140, align 8, !dbg !626
  %124 = load i64, i64* %attacks, align 8, !dbg !627
  %and141 = and i64 %124, %123, !dbg !627
  store i64 %and141, i64* %attacks, align 8, !dbg !627
  %125 = load i32, i32* %side, align 4, !dbg !628
  %xor142 = xor i32 %125, 1, !dbg !628
  store i32 %xor142, i32* %side, align 4, !dbg !628
  br label %while.cond, !dbg !438, !llvm.loop !629

while.end:                                        ; preds = %if.then104, %if.then68, %while.cond
  %126 = load i32, i32* %num_captures, align 4, !dbg !631
  %dec = add nsw i32 %126, -1, !dbg !631
  store i32 %dec, i32* %num_captures, align 4, !dbg !631
  %127 = load i32, i32* %num_captures, align 4, !dbg !632
  %idxprom143 = sext i32 %127 to i64, !dbg !633
  %arrayidx144 = getelementptr inbounds [32 x i32], [32 x i32]* %captured, i64 0, i64 %idxprom143, !dbg !633
  %128 = load i32, i32* %arrayidx144, align 4, !dbg !633
  store i32 %128, i32* %score, align 4, !dbg !634
  br label %while.cond145, !dbg !635

while.cond145:                                    ; preds = %if.end159, %while.end
  %129 = load i32, i32* %num_captures, align 4, !dbg !636
  %cmp146 = icmp sgt i32 %129, 0, !dbg !637
  br i1 %cmp146, label %while.body147, label %while.end161, !dbg !635

while.body147:                                    ; preds = %while.cond145
  %130 = load i32, i32* %score, align 4, !dbg !638
  %131 = load i32, i32* %num_captures, align 4, !dbg !641
  %sub148 = sub nsw i32 %131, 1, !dbg !642
  %idxprom149 = sext i32 %sub148 to i64, !dbg !643
  %arrayidx150 = getelementptr inbounds [32 x i32], [32 x i32]* %captured, i64 0, i64 %idxprom149, !dbg !643
  %132 = load i32, i32* %arrayidx150, align 4, !dbg !643
  %sub151 = sub nsw i32 0, %132, !dbg !644
  %cmp152 = icmp sgt i32 %130, %sub151, !dbg !645
  br i1 %cmp152, label %if.then153, label %if.else155, !dbg !646

if.then153:                                       ; preds = %while.body147
  %133 = load i32, i32* %score, align 4, !dbg !647
  %sub154 = sub nsw i32 0, %133, !dbg !649
  store i32 %sub154, i32* %score, align 4, !dbg !650
  br label %if.end159, !dbg !651

if.else155:                                       ; preds = %while.body147
  %134 = load i32, i32* %num_captures, align 4, !dbg !652
  %sub156 = sub nsw i32 %134, 1, !dbg !654
  %idxprom157 = sext i32 %sub156 to i64, !dbg !655
  %arrayidx158 = getelementptr inbounds [32 x i32], [32 x i32]* %captured, i64 0, i64 %idxprom157, !dbg !655
  %135 = load i32, i32* %arrayidx158, align 4, !dbg !655
  store i32 %135, i32* %score, align 4, !dbg !656
  br label %if.end159

if.end159:                                        ; preds = %if.else155, %if.then153
  %136 = load i32, i32* %num_captures, align 4, !dbg !657
  %dec160 = add nsw i32 %136, -1, !dbg !657
  store i32 %dec160, i32* %num_captures, align 4, !dbg !657
  br label %while.cond145, !dbg !635, !llvm.loop !658

while.end161:                                     ; preds = %while.cond145
  %137 = load i64, i64* %origAll, align 8, !dbg !660
  %138 = load %struct.state_t*, %struct.state_t** %s.addr, align 8, !dbg !661
  %All162 = getelementptr inbounds %struct.state_t, %struct.state_t* %138, i32 0, i32 2, !dbg !662
  store i64 %137, i64* %All162, align 8, !dbg !663
  %139 = load i64, i64* %origBB, align 8, !dbg !664
  %140 = load i64*, i64** %BitBoard, align 8, !dbg !665
  %141 = load i32, i32* %ptype, align 4, !dbg !666
  %idxprom163 = sext i32 %141 to i64, !dbg !665
  %arrayidx164 = getelementptr inbounds i64, i64* %140, i64 %idxprom163, !dbg !665
  store i64 %139, i64* %arrayidx164, align 8, !dbg !667
  %142 = load i32, i32* %promoted.addr, align 4, !dbg !668
  %tobool165 = icmp ne i32 %142, 0, !dbg !668
  br i1 %tobool165, label %if.then166, label %if.else172, !dbg !670

if.then166:                                       ; preds = %while.end161
  %143 = load i32, i32* %score, align 4, !dbg !671
  %144 = load i32, i32* %promoted.addr, align 4, !dbg !673
  %idxprom167 = sext i32 %144 to i64, !dbg !674
  %arrayidx168 = getelementptr inbounds [14 x i32], [14 x i32]* @material, i64 0, i64 %idxprom167, !dbg !674
  %145 = load i32, i32* %arrayidx168, align 4, !dbg !674
  %call169 = call i32 @abs(i32 %145) #4, !dbg !675
  %add170 = add nsw i32 %143, %call169, !dbg !676
  %sub171 = sub nsw i32 %add170, 85, !dbg !677
  store i32 %sub171, i32* %retval, align 4, !dbg !678
  br label %return, !dbg !678

if.else172:                                       ; preds = %while.end161
  %146 = load i32, i32* %score, align 4, !dbg !679
  store i32 %146, i32* %retval, align 4, !dbg !681
  br label %return, !dbg !681

return:                                           ; preds = %if.else172, %if.then166
  %147 = load i32, i32* %retval, align 4, !dbg !682
  ret i32 %147, !dbg !682
}

; Function Attrs: nounwind readnone speculatable willreturn
declare void @llvm.dbg.declare(metadata, metadata, metadata) #1

declare dso_local i64 @_Z10attacks_toP7state_ti(%struct.state_t*, i32) #2

; Function Attrs: nounwind readnone
declare dso_local i32 @abs(i32) #3

declare dso_local i64 @_Z11RookAttacksP7state_ti(%struct.state_t*, i32) #2

declare dso_local i64 @_Z13BishopAttacksP7state_ti(%struct.state_t*, i32) #2

attributes #0 = { noinline uwtable "correctly-rounded-divide-sqrt-fp-math"="false" "disable-tail-calls"="false" "frame-pointer"="all" "less-precise-fpmad"="false" "min-legal-vector-width"="0" "no-infs-fp-math"="false" "no-jump-tables"="false" "no-nans-fp-math"="false" "no-signed-zeros-fp-math"="false" "no-trapping-math"="false" "stack-protector-buffer-size"="8" "target-cpu"="x86-64" "target-features"="+cx8,+fxsr,+mmx,+sse,+sse2,+x87" "unsafe-fp-math"="false" "use-soft-float"="false" }
attributes #1 = { nounwind readnone speculatable willreturn }
attributes #2 = { "correctly-rounded-divide-sqrt-fp-math"="false" "disable-tail-calls"="false" "frame-pointer"="all" "less-precise-fpmad"="false" "no-infs-fp-math"="false" "no-nans-fp-math"="false" "no-signed-zeros-fp-math"="false" "no-trapping-math"="false" "stack-protector-buffer-size"="8" "target-cpu"="x86-64" "target-features"="+cx8,+fxsr,+mmx,+sse,+sse2,+x87" "unsafe-fp-math"="false" "use-soft-float"="false" }
attributes #3 = { nounwind readnone "correctly-rounded-divide-sqrt-fp-math"="false" "disable-tail-calls"="false" "frame-pointer"="all" "less-precise-fpmad"="false" "no-infs-fp-math"="false" "no-nans-fp-math"="false" "no-signed-zeros-fp-math"="false" "no-trapping-math"="false" "stack-protector-buffer-size"="8" "target-cpu"="x86-64" "target-features"="+cx8,+fxsr,+mmx,+sse,+sse2,+x87" "unsafe-fp-math"="false" "use-soft-float"="false" }
attributes #4 = { nounwind readnone }

!llvm.dbg.cu = !{!0}
!llvm.module.flags = !{!249, !250, !251}
!llvm.ident = !{!252}

!0 = distinct !DICompileUnit(language: DW_LANG_C_plus_plus_14, file: !1, producer: "clang version 10.0.1 (https://github.com/svkeerthy/IR2Vec-LoopOptimizationFramework.git 561ac470e63b728263a0ac06ef987886ac648486)", isOptimized: false, runtimeVersion: 0, emissionKind: FullDebug, enums: !2, imports: !3, splitDebugInlining: false, nameTableKind: None)
!1 = !DIFile(filename: "see.cpp", directory: "/home/venkat/IF-DV/spec_build_release/CPU_2017/benchspec/CPU/531.deepsjeng_r/build/build_base_ld-loop-ext-m64.0000")
!2 = !{}
!3 = !{!4, !12, !16, !23, !27, !32, !34, !42, !46, !50, !64, !68, !72, !76, !80, !85, !89, !93, !97, !101, !109, !113, !117, !119, !123, !127, !132, !138, !142, !146, !148, !156, !160, !168, !170, !174, !178, !182, !186, !191, !196, !201, !202, !203, !204, !206, !207, !208, !209, !210, !211, !212, !214, !215, !216, !217, !218, !219, !220, !225, !226, !227, !228, !229, !230, !231, !232, !233, !234, !235, !236, !237, !238, !239, !240, !241, !242, !243, !244, !245, !246, !247, !248}
!4 = !DIImportedEntity(tag: DW_TAG_imported_declaration, scope: !5, entity: !6, file: !11, line: 52)
!5 = !DINamespace(name: "std", scope: null)
!6 = !DISubprogram(name: "abs", scope: !7, file: !7, line: 840, type: !8, flags: DIFlagPrototyped, spFlags: 0)
!7 = !DIFile(filename: "/usr/include/stdlib.h", directory: "")
!8 = !DISubroutineType(types: !9)
!9 = !{!10, !10}
!10 = !DIBasicType(name: "int", size: 32, encoding: DW_ATE_signed)
!11 = !DIFile(filename: "/usr/lib/gcc/x86_64-linux-gnu/10/../../../../include/c++/10/bits/std_abs.h", directory: "")
!12 = !DIImportedEntity(tag: DW_TAG_imported_declaration, scope: !5, entity: !13, file: !15, line: 127)
!13 = !DIDerivedType(tag: DW_TAG_typedef, name: "div_t", file: !7, line: 62, baseType: !14)
!14 = !DICompositeType(tag: DW_TAG_structure_type, file: !7, line: 58, flags: DIFlagFwdDecl, identifier: "_ZTS5div_t")
!15 = !DIFile(filename: "/usr/lib/gcc/x86_64-linux-gnu/10/../../../../include/c++/10/cstdlib", directory: "")
!16 = !DIImportedEntity(tag: DW_TAG_imported_declaration, scope: !5, entity: !17, file: !15, line: 128)
!17 = !DIDerivedType(tag: DW_TAG_typedef, name: "ldiv_t", file: !7, line: 70, baseType: !18)
!18 = distinct !DICompositeType(tag: DW_TAG_structure_type, file: !7, line: 66, size: 128, flags: DIFlagTypePassByValue, elements: !19, identifier: "_ZTS6ldiv_t")
!19 = !{!20, !22}
!20 = !DIDerivedType(tag: DW_TAG_member, name: "quot", scope: !18, file: !7, line: 68, baseType: !21, size: 64)
!21 = !DIBasicType(name: "long int", size: 64, encoding: DW_ATE_signed)
!22 = !DIDerivedType(tag: DW_TAG_member, name: "rem", scope: !18, file: !7, line: 69, baseType: !21, size: 64, offset: 64)
!23 = !DIImportedEntity(tag: DW_TAG_imported_declaration, scope: !5, entity: !24, file: !15, line: 130)
!24 = !DISubprogram(name: "abort", scope: !7, file: !7, line: 591, type: !25, flags: DIFlagPrototyped | DIFlagNoReturn, spFlags: 0)
!25 = !DISubroutineType(types: !26)
!26 = !{null}
!27 = !DIImportedEntity(tag: DW_TAG_imported_declaration, scope: !5, entity: !28, file: !15, line: 134)
!28 = !DISubprogram(name: "atexit", scope: !7, file: !7, line: 595, type: !29, flags: DIFlagPrototyped, spFlags: 0)
!29 = !DISubroutineType(types: !30)
!30 = !{!10, !31}
!31 = !DIDerivedType(tag: DW_TAG_pointer_type, baseType: !25, size: 64)
!32 = !DIImportedEntity(tag: DW_TAG_imported_declaration, scope: !5, entity: !33, file: !15, line: 137)
!33 = !DISubprogram(name: "at_quick_exit", scope: !7, file: !7, line: 600, type: !29, flags: DIFlagPrototyped, spFlags: 0)
!34 = !DIImportedEntity(tag: DW_TAG_imported_declaration, scope: !5, entity: !35, file: !15, line: 140)
!35 = !DISubprogram(name: "atof", scope: !7, file: !7, line: 101, type: !36, flags: DIFlagPrototyped, spFlags: 0)
!36 = !DISubroutineType(types: !37)
!37 = !{!38, !39}
!38 = !DIBasicType(name: "double", size: 64, encoding: DW_ATE_float)
!39 = !DIDerivedType(tag: DW_TAG_pointer_type, baseType: !40, size: 64)
!40 = !DIDerivedType(tag: DW_TAG_const_type, baseType: !41)
!41 = !DIBasicType(name: "char", size: 8, encoding: DW_ATE_signed_char)
!42 = !DIImportedEntity(tag: DW_TAG_imported_declaration, scope: !5, entity: !43, file: !15, line: 141)
!43 = !DISubprogram(name: "atoi", scope: !7, file: !7, line: 104, type: !44, flags: DIFlagPrototyped, spFlags: 0)
!44 = !DISubroutineType(types: !45)
!45 = !{!10, !39}
!46 = !DIImportedEntity(tag: DW_TAG_imported_declaration, scope: !5, entity: !47, file: !15, line: 142)
!47 = !DISubprogram(name: "atol", scope: !7, file: !7, line: 107, type: !48, flags: DIFlagPrototyped, spFlags: 0)
!48 = !DISubroutineType(types: !49)
!49 = !{!21, !39}
!50 = !DIImportedEntity(tag: DW_TAG_imported_declaration, scope: !5, entity: !51, file: !15, line: 143)
!51 = !DISubprogram(name: "bsearch", scope: !7, file: !7, line: 820, type: !52, flags: DIFlagPrototyped, spFlags: 0)
!52 = !DISubroutineType(types: !53)
!53 = !{!54, !55, !55, !57, !57, !60}
!54 = !DIDerivedType(tag: DW_TAG_pointer_type, baseType: null, size: 64)
!55 = !DIDerivedType(tag: DW_TAG_pointer_type, baseType: !56, size: 64)
!56 = !DIDerivedType(tag: DW_TAG_const_type, baseType: null)
!57 = !DIDerivedType(tag: DW_TAG_typedef, name: "size_t", file: !58, line: 46, baseType: !59)
!58 = !DIFile(filename: "Rohit/IR2Vec-LoopOptimizationFramework/build_REL_AsrtON/lib/clang/10.0.1/include/stddef.h", directory: "/home/venkat/IF-DV")
!59 = !DIBasicType(name: "long unsigned int", size: 64, encoding: DW_ATE_unsigned)
!60 = !DIDerivedType(tag: DW_TAG_typedef, name: "__compar_fn_t", file: !7, line: 808, baseType: !61)
!61 = !DIDerivedType(tag: DW_TAG_pointer_type, baseType: !62, size: 64)
!62 = !DISubroutineType(types: !63)
!63 = !{!10, !55, !55}
!64 = !DIImportedEntity(tag: DW_TAG_imported_declaration, scope: !5, entity: !65, file: !15, line: 144)
!65 = !DISubprogram(name: "calloc", scope: !7, file: !7, line: 542, type: !66, flags: DIFlagPrototyped, spFlags: 0)
!66 = !DISubroutineType(types: !67)
!67 = !{!54, !57, !57}
!68 = !DIImportedEntity(tag: DW_TAG_imported_declaration, scope: !5, entity: !69, file: !15, line: 145)
!69 = !DISubprogram(name: "div", scope: !7, file: !7, line: 852, type: !70, flags: DIFlagPrototyped, spFlags: 0)
!70 = !DISubroutineType(types: !71)
!71 = !{!13, !10, !10}
!72 = !DIImportedEntity(tag: DW_TAG_imported_declaration, scope: !5, entity: !73, file: !15, line: 146)
!73 = !DISubprogram(name: "exit", scope: !7, file: !7, line: 617, type: !74, flags: DIFlagPrototyped | DIFlagNoReturn, spFlags: 0)
!74 = !DISubroutineType(types: !75)
!75 = !{null, !10}
!76 = !DIImportedEntity(tag: DW_TAG_imported_declaration, scope: !5, entity: !77, file: !15, line: 147)
!77 = !DISubprogram(name: "free", scope: !7, file: !7, line: 565, type: !78, flags: DIFlagPrototyped, spFlags: 0)
!78 = !DISubroutineType(types: !79)
!79 = !{null, !54}
!80 = !DIImportedEntity(tag: DW_TAG_imported_declaration, scope: !5, entity: !81, file: !15, line: 148)
!81 = !DISubprogram(name: "getenv", scope: !7, file: !7, line: 634, type: !82, flags: DIFlagPrototyped, spFlags: 0)
!82 = !DISubroutineType(types: !83)
!83 = !{!84, !39}
!84 = !DIDerivedType(tag: DW_TAG_pointer_type, baseType: !41, size: 64)
!85 = !DIImportedEntity(tag: DW_TAG_imported_declaration, scope: !5, entity: !86, file: !15, line: 149)
!86 = !DISubprogram(name: "labs", scope: !7, file: !7, line: 841, type: !87, flags: DIFlagPrototyped, spFlags: 0)
!87 = !DISubroutineType(types: !88)
!88 = !{!21, !21}
!89 = !DIImportedEntity(tag: DW_TAG_imported_declaration, scope: !5, entity: !90, file: !15, line: 150)
!90 = !DISubprogram(name: "ldiv", scope: !7, file: !7, line: 854, type: !91, flags: DIFlagPrototyped, spFlags: 0)
!91 = !DISubroutineType(types: !92)
!92 = !{!17, !21, !21}
!93 = !DIImportedEntity(tag: DW_TAG_imported_declaration, scope: !5, entity: !94, file: !15, line: 151)
!94 = !DISubprogram(name: "malloc", scope: !7, file: !7, line: 539, type: !95, flags: DIFlagPrototyped, spFlags: 0)
!95 = !DISubroutineType(types: !96)
!96 = !{!54, !57}
!97 = !DIImportedEntity(tag: DW_TAG_imported_declaration, scope: !5, entity: !98, file: !15, line: 153)
!98 = !DISubprogram(name: "mblen", scope: !7, file: !7, line: 922, type: !99, flags: DIFlagPrototyped, spFlags: 0)
!99 = !DISubroutineType(types: !100)
!100 = !{!10, !39, !57}
!101 = !DIImportedEntity(tag: DW_TAG_imported_declaration, scope: !5, entity: !102, file: !15, line: 154)
!102 = !DISubprogram(name: "mbstowcs", scope: !7, file: !7, line: 933, type: !103, flags: DIFlagPrototyped, spFlags: 0)
!103 = !DISubroutineType(types: !104)
!104 = !{!57, !105, !108, !57}
!105 = !DIDerivedType(tag: DW_TAG_restrict_type, baseType: !106)
!106 = !DIDerivedType(tag: DW_TAG_pointer_type, baseType: !107, size: 64)
!107 = !DIBasicType(name: "wchar_t", size: 32, encoding: DW_ATE_signed)
!108 = !DIDerivedType(tag: DW_TAG_restrict_type, baseType: !39)
!109 = !DIImportedEntity(tag: DW_TAG_imported_declaration, scope: !5, entity: !110, file: !15, line: 155)
!110 = !DISubprogram(name: "mbtowc", scope: !7, file: !7, line: 925, type: !111, flags: DIFlagPrototyped, spFlags: 0)
!111 = !DISubroutineType(types: !112)
!112 = !{!10, !105, !108, !57}
!113 = !DIImportedEntity(tag: DW_TAG_imported_declaration, scope: !5, entity: !114, file: !15, line: 157)
!114 = !DISubprogram(name: "qsort", scope: !7, file: !7, line: 830, type: !115, flags: DIFlagPrototyped, spFlags: 0)
!115 = !DISubroutineType(types: !116)
!116 = !{null, !54, !57, !57, !60}
!117 = !DIImportedEntity(tag: DW_TAG_imported_declaration, scope: !5, entity: !118, file: !15, line: 160)
!118 = !DISubprogram(name: "quick_exit", scope: !7, file: !7, line: 623, type: !74, flags: DIFlagPrototyped | DIFlagNoReturn, spFlags: 0)
!119 = !DIImportedEntity(tag: DW_TAG_imported_declaration, scope: !5, entity: !120, file: !15, line: 163)
!120 = !DISubprogram(name: "rand", scope: !7, file: !7, line: 453, type: !121, flags: DIFlagPrototyped, spFlags: 0)
!121 = !DISubroutineType(types: !122)
!122 = !{!10}
!123 = !DIImportedEntity(tag: DW_TAG_imported_declaration, scope: !5, entity: !124, file: !15, line: 164)
!124 = !DISubprogram(name: "realloc", scope: !7, file: !7, line: 550, type: !125, flags: DIFlagPrototyped, spFlags: 0)
!125 = !DISubroutineType(types: !126)
!126 = !{!54, !54, !57}
!127 = !DIImportedEntity(tag: DW_TAG_imported_declaration, scope: !5, entity: !128, file: !15, line: 165)
!128 = !DISubprogram(name: "srand", scope: !7, file: !7, line: 455, type: !129, flags: DIFlagPrototyped, spFlags: 0)
!129 = !DISubroutineType(types: !130)
!130 = !{null, !131}
!131 = !DIBasicType(name: "unsigned int", size: 32, encoding: DW_ATE_unsigned)
!132 = !DIImportedEntity(tag: DW_TAG_imported_declaration, scope: !5, entity: !133, file: !15, line: 166)
!133 = !DISubprogram(name: "strtod", scope: !7, file: !7, line: 117, type: !134, flags: DIFlagPrototyped, spFlags: 0)
!134 = !DISubroutineType(types: !135)
!135 = !{!38, !108, !136}
!136 = !DIDerivedType(tag: DW_TAG_restrict_type, baseType: !137)
!137 = !DIDerivedType(tag: DW_TAG_pointer_type, baseType: !84, size: 64)
!138 = !DIImportedEntity(tag: DW_TAG_imported_declaration, scope: !5, entity: !139, file: !15, line: 167)
!139 = !DISubprogram(name: "strtol", scope: !7, file: !7, line: 176, type: !140, flags: DIFlagPrototyped, spFlags: 0)
!140 = !DISubroutineType(types: !141)
!141 = !{!21, !108, !136, !10}
!142 = !DIImportedEntity(tag: DW_TAG_imported_declaration, scope: !5, entity: !143, file: !15, line: 168)
!143 = !DISubprogram(name: "strtoul", scope: !7, file: !7, line: 180, type: !144, flags: DIFlagPrototyped, spFlags: 0)
!144 = !DISubroutineType(types: !145)
!145 = !{!59, !108, !136, !10}
!146 = !DIImportedEntity(tag: DW_TAG_imported_declaration, scope: !5, entity: !147, file: !15, line: 169)
!147 = !DISubprogram(name: "system", scope: !7, file: !7, line: 784, type: !44, flags: DIFlagPrototyped, spFlags: 0)
!148 = !DIImportedEntity(tag: DW_TAG_imported_declaration, scope: !5, entity: !149, file: !15, line: 171)
!149 = !DISubprogram(name: "wcstombs", scope: !7, file: !7, line: 936, type: !150, flags: DIFlagPrototyped, spFlags: 0)
!150 = !DISubroutineType(types: !151)
!151 = !{!57, !152, !153, !57}
!152 = !DIDerivedType(tag: DW_TAG_restrict_type, baseType: !84)
!153 = !DIDerivedType(tag: DW_TAG_restrict_type, baseType: !154)
!154 = !DIDerivedType(tag: DW_TAG_pointer_type, baseType: !155, size: 64)
!155 = !DIDerivedType(tag: DW_TAG_const_type, baseType: !107)
!156 = !DIImportedEntity(tag: DW_TAG_imported_declaration, scope: !5, entity: !157, file: !15, line: 172)
!157 = !DISubprogram(name: "wctomb", scope: !7, file: !7, line: 929, type: !158, flags: DIFlagPrototyped, spFlags: 0)
!158 = !DISubroutineType(types: !159)
!159 = !{!10, !84, !107}
!160 = !DIImportedEntity(tag: DW_TAG_imported_declaration, scope: !161, entity: !162, file: !15, line: 200)
!161 = !DINamespace(name: "__gnu_cxx", scope: null)
!162 = !DIDerivedType(tag: DW_TAG_typedef, name: "lldiv_t", file: !7, line: 80, baseType: !163)
!163 = distinct !DICompositeType(tag: DW_TAG_structure_type, file: !7, line: 76, size: 128, flags: DIFlagTypePassByValue, elements: !164, identifier: "_ZTS7lldiv_t")
!164 = !{!165, !167}
!165 = !DIDerivedType(tag: DW_TAG_member, name: "quot", scope: !163, file: !7, line: 78, baseType: !166, size: 64)
!166 = !DIBasicType(name: "long long int", size: 64, encoding: DW_ATE_signed)
!167 = !DIDerivedType(tag: DW_TAG_member, name: "rem", scope: !163, file: !7, line: 79, baseType: !166, size: 64, offset: 64)
!168 = !DIImportedEntity(tag: DW_TAG_imported_declaration, scope: !161, entity: !169, file: !15, line: 206)
!169 = !DISubprogram(name: "_Exit", scope: !7, file: !7, line: 629, type: !74, flags: DIFlagPrototyped | DIFlagNoReturn, spFlags: 0)
!170 = !DIImportedEntity(tag: DW_TAG_imported_declaration, scope: !161, entity: !171, file: !15, line: 210)
!171 = !DISubprogram(name: "llabs", scope: !7, file: !7, line: 844, type: !172, flags: DIFlagPrototyped, spFlags: 0)
!172 = !DISubroutineType(types: !173)
!173 = !{!166, !166}
!174 = !DIImportedEntity(tag: DW_TAG_imported_declaration, scope: !161, entity: !175, file: !15, line: 216)
!175 = !DISubprogram(name: "lldiv", scope: !7, file: !7, line: 858, type: !176, flags: DIFlagPrototyped, spFlags: 0)
!176 = !DISubroutineType(types: !177)
!177 = !{!162, !166, !166}
!178 = !DIImportedEntity(tag: DW_TAG_imported_declaration, scope: !161, entity: !179, file: !15, line: 227)
!179 = !DISubprogram(name: "atoll", scope: !7, file: !7, line: 112, type: !180, flags: DIFlagPrototyped, spFlags: 0)
!180 = !DISubroutineType(types: !181)
!181 = !{!166, !39}
!182 = !DIImportedEntity(tag: DW_TAG_imported_declaration, scope: !161, entity: !183, file: !15, line: 228)
!183 = !DISubprogram(name: "strtoll", scope: !7, file: !7, line: 200, type: !184, flags: DIFlagPrototyped, spFlags: 0)
!184 = !DISubroutineType(types: !185)
!185 = !{!166, !108, !136, !10}
!186 = !DIImportedEntity(tag: DW_TAG_imported_declaration, scope: !161, entity: !187, file: !15, line: 229)
!187 = !DISubprogram(name: "strtoull", scope: !7, file: !7, line: 205, type: !188, flags: DIFlagPrototyped, spFlags: 0)
!188 = !DISubroutineType(types: !189)
!189 = !{!190, !108, !136, !10}
!190 = !DIBasicType(name: "long long unsigned int", size: 64, encoding: DW_ATE_unsigned)
!191 = !DIImportedEntity(tag: DW_TAG_imported_declaration, scope: !161, entity: !192, file: !15, line: 231)
!192 = !DISubprogram(name: "strtof", scope: !7, file: !7, line: 123, type: !193, flags: DIFlagPrototyped, spFlags: 0)
!193 = !DISubroutineType(types: !194)
!194 = !{!195, !108, !136}
!195 = !DIBasicType(name: "float", size: 32, encoding: DW_ATE_float)
!196 = !DIImportedEntity(tag: DW_TAG_imported_declaration, scope: !161, entity: !197, file: !15, line: 232)
!197 = !DISubprogram(name: "strtold", scope: !7, file: !7, line: 126, type: !198, flags: DIFlagPrototyped, spFlags: 0)
!198 = !DISubroutineType(types: !199)
!199 = !{!200, !108, !136}
!200 = !DIBasicType(name: "long double", size: 128, encoding: DW_ATE_float)
!201 = !DIImportedEntity(tag: DW_TAG_imported_declaration, scope: !5, entity: !162, file: !15, line: 240)
!202 = !DIImportedEntity(tag: DW_TAG_imported_declaration, scope: !5, entity: !169, file: !15, line: 242)
!203 = !DIImportedEntity(tag: DW_TAG_imported_declaration, scope: !5, entity: !171, file: !15, line: 244)
!204 = !DIImportedEntity(tag: DW_TAG_imported_declaration, scope: !5, entity: !205, file: !15, line: 245)
!205 = !DISubprogram(name: "div", linkageName: "_ZN9__gnu_cxx3divExx", scope: !161, file: !15, line: 213, type: !176, flags: DIFlagPrototyped, spFlags: 0)
!206 = !DIImportedEntity(tag: DW_TAG_imported_declaration, scope: !5, entity: !175, file: !15, line: 246)
!207 = !DIImportedEntity(tag: DW_TAG_imported_declaration, scope: !5, entity: !179, file: !15, line: 248)
!208 = !DIImportedEntity(tag: DW_TAG_imported_declaration, scope: !5, entity: !192, file: !15, line: 249)
!209 = !DIImportedEntity(tag: DW_TAG_imported_declaration, scope: !5, entity: !183, file: !15, line: 250)
!210 = !DIImportedEntity(tag: DW_TAG_imported_declaration, scope: !5, entity: !187, file: !15, line: 251)
!211 = !DIImportedEntity(tag: DW_TAG_imported_declaration, scope: !5, entity: !197, file: !15, line: 252)
!212 = !DIImportedEntity(tag: DW_TAG_imported_declaration, scope: !0, entity: !24, file: !213, line: 38)
!213 = !DIFile(filename: "/usr/lib/gcc/x86_64-linux-gnu/10/../../../../include/c++/10/stdlib.h", directory: "")
!214 = !DIImportedEntity(tag: DW_TAG_imported_declaration, scope: !0, entity: !28, file: !213, line: 39)
!215 = !DIImportedEntity(tag: DW_TAG_imported_declaration, scope: !0, entity: !73, file: !213, line: 40)
!216 = !DIImportedEntity(tag: DW_TAG_imported_declaration, scope: !0, entity: !33, file: !213, line: 43)
!217 = !DIImportedEntity(tag: DW_TAG_imported_declaration, scope: !0, entity: !118, file: !213, line: 46)
!218 = !DIImportedEntity(tag: DW_TAG_imported_declaration, scope: !0, entity: !13, file: !213, line: 51)
!219 = !DIImportedEntity(tag: DW_TAG_imported_declaration, scope: !0, entity: !17, file: !213, line: 52)
!220 = !DIImportedEntity(tag: DW_TAG_imported_declaration, scope: !0, entity: !221, file: !213, line: 54)
!221 = !DISubprogram(name: "abs", linkageName: "_ZSt3absg", scope: !5, file: !11, line: 103, type: !222, flags: DIFlagPrototyped, spFlags: 0)
!222 = !DISubroutineType(types: !223)
!223 = !{!224, !224}
!224 = !DIBasicType(name: "__float128", size: 128, encoding: DW_ATE_float)
!225 = !DIImportedEntity(tag: DW_TAG_imported_declaration, scope: !0, entity: !35, file: !213, line: 55)
!226 = !DIImportedEntity(tag: DW_TAG_imported_declaration, scope: !0, entity: !43, file: !213, line: 56)
!227 = !DIImportedEntity(tag: DW_TAG_imported_declaration, scope: !0, entity: !47, file: !213, line: 57)
!228 = !DIImportedEntity(tag: DW_TAG_imported_declaration, scope: !0, entity: !51, file: !213, line: 58)
!229 = !DIImportedEntity(tag: DW_TAG_imported_declaration, scope: !0, entity: !65, file: !213, line: 59)
!230 = !DIImportedEntity(tag: DW_TAG_imported_declaration, scope: !0, entity: !205, file: !213, line: 60)
!231 = !DIImportedEntity(tag: DW_TAG_imported_declaration, scope: !0, entity: !77, file: !213, line: 61)
!232 = !DIImportedEntity(tag: DW_TAG_imported_declaration, scope: !0, entity: !81, file: !213, line: 62)
!233 = !DIImportedEntity(tag: DW_TAG_imported_declaration, scope: !0, entity: !86, file: !213, line: 63)
!234 = !DIImportedEntity(tag: DW_TAG_imported_declaration, scope: !0, entity: !90, file: !213, line: 64)
!235 = !DIImportedEntity(tag: DW_TAG_imported_declaration, scope: !0, entity: !94, file: !213, line: 65)
!236 = !DIImportedEntity(tag: DW_TAG_imported_declaration, scope: !0, entity: !98, file: !213, line: 67)
!237 = !DIImportedEntity(tag: DW_TAG_imported_declaration, scope: !0, entity: !102, file: !213, line: 68)
!238 = !DIImportedEntity(tag: DW_TAG_imported_declaration, scope: !0, entity: !110, file: !213, line: 69)
!239 = !DIImportedEntity(tag: DW_TAG_imported_declaration, scope: !0, entity: !114, file: !213, line: 71)
!240 = !DIImportedEntity(tag: DW_TAG_imported_declaration, scope: !0, entity: !120, file: !213, line: 72)
!241 = !DIImportedEntity(tag: DW_TAG_imported_declaration, scope: !0, entity: !124, file: !213, line: 73)
!242 = !DIImportedEntity(tag: DW_TAG_imported_declaration, scope: !0, entity: !128, file: !213, line: 74)
!243 = !DIImportedEntity(tag: DW_TAG_imported_declaration, scope: !0, entity: !133, file: !213, line: 75)
!244 = !DIImportedEntity(tag: DW_TAG_imported_declaration, scope: !0, entity: !139, file: !213, line: 76)
!245 = !DIImportedEntity(tag: DW_TAG_imported_declaration, scope: !0, entity: !143, file: !213, line: 77)
!246 = !DIImportedEntity(tag: DW_TAG_imported_declaration, scope: !0, entity: !147, file: !213, line: 78)
!247 = !DIImportedEntity(tag: DW_TAG_imported_declaration, scope: !0, entity: !149, file: !213, line: 80)
!248 = !DIImportedEntity(tag: DW_TAG_imported_declaration, scope: !0, entity: !157, file: !213, line: 81)
!249 = !{i32 7, !"Dwarf Version", i32 4}
!250 = !{i32 2, !"Debug Info Version", i32 3}
!251 = !{i32 1, !"wchar_size", i32 4}
!252 = !{!"clang version 10.0.1 (https://github.com/svkeerthy/IR2Vec-LoopOptimizationFramework.git 561ac470e63b728263a0ac06ef987886ac648486)"}
!253 = distinct !DISubprogram(name: "see", linkageName: "_Z3seeP7state_tiiii", scope: !1, file: !1, line: 19, type: !254, scopeLine: 19, flags: DIFlagPrototyped, spFlags: DISPFlagDefinition, unit: !0, retainedNodes: !2)
!254 = !DISubroutineType(types: !255)
!255 = !{!10, !256, !327, !327, !327, !327}
!256 = !DIDerivedType(tag: DW_TAG_pointer_type, baseType: !257, size: 64)
!257 = distinct !DICompositeType(tag: DW_TAG_structure_type, name: "state_t", file: !258, line: 11, size: 99200, flags: DIFlagTypePassByValue, elements: !259, identifier: "_ZTS7state_t")
!258 = !DIFile(filename: "./state.h", directory: "/home/venkat/IF-DV/spec_build_release/CPU_2017/benchspec/CPU/531.deepsjeng_r/build/build_base_ld-loop-ext-m64.0000")
!259 = !{!260, !261, !265, !268, !269, !270, !274, !275, !276, !278, !279, !280, !281, !282, !283, !284, !285, !286, !287, !297, !300, !301, !309, !310, !311, !312, !313, !314, !315, !316, !317, !318, !319, !320, !321, !322, !323}
!260 = !DIDerivedType(tag: DW_TAG_member, name: "threadid", scope: !257, file: !258, line: 13, baseType: !10, size: 32)
!261 = !DIDerivedType(tag: DW_TAG_member, name: "sboard", scope: !257, file: !258, line: 15, baseType: !262, size: 2048, offset: 32)
!262 = !DICompositeType(tag: DW_TAG_array_type, baseType: !10, size: 2048, elements: !263)
!263 = !{!264}
!264 = !DISubrange(count: 64)
!265 = !DIDerivedType(tag: DW_TAG_member, name: "All", scope: !257, file: !258, line: 16, baseType: !266, size: 64, offset: 2112)
!266 = !DIDerivedType(tag: DW_TAG_typedef, name: "BITBOARD", file: !267, line: 33, baseType: !190)
!267 = !DIFile(filename: "./sjeng.h", directory: "/home/venkat/IF-DV/spec_build_release/CPU_2017/benchspec/CPU/531.deepsjeng_r/build/build_base_ld-loop-ext-m64.0000")
!268 = !DIDerivedType(tag: DW_TAG_member, name: "BlackPieces", scope: !257, file: !258, line: 17, baseType: !266, size: 64, offset: 2176)
!269 = !DIDerivedType(tag: DW_TAG_member, name: "WhitePieces", scope: !257, file: !258, line: 17, baseType: !266, size: 64, offset: 2240)
!270 = !DIDerivedType(tag: DW_TAG_member, name: "BitBoard", scope: !257, file: !258, line: 18, baseType: !271, size: 832, offset: 2304)
!271 = !DICompositeType(tag: DW_TAG_array_type, baseType: !266, size: 832, elements: !272)
!272 = !{!273}
!273 = !DISubrange(count: 13)
!274 = !DIDerivedType(tag: DW_TAG_member, name: "Material", scope: !257, file: !258, line: 20, baseType: !10, size: 32, offset: 3136)
!275 = !DIDerivedType(tag: DW_TAG_member, name: "psq_score", scope: !257, file: !258, line: 21, baseType: !10, size: 32, offset: 3168)
!276 = !DIDerivedType(tag: DW_TAG_member, name: "npieces", scope: !257, file: !258, line: 22, baseType: !277, size: 416, offset: 3200)
!277 = !DICompositeType(tag: DW_TAG_array_type, baseType: !10, size: 416, elements: !272)
!278 = !DIDerivedType(tag: DW_TAG_member, name: "castleflag", scope: !257, file: !258, line: 23, baseType: !10, size: 32, offset: 3616)
!279 = !DIDerivedType(tag: DW_TAG_member, name: "ep_square", scope: !257, file: !258, line: 25, baseType: !10, size: 32, offset: 3648)
!280 = !DIDerivedType(tag: DW_TAG_member, name: "white_to_move", scope: !257, file: !258, line: 25, baseType: !10, size: 32, offset: 3680)
!281 = !DIDerivedType(tag: DW_TAG_member, name: "wking_loc", scope: !257, file: !258, line: 25, baseType: !10, size: 32, offset: 3712)
!282 = !DIDerivedType(tag: DW_TAG_member, name: "bking_loc", scope: !257, file: !258, line: 25, baseType: !10, size: 32, offset: 3744)
!283 = !DIDerivedType(tag: DW_TAG_member, name: "ply", scope: !257, file: !258, line: 26, baseType: !10, size: 32, offset: 3776)
!284 = !DIDerivedType(tag: DW_TAG_member, name: "fifty", scope: !257, file: !258, line: 26, baseType: !10, size: 32, offset: 3808)
!285 = !DIDerivedType(tag: DW_TAG_member, name: "hash", scope: !257, file: !258, line: 28, baseType: !266, size: 64, offset: 3840)
!286 = !DIDerivedType(tag: DW_TAG_member, name: "pawnhash", scope: !257, file: !258, line: 29, baseType: !266, size: 64, offset: 3904)
!287 = !DIDerivedType(tag: DW_TAG_member, name: "path_x", scope: !257, file: !258, line: 31, baseType: !288, size: 16384, offset: 3968)
!288 = !DICompositeType(tag: DW_TAG_array_type, baseType: !289, size: 16384, elements: !263)
!289 = distinct !DICompositeType(tag: DW_TAG_structure_type, name: "move_x", file: !267, line: 130, size: 256, flags: DIFlagTypePassByValue, elements: !290, identifier: "_ZTS6move_x")
!290 = !{!291, !292, !293, !294, !295, !296}
!291 = !DIDerivedType(tag: DW_TAG_member, name: "epsq", scope: !289, file: !267, line: 131, baseType: !10, size: 32)
!292 = !DIDerivedType(tag: DW_TAG_member, name: "fifty", scope: !289, file: !267, line: 132, baseType: !10, size: 32, offset: 32)
!293 = !DIDerivedType(tag: DW_TAG_member, name: "castleflag", scope: !289, file: !267, line: 133, baseType: !10, size: 32, offset: 64)
!294 = !DIDerivedType(tag: DW_TAG_member, name: "psq_score", scope: !289, file: !267, line: 134, baseType: !10, size: 32, offset: 96)
!295 = !DIDerivedType(tag: DW_TAG_member, name: "hash", scope: !289, file: !267, line: 135, baseType: !266, size: 64, offset: 128)
!296 = !DIDerivedType(tag: DW_TAG_member, name: "pawnhash", scope: !289, file: !267, line: 136, baseType: !266, size: 64, offset: 192)
!297 = !DIDerivedType(tag: DW_TAG_member, name: "path", scope: !257, file: !258, line: 32, baseType: !298, size: 2048, offset: 20352)
!298 = !DICompositeType(tag: DW_TAG_array_type, baseType: !299, size: 2048, elements: !263)
!299 = !DIDerivedType(tag: DW_TAG_typedef, name: "move_s", file: !267, line: 121, baseType: !10)
!300 = !DIDerivedType(tag: DW_TAG_member, name: "plyeval", scope: !257, file: !258, line: 33, baseType: !262, size: 2048, offset: 22400)
!301 = !DIDerivedType(tag: DW_TAG_member, name: "killerstack", scope: !257, file: !258, line: 41, baseType: !302, size: 8192, offset: 24448)
!302 = !DICompositeType(tag: DW_TAG_array_type, baseType: !303, size: 8192, elements: !263)
!303 = distinct !DICompositeType(tag: DW_TAG_structure_type, scope: !257, file: !258, line: 36, size: 128, flags: DIFlagTypePassByValue, elements: !304, identifier: "_ZTSN7state_tUt_E")
!304 = !{!305, !306, !307, !308}
!305 = !DIDerivedType(tag: DW_TAG_member, name: "killer1", scope: !303, file: !258, line: 37, baseType: !299, size: 32)
!306 = !DIDerivedType(tag: DW_TAG_member, name: "killer2", scope: !303, file: !258, line: 38, baseType: !299, size: 32, offset: 32)
!307 = !DIDerivedType(tag: DW_TAG_member, name: "killer3", scope: !303, file: !258, line: 39, baseType: !299, size: 32, offset: 64)
!308 = !DIDerivedType(tag: DW_TAG_member, name: "killer4", scope: !303, file: !258, line: 40, baseType: !299, size: 32, offset: 96)
!309 = !DIDerivedType(tag: DW_TAG_member, name: "nodes", scope: !257, file: !258, line: 43, baseType: !266, size: 64, offset: 32640)
!310 = !DIDerivedType(tag: DW_TAG_member, name: "qnodes", scope: !257, file: !258, line: 43, baseType: !266, size: 64, offset: 32704)
!311 = !DIDerivedType(tag: DW_TAG_member, name: "maxply", scope: !257, file: !258, line: 44, baseType: !10, size: 32, offset: 32768)
!312 = !DIDerivedType(tag: DW_TAG_member, name: "checks", scope: !257, file: !258, line: 45, baseType: !262, size: 2048, offset: 32800)
!313 = !DIDerivedType(tag: DW_TAG_member, name: "TTProbes", scope: !257, file: !258, line: 51, baseType: !131, size: 32, offset: 34848)
!314 = !DIDerivedType(tag: DW_TAG_member, name: "TTHits", scope: !257, file: !258, line: 52, baseType: !131, size: 32, offset: 34880)
!315 = !DIDerivedType(tag: DW_TAG_member, name: "TTStores", scope: !257, file: !258, line: 53, baseType: !131, size: 32, offset: 34912)
!316 = !DIDerivedType(tag: DW_TAG_member, name: "TTColls", scope: !257, file: !258, line: 54, baseType: !131, size: 32, offset: 34944)
!317 = !DIDerivedType(tag: DW_TAG_member, name: "wking_start", scope: !257, file: !258, line: 60, baseType: !10, size: 32, offset: 34976)
!318 = !DIDerivedType(tag: DW_TAG_member, name: "bking_start", scope: !257, file: !258, line: 61, baseType: !10, size: 32, offset: 35008)
!319 = !DIDerivedType(tag: DW_TAG_member, name: "wlrook_start", scope: !257, file: !258, line: 62, baseType: !10, size: 32, offset: 35040)
!320 = !DIDerivedType(tag: DW_TAG_member, name: "wrrook_start", scope: !257, file: !258, line: 63, baseType: !10, size: 32, offset: 35072)
!321 = !DIDerivedType(tag: DW_TAG_member, name: "blrook_start", scope: !257, file: !258, line: 64, baseType: !10, size: 32, offset: 35104)
!322 = !DIDerivedType(tag: DW_TAG_member, name: "brrook_start", scope: !257, file: !258, line: 65, baseType: !10, size: 32, offset: 35136)
!323 = !DIDerivedType(tag: DW_TAG_member, name: "hash_history", scope: !257, file: !258, line: 69, baseType: !324, size: 64000, offset: 35200)
!324 = !DICompositeType(tag: DW_TAG_array_type, baseType: !266, size: 64000, elements: !325)
!325 = !{!326}
!326 = !DISubrange(count: 1000)
!327 = !DIDerivedType(tag: DW_TAG_const_type, baseType: !10)
!328 = !DILocalVariable(name: "s", arg: 1, scope: !253, file: !1, line: 19, type: !256)
!329 = !DILocation(line: 19, column: 18, scope: !253)
!330 = !DILocalVariable(name: "color", arg: 2, scope: !253, file: !1, line: 19, type: !327)
!331 = !DILocation(line: 19, column: 31, scope: !253)
!332 = !DILocalVariable(name: "from", arg: 3, scope: !253, file: !1, line: 19, type: !327)
!333 = !DILocation(line: 19, column: 48, scope: !253)
!334 = !DILocalVariable(name: "to", arg: 4, scope: !253, file: !1, line: 19, type: !327)
!335 = !DILocation(line: 19, column: 64, scope: !253)
!336 = !DILocalVariable(name: "promoted", arg: 5, scope: !253, file: !1, line: 19, type: !327)
!337 = !DILocation(line: 19, column: 78, scope: !253)
!338 = !DILocalVariable(name: "attacks", scope: !253, file: !1, line: 20, type: !266)
!339 = !DILocation(line: 20, column: 14, scope: !253)
!340 = !DILocalVariable(name: "tmp", scope: !253, file: !1, line: 20, type: !266)
!341 = !DILocation(line: 20, column: 23, scope: !253)
!342 = !DILocalVariable(name: "origAll", scope: !253, file: !1, line: 21, type: !266)
!343 = !DILocation(line: 21, column: 14, scope: !253)
!344 = !DILocalVariable(name: "origBB", scope: !253, file: !1, line: 21, type: !266)
!345 = !DILocation(line: 21, column: 23, scope: !253)
!346 = !DILocalVariable(name: "XRayR", scope: !253, file: !1, line: 21, type: !266)
!347 = !DILocation(line: 21, column: 31, scope: !253)
!348 = !DILocalVariable(name: "XRayB", scope: !253, file: !1, line: 21, type: !266)
!349 = !DILocation(line: 21, column: 38, scope: !253)
!350 = !DILocalVariable(name: "captured", scope: !253, file: !1, line: 22, type: !351)
!351 = !DICompositeType(tag: DW_TAG_array_type, baseType: !10, size: 1024, elements: !352)
!352 = !{!353}
!353 = !DISubrange(count: 32)
!354 = !DILocation(line: 22, column: 9, scope: !253)
!355 = !DILocalVariable(name: "p", scope: !253, file: !1, line: 23, type: !10)
!356 = !DILocation(line: 23, column: 9, scope: !253)
!357 = !DILocalVariable(name: "np", scope: !253, file: !1, line: 23, type: !10)
!358 = !DILocation(line: 23, column: 12, scope: !253)
!359 = !DILocalVariable(name: "side", scope: !253, file: !1, line: 24, type: !10)
!360 = !DILocation(line: 24, column: 9, scope: !253)
!361 = !DILocalVariable(name: "num_captures", scope: !253, file: !1, line: 25, type: !10)
!362 = !DILocation(line: 25, column: 9, scope: !253)
!363 = !DILocalVariable(name: "score", scope: !253, file: !1, line: 26, type: !10)
!364 = !DILocation(line: 26, column: 9, scope: !253)
!365 = !DILocalVariable(name: "ptype", scope: !253, file: !1, line: 27, type: !10)
!366 = !DILocation(line: 27, column: 9, scope: !253)
!367 = !DILocalVariable(name: "BitBoard", scope: !253, file: !1, line: 28, type: !368)
!368 = !DIDerivedType(tag: DW_TAG_pointer_type, baseType: !266, size: 64)
!369 = !DILocation(line: 28, column: 15, scope: !253)
!370 = !DILocation(line: 28, column: 26, scope: !253)
!371 = !DILocation(line: 28, column: 29, scope: !253)
!372 = !DILocation(line: 30, column: 18, scope: !253)
!373 = !DILocation(line: 31, column: 12, scope: !253)
!374 = !DILocation(line: 31, column: 10, scope: !253)
!375 = !DILocation(line: 33, column: 13, scope: !253)
!376 = !DILocation(line: 33, column: 16, scope: !253)
!377 = !DILocation(line: 33, column: 23, scope: !253)
!378 = !DILocation(line: 33, column: 11, scope: !253)
!379 = !DILocation(line: 38, column: 15, scope: !253)
!380 = !DILocation(line: 38, column: 18, scope: !253)
!381 = !DILocation(line: 38, column: 13, scope: !253)
!382 = !DILocation(line: 39, column: 15, scope: !253)
!383 = !DILocation(line: 39, column: 24, scope: !253)
!384 = !DILocation(line: 39, column: 13, scope: !253)
!385 = !DILocation(line: 41, column: 29, scope: !253)
!386 = !DILocation(line: 41, column: 24, scope: !253)
!387 = !DILocation(line: 41, column: 5, scope: !253)
!388 = !DILocation(line: 41, column: 8, scope: !253)
!389 = !DILocation(line: 41, column: 21, scope: !253)
!390 = !DILocation(line: 42, column: 29, scope: !253)
!391 = !DILocation(line: 42, column: 24, scope: !253)
!392 = !DILocation(line: 42, column: 5, scope: !253)
!393 = !DILocation(line: 42, column: 14, scope: !253)
!394 = !DILocation(line: 42, column: 21, scope: !253)
!395 = !DILocation(line: 47, column: 26, scope: !253)
!396 = !DILocation(line: 47, column: 29, scope: !253)
!397 = !DILocation(line: 47, column: 15, scope: !253)
!398 = !DILocation(line: 47, column: 13, scope: !253)
!399 = !DILocation(line: 53, column: 32, scope: !253)
!400 = !DILocation(line: 53, column: 35, scope: !253)
!401 = !DILocation(line: 53, column: 42, scope: !253)
!402 = !DILocation(line: 53, column: 23, scope: !253)
!403 = !DILocation(line: 53, column: 19, scope: !253)
!404 = !DILocation(line: 53, column: 5, scope: !253)
!405 = !DILocation(line: 53, column: 17, scope: !253)
!406 = !DILocation(line: 56, column: 10, scope: !407)
!407 = distinct !DILexicalBlock(scope: !253, file: !1, line: 56, column: 9)
!408 = !DILocation(line: 56, column: 9, scope: !253)
!409 = !DILocation(line: 57, column: 26, scope: !410)
!410 = distinct !DILexicalBlock(scope: !407, file: !1, line: 56, column: 20)
!411 = !DILocation(line: 57, column: 17, scope: !410)
!412 = !DILocation(line: 57, column: 13, scope: !410)
!413 = !DILocation(line: 57, column: 11, scope: !410)
!414 = !DILocation(line: 58, column: 5, scope: !410)
!415 = !DILocation(line: 60, column: 26, scope: !416)
!416 = distinct !DILexicalBlock(scope: !407, file: !1, line: 58, column: 12)
!417 = !DILocation(line: 60, column: 17, scope: !416)
!418 = !DILocation(line: 60, column: 13, scope: !416)
!419 = !DILocation(line: 60, column: 37, scope: !416)
!420 = !DILocation(line: 60, column: 11, scope: !416)
!421 = !DILocation(line: 63, column: 14, scope: !253)
!422 = !DILocation(line: 63, column: 28, scope: !253)
!423 = !DILocation(line: 63, column: 26, scope: !253)
!424 = !DILocation(line: 63, column: 42, scope: !253)
!425 = !DILocation(line: 63, column: 40, scope: !253)
!426 = !DILocation(line: 63, column: 55, scope: !253)
!427 = !DILocation(line: 63, column: 53, scope: !253)
!428 = !DILocation(line: 63, column: 11, scope: !253)
!429 = !DILocation(line: 64, column: 14, scope: !253)
!430 = !DILocation(line: 64, column: 28, scope: !253)
!431 = !DILocation(line: 64, column: 26, scope: !253)
!432 = !DILocation(line: 64, column: 42, scope: !253)
!433 = !DILocation(line: 64, column: 40, scope: !253)
!434 = !DILocation(line: 64, column: 57, scope: !253)
!435 = !DILocation(line: 64, column: 55, scope: !253)
!436 = !DILocation(line: 64, column: 11, scope: !253)
!437 = !DILocation(line: 66, column: 10, scope: !253)
!438 = !DILocation(line: 68, column: 5, scope: !253)
!439 = !DILocation(line: 68, column: 12, scope: !253)
!440 = !DILocation(line: 72, column: 13, scope: !441)
!441 = distinct !DILexicalBlock(scope: !442, file: !1, line: 72, column: 13)
!442 = distinct !DILexicalBlock(scope: !253, file: !1, line: 68, column: 21)
!443 = !DILocation(line: 72, column: 18, scope: !441)
!444 = !DILocation(line: 72, column: 13, scope: !442)
!445 = !DILocation(line: 73, column: 19, scope: !446)
!446 = distinct !DILexicalBlock(scope: !441, file: !1, line: 72, column: 28)
!447 = !DILocation(line: 73, column: 32, scope: !446)
!448 = !DILocation(line: 73, column: 30, scope: !446)
!449 = !DILocation(line: 73, column: 17, scope: !446)
!450 = !DILocation(line: 74, column: 17, scope: !451)
!451 = distinct !DILexicalBlock(scope: !446, file: !1, line: 74, column: 17)
!452 = !DILocation(line: 74, column: 17, scope: !446)
!453 = !DILocation(line: 75, column: 20, scope: !454)
!454 = distinct !DILexicalBlock(scope: !451, file: !1, line: 74, column: 22)
!455 = !DILocation(line: 76, column: 13, scope: !454)
!456 = !DILocation(line: 77, column: 23, scope: !457)
!457 = distinct !DILexicalBlock(scope: !451, file: !1, line: 76, column: 20)
!458 = !DILocation(line: 77, column: 38, scope: !457)
!459 = !DILocation(line: 77, column: 36, scope: !457)
!460 = !DILocation(line: 77, column: 21, scope: !457)
!461 = !DILocation(line: 78, column: 21, scope: !462)
!462 = distinct !DILexicalBlock(scope: !457, file: !1, line: 78, column: 21)
!463 = !DILocation(line: 78, column: 21, scope: !457)
!464 = !DILocation(line: 79, column: 24, scope: !465)
!465 = distinct !DILexicalBlock(scope: !462, file: !1, line: 78, column: 26)
!466 = !DILocation(line: 80, column: 17, scope: !465)
!467 = !DILocation(line: 81, column: 27, scope: !468)
!468 = distinct !DILexicalBlock(scope: !462, file: !1, line: 80, column: 24)
!469 = !DILocation(line: 81, column: 42, scope: !468)
!470 = !DILocation(line: 81, column: 40, scope: !468)
!471 = !DILocation(line: 81, column: 25, scope: !468)
!472 = !DILocation(line: 82, column: 25, scope: !473)
!473 = distinct !DILexicalBlock(scope: !468, file: !1, line: 82, column: 25)
!474 = !DILocation(line: 82, column: 25, scope: !468)
!475 = !DILocation(line: 83, column: 28, scope: !476)
!476 = distinct !DILexicalBlock(scope: !473, file: !1, line: 82, column: 30)
!477 = !DILocation(line: 84, column: 21, scope: !476)
!478 = !DILocation(line: 85, column: 31, scope: !479)
!479 = distinct !DILexicalBlock(scope: !473, file: !1, line: 84, column: 28)
!480 = !DILocation(line: 85, column: 44, scope: !479)
!481 = !DILocation(line: 85, column: 42, scope: !479)
!482 = !DILocation(line: 85, column: 29, scope: !479)
!483 = !DILocation(line: 86, column: 29, scope: !484)
!484 = distinct !DILexicalBlock(scope: !479, file: !1, line: 86, column: 29)
!485 = !DILocation(line: 86, column: 29, scope: !479)
!486 = !DILocation(line: 87, column: 32, scope: !487)
!487 = distinct !DILexicalBlock(scope: !484, file: !1, line: 86, column: 34)
!488 = !DILocation(line: 88, column: 25, scope: !487)
!489 = !DILocation(line: 89, column: 35, scope: !490)
!490 = distinct !DILexicalBlock(scope: !484, file: !1, line: 88, column: 32)
!491 = !DILocation(line: 89, column: 49, scope: !490)
!492 = !DILocation(line: 89, column: 47, scope: !490)
!493 = !DILocation(line: 89, column: 33, scope: !490)
!494 = !DILocation(line: 90, column: 33, scope: !495)
!495 = distinct !DILexicalBlock(scope: !490, file: !1, line: 90, column: 33)
!496 = !DILocation(line: 90, column: 33, scope: !490)
!497 = !DILocation(line: 91, column: 36, scope: !498)
!498 = distinct !DILexicalBlock(scope: !495, file: !1, line: 90, column: 38)
!499 = !DILocation(line: 92, column: 29, scope: !498)
!500 = !DILocation(line: 93, column: 39, scope: !501)
!501 = distinct !DILexicalBlock(scope: !495, file: !1, line: 92, column: 36)
!502 = !DILocation(line: 93, column: 51, scope: !501)
!503 = !DILocation(line: 93, column: 49, scope: !501)
!504 = !DILocation(line: 93, column: 37, scope: !501)
!505 = !DILocation(line: 94, column: 38, scope: !506)
!506 = distinct !DILexicalBlock(scope: !501, file: !1, line: 94, column: 37)
!507 = !DILocation(line: 94, column: 37, scope: !501)
!508 = !DILocation(line: 95, column: 37, scope: !509)
!509 = distinct !DILexicalBlock(scope: !506, file: !1, line: 94, column: 43)
!510 = !DILocation(line: 97, column: 36, scope: !501)
!511 = !DILocation(line: 103, column: 9, scope: !446)
!512 = !DILocation(line: 104, column: 19, scope: !513)
!513 = distinct !DILexicalBlock(scope: !441, file: !1, line: 103, column: 16)
!514 = !DILocation(line: 104, column: 32, scope: !513)
!515 = !DILocation(line: 104, column: 30, scope: !513)
!516 = !DILocation(line: 104, column: 17, scope: !513)
!517 = !DILocation(line: 105, column: 17, scope: !518)
!518 = distinct !DILexicalBlock(scope: !513, file: !1, line: 105, column: 17)
!519 = !DILocation(line: 105, column: 17, scope: !513)
!520 = !DILocation(line: 106, column: 20, scope: !521)
!521 = distinct !DILexicalBlock(scope: !518, file: !1, line: 105, column: 22)
!522 = !DILocation(line: 107, column: 13, scope: !521)
!523 = !DILocation(line: 108, column: 23, scope: !524)
!524 = distinct !DILexicalBlock(scope: !518, file: !1, line: 107, column: 20)
!525 = !DILocation(line: 108, column: 38, scope: !524)
!526 = !DILocation(line: 108, column: 36, scope: !524)
!527 = !DILocation(line: 108, column: 21, scope: !524)
!528 = !DILocation(line: 109, column: 21, scope: !529)
!529 = distinct !DILexicalBlock(scope: !524, file: !1, line: 109, column: 21)
!530 = !DILocation(line: 109, column: 21, scope: !524)
!531 = !DILocation(line: 110, column: 24, scope: !532)
!532 = distinct !DILexicalBlock(scope: !529, file: !1, line: 109, column: 26)
!533 = !DILocation(line: 111, column: 17, scope: !532)
!534 = !DILocation(line: 112, column: 27, scope: !535)
!535 = distinct !DILexicalBlock(scope: !529, file: !1, line: 111, column: 24)
!536 = !DILocation(line: 112, column: 42, scope: !535)
!537 = !DILocation(line: 112, column: 40, scope: !535)
!538 = !DILocation(line: 112, column: 25, scope: !535)
!539 = !DILocation(line: 113, column: 25, scope: !540)
!540 = distinct !DILexicalBlock(scope: !535, file: !1, line: 113, column: 25)
!541 = !DILocation(line: 113, column: 25, scope: !535)
!542 = !DILocation(line: 114, column: 28, scope: !543)
!543 = distinct !DILexicalBlock(scope: !540, file: !1, line: 113, column: 30)
!544 = !DILocation(line: 115, column: 21, scope: !543)
!545 = !DILocation(line: 116, column: 31, scope: !546)
!546 = distinct !DILexicalBlock(scope: !540, file: !1, line: 115, column: 28)
!547 = !DILocation(line: 116, column: 44, scope: !546)
!548 = !DILocation(line: 116, column: 42, scope: !546)
!549 = !DILocation(line: 116, column: 29, scope: !546)
!550 = !DILocation(line: 117, column: 29, scope: !551)
!551 = distinct !DILexicalBlock(scope: !546, file: !1, line: 117, column: 29)
!552 = !DILocation(line: 117, column: 29, scope: !546)
!553 = !DILocation(line: 118, column: 32, scope: !554)
!554 = distinct !DILexicalBlock(scope: !551, file: !1, line: 117, column: 34)
!555 = !DILocation(line: 119, column: 25, scope: !554)
!556 = !DILocation(line: 120, column: 35, scope: !557)
!557 = distinct !DILexicalBlock(scope: !551, file: !1, line: 119, column: 32)
!558 = !DILocation(line: 120, column: 49, scope: !557)
!559 = !DILocation(line: 120, column: 47, scope: !557)
!560 = !DILocation(line: 120, column: 33, scope: !557)
!561 = !DILocation(line: 121, column: 33, scope: !562)
!562 = distinct !DILexicalBlock(scope: !557, file: !1, line: 121, column: 33)
!563 = !DILocation(line: 121, column: 33, scope: !557)
!564 = !DILocation(line: 122, column: 36, scope: !565)
!565 = distinct !DILexicalBlock(scope: !562, file: !1, line: 121, column: 38)
!566 = !DILocation(line: 123, column: 29, scope: !565)
!567 = !DILocation(line: 124, column: 39, scope: !568)
!568 = distinct !DILexicalBlock(scope: !562, file: !1, line: 123, column: 36)
!569 = !DILocation(line: 124, column: 51, scope: !568)
!570 = !DILocation(line: 124, column: 49, scope: !568)
!571 = !DILocation(line: 124, column: 37, scope: !568)
!572 = !DILocation(line: 125, column: 38, scope: !573)
!573 = distinct !DILexicalBlock(scope: !568, file: !1, line: 125, column: 37)
!574 = !DILocation(line: 125, column: 37, scope: !568)
!575 = !DILocation(line: 126, column: 37, scope: !576)
!576 = distinct !DILexicalBlock(scope: !573, file: !1, line: 125, column: 43)
!577 = !DILocation(line: 128, column: 36, scope: !568)
!578 = !DILocation(line: 138, column: 44, scope: !442)
!579 = !DILocation(line: 138, column: 57, scope: !442)
!580 = !DILocation(line: 138, column: 35, scope: !442)
!581 = !DILocation(line: 138, column: 34, scope: !442)
!582 = !DILocation(line: 138, column: 64, scope: !442)
!583 = !DILocation(line: 138, column: 62, scope: !442)
!584 = !DILocation(line: 138, column: 18, scope: !442)
!585 = !DILocation(line: 138, column: 9, scope: !442)
!586 = !DILocation(line: 138, column: 32, scope: !442)
!587 = !DILocation(line: 139, column: 21, scope: !442)
!588 = !DILocation(line: 142, column: 13, scope: !442)
!589 = !DILocation(line: 142, column: 11, scope: !442)
!590 = !DILocation(line: 145, column: 18, scope: !442)
!591 = !DILocation(line: 145, column: 17, scope: !442)
!592 = !DILocation(line: 145, column: 13, scope: !442)
!593 = !DILocation(line: 148, column: 19, scope: !442)
!594 = !DILocation(line: 148, column: 9, scope: !442)
!595 = !DILocation(line: 148, column: 12, scope: !442)
!596 = !DILocation(line: 148, column: 16, scope: !442)
!597 = !DILocation(line: 151, column: 13, scope: !598)
!598 = distinct !DILexicalBlock(scope: !442, file: !1, line: 151, column: 13)
!599 = !DILocation(line: 151, column: 30, scope: !598)
!600 = !DILocation(line: 151, column: 21, scope: !598)
!601 = !DILocation(line: 151, column: 19, scope: !598)
!602 = !DILocation(line: 151, column: 13, scope: !442)
!603 = !DILocation(line: 152, column: 36, scope: !604)
!604 = distinct !DILexicalBlock(scope: !598, file: !1, line: 151, column: 35)
!605 = !DILocation(line: 152, column: 39, scope: !604)
!606 = !DILocation(line: 152, column: 24, scope: !604)
!607 = !DILocation(line: 152, column: 47, scope: !604)
!608 = !DILocation(line: 152, column: 45, scope: !604)
!609 = !DILocation(line: 152, column: 21, scope: !604)
!610 = !DILocation(line: 153, column: 9, scope: !604)
!611 = !DILocation(line: 154, column: 13, scope: !612)
!612 = distinct !DILexicalBlock(scope: !442, file: !1, line: 154, column: 13)
!613 = !DILocation(line: 154, column: 32, scope: !612)
!614 = !DILocation(line: 154, column: 21, scope: !612)
!615 = !DILocation(line: 154, column: 19, scope: !612)
!616 = !DILocation(line: 154, column: 13, scope: !442)
!617 = !DILocation(line: 155, column: 38, scope: !618)
!618 = distinct !DILexicalBlock(scope: !612, file: !1, line: 154, column: 37)
!619 = !DILocation(line: 155, column: 41, scope: !618)
!620 = !DILocation(line: 155, column: 24, scope: !618)
!621 = !DILocation(line: 155, column: 47, scope: !618)
!622 = !DILocation(line: 155, column: 45, scope: !618)
!623 = !DILocation(line: 155, column: 21, scope: !618)
!624 = !DILocation(line: 156, column: 9, scope: !618)
!625 = !DILocation(line: 157, column: 20, scope: !442)
!626 = !DILocation(line: 157, column: 23, scope: !442)
!627 = !DILocation(line: 157, column: 17, scope: !442)
!628 = !DILocation(line: 159, column: 14, scope: !442)
!629 = distinct !{!629, !438, !630}
!630 = !DILocation(line: 160, column: 5, scope: !253)
!631 = !DILocation(line: 163, column: 17, scope: !253)
!632 = !DILocation(line: 164, column: 22, scope: !253)
!633 = !DILocation(line: 164, column: 13, scope: !253)
!634 = !DILocation(line: 164, column: 11, scope: !253)
!635 = !DILocation(line: 166, column: 5, scope: !253)
!636 = !DILocation(line: 166, column: 12, scope: !253)
!637 = !DILocation(line: 166, column: 25, scope: !253)
!638 = !DILocation(line: 168, column: 13, scope: !639)
!639 = distinct !DILexicalBlock(scope: !640, file: !1, line: 168, column: 13)
!640 = distinct !DILexicalBlock(scope: !253, file: !1, line: 166, column: 30)
!641 = !DILocation(line: 168, column: 31, scope: !639)
!642 = !DILocation(line: 168, column: 44, scope: !639)
!643 = !DILocation(line: 168, column: 22, scope: !639)
!644 = !DILocation(line: 168, column: 21, scope: !639)
!645 = !DILocation(line: 168, column: 19, scope: !639)
!646 = !DILocation(line: 168, column: 13, scope: !640)
!647 = !DILocation(line: 169, column: 22, scope: !648)
!648 = distinct !DILexicalBlock(scope: !639, file: !1, line: 168, column: 50)
!649 = !DILocation(line: 169, column: 21, scope: !648)
!650 = !DILocation(line: 169, column: 19, scope: !648)
!651 = !DILocation(line: 170, column: 9, scope: !648)
!652 = !DILocation(line: 172, column: 30, scope: !653)
!653 = distinct !DILexicalBlock(scope: !639, file: !1, line: 170, column: 16)
!654 = !DILocation(line: 172, column: 43, scope: !653)
!655 = !DILocation(line: 172, column: 21, scope: !653)
!656 = !DILocation(line: 172, column: 19, scope: !653)
!657 = !DILocation(line: 175, column: 21, scope: !640)
!658 = distinct !{!658, !635, !659}
!659 = !DILocation(line: 176, column: 5, scope: !253)
!660 = !DILocation(line: 181, column: 23, scope: !253)
!661 = !DILocation(line: 181, column: 5, scope: !253)
!662 = !DILocation(line: 181, column: 8, scope: !253)
!663 = !DILocation(line: 181, column: 21, scope: !253)
!664 = !DILocation(line: 182, column: 23, scope: !253)
!665 = !DILocation(line: 182, column: 5, scope: !253)
!666 = !DILocation(line: 182, column: 14, scope: !253)
!667 = !DILocation(line: 182, column: 21, scope: !253)
!668 = !DILocation(line: 184, column: 9, scope: !669)
!669 = distinct !DILexicalBlock(scope: !253, file: !1, line: 184, column: 9)
!670 = !DILocation(line: 184, column: 9, scope: !253)
!671 = !DILocation(line: 185, column: 16, scope: !672)
!672 = distinct !DILexicalBlock(scope: !669, file: !1, line: 184, column: 19)
!673 = !DILocation(line: 185, column: 37, scope: !672)
!674 = !DILocation(line: 185, column: 28, scope: !672)
!675 = !DILocation(line: 185, column: 24, scope: !672)
!676 = !DILocation(line: 185, column: 22, scope: !672)
!677 = !DILocation(line: 185, column: 48, scope: !672)
!678 = !DILocation(line: 185, column: 9, scope: !672)
!679 = !DILocation(line: 187, column: 16, scope: !680)
!680 = distinct !DILexicalBlock(scope: !669, file: !1, line: 186, column: 12)
!681 = !DILocation(line: 187, column: 9, scope: !680)
!682 = !DILocation(line: 189, column: 1, scope: !253)
