; ModuleID = 'SGFParser.cpp'
source_filename = "SGFParser.cpp"
target datalayout = "e-m:e-p270:32:32-p271:32:32-p272:64:64-i64:64-f80:128-n8:16:32:64-S128"
target triple = "x86_64-unknown-linux-gnu"

%"class.std::ios_base::Init" = type { i8 }
%"class.std::__cxx11::basic_string" = type { %"struct.std::__cxx11::basic_string<char, std::char_traits<char>, std::allocator<char> >::_Alloc_hider", i64, %union.anon }
%"struct.std::__cxx11::basic_string<char, std::char_traits<char>, std::allocator<char> >::_Alloc_hider" = type { i8* }
%union.anon = type { i64, [8 x i8] }
%"class.std::basic_ifstream" = type { %"class.std::basic_istream.base", %"class.std::basic_filebuf", %"class.std::basic_ios" }
%"class.std::basic_istream.base" = type { i32 (...)**, i64 }
%"class.std::basic_filebuf" = type { %"class.std::basic_streambuf", %union.pthread_mutex_t, %"class.std::__basic_file", i32, %struct.__mbstate_t, %struct.__mbstate_t, %struct.__mbstate_t, i8*, i64, i8, i8, i8, i8, i8*, i8*, i8, %"class.std::codecvt"*, i8*, i64, i8*, i8* }
%"class.std::basic_streambuf" = type { i32 (...)**, i8*, i8*, i8*, i8*, i8*, i8*, %"class.std::locale" }
%"class.std::locale" = type { %"class.std::locale::_Impl"* }
%"class.std::locale::_Impl" = type { i32, %"class.std::locale::facet"**, i64, %"class.std::locale::facet"**, i8** }
%"class.std::locale::facet" = type <{ i32 (...)**, i32, [4 x i8] }>
%union.pthread_mutex_t = type { %struct.__pthread_mutex_s }
%struct.__pthread_mutex_s = type { i32, i32, i32, i32, i32, i16, i16, %struct.__pthread_internal_list }
%struct.__pthread_internal_list = type { %struct.__pthread_internal_list*, %struct.__pthread_internal_list* }
%"class.std::__basic_file" = type <{ %struct._IO_FILE*, i8, [7 x i8] }>
%struct._IO_FILE = type { i32, i8*, i8*, i8*, i8*, i8*, i8*, i8*, i8*, i8*, i8*, i8*, %struct._IO_marker*, %struct._IO_FILE*, i32, i32, i64, i16, i8, [1 x i8], i8*, i64, %struct._IO_codecvt*, %struct._IO_wide_data*, %struct._IO_FILE*, i8*, i64, i32, [20 x i8] }
%struct._IO_marker = type opaque
%struct._IO_codecvt = type opaque
%struct._IO_wide_data = type opaque
%struct.__mbstate_t = type { i32, %union.anon.0 }
%union.anon.0 = type { i32 }
%"class.std::codecvt" = type { %"class.std::__codecvt_abstract_base.base", %struct.__locale_struct* }
%"class.std::__codecvt_abstract_base.base" = type { %"class.std::locale::facet.base" }
%"class.std::locale::facet.base" = type <{ i32 (...)**, i32 }>
%struct.__locale_struct = type { [13 x %struct.__locale_data*], i16*, i32*, i32*, [13 x i8*] }
%struct.__locale_data = type opaque
%"class.std::basic_ios" = type { %"class.std::ios_base", %"class.std::basic_ostream"*, i8, i8, %"class.std::basic_streambuf"*, %"class.std::ctype"*, %"class.std::num_put"*, %"class.std::num_get"* }
%"class.std::ios_base" = type { i32 (...)**, i64, i64, i32, i32, i32, %"struct.std::ios_base::_Callback_list"*, %"struct.std::ios_base::_Words", [8 x %"struct.std::ios_base::_Words"], i32, %"struct.std::ios_base::_Words"*, %"class.std::locale" }
%"struct.std::ios_base::_Callback_list" = type { %"struct.std::ios_base::_Callback_list"*, void (i32, %"class.std::ios_base"*, i32)*, i32, i32 }
%"struct.std::ios_base::_Words" = type { i8*, i64 }
%"class.std::basic_ostream" = type { i32 (...)**, %"class.std::basic_ios" }
%"class.std::ctype" = type <{ %"class.std::locale::facet.base", [4 x i8], %struct.__locale_struct*, i8, [7 x i8], i32*, i32*, i16*, i8, [256 x i8], [256 x i8], i8, [6 x i8] }>
%"class.std::num_put" = type { %"class.std::locale::facet.base", [4 x i8] }
%"class.std::num_get" = type { %"class.std::locale::facet.base", [4 x i8] }
%"class.std::exception" = type { i32 (...)** }
%"class.std::basic_istream" = type { i32 (...)**, i64, %"class.std::basic_ios" }
%"class.std::__cxx11::basic_istringstream" = type { %"class.std::basic_istream.base", %"class.std::__cxx11::basic_stringbuf", %"class.std::basic_ios" }
%"class.std::__cxx11::basic_stringbuf" = type { %"class.std::basic_streambuf", i32, %"class.std::__cxx11::basic_string" }
%class.SGFTree = type { %class.KoState, %"class.std::vector.16", %"class.std::multimap" }
%class.KoState = type { %class.FastState.base, %"class.std::vector.11", %"class.std::vector.11" }
%class.FastState.base = type <{ %class.FullBoard, float, i32, i32, i32, i32, i32, i32, %"class.boost::array.9", %"class.boost::array.10" }>
%class.FullBoard = type { %class.FastBoard.base, i64, i64 }
%class.FastBoard.base = type <{ %"class.boost::array", %"class.boost::array", i32, i32, i32, %"class.boost::array.1", %"class.boost::array.2", %"class.boost::array.2", %"class.boost::array.2", %"class.boost::array.2", %"class.boost::array", [2 x i8], %"class.boost::array.3", %"class.boost::array.4", %"class.boost::array.5", %"class.boost::array.5", %"class.std::vector", i32 }>
%"class.boost::array.1" = type { [441 x i32] }
%"class.boost::array.2" = type { [442 x i16] }
%"class.boost::array" = type { [441 x i16] }
%"class.boost::array.3" = type { [4 x i32] }
%"class.boost::array.4" = type { [8 x i32] }
%"class.boost::array.5" = type { [2 x i32] }
%"class.std::vector" = type { %"struct.std::_Vector_base" }
%"struct.std::_Vector_base" = type { %"struct.std::_Vector_base<int, std::allocator<int> >::_Vector_impl" }
%"struct.std::_Vector_base<int, std::allocator<int> >::_Vector_impl" = type { %"struct.std::_Vector_base<int, std::allocator<int> >::_Vector_impl_data" }
%"struct.std::_Vector_base<int, std::allocator<int> >::_Vector_impl_data" = type { i32*, i32*, i32* }
%"class.boost::array.9" = type { [24 x i32] }
%"class.boost::array.10" = type { [24 x %"struct.std::pair"] }
%"struct.std::pair" = type { i32, i32 }
%"class.std::vector.11" = type { %"struct.std::_Vector_base.12" }
%"struct.std::_Vector_base.12" = type { %"struct.std::_Vector_base<unsigned long long, std::allocator<unsigned long long> >::_Vector_impl" }
%"struct.std::_Vector_base<unsigned long long, std::allocator<unsigned long long> >::_Vector_impl" = type { %"struct.std::_Vector_base<unsigned long long, std::allocator<unsigned long long> >::_Vector_impl_data" }
%"struct.std::_Vector_base<unsigned long long, std::allocator<unsigned long long> >::_Vector_impl_data" = type { i64*, i64*, i64* }
%"class.std::vector.16" = type { %"struct.std::_Vector_base.17" }
%"struct.std::_Vector_base.17" = type { %"struct.std::_Vector_base<SGFTree, std::allocator<SGFTree> >::_Vector_impl" }
%"struct.std::_Vector_base<SGFTree, std::allocator<SGFTree> >::_Vector_impl" = type { %"struct.std::_Vector_base<SGFTree, std::allocator<SGFTree> >::_Vector_impl_data" }
%"struct.std::_Vector_base<SGFTree, std::allocator<SGFTree> >::_Vector_impl_data" = type { %class.SGFTree*, %class.SGFTree*, %class.SGFTree* }
%"class.std::multimap" = type { %"class.std::_Rb_tree" }
%"class.std::_Rb_tree" = type { %"struct.std::_Rb_tree<std::__cxx11::basic_string<char>, std::pair<const std::__cxx11::basic_string<char>, std::__cxx11::basic_string<char> >, std::_Select1st<std::pair<const std::__cxx11::basic_string<char>, std::__cxx11::basic_string<char> > >, std::less<std::__cxx11::basic_string<char> >, std::allocator<std::pair<const std::__cxx11::basic_string<char>, std::__cxx11::basic_string<char> > > >::_Rb_tree_impl" }
%"struct.std::_Rb_tree<std::__cxx11::basic_string<char>, std::pair<const std::__cxx11::basic_string<char>, std::__cxx11::basic_string<char> >, std::_Select1st<std::pair<const std::__cxx11::basic_string<char>, std::__cxx11::basic_string<char> > >, std::less<std::__cxx11::basic_string<char> >, std::allocator<std::pair<const std::__cxx11::basic_string<char>, std::__cxx11::basic_string<char> > > >::_Rb_tree_impl" = type { %"struct.std::_Rb_tree_key_compare", %"struct.std::_Rb_tree_header" }
%"struct.std::_Rb_tree_key_compare" = type { %"struct.std::less" }
%"struct.std::less" = type { i8 }
%"struct.std::_Rb_tree_header" = type { %"struct.std::_Rb_tree_node_base", i64 }
%"struct.std::_Rb_tree_node_base" = type { i32, %"struct.std::_Rb_tree_node_base"*, %"struct.std::_Rb_tree_node_base"*, %"struct.std::_Rb_tree_node_base"* }
%"class.std::auto_ptr" = type { %class.SGFTree* }
%class.FastState = type <{ %class.FullBoard, float, i32, i32, i32, i32, i32, i32, %"class.boost::array.9", %"class.boost::array.10", [4 x i8] }>
%"class.std::allocator.18" = type { i8 }
%"class.__gnu_cxx::__normal_iterator.25" = type { %class.SGFTree* }
%"class.std::allocator.13" = type { i8 }
%"class.__gnu_cxx::__normal_iterator.24" = type { i64* }
%class.FastBoard = type <{ %"class.boost::array", %"class.boost::array", i32, i32, i32, %"class.boost::array.1", %"class.boost::array.2", %"class.boost::array.2", %"class.boost::array.2", %"class.boost::array.2", %"class.boost::array", [2 x i8], %"class.boost::array.3", %"class.boost::array.4", %"class.boost::array.5", %"class.boost::array.5", %"class.std::vector", i32, [4 x i8] }>
%"class.std::allocator.6" = type { i8 }
%"class.__gnu_cxx::__normal_iterator" = type { i32* }
%"class.__gnu_cxx::new_allocator.7" = type { i8 }
%"class.__gnu_cxx::new_allocator.14" = type { i8 }
%"class.__gnu_cxx::new_allocator.19" = type { i8 }
%"struct.std::_Rb_tree_node" = type { %"struct.std::_Rb_tree_node_base", %"struct.__gnu_cxx::__aligned_membuf" }
%"struct.__gnu_cxx::__aligned_membuf" = type { [64 x i8] }
%"class.std::allocator.21" = type { i8 }
%"struct.std::_Rb_tree<std::__cxx11::basic_string<char>, std::pair<const std::__cxx11::basic_string<char>, std::__cxx11::basic_string<char> >, std::_Select1st<std::pair<const std::__cxx11::basic_string<char>, std::__cxx11::basic_string<char> > >, std::less<std::__cxx11::basic_string<char> >, std::allocator<std::pair<const std::__cxx11::basic_string<char>, std::__cxx11::basic_string<char> > > >::_Alloc_node" = type { %"class.std::_Rb_tree"* }
%"class.__gnu_cxx::new_allocator.22" = type { i8 }
%"struct.std::pair.26" = type { %"class.std::__cxx11::basic_string", %"class.std::__cxx11::basic_string" }
%"class.std::__pair_base.27" = type { i8 }

$_ZStorSt13_Ios_OpenmodeS_ = comdat any

$_ZNSt9exceptionC2Ev = comdat any

$_ZSt8noskipwsRSt8ios_base = comdat any

$_ZSt6skipwsRSt8ios_base = comdat any

$_ZNSt8auto_ptrI7SGFTreeEC2EPS0_ = comdat any

$_ZNKSt8auto_ptrI7SGFTreeEdeEv = comdat any

$_ZN7SGFTreeC2ERKS_ = comdat any

$_ZN7SGFTreeD2Ev = comdat any

$_ZNSt8auto_ptrI7SGFTreeED2Ev = comdat any

$_ZNSt8ios_base6unsetfESt13_Ios_Fmtflags = comdat any

$_ZStaNRSt13_Ios_FmtflagsS_ = comdat any

$_ZStcoSt13_Ios_Fmtflags = comdat any

$_ZStanSt13_Ios_FmtflagsS_ = comdat any

$_ZNSt8ios_base4setfESt13_Ios_Fmtflags = comdat any

$_ZStoRRSt13_Ios_FmtflagsS_ = comdat any

$_ZStorSt13_Ios_FmtflagsS_ = comdat any

$_ZN7KoStateC2ERKS_ = comdat any

$_ZNSt6vectorI7SGFTreeSaIS0_EEC2ERKS2_ = comdat any

$_ZNSt8multimapINSt7__cxx1112basic_stringIcSt11char_traitsIcESaIcEEES5_St4lessIS5_ESaISt4pairIKS5_S5_EEEC2ERKSC_ = comdat any

$_ZNSt6vectorI7SGFTreeSaIS0_EED2Ev = comdat any

$_ZN7KoStateD2Ev = comdat any

$_ZN9FastStateC2ERKS_ = comdat any

$_ZNSt6vectorIySaIyEEC2ERKS1_ = comdat any

$_ZNSt6vectorIySaIyEED2Ev = comdat any

$_ZN9FastStateD2Ev = comdat any

$_ZN9FullBoardC2ERKS_ = comdat any

$_ZN9FastBoardC2ERKS_ = comdat any

$_ZNSt6vectorIiSaIiEEC2ERKS1_ = comdat any

$_ZNKSt6vectorIiSaIiEE4sizeEv = comdat any

$_ZN9__gnu_cxx14__alloc_traitsISaIiEiE17_S_select_on_copyERKS1_ = comdat any

$_ZNKSt12_Vector_baseIiSaIiEE19_M_get_Tp_allocatorEv = comdat any

$_ZNSt12_Vector_baseIiSaIiEEC2EmRKS0_ = comdat any

$_ZNSaIiED2Ev = comdat any

$_ZSt22__uninitialized_copy_aIN9__gnu_cxx17__normal_iteratorIPKiSt6vectorIiSaIiEEEEPiiET0_T_SA_S9_RSaIT1_E = comdat any

$_ZNKSt6vectorIiSaIiEE5beginEv = comdat any

$_ZNKSt6vectorIiSaIiEE3endEv = comdat any

$_ZNSt12_Vector_baseIiSaIiEE19_M_get_Tp_allocatorEv = comdat any

$_ZNSt12_Vector_baseIiSaIiEED2Ev = comdat any

$_ZNSt16allocator_traitsISaIiEE37select_on_container_copy_constructionERKS0_ = comdat any

$_ZNSaIiEC2ERKS_ = comdat any

$_ZN9__gnu_cxx13new_allocatorIiEC2ERKS1_ = comdat any

$_ZNSt12_Vector_baseIiSaIiEE12_Vector_implC2ERKS0_ = comdat any

$_ZNSt12_Vector_baseIiSaIiEE17_M_create_storageEm = comdat any

$_ZNSt12_Vector_baseIiSaIiEE12_Vector_implD2Ev = comdat any

$_ZNSt12_Vector_baseIiSaIiEE17_Vector_impl_dataC2Ev = comdat any

$_ZNSt12_Vector_baseIiSaIiEE11_M_allocateEm = comdat any

$_ZNSt16allocator_traitsISaIiEE8allocateERS0_m = comdat any

$_ZN9__gnu_cxx13new_allocatorIiE8allocateEmPKv = comdat any

$_ZNK9__gnu_cxx13new_allocatorIiE11_M_max_sizeEv = comdat any

$_ZN9__gnu_cxx13new_allocatorIiED2Ev = comdat any

$_ZSt18uninitialized_copyIN9__gnu_cxx17__normal_iteratorIPKiSt6vectorIiSaIiEEEEPiET0_T_SA_S9_ = comdat any

$_ZNSt20__uninitialized_copyILb1EE13__uninit_copyIN9__gnu_cxx17__normal_iteratorIPKiSt6vectorIiSaIiEEEEPiEET0_T_SC_SB_ = comdat any

$_ZSt4copyIN9__gnu_cxx17__normal_iteratorIPKiSt6vectorIiSaIiEEEEPiET0_T_SA_S9_ = comdat any

$_ZSt13__copy_move_aILb0EN9__gnu_cxx17__normal_iteratorIPKiSt6vectorIiSaIiEEEEPiET1_T0_SA_S9_ = comdat any

$_ZSt12__miter_baseIN9__gnu_cxx17__normal_iteratorIPKiSt6vectorIiSaIiEEEEET_S8_ = comdat any

$_ZSt12__niter_wrapIPiET_RKS1_S1_ = comdat any

$_ZSt14__copy_move_a1ILb0EPKiPiET1_T0_S4_S3_ = comdat any

$_ZSt12__niter_baseIPKiSt6vectorIiSaIiEEET_N9__gnu_cxx17__normal_iteratorIS5_T0_EE = comdat any

$_ZSt12__niter_baseIPiET_S1_ = comdat any

$_ZSt14__copy_move_a2ILb0EPKiPiET1_T0_S4_S3_ = comdat any

$_ZNSt11__copy_moveILb0ELb1ESt26random_access_iterator_tagE8__copy_mIiEEPT_PKS3_S6_S4_ = comdat any

$_ZNK9__gnu_cxx17__normal_iteratorIPKiSt6vectorIiSaIiEEE4baseEv = comdat any

$_ZN9__gnu_cxx17__normal_iteratorIPKiSt6vectorIiSaIiEEEC2ERKS2_ = comdat any

$_ZNSt12_Vector_baseIiSaIiEE13_M_deallocateEPim = comdat any

$__clang_call_terminate = comdat any

$_ZNSt16allocator_traitsISaIiEE10deallocateERS0_Pim = comdat any

$_ZN9__gnu_cxx13new_allocatorIiE10deallocateEPim = comdat any

$_ZNKSt6vectorIySaIyEE4sizeEv = comdat any

$_ZN9__gnu_cxx14__alloc_traitsISaIyEyE17_S_select_on_copyERKS1_ = comdat any

$_ZNKSt12_Vector_baseIySaIyEE19_M_get_Tp_allocatorEv = comdat any

$_ZNSt12_Vector_baseIySaIyEEC2EmRKS0_ = comdat any

$_ZNSaIyED2Ev = comdat any

$_ZSt22__uninitialized_copy_aIN9__gnu_cxx17__normal_iteratorIPKySt6vectorIySaIyEEEEPyyET0_T_SA_S9_RSaIT1_E = comdat any

$_ZNKSt6vectorIySaIyEE5beginEv = comdat any

$_ZNKSt6vectorIySaIyEE3endEv = comdat any

$_ZNSt12_Vector_baseIySaIyEE19_M_get_Tp_allocatorEv = comdat any

$_ZNSt12_Vector_baseIySaIyEED2Ev = comdat any

$_ZNSt16allocator_traitsISaIyEE37select_on_container_copy_constructionERKS0_ = comdat any

$_ZNSaIyEC2ERKS_ = comdat any

$_ZN9__gnu_cxx13new_allocatorIyEC2ERKS1_ = comdat any

$_ZNSt12_Vector_baseIySaIyEE12_Vector_implC2ERKS0_ = comdat any

$_ZNSt12_Vector_baseIySaIyEE17_M_create_storageEm = comdat any

$_ZNSt12_Vector_baseIySaIyEE12_Vector_implD2Ev = comdat any

$_ZNSt12_Vector_baseIySaIyEE17_Vector_impl_dataC2Ev = comdat any

$_ZNSt12_Vector_baseIySaIyEE11_M_allocateEm = comdat any

$_ZNSt16allocator_traitsISaIyEE8allocateERS0_m = comdat any

$_ZN9__gnu_cxx13new_allocatorIyE8allocateEmPKv = comdat any

$_ZNK9__gnu_cxx13new_allocatorIyE11_M_max_sizeEv = comdat any

$_ZN9__gnu_cxx13new_allocatorIyED2Ev = comdat any

$_ZSt18uninitialized_copyIN9__gnu_cxx17__normal_iteratorIPKySt6vectorIySaIyEEEEPyET0_T_SA_S9_ = comdat any

$_ZNSt20__uninitialized_copyILb1EE13__uninit_copyIN9__gnu_cxx17__normal_iteratorIPKySt6vectorIySaIyEEEEPyEET0_T_SC_SB_ = comdat any

$_ZSt4copyIN9__gnu_cxx17__normal_iteratorIPKySt6vectorIySaIyEEEEPyET0_T_SA_S9_ = comdat any

$_ZSt13__copy_move_aILb0EN9__gnu_cxx17__normal_iteratorIPKySt6vectorIySaIyEEEEPyET1_T0_SA_S9_ = comdat any

$_ZSt12__miter_baseIN9__gnu_cxx17__normal_iteratorIPKySt6vectorIySaIyEEEEET_S8_ = comdat any

$_ZSt12__niter_wrapIPyET_RKS1_S1_ = comdat any

$_ZSt14__copy_move_a1ILb0EPKyPyET1_T0_S4_S3_ = comdat any

$_ZSt12__niter_baseIPKySt6vectorIySaIyEEET_N9__gnu_cxx17__normal_iteratorIS5_T0_EE = comdat any

$_ZSt12__niter_baseIPyET_S1_ = comdat any

$_ZSt14__copy_move_a2ILb0EPKyPyET1_T0_S4_S3_ = comdat any

$_ZNSt11__copy_moveILb0ELb1ESt26random_access_iterator_tagE8__copy_mIyEEPT_PKS3_S6_S4_ = comdat any

$_ZNK9__gnu_cxx17__normal_iteratorIPKySt6vectorIySaIyEEE4baseEv = comdat any

$_ZN9__gnu_cxx17__normal_iteratorIPKySt6vectorIySaIyEEEC2ERKS2_ = comdat any

$_ZNSt12_Vector_baseIySaIyEE13_M_deallocateEPym = comdat any

$_ZNSt16allocator_traitsISaIyEE10deallocateERS0_Pym = comdat any

$_ZN9__gnu_cxx13new_allocatorIyE10deallocateEPym = comdat any

$_ZSt8_DestroyIPyyEvT_S1_RSaIT0_E = comdat any

$_ZSt8_DestroyIPyEvT_S1_ = comdat any

$_ZNSt12_Destroy_auxILb1EE9__destroyIPyEEvT_S3_ = comdat any

$_ZN9FullBoardD2Ev = comdat any

$_ZN9FastBoardD2Ev = comdat any

$_ZNSt6vectorIiSaIiEED2Ev = comdat any

$_ZSt8_DestroyIPiiEvT_S1_RSaIT0_E = comdat any

$_ZSt8_DestroyIPiEvT_S1_ = comdat any

$_ZNSt12_Destroy_auxILb1EE9__destroyIPiEEvT_S3_ = comdat any

$_ZNKSt6vectorI7SGFTreeSaIS0_EE4sizeEv = comdat any

$_ZN9__gnu_cxx14__alloc_traitsISaI7SGFTreeES1_E17_S_select_on_copyERKS2_ = comdat any

$_ZNKSt12_Vector_baseI7SGFTreeSaIS0_EE19_M_get_Tp_allocatorEv = comdat any

$_ZNSt12_Vector_baseI7SGFTreeSaIS0_EEC2EmRKS1_ = comdat any

$_ZNSaI7SGFTreeED2Ev = comdat any

$_ZSt22__uninitialized_copy_aIN9__gnu_cxx17__normal_iteratorIPK7SGFTreeSt6vectorIS2_SaIS2_EEEEPS2_S2_ET0_T_SB_SA_RSaIT1_E = comdat any

$_ZNKSt6vectorI7SGFTreeSaIS0_EE5beginEv = comdat any

$_ZNKSt6vectorI7SGFTreeSaIS0_EE3endEv = comdat any

$_ZNSt12_Vector_baseI7SGFTreeSaIS0_EE19_M_get_Tp_allocatorEv = comdat any

$_ZNSt12_Vector_baseI7SGFTreeSaIS0_EED2Ev = comdat any

$_ZNSt16allocator_traitsISaI7SGFTreeEE37select_on_container_copy_constructionERKS1_ = comdat any

$_ZNSaI7SGFTreeEC2ERKS0_ = comdat any

$_ZN9__gnu_cxx13new_allocatorI7SGFTreeEC2ERKS2_ = comdat any

$_ZNSt12_Vector_baseI7SGFTreeSaIS0_EE12_Vector_implC2ERKS1_ = comdat any

$_ZNSt12_Vector_baseI7SGFTreeSaIS0_EE17_M_create_storageEm = comdat any

$_ZNSt12_Vector_baseI7SGFTreeSaIS0_EE12_Vector_implD2Ev = comdat any

$_ZNSt12_Vector_baseI7SGFTreeSaIS0_EE17_Vector_impl_dataC2Ev = comdat any

$_ZNSt12_Vector_baseI7SGFTreeSaIS0_EE11_M_allocateEm = comdat any

$_ZNSt16allocator_traitsISaI7SGFTreeEE8allocateERS1_m = comdat any

$_ZN9__gnu_cxx13new_allocatorI7SGFTreeE8allocateEmPKv = comdat any

$_ZNK9__gnu_cxx13new_allocatorI7SGFTreeE11_M_max_sizeEv = comdat any

$_ZN9__gnu_cxx13new_allocatorI7SGFTreeED2Ev = comdat any

$_ZSt18uninitialized_copyIN9__gnu_cxx17__normal_iteratorIPK7SGFTreeSt6vectorIS2_SaIS2_EEEEPS2_ET0_T_SB_SA_ = comdat any

$_ZNSt20__uninitialized_copyILb0EE13__uninit_copyIN9__gnu_cxx17__normal_iteratorIPK7SGFTreeSt6vectorIS4_SaIS4_EEEEPS4_EET0_T_SD_SC_ = comdat any

$_ZN9__gnu_cxxneIPK7SGFTreeSt6vectorIS1_SaIS1_EEEEbRKNS_17__normal_iteratorIT_T0_EESC_ = comdat any

$_ZSt10_ConstructI7SGFTreeJRKS0_EEvPT_DpOT0_ = comdat any

$_ZSt11__addressofI7SGFTreeEPT_RS1_ = comdat any

$_ZNK9__gnu_cxx17__normal_iteratorIPK7SGFTreeSt6vectorIS1_SaIS1_EEEdeEv = comdat any

$_ZN9__gnu_cxx17__normal_iteratorIPK7SGFTreeSt6vectorIS1_SaIS1_EEEppEv = comdat any

$_ZSt8_DestroyIP7SGFTreeEvT_S2_ = comdat any

$_ZNK9__gnu_cxx17__normal_iteratorIPK7SGFTreeSt6vectorIS1_SaIS1_EEE4baseEv = comdat any

$_ZSt7forwardIRK7SGFTreeEOT_RNSt16remove_referenceIS3_E4typeE = comdat any

$_ZNSt12_Destroy_auxILb0EE9__destroyIP7SGFTreeEEvT_S4_ = comdat any

$_ZSt8_DestroyI7SGFTreeEvPT_ = comdat any

$_ZN9__gnu_cxx17__normal_iteratorIPK7SGFTreeSt6vectorIS1_SaIS1_EEEC2ERKS3_ = comdat any

$_ZNSt12_Vector_baseI7SGFTreeSaIS0_EE13_M_deallocateEPS0_m = comdat any

$_ZNSt16allocator_traitsISaI7SGFTreeEE10deallocateERS1_PS0_m = comdat any

$_ZN9__gnu_cxx13new_allocatorI7SGFTreeE10deallocateEPS1_m = comdat any

$_ZNSt8_Rb_treeINSt7__cxx1112basic_stringIcSt11char_traitsIcESaIcEEESt4pairIKS5_S5_ESt10_Select1stIS8_ESt4lessIS5_ESaIS8_EEC2ERKSE_ = comdat any

$_ZNSt8_Rb_treeINSt7__cxx1112basic_stringIcSt11char_traitsIcESaIcEEESt4pairIKS5_S5_ESt10_Select1stIS8_ESt4lessIS5_ESaIS8_EE13_Rb_tree_implISC_Lb1EEC2ERKSG_ = comdat any

$_ZNKSt8_Rb_treeINSt7__cxx1112basic_stringIcSt11char_traitsIcESaIcEEESt4pairIKS5_S5_ESt10_Select1stIS8_ESt4lessIS5_ESaIS8_EE7_M_rootEv = comdat any

$_ZNSt8_Rb_treeINSt7__cxx1112basic_stringIcSt11char_traitsIcESaIcEEESt4pairIKS5_S5_ESt10_Select1stIS8_ESt4lessIS5_ESaIS8_EE7_M_copyERKSE_ = comdat any

$_ZNSt8_Rb_treeINSt7__cxx1112basic_stringIcSt11char_traitsIcESaIcEEESt4pairIKS5_S5_ESt10_Select1stIS8_ESt4lessIS5_ESaIS8_EE7_M_rootEv = comdat any

$_ZNSt8_Rb_treeINSt7__cxx1112basic_stringIcSt11char_traitsIcESaIcEEESt4pairIKS5_S5_ESt10_Select1stIS8_ESt4lessIS5_ESaIS8_EE13_Rb_tree_implISC_Lb1EED2Ev = comdat any

$_ZN9__gnu_cxx14__alloc_traitsISaISt13_Rb_tree_nodeISt4pairIKNSt7__cxx1112basic_stringIcSt11char_traitsIcESaIcEEES8_EEESB_E17_S_select_on_copyERKSC_ = comdat any

$_ZNSaISt13_Rb_tree_nodeISt4pairIKNSt7__cxx1112basic_stringIcSt11char_traitsIcESaIcEEES6_EEED2Ev = comdat any

$_ZNSt20_Rb_tree_key_compareISt4lessINSt7__cxx1112basic_stringIcSt11char_traitsIcESaIcEEEEEC2ERKS7_ = comdat any

$_ZNSt15_Rb_tree_headerC2Ev = comdat any

$_ZNSt16allocator_traitsISaISt13_Rb_tree_nodeISt4pairIKNSt7__cxx1112basic_stringIcSt11char_traitsIcESaIcEEES7_EEEE37select_on_container_copy_constructionERKSB_ = comdat any

$_ZNSaISt13_Rb_tree_nodeISt4pairIKNSt7__cxx1112basic_stringIcSt11char_traitsIcESaIcEEES6_EEEC2ERKSA_ = comdat any

$_ZN9__gnu_cxx13new_allocatorISt13_Rb_tree_nodeISt4pairIKNSt7__cxx1112basic_stringIcSt11char_traitsIcESaIcEEES8_EEEC2ERKSC_ = comdat any

$_ZNSt15_Rb_tree_header8_M_resetEv = comdat any

$_ZN9__gnu_cxx13new_allocatorISt13_Rb_tree_nodeISt4pairIKNSt7__cxx1112basic_stringIcSt11char_traitsIcESaIcEEES8_EEED2Ev = comdat any

$_ZNSt8_Rb_treeINSt7__cxx1112basic_stringIcSt11char_traitsIcESaIcEEESt4pairIKS5_S5_ESt10_Select1stIS8_ESt4lessIS5_ESaIS8_EE11_Alloc_nodeC2ERSE_ = comdat any

$_ZNSt8_Rb_treeINSt7__cxx1112basic_stringIcSt11char_traitsIcESaIcEEESt4pairIKS5_S5_ESt10_Select1stIS8_ESt4lessIS5_ESaIS8_EE7_M_copyINSE_11_Alloc_nodeEEEPSt13_Rb_tree_nodeIS8_ERKSE_RT_ = comdat any

$_ZNSt8_Rb_treeINSt7__cxx1112basic_stringIcSt11char_traitsIcESaIcEEESt4pairIKS5_S5_ESt10_Select1stIS8_ESt4lessIS5_ESaIS8_EE7_M_copyINSE_11_Alloc_nodeEEEPSt13_Rb_tree_nodeIS8_EPKSI_PSt18_Rb_tree_node_baseRT_ = comdat any

$_ZNKSt8_Rb_treeINSt7__cxx1112basic_stringIcSt11char_traitsIcESaIcEEESt4pairIKS5_S5_ESt10_Select1stIS8_ESt4lessIS5_ESaIS8_EE8_M_beginEv = comdat any

$_ZNSt8_Rb_treeINSt7__cxx1112basic_stringIcSt11char_traitsIcESaIcEEESt4pairIKS5_S5_ESt10_Select1stIS8_ESt4lessIS5_ESaIS8_EE6_M_endEv = comdat any

$_ZNSt8_Rb_treeINSt7__cxx1112basic_stringIcSt11char_traitsIcESaIcEEESt4pairIKS5_S5_ESt10_Select1stIS8_ESt4lessIS5_ESaIS8_EE10_S_minimumEPSt18_Rb_tree_node_base = comdat any

$_ZNSt8_Rb_treeINSt7__cxx1112basic_stringIcSt11char_traitsIcESaIcEEESt4pairIKS5_S5_ESt10_Select1stIS8_ESt4lessIS5_ESaIS8_EE11_M_leftmostEv = comdat any

$_ZNSt8_Rb_treeINSt7__cxx1112basic_stringIcSt11char_traitsIcESaIcEEESt4pairIKS5_S5_ESt10_Select1stIS8_ESt4lessIS5_ESaIS8_EE10_S_maximumEPSt18_Rb_tree_node_base = comdat any

$_ZNSt8_Rb_treeINSt7__cxx1112basic_stringIcSt11char_traitsIcESaIcEEESt4pairIKS5_S5_ESt10_Select1stIS8_ESt4lessIS5_ESaIS8_EE12_M_rightmostEv = comdat any

$_ZNSt8_Rb_treeINSt7__cxx1112basic_stringIcSt11char_traitsIcESaIcEEESt4pairIKS5_S5_ESt10_Select1stIS8_ESt4lessIS5_ESaIS8_EE13_M_clone_nodeINSE_11_Alloc_nodeEEEPSt13_Rb_tree_nodeIS8_EPKSI_RT_ = comdat any

$_ZNSt8_Rb_treeINSt7__cxx1112basic_stringIcSt11char_traitsIcESaIcEEESt4pairIKS5_S5_ESt10_Select1stIS8_ESt4lessIS5_ESaIS8_EE8_S_rightEPKSt18_Rb_tree_node_base = comdat any

$_ZNSt8_Rb_treeINSt7__cxx1112basic_stringIcSt11char_traitsIcESaIcEEESt4pairIKS5_S5_ESt10_Select1stIS8_ESt4lessIS5_ESaIS8_EE7_S_leftEPKSt18_Rb_tree_node_base = comdat any

$_ZNSt8_Rb_treeINSt7__cxx1112basic_stringIcSt11char_traitsIcESaIcEEESt4pairIKS5_S5_ESt10_Select1stIS8_ESt4lessIS5_ESaIS8_EE8_M_eraseEPSt13_Rb_tree_nodeIS8_E = comdat any

$_ZNKSt8_Rb_treeINSt7__cxx1112basic_stringIcSt11char_traitsIcESaIcEEESt4pairIKS5_S5_ESt10_Select1stIS8_ESt4lessIS5_ESaIS8_EE11_Alloc_nodeclIRKS8_EEPSt13_Rb_tree_nodeIS8_EOT_ = comdat any

$_ZNKSt13_Rb_tree_nodeISt4pairIKNSt7__cxx1112basic_stringIcSt11char_traitsIcESaIcEEES6_EE9_M_valptrEv = comdat any

$_ZNSt8_Rb_treeINSt7__cxx1112basic_stringIcSt11char_traitsIcESaIcEEESt4pairIKS5_S5_ESt10_Select1stIS8_ESt4lessIS5_ESaIS8_EE14_M_create_nodeIJRKS8_EEEPSt13_Rb_tree_nodeIS8_EDpOT_ = comdat any

$_ZSt7forwardIRKSt4pairIKNSt7__cxx1112basic_stringIcSt11char_traitsIcESaIcEEES6_EEOT_RNSt16remove_referenceISB_E4typeE = comdat any

$_ZNSt8_Rb_treeINSt7__cxx1112basic_stringIcSt11char_traitsIcESaIcEEESt4pairIKS5_S5_ESt10_Select1stIS8_ESt4lessIS5_ESaIS8_EE11_M_get_nodeEv = comdat any

$_ZNSt8_Rb_treeINSt7__cxx1112basic_stringIcSt11char_traitsIcESaIcEEESt4pairIKS5_S5_ESt10_Select1stIS8_ESt4lessIS5_ESaIS8_EE17_M_construct_nodeIJRKS8_EEEvPSt13_Rb_tree_nodeIS8_EDpOT_ = comdat any

$_ZNSt16allocator_traitsISaISt13_Rb_tree_nodeISt4pairIKNSt7__cxx1112basic_stringIcSt11char_traitsIcESaIcEEES7_EEEE8allocateERSB_m = comdat any

$_ZNSt8_Rb_treeINSt7__cxx1112basic_stringIcSt11char_traitsIcESaIcEEESt4pairIKS5_S5_ESt10_Select1stIS8_ESt4lessIS5_ESaIS8_EE21_M_get_Node_allocatorEv = comdat any

$_ZN9__gnu_cxx13new_allocatorISt13_Rb_tree_nodeISt4pairIKNSt7__cxx1112basic_stringIcSt11char_traitsIcESaIcEEES8_EEE8allocateEmPKv = comdat any

$_ZNK9__gnu_cxx13new_allocatorISt13_Rb_tree_nodeISt4pairIKNSt7__cxx1112basic_stringIcSt11char_traitsIcESaIcEEES8_EEE11_M_max_sizeEv = comdat any

$_ZNSt16allocator_traitsISaISt13_Rb_tree_nodeISt4pairIKNSt7__cxx1112basic_stringIcSt11char_traitsIcESaIcEEES7_EEEE9constructIS9_JRKS9_EEEvRSB_PT_DpOT0_ = comdat any

$_ZNSt13_Rb_tree_nodeISt4pairIKNSt7__cxx1112basic_stringIcSt11char_traitsIcESaIcEEES6_EE9_M_valptrEv = comdat any

$_ZNSt8_Rb_treeINSt7__cxx1112basic_stringIcSt11char_traitsIcESaIcEEESt4pairIKS5_S5_ESt10_Select1stIS8_ESt4lessIS5_ESaIS8_EE11_M_put_nodeEPSt13_Rb_tree_nodeIS8_E = comdat any

$_ZN9__gnu_cxx13new_allocatorISt13_Rb_tree_nodeISt4pairIKNSt7__cxx1112basic_stringIcSt11char_traitsIcESaIcEEES8_EEE9constructISA_JRKSA_EEEvPT_DpOT0_ = comdat any

$_ZNSt4pairIKNSt7__cxx1112basic_stringIcSt11char_traitsIcESaIcEEES5_EC2ERKS7_ = comdat any

$_ZN9__gnu_cxx16__aligned_membufISt4pairIKNSt7__cxx1112basic_stringIcSt11char_traitsIcESaIcEEES7_EE6_M_ptrEv = comdat any

$_ZN9__gnu_cxx16__aligned_membufISt4pairIKNSt7__cxx1112basic_stringIcSt11char_traitsIcESaIcEEES7_EE7_M_addrEv = comdat any

$_ZNSt16allocator_traitsISaISt13_Rb_tree_nodeISt4pairIKNSt7__cxx1112basic_stringIcSt11char_traitsIcESaIcEEES7_EEEE10deallocateERSB_PSA_m = comdat any

$_ZN9__gnu_cxx13new_allocatorISt13_Rb_tree_nodeISt4pairIKNSt7__cxx1112basic_stringIcSt11char_traitsIcESaIcEEES8_EEE10deallocateEPSB_m = comdat any

$_ZNK9__gnu_cxx16__aligned_membufISt4pairIKNSt7__cxx1112basic_stringIcSt11char_traitsIcESaIcEEES7_EE6_M_ptrEv = comdat any

$_ZNK9__gnu_cxx16__aligned_membufISt4pairIKNSt7__cxx1112basic_stringIcSt11char_traitsIcESaIcEEES7_EE7_M_addrEv = comdat any

$_ZNSt8_Rb_treeINSt7__cxx1112basic_stringIcSt11char_traitsIcESaIcEEESt4pairIKS5_S5_ESt10_Select1stIS8_ESt4lessIS5_ESaIS8_EE8_S_rightEPSt18_Rb_tree_node_base = comdat any

$_ZNSt8_Rb_treeINSt7__cxx1112basic_stringIcSt11char_traitsIcESaIcEEESt4pairIKS5_S5_ESt10_Select1stIS8_ESt4lessIS5_ESaIS8_EE7_S_leftEPSt18_Rb_tree_node_base = comdat any

$_ZNSt8_Rb_treeINSt7__cxx1112basic_stringIcSt11char_traitsIcESaIcEEESt4pairIKS5_S5_ESt10_Select1stIS8_ESt4lessIS5_ESaIS8_EE12_M_drop_nodeEPSt13_Rb_tree_nodeIS8_E = comdat any

$_ZNSt8_Rb_treeINSt7__cxx1112basic_stringIcSt11char_traitsIcESaIcEEESt4pairIKS5_S5_ESt10_Select1stIS8_ESt4lessIS5_ESaIS8_EE15_M_destroy_nodeEPSt13_Rb_tree_nodeIS8_E = comdat any

$_ZNSt16allocator_traitsISaISt13_Rb_tree_nodeISt4pairIKNSt7__cxx1112basic_stringIcSt11char_traitsIcESaIcEEES7_EEEE7destroyIS9_EEvRSB_PT_ = comdat any

$_ZN9__gnu_cxx13new_allocatorISt13_Rb_tree_nodeISt4pairIKNSt7__cxx1112basic_stringIcSt11char_traitsIcESaIcEEES8_EEE7destroyISA_EEvPT_ = comdat any

$_ZNSt4pairIKNSt7__cxx1112basic_stringIcSt11char_traitsIcESaIcEEES5_ED2Ev = comdat any

$_ZNSt18_Rb_tree_node_base10_S_minimumEPS_ = comdat any

$_ZNSt18_Rb_tree_node_base10_S_maximumEPS_ = comdat any

$_ZSt8_DestroyIP7SGFTreeS0_EvT_S2_RSaIT0_E = comdat any

$_ZNSt8multimapINSt7__cxx1112basic_stringIcSt11char_traitsIcESaIcEEES5_St4lessIS5_ESaISt4pairIKS5_S5_EEED2Ev = comdat any

$_ZNSt8_Rb_treeINSt7__cxx1112basic_stringIcSt11char_traitsIcESaIcEEESt4pairIKS5_S5_ESt10_Select1stIS8_ESt4lessIS5_ESaIS8_EED2Ev = comdat any

$_ZNSt8_Rb_treeINSt7__cxx1112basic_stringIcSt11char_traitsIcESaIcEEESt4pairIKS5_S5_ESt10_Select1stIS8_ESt4lessIS5_ESaIS8_EE8_M_beginEv = comdat any

@_ZStL8__ioinit = internal global %"class.std::ios_base::Init" zeroinitializer, align 1, !dbg !0
@__dso_handle = external hidden global i8
@_ZTISt9exception = external dso_local constant i8*
@_ZTVSt9exception = external dso_local unnamed_addr constant { [5 x i8*] }, align 8
@llvm.global_ctors = appending global [1 x { i32, void ()*, i8* }] [{ i32, void ()*, i8* } { i32 65535, void ()* @_GLOBAL__sub_I_SGFParser.cpp, i8* null }]

; Function Attrs: noinline uwtable
define internal void @__cxx_global_var_init() #0 section ".text.startup" !dbg !4405 {
entry:
  call void @_ZNSt8ios_base4InitC1Ev(%"class.std::ios_base::Init"* @_ZStL8__ioinit), !dbg !4406
  %0 = call i32 @__cxa_atexit(void (i8*)* bitcast (void (%"class.std::ios_base::Init"*)* @_ZNSt8ios_base4InitD1Ev to void (i8*)*), i8* getelementptr inbounds (%"class.std::ios_base::Init", %"class.std::ios_base::Init"* @_ZStL8__ioinit, i32 0, i32 0), i8* @__dso_handle) #3, !dbg !4406
  ret void, !dbg !4406
}

declare dso_local void @_ZNSt8ios_base4InitC1Ev(%"class.std::ios_base::Init"*) unnamed_addr #1

; Function Attrs: nounwind
declare dso_local void @_ZNSt8ios_base4InitD1Ev(%"class.std::ios_base::Init"*) unnamed_addr #2

; Function Attrs: nounwind
declare dso_local i32 @__cxa_atexit(void (i8*)*, i8*, i8*) #3

; Function Attrs: noinline uwtable
define dso_local void @_ZN9SGFParser14chop_from_fileENSt7__cxx1112basic_stringIcSt11char_traitsIcESaIcEEEi(%"class.std::__cxx11::basic_string"* noalias sret %agg.result, %"class.std::__cxx11::basic_string"* %filename, i32 %index) #0 align 2 personality i8* bitcast (i32 (...)* @__gxx_personality_v0 to i8*) !dbg !4407 {
entry:
  %result.ptr = alloca i8*, align 8
  %index.addr = alloca i32, align 4
  %ins = alloca %"class.std::basic_ifstream", align 8
  %gamebuff = alloca %"class.std::__cxx11::basic_string", align 8
  %nrvo = alloca i1, align 1
  %exn.slot = alloca i8*
  %ehselector.slot = alloca i32
  %count = alloca i32, align 4
  %nesting = alloca i32, align 4
  %c = alloca i8, align 1
  %0 = bitcast %"class.std::__cxx11::basic_string"* %agg.result to i8*
  store i8* %0, i8** %result.ptr, align 8
  call void @llvm.dbg.declare(metadata %"class.std::__cxx11::basic_string"* %filename, metadata !4432, metadata !DIExpression()), !dbg !4433
  store i32 %index, i32* %index.addr, align 4
  call void @llvm.dbg.declare(metadata i32* %index.addr, metadata !4434, metadata !DIExpression()), !dbg !4435
  call void @llvm.dbg.declare(metadata %"class.std::basic_ifstream"* %ins, metadata !4436, metadata !DIExpression()), !dbg !4440
  %call = call i8* @_ZNKSt7__cxx1112basic_stringIcSt11char_traitsIcESaIcEE5c_strEv(%"class.std::__cxx11::basic_string"* %filename) #3, !dbg !4441
  %call1 = call i32 @_ZStorSt13_Ios_OpenmodeS_(i32 4, i32 8), !dbg !4442
  call void @_ZNSt14basic_ifstreamIcSt11char_traitsIcEEC1EPKcSt13_Ios_Openmode(%"class.std::basic_ifstream"* %ins, i8* %call, i32 %call1), !dbg !4440
  call void @llvm.dbg.declare(metadata %"class.std::__cxx11::basic_string"* %gamebuff, metadata !4443, metadata !DIExpression()), !dbg !4444
  call void @_ZNSt7__cxx1112basic_stringIcSt11char_traitsIcESaIcEEC1Ev(%"class.std::__cxx11::basic_string"* %gamebuff) #3, !dbg !4444
  store i1 false, i1* %nrvo, align 1, !dbg !4445
  call void @llvm.dbg.declare(metadata i8** %result.ptr, metadata !4446, metadata !DIExpression(DW_OP_deref)), !dbg !4447
  call void @_ZNSt7__cxx1112basic_stringIcSt11char_traitsIcESaIcEEC1Ev(%"class.std::__cxx11::basic_string"* %agg.result) #3, !dbg !4447
  %1 = bitcast %"class.std::basic_ifstream"* %ins to i8**, !dbg !4448
  %vtable = load i8*, i8** %1, align 8, !dbg !4448
  %vbase.offset.ptr = getelementptr i8, i8* %vtable, i64 -24, !dbg !4448
  %2 = bitcast i8* %vbase.offset.ptr to i64*, !dbg !4448
  %vbase.offset = load i64, i64* %2, align 8, !dbg !4448
  %3 = bitcast %"class.std::basic_ifstream"* %ins to i8*, !dbg !4448
  %add.ptr = getelementptr inbounds i8, i8* %3, i64 %vbase.offset, !dbg !4448
  %4 = bitcast i8* %add.ptr to %"class.std::basic_ios"*, !dbg !4448
  %call2 = invoke zeroext i1 @_ZNKSt9basic_iosIcSt11char_traitsIcEE4failEv(%"class.std::basic_ios"* %4)
          to label %invoke.cont unwind label %lpad, !dbg !4450

invoke.cont:                                      ; preds = %entry
  br i1 %call2, label %if.then, label %if.end, !dbg !4451

if.then:                                          ; preds = %invoke.cont
  %exception = call i8* @__cxa_allocate_exception(i64 8) #3, !dbg !4452
  %5 = bitcast i8* %exception to %"class.std::exception"*, !dbg !4452
  call void @_ZNSt9exceptionC2Ev(%"class.std::exception"* %5) #3, !dbg !4454
  invoke void @__cxa_throw(i8* %exception, i8* bitcast (i8** @_ZTISt9exception to i8*), i8* bitcast (void (%"class.std::exception"*)* @_ZNSt9exceptionD1Ev to i8*)) #13
          to label %unreachable unwind label %lpad, !dbg !4452

lpad:                                             ; preds = %while.end, %invoke.cont34, %if.then33, %if.then20, %if.then14, %invoke.cont5, %while.cond, %if.end, %if.then, %entry
  %6 = landingpad { i8*, i32 }
          cleanup, !dbg !4455
  %7 = extractvalue { i8*, i32 } %6, 0, !dbg !4455
  store i8* %7, i8** %exn.slot, align 8, !dbg !4455
  %8 = extractvalue { i8*, i32 } %6, 1, !dbg !4455
  store i32 %8, i32* %ehselector.slot, align 4, !dbg !4455
  call void @_ZNSt7__cxx1112basic_stringIcSt11char_traitsIcESaIcEED1Ev(%"class.std::__cxx11::basic_string"* %agg.result) #3, !dbg !4456
  call void @_ZNSt7__cxx1112basic_stringIcSt11char_traitsIcESaIcEED1Ev(%"class.std::__cxx11::basic_string"* %gamebuff) #3, !dbg !4456
  call void @_ZNSt14basic_ifstreamIcSt11char_traitsIcEED1Ev(%"class.std::basic_ifstream"* %ins) #3, !dbg !4456
  br label %eh.resume, !dbg !4456

if.end:                                           ; preds = %invoke.cont
  %9 = bitcast %"class.std::basic_ifstream"* %ins to %"class.std::basic_istream"*, !dbg !4457
  %call4 = invoke dereferenceable(280) %"class.std::basic_istream"* @_ZNSirsEPFRSt8ios_baseS0_E(%"class.std::basic_istream"* %9, %"class.std::ios_base"* (%"class.std::ios_base"*)* @_ZSt8noskipwsRSt8ios_base)
          to label %invoke.cont3 unwind label %lpad, !dbg !4458

invoke.cont3:                                     ; preds = %if.end
  call void @llvm.dbg.declare(metadata i32* %count, metadata !4459, metadata !DIExpression()), !dbg !4460
  store i32 0, i32* %count, align 4, !dbg !4460
  call void @llvm.dbg.declare(metadata i32* %nesting, metadata !4461, metadata !DIExpression()), !dbg !4462
  store i32 0, i32* %nesting, align 4, !dbg !4462
  call void @_ZNSt7__cxx1112basic_stringIcSt11char_traitsIcESaIcEE5clearEv(%"class.std::__cxx11::basic_string"* %gamebuff) #3, !dbg !4463
  call void @llvm.dbg.declare(metadata i8* %c, metadata !4464, metadata !DIExpression()), !dbg !4465
  br label %while.cond, !dbg !4466

while.cond:                                       ; preds = %if.end43, %invoke.cont3
  %10 = bitcast %"class.std::basic_ifstream"* %ins to %"class.std::basic_istream"*, !dbg !4467
  %call6 = invoke dereferenceable(280) %"class.std::basic_istream"* @_ZStrsIcSt11char_traitsIcEERSt13basic_istreamIT_T0_ES6_RS3_(%"class.std::basic_istream"* dereferenceable(280) %10, i8* dereferenceable(1) %c)
          to label %invoke.cont5 unwind label %lpad, !dbg !4468

invoke.cont5:                                     ; preds = %while.cond
  %11 = bitcast %"class.std::basic_istream"* %call6 to i8**, !dbg !4467
  %vtable7 = load i8*, i8** %11, align 8, !dbg !4467
  %vbase.offset.ptr8 = getelementptr i8, i8* %vtable7, i64 -24, !dbg !4467
  %12 = bitcast i8* %vbase.offset.ptr8 to i64*, !dbg !4467
  %vbase.offset9 = load i64, i64* %12, align 8, !dbg !4467
  %13 = bitcast %"class.std::basic_istream"* %call6 to i8*, !dbg !4467
  %add.ptr10 = getelementptr inbounds i8, i8* %13, i64 %vbase.offset9, !dbg !4467
  %14 = bitcast i8* %add.ptr10 to %"class.std::basic_ios"*, !dbg !4467
  %call12 = invoke zeroext i1 @_ZNKSt9basic_iosIcSt11char_traitsIcEEcvbEv(%"class.std::basic_ios"* %14)
          to label %invoke.cont11 unwind label %lpad, !dbg !4467

invoke.cont11:                                    ; preds = %invoke.cont5
  br i1 %call12, label %land.rhs, label %land.end, !dbg !4469

land.rhs:                                         ; preds = %invoke.cont11
  %15 = load i32, i32* %count, align 4, !dbg !4470
  %16 = load i32, i32* %index.addr, align 4, !dbg !4471
  %cmp = icmp sle i32 %15, %16, !dbg !4472
  br label %land.end

land.end:                                         ; preds = %land.rhs, %invoke.cont11
  %17 = phi i1 [ false, %invoke.cont11 ], [ %cmp, %land.rhs ], !dbg !4473
  br i1 %17, label %while.body, label %while.end, !dbg !4466

while.body:                                       ; preds = %land.end
  %18 = load i32, i32* %count, align 4, !dbg !4474
  %19 = load i32, i32* %index.addr, align 4, !dbg !4477
  %cmp13 = icmp eq i32 %18, %19, !dbg !4478
  br i1 %cmp13, label %if.then14, label %if.end16, !dbg !4479

if.then14:                                        ; preds = %while.body
  %20 = load i8, i8* %c, align 1, !dbg !4480
  invoke void @_ZNSt7__cxx1112basic_stringIcSt11char_traitsIcESaIcEE9push_backEc(%"class.std::__cxx11::basic_string"* %gamebuff, i8 signext %20)
          to label %invoke.cont15 unwind label %lpad, !dbg !4482

invoke.cont15:                                    ; preds = %if.then14
  br label %if.end16, !dbg !4483

if.end16:                                         ; preds = %invoke.cont15, %while.body
  %21 = load i8, i8* %c, align 1, !dbg !4484
  %conv = sext i8 %21 to i32, !dbg !4484
  %cmp17 = icmp eq i32 %conv, 40, !dbg !4486
  br i1 %cmp17, label %if.then18, label %if.else, !dbg !4487

if.then18:                                        ; preds = %if.end16
  %22 = load i32, i32* %nesting, align 4, !dbg !4488
  %cmp19 = icmp eq i32 %22, 0, !dbg !4491
  br i1 %cmp19, label %if.then20, label %if.end26, !dbg !4492

if.then20:                                        ; preds = %if.then18
  %23 = bitcast %"class.std::basic_ifstream"* %ins to %"class.std::basic_istream"*, !dbg !4493
  %call22 = invoke dereferenceable(280) %"class.std::basic_istream"* @_ZStrsIcSt11char_traitsIcEERSt13basic_istreamIT_T0_ES6_RS3_(%"class.std::basic_istream"* dereferenceable(280) %23, i8* dereferenceable(1) %c)
          to label %invoke.cont21 unwind label %lpad, !dbg !4495

invoke.cont21:                                    ; preds = %if.then20
  %24 = load i32, i32* %count, align 4, !dbg !4496
  %25 = load i32, i32* %index.addr, align 4, !dbg !4498
  %cmp23 = icmp eq i32 %24, %25, !dbg !4499
  br i1 %cmp23, label %if.then24, label %if.end25, !dbg !4500

if.then24:                                        ; preds = %invoke.cont21
  call void @_ZNSt7__cxx1112basic_stringIcSt11char_traitsIcESaIcEE5clearEv(%"class.std::__cxx11::basic_string"* %gamebuff) #3, !dbg !4501
  br label %if.end25, !dbg !4503

if.end25:                                         ; preds = %if.then24, %invoke.cont21
  br label %if.end26, !dbg !4504

if.end26:                                         ; preds = %if.end25, %if.then18
  %26 = load i32, i32* %nesting, align 4, !dbg !4505
  %inc = add nsw i32 %26, 1, !dbg !4505
  store i32 %inc, i32* %nesting, align 4, !dbg !4505
  br label %if.end43, !dbg !4506

if.else:                                          ; preds = %if.end16
  %27 = load i8, i8* %c, align 1, !dbg !4507
  %conv27 = sext i8 %27 to i32, !dbg !4507
  %cmp28 = icmp eq i32 %conv27, 41, !dbg !4509
  br i1 %cmp28, label %if.then29, label %if.end42, !dbg !4510

if.then29:                                        ; preds = %if.else
  %28 = load i32, i32* %nesting, align 4, !dbg !4511
  %dec = add nsw i32 %28, -1, !dbg !4511
  store i32 %dec, i32* %nesting, align 4, !dbg !4511
  %29 = load i32, i32* %nesting, align 4, !dbg !4513
  %cmp30 = icmp eq i32 %29, 0, !dbg !4515
  br i1 %cmp30, label %if.then31, label %if.end41, !dbg !4516

if.then31:                                        ; preds = %if.then29
  %30 = load i32, i32* %count, align 4, !dbg !4517
  %31 = load i32, i32* %index.addr, align 4, !dbg !4520
  %cmp32 = icmp eq i32 %30, %31, !dbg !4521
  br i1 %cmp32, label %if.then33, label %if.end39, !dbg !4522

if.then33:                                        ; preds = %if.then31
  %call35 = invoke dereferenceable(32) %"class.std::__cxx11::basic_string"* @_ZNSt7__cxx1112basic_stringIcSt11char_traitsIcESaIcEEaSERKS4_(%"class.std::__cxx11::basic_string"* %agg.result, %"class.std::__cxx11::basic_string"* dereferenceable(32) %gamebuff)
          to label %invoke.cont34 unwind label %lpad, !dbg !4523

invoke.cont34:                                    ; preds = %if.then33
  %call36 = call i64 @_ZNKSt7__cxx1112basic_stringIcSt11char_traitsIcESaIcEE4sizeEv(%"class.std::__cxx11::basic_string"* %agg.result) #3, !dbg !4525
  %sub = sub i64 %call36, 1, !dbg !4526
  %call38 = invoke dereferenceable(32) %"class.std::__cxx11::basic_string"* @_ZNSt7__cxx1112basic_stringIcSt11char_traitsIcESaIcEE5eraseEmm(%"class.std::__cxx11::basic_string"* %agg.result, i64 %sub, i64 -1)
          to label %invoke.cont37 unwind label %lpad, !dbg !4527

invoke.cont37:                                    ; preds = %invoke.cont34
  br label %if.end39, !dbg !4528

if.end39:                                         ; preds = %invoke.cont37, %if.then31
  %32 = load i32, i32* %count, align 4, !dbg !4529
  %inc40 = add nsw i32 %32, 1, !dbg !4529
  store i32 %inc40, i32* %count, align 4, !dbg !4529
  br label %if.end41, !dbg !4530

if.end41:                                         ; preds = %if.end39, %if.then29
  br label %if.end42, !dbg !4531

if.end42:                                         ; preds = %if.end41, %if.else
  br label %if.end43

if.end43:                                         ; preds = %if.end42, %if.end26
  br label %while.cond, !dbg !4466, !llvm.loop !4532

while.end:                                        ; preds = %land.end
  invoke void @_ZNSt14basic_ifstreamIcSt11char_traitsIcEE5closeEv(%"class.std::basic_ifstream"* %ins)
          to label %invoke.cont44 unwind label %lpad, !dbg !4534

invoke.cont44:                                    ; preds = %while.end
  store i1 true, i1* %nrvo, align 1, !dbg !4535
  %nrvo.val = load i1, i1* %nrvo, align 1, !dbg !4456
  br i1 %nrvo.val, label %nrvo.skipdtor, label %nrvo.unused, !dbg !4456

nrvo.unused:                                      ; preds = %invoke.cont44
  call void @_ZNSt7__cxx1112basic_stringIcSt11char_traitsIcESaIcEED1Ev(%"class.std::__cxx11::basic_string"* %agg.result) #3, !dbg !4456
  br label %nrvo.skipdtor, !dbg !4456

nrvo.skipdtor:                                    ; preds = %nrvo.unused, %invoke.cont44
  call void @_ZNSt7__cxx1112basic_stringIcSt11char_traitsIcESaIcEED1Ev(%"class.std::__cxx11::basic_string"* %gamebuff) #3, !dbg !4456
  call void @_ZNSt14basic_ifstreamIcSt11char_traitsIcEED1Ev(%"class.std::basic_ifstream"* %ins) #3, !dbg !4456
  ret void, !dbg !4456

eh.resume:                                        ; preds = %lpad
  %exn = load i8*, i8** %exn.slot, align 8, !dbg !4456
  %sel = load i32, i32* %ehselector.slot, align 4, !dbg !4456
  %lpad.val = insertvalue { i8*, i32 } undef, i8* %exn, 0, !dbg !4456
  %lpad.val45 = insertvalue { i8*, i32 } %lpad.val, i32 %sel, 1, !dbg !4456
  resume { i8*, i32 } %lpad.val45, !dbg !4456

unreachable:                                      ; preds = %if.then
  unreachable
}

; Function Attrs: nounwind readnone speculatable willreturn
declare void @llvm.dbg.declare(metadata, metadata, metadata) #4

; Function Attrs: nounwind
declare dso_local i8* @_ZNKSt7__cxx1112basic_stringIcSt11char_traitsIcESaIcEE5c_strEv(%"class.std::__cxx11::basic_string"*) #2

; Function Attrs: noinline nounwind uwtable
define linkonce_odr dso_local i32 @_ZStorSt13_Ios_OpenmodeS_(i32 %__a, i32 %__b) #5 comdat !dbg !4536 {
entry:
  %__a.addr = alloca i32, align 4
  %__b.addr = alloca i32, align 4
  store i32 %__a, i32* %__a.addr, align 4
  call void @llvm.dbg.declare(metadata i32* %__a.addr, metadata !4539, metadata !DIExpression()), !dbg !4540
  store i32 %__b, i32* %__b.addr, align 4
  call void @llvm.dbg.declare(metadata i32* %__b.addr, metadata !4541, metadata !DIExpression()), !dbg !4542
  %0 = load i32, i32* %__a.addr, align 4, !dbg !4543
  %1 = load i32, i32* %__b.addr, align 4, !dbg !4544
  %or = or i32 %0, %1, !dbg !4545
  ret i32 %or, !dbg !4546
}

declare dso_local void @_ZNSt14basic_ifstreamIcSt11char_traitsIcEEC1EPKcSt13_Ios_Openmode(%"class.std::basic_ifstream"*, i8*, i32) unnamed_addr #1

; Function Attrs: nounwind
declare dso_local void @_ZNSt7__cxx1112basic_stringIcSt11char_traitsIcESaIcEEC1Ev(%"class.std::__cxx11::basic_string"*) unnamed_addr #2

declare dso_local zeroext i1 @_ZNKSt9basic_iosIcSt11char_traitsIcEE4failEv(%"class.std::basic_ios"*) #1

declare dso_local i32 @__gxx_personality_v0(...)

declare dso_local i8* @__cxa_allocate_exception(i64)

; Function Attrs: noinline nounwind uwtable
define linkonce_odr dso_local void @_ZNSt9exceptionC2Ev(%"class.std::exception"* %this) unnamed_addr #5 comdat align 2 !dbg !4547 {
entry:
  %this.addr = alloca %"class.std::exception"*, align 8
  store %"class.std::exception"* %this, %"class.std::exception"** %this.addr, align 8
  call void @llvm.dbg.declare(metadata %"class.std::exception"** %this.addr, metadata !4554, metadata !DIExpression()), !dbg !4556
  %this1 = load %"class.std::exception"*, %"class.std::exception"** %this.addr, align 8
  %0 = bitcast %"class.std::exception"* %this1 to i32 (...)***, !dbg !4557
  store i32 (...)** bitcast (i8** getelementptr inbounds ({ [5 x i8*] }, { [5 x i8*] }* @_ZTVSt9exception, i32 0, inrange i32 0, i32 2) to i32 (...)**), i32 (...)*** %0, align 8, !dbg !4557
  ret void, !dbg !4558
}

; Function Attrs: nounwind
declare dso_local void @_ZNSt9exceptionD1Ev(%"class.std::exception"*) unnamed_addr #2

declare dso_local void @__cxa_throw(i8*, i8*, i8*)

declare dso_local dereferenceable(280) %"class.std::basic_istream"* @_ZNSirsEPFRSt8ios_baseS0_E(%"class.std::basic_istream"*, %"class.std::ios_base"* (%"class.std::ios_base"*)*) #1

; Function Attrs: noinline uwtable
define linkonce_odr dso_local dereferenceable(216) %"class.std::ios_base"* @_ZSt8noskipwsRSt8ios_base(%"class.std::ios_base"* dereferenceable(216) %__base) #0 comdat !dbg !4559 {
entry:
  %__base.addr = alloca %"class.std::ios_base"*, align 8
  store %"class.std::ios_base"* %__base, %"class.std::ios_base"** %__base.addr, align 8
  call void @llvm.dbg.declare(metadata %"class.std::ios_base"** %__base.addr, metadata !4563, metadata !DIExpression()), !dbg !4564
  %0 = load %"class.std::ios_base"*, %"class.std::ios_base"** %__base.addr, align 8, !dbg !4565
  call void @_ZNSt8ios_base6unsetfESt13_Ios_Fmtflags(%"class.std::ios_base"* %0, i32 4096), !dbg !4566
  %1 = load %"class.std::ios_base"*, %"class.std::ios_base"** %__base.addr, align 8, !dbg !4567
  ret %"class.std::ios_base"* %1, !dbg !4568
}

; Function Attrs: nounwind
declare dso_local void @_ZNSt7__cxx1112basic_stringIcSt11char_traitsIcESaIcEE5clearEv(%"class.std::__cxx11::basic_string"*) #2

declare dso_local dereferenceable(280) %"class.std::basic_istream"* @_ZStrsIcSt11char_traitsIcEERSt13basic_istreamIT_T0_ES6_RS3_(%"class.std::basic_istream"* dereferenceable(280), i8* dereferenceable(1)) #1

declare dso_local zeroext i1 @_ZNKSt9basic_iosIcSt11char_traitsIcEEcvbEv(%"class.std::basic_ios"*) #1

declare dso_local void @_ZNSt7__cxx1112basic_stringIcSt11char_traitsIcESaIcEE9push_backEc(%"class.std::__cxx11::basic_string"*, i8 signext) #1

declare dso_local dereferenceable(32) %"class.std::__cxx11::basic_string"* @_ZNSt7__cxx1112basic_stringIcSt11char_traitsIcESaIcEEaSERKS4_(%"class.std::__cxx11::basic_string"*, %"class.std::__cxx11::basic_string"* dereferenceable(32)) #1

declare dso_local dereferenceable(32) %"class.std::__cxx11::basic_string"* @_ZNSt7__cxx1112basic_stringIcSt11char_traitsIcESaIcEE5eraseEmm(%"class.std::__cxx11::basic_string"*, i64, i64) #1

; Function Attrs: nounwind
declare dso_local i64 @_ZNKSt7__cxx1112basic_stringIcSt11char_traitsIcESaIcEE4sizeEv(%"class.std::__cxx11::basic_string"*) #2

declare dso_local void @_ZNSt14basic_ifstreamIcSt11char_traitsIcEE5closeEv(%"class.std::basic_ifstream"*) #1

; Function Attrs: nounwind
declare dso_local void @_ZNSt7__cxx1112basic_stringIcSt11char_traitsIcESaIcEED1Ev(%"class.std::__cxx11::basic_string"*) unnamed_addr #2

; Function Attrs: nounwind
declare dso_local void @_ZNSt14basic_ifstreamIcSt11char_traitsIcEED1Ev(%"class.std::basic_ifstream"*) unnamed_addr #2

; Function Attrs: noinline uwtable
define dso_local void @_ZN9SGFParser19parse_property_nameERNSt7__cxx1119basic_istringstreamIcSt11char_traitsIcESaIcEEE(%"class.std::__cxx11::basic_string"* noalias sret %agg.result, %"class.std::__cxx11::basic_istringstream"* dereferenceable(384) %strm) #0 align 2 personality i8* bitcast (i32 (...)* @__gxx_personality_v0 to i8*) !dbg !4569 {
entry:
  %result.ptr = alloca i8*, align 8
  %strm.addr = alloca %"class.std::__cxx11::basic_istringstream"*, align 8
  %nrvo = alloca i1, align 1
  %c = alloca i8, align 1
  %exn.slot = alloca i8*
  %ehselector.slot = alloca i32
  %0 = bitcast %"class.std::__cxx11::basic_string"* %agg.result to i8*
  store i8* %0, i8** %result.ptr, align 8
  store %"class.std::__cxx11::basic_istringstream"* %strm, %"class.std::__cxx11::basic_istringstream"** %strm.addr, align 8
  call void @llvm.dbg.declare(metadata %"class.std::__cxx11::basic_istringstream"** %strm.addr, metadata !4570, metadata !DIExpression()), !dbg !4571
  store i1 false, i1* %nrvo, align 1, !dbg !4572
  call void @llvm.dbg.declare(metadata i8** %result.ptr, metadata !4573, metadata !DIExpression(DW_OP_deref)), !dbg !4574
  call void @_ZNSt7__cxx1112basic_stringIcSt11char_traitsIcESaIcEEC1Ev(%"class.std::__cxx11::basic_string"* %agg.result) #3, !dbg !4574
  call void @llvm.dbg.declare(metadata i8* %c, metadata !4575, metadata !DIExpression()), !dbg !4576
  br label %while.cond, !dbg !4577

while.cond:                                       ; preds = %if.end, %entry
  %1 = load %"class.std::__cxx11::basic_istringstream"*, %"class.std::__cxx11::basic_istringstream"** %strm.addr, align 8, !dbg !4578
  %2 = bitcast %"class.std::__cxx11::basic_istringstream"* %1 to %"class.std::basic_istream"*, !dbg !4578
  %call = invoke dereferenceable(280) %"class.std::basic_istream"* @_ZStrsIcSt11char_traitsIcEERSt13basic_istreamIT_T0_ES6_RS3_(%"class.std::basic_istream"* dereferenceable(280) %2, i8* dereferenceable(1) %c)
          to label %invoke.cont unwind label %lpad, !dbg !4579

invoke.cont:                                      ; preds = %while.cond
  %3 = bitcast %"class.std::basic_istream"* %call to i8**, !dbg !4578
  %vtable = load i8*, i8** %3, align 8, !dbg !4578
  %vbase.offset.ptr = getelementptr i8, i8* %vtable, i64 -24, !dbg !4578
  %4 = bitcast i8* %vbase.offset.ptr to i64*, !dbg !4578
  %vbase.offset = load i64, i64* %4, align 8, !dbg !4578
  %5 = bitcast %"class.std::basic_istream"* %call to i8*, !dbg !4578
  %add.ptr = getelementptr inbounds i8, i8* %5, i64 %vbase.offset, !dbg !4578
  %6 = bitcast i8* %add.ptr to %"class.std::basic_ios"*, !dbg !4578
  %call2 = invoke zeroext i1 @_ZNKSt9basic_iosIcSt11char_traitsIcEEcvbEv(%"class.std::basic_ios"* %6)
          to label %invoke.cont1 unwind label %lpad, !dbg !4578

invoke.cont1:                                     ; preds = %invoke.cont
  br i1 %call2, label %while.body, label %while.end, !dbg !4577

while.body:                                       ; preds = %invoke.cont1
  %7 = load i8, i8* %c, align 1, !dbg !4580
  %conv = sext i8 %7 to i32, !dbg !4580
  %call3 = call i32 @isupper(i32 %conv) #14, !dbg !4583
  %tobool = icmp ne i32 %call3, 0, !dbg !4583
  br i1 %tobool, label %if.else, label %if.then, !dbg !4584

if.then:                                          ; preds = %while.body
  %8 = load %"class.std::__cxx11::basic_istringstream"*, %"class.std::__cxx11::basic_istringstream"** %strm.addr, align 8, !dbg !4585
  %9 = bitcast %"class.std::__cxx11::basic_istringstream"* %8 to %"class.std::basic_istream"*, !dbg !4585
  %call5 = invoke dereferenceable(280) %"class.std::basic_istream"* @_ZNSi5ungetEv(%"class.std::basic_istream"* %9)
          to label %invoke.cont4 unwind label %lpad, !dbg !4587

invoke.cont4:                                     ; preds = %if.then
  br label %while.end, !dbg !4588

lpad:                                             ; preds = %if.else, %if.then, %invoke.cont, %while.cond
  %10 = landingpad { i8*, i32 }
          cleanup, !dbg !4589
  %11 = extractvalue { i8*, i32 } %10, 0, !dbg !4589
  store i8* %11, i8** %exn.slot, align 8, !dbg !4589
  %12 = extractvalue { i8*, i32 } %10, 1, !dbg !4589
  store i32 %12, i32* %ehselector.slot, align 4, !dbg !4589
  call void @_ZNSt7__cxx1112basic_stringIcSt11char_traitsIcESaIcEED1Ev(%"class.std::__cxx11::basic_string"* %agg.result) #3, !dbg !4589
  br label %eh.resume, !dbg !4589

if.else:                                          ; preds = %while.body
  %13 = load i8, i8* %c, align 1, !dbg !4590
  invoke void @_ZNSt7__cxx1112basic_stringIcSt11char_traitsIcESaIcEE9push_backEc(%"class.std::__cxx11::basic_string"* %agg.result, i8 signext %13)
          to label %invoke.cont6 unwind label %lpad, !dbg !4592

invoke.cont6:                                     ; preds = %if.else
  br label %if.end

if.end:                                           ; preds = %invoke.cont6
  br label %while.cond, !dbg !4577, !llvm.loop !4593

while.end:                                        ; preds = %invoke.cont4, %invoke.cont1
  store i1 true, i1* %nrvo, align 1, !dbg !4595
  %nrvo.val = load i1, i1* %nrvo, align 1, !dbg !4589
  br i1 %nrvo.val, label %nrvo.skipdtor, label %nrvo.unused, !dbg !4589

nrvo.unused:                                      ; preds = %while.end
  call void @_ZNSt7__cxx1112basic_stringIcSt11char_traitsIcESaIcEED1Ev(%"class.std::__cxx11::basic_string"* %agg.result) #3, !dbg !4589
  br label %nrvo.skipdtor, !dbg !4589

nrvo.skipdtor:                                    ; preds = %nrvo.unused, %while.end
  ret void, !dbg !4589

eh.resume:                                        ; preds = %lpad
  %exn = load i8*, i8** %exn.slot, align 8, !dbg !4589
  %sel = load i32, i32* %ehselector.slot, align 4, !dbg !4589
  %lpad.val = insertvalue { i8*, i32 } undef, i8* %exn, 0, !dbg !4589
  %lpad.val7 = insertvalue { i8*, i32 } %lpad.val, i32 %sel, 1, !dbg !4589
  resume { i8*, i32 } %lpad.val7, !dbg !4589
}

; Function Attrs: nounwind readonly
declare dso_local i32 @isupper(i32) #6

declare dso_local dereferenceable(280) %"class.std::basic_istream"* @_ZNSi5ungetEv(%"class.std::basic_istream"*) #1

; Function Attrs: noinline uwtable
define dso_local zeroext i1 @_ZN9SGFParser20parse_property_valueERNSt7__cxx1119basic_istringstreamIcSt11char_traitsIcESaIcEEERNS0_12basic_stringIcS3_S4_EE(%"class.std::__cxx11::basic_istringstream"* dereferenceable(384) %strm, %"class.std::__cxx11::basic_string"* dereferenceable(32) %result) #0 align 2 !dbg !4596 {
entry:
  %retval = alloca i1, align 1
  %strm.addr = alloca %"class.std::__cxx11::basic_istringstream"*, align 8
  %result.addr = alloca %"class.std::__cxx11::basic_string"*, align 8
  %c = alloca i8, align 1
  store %"class.std::__cxx11::basic_istringstream"* %strm, %"class.std::__cxx11::basic_istringstream"** %strm.addr, align 8
  call void @llvm.dbg.declare(metadata %"class.std::__cxx11::basic_istringstream"** %strm.addr, metadata !4597, metadata !DIExpression()), !dbg !4598
  store %"class.std::__cxx11::basic_string"* %result, %"class.std::__cxx11::basic_string"** %result.addr, align 8
  call void @llvm.dbg.declare(metadata %"class.std::__cxx11::basic_string"** %result.addr, metadata !4599, metadata !DIExpression()), !dbg !4600
  %0 = load %"class.std::__cxx11::basic_istringstream"*, %"class.std::__cxx11::basic_istringstream"** %strm.addr, align 8, !dbg !4601
  %1 = bitcast %"class.std::__cxx11::basic_istringstream"* %0 to %"class.std::basic_istream"*, !dbg !4601
  %call = call dereferenceable(280) %"class.std::basic_istream"* @_ZNSirsEPFRSt8ios_baseS0_E(%"class.std::basic_istream"* %1, %"class.std::ios_base"* (%"class.std::ios_base"*)* @_ZSt8noskipwsRSt8ios_base), !dbg !4602
  call void @llvm.dbg.declare(metadata i8* %c, metadata !4603, metadata !DIExpression()), !dbg !4604
  br label %while.cond, !dbg !4605

while.cond:                                       ; preds = %if.end, %entry
  %2 = load %"class.std::__cxx11::basic_istringstream"*, %"class.std::__cxx11::basic_istringstream"** %strm.addr, align 8, !dbg !4606
  %3 = bitcast %"class.std::__cxx11::basic_istringstream"* %2 to %"class.std::basic_istream"*, !dbg !4606
  %call1 = call dereferenceable(280) %"class.std::basic_istream"* @_ZStrsIcSt11char_traitsIcEERSt13basic_istreamIT_T0_ES6_RS3_(%"class.std::basic_istream"* dereferenceable(280) %3, i8* dereferenceable(1) %c), !dbg !4607
  %4 = bitcast %"class.std::basic_istream"* %call1 to i8**, !dbg !4606
  %vtable = load i8*, i8** %4, align 8, !dbg !4606
  %vbase.offset.ptr = getelementptr i8, i8* %vtable, i64 -24, !dbg !4606
  %5 = bitcast i8* %vbase.offset.ptr to i64*, !dbg !4606
  %vbase.offset = load i64, i64* %5, align 8, !dbg !4606
  %6 = bitcast %"class.std::basic_istream"* %call1 to i8*, !dbg !4606
  %add.ptr = getelementptr inbounds i8, i8* %6, i64 %vbase.offset, !dbg !4606
  %7 = bitcast i8* %add.ptr to %"class.std::basic_ios"*, !dbg !4606
  %call2 = call zeroext i1 @_ZNKSt9basic_iosIcSt11char_traitsIcEEcvbEv(%"class.std::basic_ios"* %7), !dbg !4606
  br i1 %call2, label %while.body, label %while.end, !dbg !4605

while.body:                                       ; preds = %while.cond
  %8 = load i8, i8* %c, align 1, !dbg !4608
  %conv = sext i8 %8 to i32, !dbg !4608
  %call3 = call i32 @isspace(i32 %conv) #14, !dbg !4611
  %tobool = icmp ne i32 %call3, 0, !dbg !4611
  br i1 %tobool, label %if.end, label %if.then, !dbg !4612

if.then:                                          ; preds = %while.body
  %9 = load %"class.std::__cxx11::basic_istringstream"*, %"class.std::__cxx11::basic_istringstream"** %strm.addr, align 8, !dbg !4613
  %10 = bitcast %"class.std::__cxx11::basic_istringstream"* %9 to %"class.std::basic_istream"*, !dbg !4613
  %call4 = call dereferenceable(280) %"class.std::basic_istream"* @_ZNSi5ungetEv(%"class.std::basic_istream"* %10), !dbg !4615
  br label %while.end, !dbg !4616

if.end:                                           ; preds = %while.body
  br label %while.cond, !dbg !4605, !llvm.loop !4617

while.end:                                        ; preds = %if.then, %while.cond
  %11 = load %"class.std::__cxx11::basic_istringstream"*, %"class.std::__cxx11::basic_istringstream"** %strm.addr, align 8, !dbg !4619
  %12 = bitcast %"class.std::__cxx11::basic_istringstream"* %11 to %"class.std::basic_istream"*, !dbg !4619
  %call5 = call dereferenceable(280) %"class.std::basic_istream"* @_ZStrsIcSt11char_traitsIcEERSt13basic_istreamIT_T0_ES6_RS3_(%"class.std::basic_istream"* dereferenceable(280) %12, i8* dereferenceable(1) %c), !dbg !4620
  %13 = load i8, i8* %c, align 1, !dbg !4621
  %conv6 = sext i8 %13 to i32, !dbg !4621
  %cmp = icmp ne i32 %conv6, 91, !dbg !4623
  br i1 %cmp, label %if.then7, label %if.end9, !dbg !4624

if.then7:                                         ; preds = %while.end
  %14 = load %"class.std::__cxx11::basic_istringstream"*, %"class.std::__cxx11::basic_istringstream"** %strm.addr, align 8, !dbg !4625
  %15 = bitcast %"class.std::__cxx11::basic_istringstream"* %14 to %"class.std::basic_istream"*, !dbg !4625
  %call8 = call dereferenceable(280) %"class.std::basic_istream"* @_ZNSi5ungetEv(%"class.std::basic_istream"* %15), !dbg !4627
  store i1 false, i1* %retval, align 1, !dbg !4628
  br label %return, !dbg !4628

if.end9:                                          ; preds = %while.end
  br label %while.cond10, !dbg !4629

while.cond10:                                     ; preds = %if.end26, %if.end9
  %16 = load %"class.std::__cxx11::basic_istringstream"*, %"class.std::__cxx11::basic_istringstream"** %strm.addr, align 8, !dbg !4630
  %17 = bitcast %"class.std::__cxx11::basic_istringstream"* %16 to %"class.std::basic_istream"*, !dbg !4630
  %call11 = call dereferenceable(280) %"class.std::basic_istream"* @_ZStrsIcSt11char_traitsIcEERSt13basic_istreamIT_T0_ES6_RS3_(%"class.std::basic_istream"* dereferenceable(280) %17, i8* dereferenceable(1) %c), !dbg !4631
  %18 = bitcast %"class.std::basic_istream"* %call11 to i8**, !dbg !4630
  %vtable12 = load i8*, i8** %18, align 8, !dbg !4630
  %vbase.offset.ptr13 = getelementptr i8, i8* %vtable12, i64 -24, !dbg !4630
  %19 = bitcast i8* %vbase.offset.ptr13 to i64*, !dbg !4630
  %vbase.offset14 = load i64, i64* %19, align 8, !dbg !4630
  %20 = bitcast %"class.std::basic_istream"* %call11 to i8*, !dbg !4630
  %add.ptr15 = getelementptr inbounds i8, i8* %20, i64 %vbase.offset14, !dbg !4630
  %21 = bitcast i8* %add.ptr15 to %"class.std::basic_ios"*, !dbg !4630
  %call16 = call zeroext i1 @_ZNKSt9basic_iosIcSt11char_traitsIcEEcvbEv(%"class.std::basic_ios"* %21), !dbg !4630
  br i1 %call16, label %while.body17, label %while.end27, !dbg !4629

while.body17:                                     ; preds = %while.cond10
  %22 = load i8, i8* %c, align 1, !dbg !4632
  %conv18 = sext i8 %22 to i32, !dbg !4632
  %cmp19 = icmp eq i32 %conv18, 93, !dbg !4635
  br i1 %cmp19, label %if.then20, label %if.else, !dbg !4636

if.then20:                                        ; preds = %while.body17
  br label %while.end27, !dbg !4637

if.else:                                          ; preds = %while.body17
  %23 = load i8, i8* %c, align 1, !dbg !4639
  %conv21 = sext i8 %23 to i32, !dbg !4639
  %cmp22 = icmp eq i32 %conv21, 92, !dbg !4641
  br i1 %cmp22, label %if.then23, label %if.end25, !dbg !4642

if.then23:                                        ; preds = %if.else
  %24 = load %"class.std::__cxx11::basic_istringstream"*, %"class.std::__cxx11::basic_istringstream"** %strm.addr, align 8, !dbg !4643
  %25 = bitcast %"class.std::__cxx11::basic_istringstream"* %24 to %"class.std::basic_istream"*, !dbg !4643
  %call24 = call dereferenceable(280) %"class.std::basic_istream"* @_ZStrsIcSt11char_traitsIcEERSt13basic_istreamIT_T0_ES6_RS3_(%"class.std::basic_istream"* dereferenceable(280) %25, i8* dereferenceable(1) %c), !dbg !4645
  br label %if.end25, !dbg !4646

if.end25:                                         ; preds = %if.then23, %if.else
  br label %if.end26

if.end26:                                         ; preds = %if.end25
  %26 = load %"class.std::__cxx11::basic_string"*, %"class.std::__cxx11::basic_string"** %result.addr, align 8, !dbg !4647
  %27 = load i8, i8* %c, align 1, !dbg !4648
  call void @_ZNSt7__cxx1112basic_stringIcSt11char_traitsIcESaIcEE9push_backEc(%"class.std::__cxx11::basic_string"* %26, i8 signext %27), !dbg !4649
  br label %while.cond10, !dbg !4629, !llvm.loop !4650

while.end27:                                      ; preds = %if.then20, %while.cond10
  %28 = load %"class.std::__cxx11::basic_istringstream"*, %"class.std::__cxx11::basic_istringstream"** %strm.addr, align 8, !dbg !4652
  %29 = bitcast %"class.std::__cxx11::basic_istringstream"* %28 to %"class.std::basic_istream"*, !dbg !4652
  %call28 = call dereferenceable(280) %"class.std::basic_istream"* @_ZNSirsEPFRSt8ios_baseS0_E(%"class.std::basic_istream"* %29, %"class.std::ios_base"* (%"class.std::ios_base"*)* @_ZSt6skipwsRSt8ios_base), !dbg !4653
  store i1 true, i1* %retval, align 1, !dbg !4654
  br label %return, !dbg !4654

return:                                           ; preds = %while.end27, %if.then7
  %30 = load i1, i1* %retval, align 1, !dbg !4655
  ret i1 %30, !dbg !4655
}

; Function Attrs: nounwind readonly
declare dso_local i32 @isspace(i32) #6

; Function Attrs: noinline uwtable
define linkonce_odr dso_local dereferenceable(216) %"class.std::ios_base"* @_ZSt6skipwsRSt8ios_base(%"class.std::ios_base"* dereferenceable(216) %__base) #0 comdat !dbg !4656 {
entry:
  %__base.addr = alloca %"class.std::ios_base"*, align 8
  store %"class.std::ios_base"* %__base, %"class.std::ios_base"** %__base.addr, align 8
  call void @llvm.dbg.declare(metadata %"class.std::ios_base"** %__base.addr, metadata !4657, metadata !DIExpression()), !dbg !4658
  %0 = load %"class.std::ios_base"*, %"class.std::ios_base"** %__base.addr, align 8, !dbg !4659
  %call = call i32 @_ZNSt8ios_base4setfESt13_Ios_Fmtflags(%"class.std::ios_base"* %0, i32 4096), !dbg !4660
  %1 = load %"class.std::ios_base"*, %"class.std::ios_base"** %__base.addr, align 8, !dbg !4661
  ret %"class.std::ios_base"* %1, !dbg !4662
}

; Function Attrs: noinline uwtable
define dso_local void @_ZN9SGFParser5parseERNSt7__cxx1119basic_istringstreamIcSt11char_traitsIcESaIcEEEP7SGFTree(%"class.std::__cxx11::basic_istringstream"* dereferenceable(384) %strm, %class.SGFTree* %node) #0 align 2 personality i8* bitcast (i32 (...)* @__gxx_personality_v0 to i8*) !dbg !4663 {
entry:
  %strm.addr = alloca %"class.std::__cxx11::basic_istringstream"*, align 8
  %node.addr = alloca %class.SGFTree*, align 8
  %splitpoint = alloca i8, align 1
  %c = alloca i8, align 1
  %propname = alloca %"class.std::__cxx11::basic_string", align 8
  %success = alloca i8, align 1
  %propval = alloca %"class.std::__cxx11::basic_string", align 8
  %exn.slot = alloca i8*
  %ehselector.slot = alloca i32
  %agg.tmp = alloca %"class.std::__cxx11::basic_string", align 8
  %agg.tmp22 = alloca %"class.std::__cxx11::basic_string", align 8
  %cc = alloca i8, align 1
  %newnode = alloca %"class.std::auto_ptr", align 8
  %newptr = alloca %class.SGFTree*, align 8
  %agg.tmp44 = alloca %class.SGFTree, align 8
  %newnode65 = alloca %"class.std::auto_ptr", align 8
  %newptr70 = alloca %class.SGFTree*, align 8
  %agg.tmp71 = alloca %class.SGFTree, align 8
  store %"class.std::__cxx11::basic_istringstream"* %strm, %"class.std::__cxx11::basic_istringstream"** %strm.addr, align 8
  call void @llvm.dbg.declare(metadata %"class.std::__cxx11::basic_istringstream"** %strm.addr, metadata !4664, metadata !DIExpression()), !dbg !4665
  store %class.SGFTree* %node, %class.SGFTree** %node.addr, align 8
  call void @llvm.dbg.declare(metadata %class.SGFTree** %node.addr, metadata !4666, metadata !DIExpression()), !dbg !4667
  call void @llvm.dbg.declare(metadata i8* %splitpoint, metadata !4668, metadata !DIExpression()), !dbg !4669
  store i8 0, i8* %splitpoint, align 1, !dbg !4669
  call void @llvm.dbg.declare(metadata i8* %c, metadata !4670, metadata !DIExpression()), !dbg !4671
  br label %while.cond, !dbg !4672

while.cond:                                       ; preds = %if.end82, %invoke.cont76, %if.else60, %do.end, %if.then8, %entry
  %0 = load %"class.std::__cxx11::basic_istringstream"*, %"class.std::__cxx11::basic_istringstream"** %strm.addr, align 8, !dbg !4673
  %1 = bitcast %"class.std::__cxx11::basic_istringstream"* %0 to %"class.std::basic_istream"*, !dbg !4673
  %call = call dereferenceable(280) %"class.std::basic_istream"* @_ZStrsIcSt11char_traitsIcEERSt13basic_istreamIT_T0_ES6_RS3_(%"class.std::basic_istream"* dereferenceable(280) %1, i8* dereferenceable(1) %c), !dbg !4674
  %2 = bitcast %"class.std::basic_istream"* %call to i8**, !dbg !4673
  %vtable = load i8*, i8** %2, align 8, !dbg !4673
  %vbase.offset.ptr = getelementptr i8, i8* %vtable, i64 -24, !dbg !4673
  %3 = bitcast i8* %vbase.offset.ptr to i64*, !dbg !4673
  %vbase.offset = load i64, i64* %3, align 8, !dbg !4673
  %4 = bitcast %"class.std::basic_istream"* %call to i8*, !dbg !4673
  %add.ptr = getelementptr inbounds i8, i8* %4, i64 %vbase.offset, !dbg !4673
  %5 = bitcast i8* %add.ptr to %"class.std::basic_ios"*, !dbg !4673
  %call1 = call zeroext i1 @_ZNKSt9basic_iosIcSt11char_traitsIcEEcvbEv(%"class.std::basic_ios"* %5), !dbg !4673
  br i1 %call1, label %while.body, label %while.end, !dbg !4672

while.body:                                       ; preds = %while.cond
  %6 = load %"class.std::__cxx11::basic_istringstream"*, %"class.std::__cxx11::basic_istringstream"** %strm.addr, align 8, !dbg !4675
  %7 = bitcast %"class.std::__cxx11::basic_istringstream"* %6 to i8**, !dbg !4675
  %vtable2 = load i8*, i8** %7, align 8, !dbg !4675
  %vbase.offset.ptr3 = getelementptr i8, i8* %vtable2, i64 -24, !dbg !4675
  %8 = bitcast i8* %vbase.offset.ptr3 to i64*, !dbg !4675
  %vbase.offset4 = load i64, i64* %8, align 8, !dbg !4675
  %9 = bitcast %"class.std::__cxx11::basic_istringstream"* %6 to i8*, !dbg !4675
  %add.ptr5 = getelementptr inbounds i8, i8* %9, i64 %vbase.offset4, !dbg !4675
  %10 = bitcast i8* %add.ptr5 to %"class.std::basic_ios"*, !dbg !4675
  %call6 = call zeroext i1 @_ZNKSt9basic_iosIcSt11char_traitsIcEE4failEv(%"class.std::basic_ios"* %10), !dbg !4678
  br i1 %call6, label %if.then, label %if.end, !dbg !4679

if.then:                                          ; preds = %while.body
  br label %while.end, !dbg !4680

if.end:                                           ; preds = %while.body
  %11 = load i8, i8* %c, align 1, !dbg !4682
  %conv = sext i8 %11 to i32, !dbg !4682
  %call7 = call i32 @isspace(i32 %conv) #14, !dbg !4684
  %tobool = icmp ne i32 %call7, 0, !dbg !4684
  br i1 %tobool, label %if.then8, label %if.end9, !dbg !4685

if.then8:                                         ; preds = %if.end
  br label %while.cond, !dbg !4686, !llvm.loop !4688

if.end9:                                          ; preds = %if.end
  %12 = load i8, i8* %c, align 1, !dbg !4690
  %conv10 = sext i8 %12 to i32, !dbg !4690
  %call11 = call i32 @isalpha(i32 %conv10) #14, !dbg !4692
  %tobool12 = icmp ne i32 %call11, 0, !dbg !4692
  br i1 %tobool12, label %land.lhs.true, label %if.end31, !dbg !4693

land.lhs.true:                                    ; preds = %if.end9
  %13 = load i8, i8* %c, align 1, !dbg !4694
  %conv13 = sext i8 %13 to i32, !dbg !4694
  %call14 = call i32 @isupper(i32 %conv13) #14, !dbg !4695
  %tobool15 = icmp ne i32 %call14, 0, !dbg !4695
  br i1 %tobool15, label %if.then16, label %if.end31, !dbg !4696

if.then16:                                        ; preds = %land.lhs.true
  %14 = load %"class.std::__cxx11::basic_istringstream"*, %"class.std::__cxx11::basic_istringstream"** %strm.addr, align 8, !dbg !4697
  %15 = bitcast %"class.std::__cxx11::basic_istringstream"* %14 to %"class.std::basic_istream"*, !dbg !4697
  %call17 = call dereferenceable(280) %"class.std::basic_istream"* @_ZNSi5ungetEv(%"class.std::basic_istream"* %15), !dbg !4699
  call void @llvm.dbg.declare(metadata %"class.std::__cxx11::basic_string"* %propname, metadata !4700, metadata !DIExpression()), !dbg !4701
  %16 = load %"class.std::__cxx11::basic_istringstream"*, %"class.std::__cxx11::basic_istringstream"** %strm.addr, align 8, !dbg !4702
  call void @_ZN9SGFParser19parse_property_nameERNSt7__cxx1119basic_istringstreamIcSt11char_traitsIcESaIcEEE(%"class.std::__cxx11::basic_string"* sret %propname, %"class.std::__cxx11::basic_istringstream"* dereferenceable(384) %16), !dbg !4703
  call void @llvm.dbg.declare(metadata i8* %success, metadata !4704, metadata !DIExpression()), !dbg !4705
  br label %do.body, !dbg !4706

do.body:                                          ; preds = %do.cond, %if.then16
  call void @llvm.dbg.declare(metadata %"class.std::__cxx11::basic_string"* %propval, metadata !4707, metadata !DIExpression()), !dbg !4709
  call void @_ZNSt7__cxx1112basic_stringIcSt11char_traitsIcESaIcEEC1Ev(%"class.std::__cxx11::basic_string"* %propval) #3, !dbg !4709
  %17 = load %"class.std::__cxx11::basic_istringstream"*, %"class.std::__cxx11::basic_istringstream"** %strm.addr, align 8, !dbg !4710
  %call18 = invoke zeroext i1 @_ZN9SGFParser20parse_property_valueERNSt7__cxx1119basic_istringstreamIcSt11char_traitsIcESaIcEEERNS0_12basic_stringIcS3_S4_EE(%"class.std::__cxx11::basic_istringstream"* dereferenceable(384) %17, %"class.std::__cxx11::basic_string"* dereferenceable(32) %propval)
          to label %invoke.cont unwind label %lpad, !dbg !4711

invoke.cont:                                      ; preds = %do.body
  %frombool = zext i1 %call18 to i8, !dbg !4712
  store i8 %frombool, i8* %success, align 1, !dbg !4712
  %18 = load i8, i8* %success, align 1, !dbg !4713
  %tobool19 = trunc i8 %18 to i1, !dbg !4713
  br i1 %tobool19, label %if.then20, label %if.end27, !dbg !4715

if.then20:                                        ; preds = %invoke.cont
  %19 = load %class.SGFTree*, %class.SGFTree** %node.addr, align 8, !dbg !4716
  invoke void @_ZNSt7__cxx1112basic_stringIcSt11char_traitsIcESaIcEEC1ERKS4_(%"class.std::__cxx11::basic_string"* %agg.tmp, %"class.std::__cxx11::basic_string"* dereferenceable(32) %propname)
          to label %invoke.cont21 unwind label %lpad, !dbg !4718

invoke.cont21:                                    ; preds = %if.then20
  invoke void @_ZNSt7__cxx1112basic_stringIcSt11char_traitsIcESaIcEEC1ERKS4_(%"class.std::__cxx11::basic_string"* %agg.tmp22, %"class.std::__cxx11::basic_string"* dereferenceable(32) %propval)
          to label %invoke.cont24 unwind label %lpad23, !dbg !4719

invoke.cont24:                                    ; preds = %invoke.cont21
  invoke void @_ZN7SGFTree12add_propertyENSt7__cxx1112basic_stringIcSt11char_traitsIcESaIcEEES5_(%class.SGFTree* %19, %"class.std::__cxx11::basic_string"* %agg.tmp, %"class.std::__cxx11::basic_string"* %agg.tmp22)
          to label %invoke.cont26 unwind label %lpad25, !dbg !4720

invoke.cont26:                                    ; preds = %invoke.cont24
  call void @_ZNSt7__cxx1112basic_stringIcSt11char_traitsIcESaIcEED1Ev(%"class.std::__cxx11::basic_string"* %agg.tmp22) #3, !dbg !4716
  call void @_ZNSt7__cxx1112basic_stringIcSt11char_traitsIcESaIcEED1Ev(%"class.std::__cxx11::basic_string"* %agg.tmp) #3, !dbg !4716
  br label %if.end27, !dbg !4721

lpad:                                             ; preds = %if.then20, %do.body
  %20 = landingpad { i8*, i32 }
          cleanup, !dbg !4722
  %21 = extractvalue { i8*, i32 } %20, 0, !dbg !4722
  store i8* %21, i8** %exn.slot, align 8, !dbg !4722
  %22 = extractvalue { i8*, i32 } %20, 1, !dbg !4722
  store i32 %22, i32* %ehselector.slot, align 4, !dbg !4722
  br label %ehcleanup28, !dbg !4722

lpad23:                                           ; preds = %invoke.cont21
  %23 = landingpad { i8*, i32 }
          cleanup, !dbg !4723
  %24 = extractvalue { i8*, i32 } %23, 0, !dbg !4723
  store i8* %24, i8** %exn.slot, align 8, !dbg !4723
  %25 = extractvalue { i8*, i32 } %23, 1, !dbg !4723
  store i32 %25, i32* %ehselector.slot, align 4, !dbg !4723
  br label %ehcleanup, !dbg !4723

lpad25:                                           ; preds = %invoke.cont24
  %26 = landingpad { i8*, i32 }
          cleanup, !dbg !4723
  %27 = extractvalue { i8*, i32 } %26, 0, !dbg !4723
  store i8* %27, i8** %exn.slot, align 8, !dbg !4723
  %28 = extractvalue { i8*, i32 } %26, 1, !dbg !4723
  store i32 %28, i32* %ehselector.slot, align 4, !dbg !4723
  call void @_ZNSt7__cxx1112basic_stringIcSt11char_traitsIcESaIcEED1Ev(%"class.std::__cxx11::basic_string"* %agg.tmp22) #3, !dbg !4716
  br label %ehcleanup, !dbg !4716

ehcleanup:                                        ; preds = %lpad25, %lpad23
  call void @_ZNSt7__cxx1112basic_stringIcSt11char_traitsIcESaIcEED1Ev(%"class.std::__cxx11::basic_string"* %agg.tmp) #3, !dbg !4716
  br label %ehcleanup28, !dbg !4716

if.end27:                                         ; preds = %invoke.cont26, %invoke.cont
  call void @_ZNSt7__cxx1112basic_stringIcSt11char_traitsIcESaIcEED1Ev(%"class.std::__cxx11::basic_string"* %propval) #3, !dbg !4724
  br label %do.cond, !dbg !4725

do.cond:                                          ; preds = %if.end27
  %29 = load i8, i8* %success, align 1, !dbg !4726
  %tobool29 = trunc i8 %29 to i1, !dbg !4726
  br i1 %tobool29, label %do.body, label %do.end, !dbg !4725, !llvm.loop !4727

do.end:                                           ; preds = %do.cond
  call void @_ZNSt7__cxx1112basic_stringIcSt11char_traitsIcESaIcEED1Ev(%"class.std::__cxx11::basic_string"* %propname) #3, !dbg !4729
  br label %while.cond

ehcleanup28:                                      ; preds = %ehcleanup, %lpad
  call void @_ZNSt7__cxx1112basic_stringIcSt11char_traitsIcESaIcEED1Ev(%"class.std::__cxx11::basic_string"* %propval) #3, !dbg !4724
  call void @_ZNSt7__cxx1112basic_stringIcSt11char_traitsIcESaIcEED1Ev(%"class.std::__cxx11::basic_string"* %propname) #3, !dbg !4729
  br label %eh.resume, !dbg !4729

if.end31:                                         ; preds = %land.lhs.true, %if.end9
  %30 = load i8, i8* %c, align 1, !dbg !4730
  %conv32 = sext i8 %30 to i32, !dbg !4730
  %cmp = icmp eq i32 %conv32, 40, !dbg !4732
  br i1 %cmp, label %if.then33, label %if.else, !dbg !4733

if.then33:                                        ; preds = %if.end31
  call void @llvm.dbg.declare(metadata i8* %cc, metadata !4734, metadata !DIExpression()), !dbg !4736
  %31 = load %"class.std::__cxx11::basic_istringstream"*, %"class.std::__cxx11::basic_istringstream"** %strm.addr, align 8, !dbg !4737
  %32 = bitcast %"class.std::__cxx11::basic_istringstream"* %31 to %"class.std::basic_istream"*, !dbg !4737
  %call34 = call dereferenceable(280) %"class.std::basic_istream"* @_ZStrsIcSt11char_traitsIcEERSt13basic_istreamIT_T0_ES6_RS3_(%"class.std::basic_istream"* dereferenceable(280) %32, i8* dereferenceable(1) %cc), !dbg !4738
  %33 = load i8, i8* %cc, align 1, !dbg !4739
  %conv35 = sext i8 %33 to i32, !dbg !4739
  %cmp36 = icmp ne i32 %conv35, 59, !dbg !4741
  br i1 %cmp36, label %if.then37, label %if.end39, !dbg !4742

if.then37:                                        ; preds = %if.then33
  %34 = load %"class.std::__cxx11::basic_istringstream"*, %"class.std::__cxx11::basic_istringstream"** %strm.addr, align 8, !dbg !4743
  %35 = bitcast %"class.std::__cxx11::basic_istringstream"* %34 to %"class.std::basic_istream"*, !dbg !4743
  %call38 = call dereferenceable(280) %"class.std::basic_istream"* @_ZNSi5ungetEv(%"class.std::basic_istream"* %35), !dbg !4745
  br label %if.end39, !dbg !4746

if.end39:                                         ; preds = %if.then37, %if.then33
  store i8 1, i8* %splitpoint, align 1, !dbg !4747
  call void @llvm.dbg.declare(metadata %"class.std::auto_ptr"* %newnode, metadata !4748, metadata !DIExpression()), !dbg !4790
  %call40 = call i8* @_Znwm(i64 8512) #15, !dbg !4791
  %36 = bitcast i8* %call40 to %class.SGFTree*, !dbg !4791
  invoke void @_ZN7SGFTreeC1Ev(%class.SGFTree* %36)
          to label %invoke.cont42 unwind label %lpad41, !dbg !4792

invoke.cont42:                                    ; preds = %if.end39
  call void @_ZNSt8auto_ptrI7SGFTreeEC2EPS0_(%"class.std::auto_ptr"* %newnode, %class.SGFTree* %36) #3, !dbg !4790
  call void @llvm.dbg.declare(metadata %class.SGFTree** %newptr, metadata !4793, metadata !DIExpression()), !dbg !4794
  %37 = load %class.SGFTree*, %class.SGFTree** %node.addr, align 8, !dbg !4795
  %call45 = call dereferenceable(8512) %class.SGFTree* @_ZNKSt8auto_ptrI7SGFTreeEdeEv(%"class.std::auto_ptr"* %newnode) #3, !dbg !4796
  invoke void @_ZN7SGFTreeC2ERKS_(%class.SGFTree* %agg.tmp44, %class.SGFTree* dereferenceable(8512) %call45)
          to label %invoke.cont47 unwind label %lpad46, !dbg !4796

invoke.cont47:                                    ; preds = %invoke.cont42
  %call50 = invoke %class.SGFTree* @_ZN7SGFTree9add_childES_(%class.SGFTree* %37, %class.SGFTree* %agg.tmp44)
          to label %invoke.cont49 unwind label %lpad48, !dbg !4797

invoke.cont49:                                    ; preds = %invoke.cont47
  call void @_ZN7SGFTreeD2Ev(%class.SGFTree* %agg.tmp44) #3, !dbg !4795
  store %class.SGFTree* %call50, %class.SGFTree** %newptr, align 8, !dbg !4794
  %38 = load %"class.std::__cxx11::basic_istringstream"*, %"class.std::__cxx11::basic_istringstream"** %strm.addr, align 8, !dbg !4798
  %39 = load %class.SGFTree*, %class.SGFTree** %newptr, align 8, !dbg !4799
  invoke void @_ZN9SGFParser5parseERNSt7__cxx1119basic_istringstreamIcSt11char_traitsIcESaIcEEEP7SGFTree(%"class.std::__cxx11::basic_istringstream"* dereferenceable(384) %38, %class.SGFTree* %39)
          to label %invoke.cont52 unwind label %lpad46, !dbg !4800

invoke.cont52:                                    ; preds = %invoke.cont49
  call void @_ZNSt8auto_ptrI7SGFTreeED2Ev(%"class.std::auto_ptr"* %newnode) #3, !dbg !4801
  br label %if.end82, !dbg !4802

lpad41:                                           ; preds = %if.end39
  %40 = landingpad { i8*, i32 }
          cleanup, !dbg !4803
  %41 = extractvalue { i8*, i32 } %40, 0, !dbg !4803
  store i8* %41, i8** %exn.slot, align 8, !dbg !4803
  %42 = extractvalue { i8*, i32 } %40, 1, !dbg !4803
  store i32 %42, i32* %ehselector.slot, align 4, !dbg !4803
  call void @_ZdlPv(i8* %call40) #16, !dbg !4791
  br label %eh.resume, !dbg !4791

lpad46:                                           ; preds = %invoke.cont49, %invoke.cont42
  %43 = landingpad { i8*, i32 }
          cleanup, !dbg !4803
  %44 = extractvalue { i8*, i32 } %43, 0, !dbg !4803
  store i8* %44, i8** %exn.slot, align 8, !dbg !4803
  %45 = extractvalue { i8*, i32 } %43, 1, !dbg !4803
  store i32 %45, i32* %ehselector.slot, align 4, !dbg !4803
  br label %ehcleanup53, !dbg !4803

lpad48:                                           ; preds = %invoke.cont47
  %46 = landingpad { i8*, i32 }
          cleanup, !dbg !4803
  %47 = extractvalue { i8*, i32 } %46, 0, !dbg !4803
  store i8* %47, i8** %exn.slot, align 8, !dbg !4803
  %48 = extractvalue { i8*, i32 } %46, 1, !dbg !4803
  store i32 %48, i32* %ehselector.slot, align 4, !dbg !4803
  call void @_ZN7SGFTreeD2Ev(%class.SGFTree* %agg.tmp44) #3, !dbg !4795
  br label %ehcleanup53, !dbg !4795

ehcleanup53:                                      ; preds = %lpad48, %lpad46
  call void @_ZNSt8auto_ptrI7SGFTreeED2Ev(%"class.std::auto_ptr"* %newnode) #3, !dbg !4801
  br label %eh.resume, !dbg !4801

if.else:                                          ; preds = %if.end31
  %49 = load i8, i8* %c, align 1, !dbg !4804
  %conv54 = sext i8 %49 to i32, !dbg !4804
  %cmp55 = icmp eq i32 %conv54, 41, !dbg !4806
  br i1 %cmp55, label %if.then56, label %if.else61, !dbg !4807

if.then56:                                        ; preds = %if.else
  %50 = load i8, i8* %splitpoint, align 1, !dbg !4808
  %tobool57 = trunc i8 %50 to i1, !dbg !4808
  br i1 %tobool57, label %if.else60, label %if.then58, !dbg !4811

if.then58:                                        ; preds = %if.then56
  %51 = load %"class.std::__cxx11::basic_istringstream"*, %"class.std::__cxx11::basic_istringstream"** %strm.addr, align 8, !dbg !4812
  %52 = bitcast %"class.std::__cxx11::basic_istringstream"* %51 to %"class.std::basic_istream"*, !dbg !4812
  %call59 = call dereferenceable(280) %"class.std::basic_istream"* @_ZNSi5ungetEv(%"class.std::basic_istream"* %52), !dbg !4814
  br label %while.end, !dbg !4815

if.else60:                                        ; preds = %if.then56
  store i8 0, i8* %splitpoint, align 1, !dbg !4816
  br label %while.cond, !dbg !4818, !llvm.loop !4688

if.else61:                                        ; preds = %if.else
  %53 = load i8, i8* %c, align 1, !dbg !4819
  %conv62 = sext i8 %53 to i32, !dbg !4819
  %cmp63 = icmp eq i32 %conv62, 59, !dbg !4821
  br i1 %cmp63, label %if.then64, label %if.end80, !dbg !4822

if.then64:                                        ; preds = %if.else61
  call void @llvm.dbg.declare(metadata %"class.std::auto_ptr"* %newnode65, metadata !4823, metadata !DIExpression()), !dbg !4825
  %call66 = call i8* @_Znwm(i64 8512) #15, !dbg !4826
  %54 = bitcast i8* %call66 to %class.SGFTree*, !dbg !4826
  invoke void @_ZN7SGFTreeC1Ev(%class.SGFTree* %54)
          to label %invoke.cont68 unwind label %lpad67, !dbg !4827

invoke.cont68:                                    ; preds = %if.then64
  call void @_ZNSt8auto_ptrI7SGFTreeEC2EPS0_(%"class.std::auto_ptr"* %newnode65, %class.SGFTree* %54) #3, !dbg !4825
  call void @llvm.dbg.declare(metadata %class.SGFTree** %newptr70, metadata !4828, metadata !DIExpression()), !dbg !4829
  %55 = load %class.SGFTree*, %class.SGFTree** %node.addr, align 8, !dbg !4830
  %call72 = call dereferenceable(8512) %class.SGFTree* @_ZNKSt8auto_ptrI7SGFTreeEdeEv(%"class.std::auto_ptr"* %newnode65) #3, !dbg !4831
  invoke void @_ZN7SGFTreeC2ERKS_(%class.SGFTree* %agg.tmp71, %class.SGFTree* dereferenceable(8512) %call72)
          to label %invoke.cont74 unwind label %lpad73, !dbg !4831

invoke.cont74:                                    ; preds = %invoke.cont68
  %call77 = invoke %class.SGFTree* @_ZN7SGFTree9add_childES_(%class.SGFTree* %55, %class.SGFTree* %agg.tmp71)
          to label %invoke.cont76 unwind label %lpad75, !dbg !4832

invoke.cont76:                                    ; preds = %invoke.cont74
  call void @_ZN7SGFTreeD2Ev(%class.SGFTree* %agg.tmp71) #3, !dbg !4830
  store %class.SGFTree* %call77, %class.SGFTree** %newptr70, align 8, !dbg !4829
  %56 = load %class.SGFTree*, %class.SGFTree** %newptr70, align 8, !dbg !4833
  store %class.SGFTree* %56, %class.SGFTree** %node.addr, align 8, !dbg !4834
  call void @_ZNSt8auto_ptrI7SGFTreeED2Ev(%"class.std::auto_ptr"* %newnode65) #3, !dbg !4835
  br label %while.cond

lpad67:                                           ; preds = %if.then64
  %57 = landingpad { i8*, i32 }
          cleanup, !dbg !4836
  %58 = extractvalue { i8*, i32 } %57, 0, !dbg !4836
  store i8* %58, i8** %exn.slot, align 8, !dbg !4836
  %59 = extractvalue { i8*, i32 } %57, 1, !dbg !4836
  store i32 %59, i32* %ehselector.slot, align 4, !dbg !4836
  call void @_ZdlPv(i8* %call66) #16, !dbg !4826
  br label %eh.resume, !dbg !4826

lpad73:                                           ; preds = %invoke.cont68
  %60 = landingpad { i8*, i32 }
          cleanup, !dbg !4836
  %61 = extractvalue { i8*, i32 } %60, 0, !dbg !4836
  store i8* %61, i8** %exn.slot, align 8, !dbg !4836
  %62 = extractvalue { i8*, i32 } %60, 1, !dbg !4836
  store i32 %62, i32* %ehselector.slot, align 4, !dbg !4836
  br label %ehcleanup79, !dbg !4836

lpad75:                                           ; preds = %invoke.cont74
  %63 = landingpad { i8*, i32 }
          cleanup, !dbg !4836
  %64 = extractvalue { i8*, i32 } %63, 0, !dbg !4836
  store i8* %64, i8** %exn.slot, align 8, !dbg !4836
  %65 = extractvalue { i8*, i32 } %63, 1, !dbg !4836
  store i32 %65, i32* %ehselector.slot, align 4, !dbg !4836
  call void @_ZN7SGFTreeD2Ev(%class.SGFTree* %agg.tmp71) #3, !dbg !4830
  br label %ehcleanup79, !dbg !4830

ehcleanup79:                                      ; preds = %lpad75, %lpad73
  call void @_ZNSt8auto_ptrI7SGFTreeED2Ev(%"class.std::auto_ptr"* %newnode65) #3, !dbg !4835
  br label %eh.resume, !dbg !4835

if.end80:                                         ; preds = %if.else61
  br label %if.end81

if.end81:                                         ; preds = %if.end80
  br label %if.end82

if.end82:                                         ; preds = %if.end81, %invoke.cont52
  br label %while.cond, !dbg !4672, !llvm.loop !4688

while.end:                                        ; preds = %if.then, %if.then58, %while.cond
  ret void, !dbg !4837

eh.resume:                                        ; preds = %ehcleanup79, %lpad67, %ehcleanup53, %lpad41, %ehcleanup28
  %exn = load i8*, i8** %exn.slot, align 8, !dbg !4729
  %sel = load i32, i32* %ehselector.slot, align 4, !dbg !4729
  %lpad.val = insertvalue { i8*, i32 } undef, i8* %exn, 0, !dbg !4729
  %lpad.val83 = insertvalue { i8*, i32 } %lpad.val, i32 %sel, 1, !dbg !4729
  resume { i8*, i32 } %lpad.val83, !dbg !4729
}

; Function Attrs: nounwind readonly
declare dso_local i32 @isalpha(i32) #6

declare dso_local void @_ZN7SGFTree12add_propertyENSt7__cxx1112basic_stringIcSt11char_traitsIcESaIcEEES5_(%class.SGFTree*, %"class.std::__cxx11::basic_string"*, %"class.std::__cxx11::basic_string"*) #1

declare dso_local void @_ZNSt7__cxx1112basic_stringIcSt11char_traitsIcESaIcEEC1ERKS4_(%"class.std::__cxx11::basic_string"*, %"class.std::__cxx11::basic_string"* dereferenceable(32)) unnamed_addr #1

; Function Attrs: nobuiltin
declare dso_local noalias i8* @_Znwm(i64) #7

declare dso_local void @_ZN7SGFTreeC1Ev(%class.SGFTree*) unnamed_addr #1

; Function Attrs: nobuiltin nounwind
declare dso_local void @_ZdlPv(i8*) #8

; Function Attrs: noinline nounwind uwtable
define linkonce_odr dso_local void @_ZNSt8auto_ptrI7SGFTreeEC2EPS0_(%"class.std::auto_ptr"* %this, %class.SGFTree* %__p) unnamed_addr #5 comdat align 2 !dbg !4838 {
entry:
  %this.addr = alloca %"class.std::auto_ptr"*, align 8
  %__p.addr = alloca %class.SGFTree*, align 8
  store %"class.std::auto_ptr"* %this, %"class.std::auto_ptr"** %this.addr, align 8
  call void @llvm.dbg.declare(metadata %"class.std::auto_ptr"** %this.addr, metadata !4839, metadata !DIExpression()), !dbg !4841
  store %class.SGFTree* %__p, %class.SGFTree** %__p.addr, align 8
  call void @llvm.dbg.declare(metadata %class.SGFTree** %__p.addr, metadata !4842, metadata !DIExpression()), !dbg !4843
  %this1 = load %"class.std::auto_ptr"*, %"class.std::auto_ptr"** %this.addr, align 8
  %_M_ptr = getelementptr inbounds %"class.std::auto_ptr", %"class.std::auto_ptr"* %this1, i32 0, i32 0, !dbg !4844
  %0 = load %class.SGFTree*, %class.SGFTree** %__p.addr, align 8, !dbg !4845
  store %class.SGFTree* %0, %class.SGFTree** %_M_ptr, align 8, !dbg !4844
  ret void, !dbg !4846
}

declare dso_local %class.SGFTree* @_ZN7SGFTree9add_childES_(%class.SGFTree*, %class.SGFTree*) #1

; Function Attrs: noinline nounwind uwtable
define linkonce_odr dso_local dereferenceable(8512) %class.SGFTree* @_ZNKSt8auto_ptrI7SGFTreeEdeEv(%"class.std::auto_ptr"* %this) #5 comdat align 2 !dbg !4847 {
entry:
  %this.addr = alloca %"class.std::auto_ptr"*, align 8
  store %"class.std::auto_ptr"* %this, %"class.std::auto_ptr"** %this.addr, align 8
  call void @llvm.dbg.declare(metadata %"class.std::auto_ptr"** %this.addr, metadata !4848, metadata !DIExpression()), !dbg !4850
  %this1 = load %"class.std::auto_ptr"*, %"class.std::auto_ptr"** %this.addr, align 8
  %_M_ptr = getelementptr inbounds %"class.std::auto_ptr", %"class.std::auto_ptr"* %this1, i32 0, i32 0, !dbg !4851
  %0 = load %class.SGFTree*, %class.SGFTree** %_M_ptr, align 8, !dbg !4851
  ret %class.SGFTree* %0, !dbg !4852
}

; Function Attrs: noinline uwtable
define linkonce_odr dso_local void @_ZN7SGFTreeC2ERKS_(%class.SGFTree* %this, %class.SGFTree* dereferenceable(8512) %0) unnamed_addr #0 comdat align 2 personality i8* bitcast (i32 (...)* @__gxx_personality_v0 to i8*) !dbg !4853 {
entry:
  %this.addr = alloca %class.SGFTree*, align 8
  %.addr = alloca %class.SGFTree*, align 8
  %exn.slot = alloca i8*
  %ehselector.slot = alloca i32
  store %class.SGFTree* %this, %class.SGFTree** %this.addr, align 8
  call void @llvm.dbg.declare(metadata %class.SGFTree** %this.addr, metadata !4857, metadata !DIExpression()), !dbg !4858
  store %class.SGFTree* %0, %class.SGFTree** %.addr, align 8
  call void @llvm.dbg.declare(metadata %class.SGFTree** %.addr, metadata !4859, metadata !DIExpression()), !dbg !4858
  %this1 = load %class.SGFTree*, %class.SGFTree** %this.addr, align 8
  %m_state = getelementptr inbounds %class.SGFTree, %class.SGFTree* %this1, i32 0, i32 0, !dbg !4860
  %1 = load %class.SGFTree*, %class.SGFTree** %.addr, align 8, !dbg !4860
  %m_state2 = getelementptr inbounds %class.SGFTree, %class.SGFTree* %1, i32 0, i32 0, !dbg !4860
  call void @_ZN7KoStateC2ERKS_(%class.KoState* %m_state, %class.KoState* dereferenceable(8440) %m_state2), !dbg !4860
  %m_children = getelementptr inbounds %class.SGFTree, %class.SGFTree* %this1, i32 0, i32 1, !dbg !4860
  %2 = load %class.SGFTree*, %class.SGFTree** %.addr, align 8, !dbg !4860
  %m_children3 = getelementptr inbounds %class.SGFTree, %class.SGFTree* %2, i32 0, i32 1, !dbg !4860
  invoke void @_ZNSt6vectorI7SGFTreeSaIS0_EEC2ERKS2_(%"class.std::vector.16"* %m_children, %"class.std::vector.16"* dereferenceable(24) %m_children3)
          to label %invoke.cont unwind label %lpad, !dbg !4860

invoke.cont:                                      ; preds = %entry
  %m_properties = getelementptr inbounds %class.SGFTree, %class.SGFTree* %this1, i32 0, i32 2, !dbg !4860
  %3 = load %class.SGFTree*, %class.SGFTree** %.addr, align 8, !dbg !4860
  %m_properties4 = getelementptr inbounds %class.SGFTree, %class.SGFTree* %3, i32 0, i32 2, !dbg !4860
  invoke void @_ZNSt8multimapINSt7__cxx1112basic_stringIcSt11char_traitsIcESaIcEEES5_St4lessIS5_ESaISt4pairIKS5_S5_EEEC2ERKSC_(%"class.std::multimap"* %m_properties, %"class.std::multimap"* dereferenceable(48) %m_properties4)
          to label %invoke.cont6 unwind label %lpad5, !dbg !4860

invoke.cont6:                                     ; preds = %invoke.cont
  ret void, !dbg !4860

lpad:                                             ; preds = %entry
  %4 = landingpad { i8*, i32 }
          cleanup, !dbg !4860
  %5 = extractvalue { i8*, i32 } %4, 0, !dbg !4860
  store i8* %5, i8** %exn.slot, align 8, !dbg !4860
  %6 = extractvalue { i8*, i32 } %4, 1, !dbg !4860
  store i32 %6, i32* %ehselector.slot, align 4, !dbg !4860
  br label %ehcleanup, !dbg !4860

lpad5:                                            ; preds = %invoke.cont
  %7 = landingpad { i8*, i32 }
          cleanup, !dbg !4860
  %8 = extractvalue { i8*, i32 } %7, 0, !dbg !4860
  store i8* %8, i8** %exn.slot, align 8, !dbg !4860
  %9 = extractvalue { i8*, i32 } %7, 1, !dbg !4860
  store i32 %9, i32* %ehselector.slot, align 4, !dbg !4860
  call void @_ZNSt6vectorI7SGFTreeSaIS0_EED2Ev(%"class.std::vector.16"* %m_children) #3, !dbg !4861
  br label %ehcleanup, !dbg !4861

ehcleanup:                                        ; preds = %lpad5, %lpad
  call void @_ZN7KoStateD2Ev(%class.KoState* %m_state) #3, !dbg !4861
  br label %eh.resume, !dbg !4861

eh.resume:                                        ; preds = %ehcleanup
  %exn = load i8*, i8** %exn.slot, align 8, !dbg !4861
  %sel = load i32, i32* %ehselector.slot, align 4, !dbg !4861
  %lpad.val = insertvalue { i8*, i32 } undef, i8* %exn, 0, !dbg !4861
  %lpad.val7 = insertvalue { i8*, i32 } %lpad.val, i32 %sel, 1, !dbg !4861
  resume { i8*, i32 } %lpad.val7, !dbg !4861
}

; Function Attrs: noinline nounwind uwtable
define linkonce_odr dso_local void @_ZN7SGFTreeD2Ev(%class.SGFTree* %this) unnamed_addr #5 comdat align 2 !dbg !4863 {
entry:
  %this.addr = alloca %class.SGFTree*, align 8
  store %class.SGFTree* %this, %class.SGFTree** %this.addr, align 8
  call void @llvm.dbg.declare(metadata %class.SGFTree** %this.addr, metadata !4865, metadata !DIExpression()), !dbg !4866
  %this1 = load %class.SGFTree*, %class.SGFTree** %this.addr, align 8
  %m_properties = getelementptr inbounds %class.SGFTree, %class.SGFTree* %this1, i32 0, i32 2, !dbg !4867
  call void @_ZNSt8multimapINSt7__cxx1112basic_stringIcSt11char_traitsIcESaIcEEES5_St4lessIS5_ESaISt4pairIKS5_S5_EEED2Ev(%"class.std::multimap"* %m_properties) #3, !dbg !4867
  %m_children = getelementptr inbounds %class.SGFTree, %class.SGFTree* %this1, i32 0, i32 1, !dbg !4867
  call void @_ZNSt6vectorI7SGFTreeSaIS0_EED2Ev(%"class.std::vector.16"* %m_children) #3, !dbg !4867
  %m_state = getelementptr inbounds %class.SGFTree, %class.SGFTree* %this1, i32 0, i32 0, !dbg !4867
  call void @_ZN7KoStateD2Ev(%class.KoState* %m_state) #3, !dbg !4867
  ret void, !dbg !4869
}

; Function Attrs: noinline nounwind uwtable
define linkonce_odr dso_local void @_ZNSt8auto_ptrI7SGFTreeED2Ev(%"class.std::auto_ptr"* %this) unnamed_addr #5 comdat align 2 !dbg !4870 {
entry:
  %this.addr = alloca %"class.std::auto_ptr"*, align 8
  store %"class.std::auto_ptr"* %this, %"class.std::auto_ptr"** %this.addr, align 8
  call void @llvm.dbg.declare(metadata %"class.std::auto_ptr"** %this.addr, metadata !4871, metadata !DIExpression()), !dbg !4872
  %this1 = load %"class.std::auto_ptr"*, %"class.std::auto_ptr"** %this.addr, align 8
  %_M_ptr = getelementptr inbounds %"class.std::auto_ptr", %"class.std::auto_ptr"* %this1, i32 0, i32 0, !dbg !4873
  %0 = load %class.SGFTree*, %class.SGFTree** %_M_ptr, align 8, !dbg !4873
  %isnull = icmp eq %class.SGFTree* %0, null, !dbg !4875
  br i1 %isnull, label %delete.end, label %delete.notnull, !dbg !4875

delete.notnull:                                   ; preds = %entry
  call void @_ZN7SGFTreeD2Ev(%class.SGFTree* %0) #3, !dbg !4875
  %1 = bitcast %class.SGFTree* %0 to i8*, !dbg !4875
  call void @_ZdlPv(i8* %1) #16, !dbg !4875
  br label %delete.end, !dbg !4875

delete.end:                                       ; preds = %delete.notnull, %entry
  ret void, !dbg !4876
}

; Function Attrs: noinline uwtable
define dso_local i32 @_ZN9SGFParser19count_games_in_fileENSt7__cxx1112basic_stringIcSt11char_traitsIcESaIcEEE(%"class.std::__cxx11::basic_string"* %filename) #0 align 2 personality i8* bitcast (i32 (...)* @__gxx_personality_v0 to i8*) !dbg !4877 {
entry:
  %ins = alloca %"class.std::basic_ifstream", align 8
  %exn.slot = alloca i8*
  %ehselector.slot = alloca i32
  %count = alloca i32, align 4
  %nesting = alloca i32, align 4
  %c = alloca i8, align 1
  call void @llvm.dbg.declare(metadata %"class.std::__cxx11::basic_string"* %filename, metadata !4878, metadata !DIExpression()), !dbg !4879
  call void @llvm.dbg.declare(metadata %"class.std::basic_ifstream"* %ins, metadata !4880, metadata !DIExpression()), !dbg !4881
  %call = call i8* @_ZNKSt7__cxx1112basic_stringIcSt11char_traitsIcESaIcEE5c_strEv(%"class.std::__cxx11::basic_string"* %filename) #3, !dbg !4882
  %call1 = call i32 @_ZStorSt13_Ios_OpenmodeS_(i32 4, i32 8), !dbg !4883
  call void @_ZNSt14basic_ifstreamIcSt11char_traitsIcEEC1EPKcSt13_Ios_Openmode(%"class.std::basic_ifstream"* %ins, i8* %call, i32 %call1), !dbg !4881
  %0 = bitcast %"class.std::basic_ifstream"* %ins to i8**, !dbg !4884
  %vtable = load i8*, i8** %0, align 8, !dbg !4884
  %vbase.offset.ptr = getelementptr i8, i8* %vtable, i64 -24, !dbg !4884
  %1 = bitcast i8* %vbase.offset.ptr to i64*, !dbg !4884
  %vbase.offset = load i64, i64* %1, align 8, !dbg !4884
  %2 = bitcast %"class.std::basic_ifstream"* %ins to i8*, !dbg !4884
  %add.ptr = getelementptr inbounds i8, i8* %2, i64 %vbase.offset, !dbg !4884
  %3 = bitcast i8* %add.ptr to %"class.std::basic_ios"*, !dbg !4884
  %call2 = invoke zeroext i1 @_ZNKSt9basic_iosIcSt11char_traitsIcEE4failEv(%"class.std::basic_ios"* %3)
          to label %invoke.cont unwind label %lpad, !dbg !4886

invoke.cont:                                      ; preds = %entry
  br i1 %call2, label %if.then, label %if.end, !dbg !4887

if.then:                                          ; preds = %invoke.cont
  %exception = call i8* @__cxa_allocate_exception(i64 8) #3, !dbg !4888
  %4 = bitcast i8* %exception to %"class.std::exception"*, !dbg !4888
  call void @_ZNSt9exceptionC2Ev(%"class.std::exception"* %4) #3, !dbg !4890
  invoke void @__cxa_throw(i8* %exception, i8* bitcast (i8** @_ZTISt9exception to i8*), i8* bitcast (void (%"class.std::exception"*)* @_ZNSt9exceptionD1Ev to i8*)) #13
          to label %unreachable unwind label %lpad, !dbg !4888

lpad:                                             ; preds = %while.end, %do.body, %invoke.cont3, %while.cond, %if.then, %entry
  %5 = landingpad { i8*, i32 }
          cleanup, !dbg !4891
  %6 = extractvalue { i8*, i32 } %5, 0, !dbg !4891
  store i8* %6, i8** %exn.slot, align 8, !dbg !4891
  %7 = extractvalue { i8*, i32 } %5, 1, !dbg !4891
  store i32 %7, i32* %ehselector.slot, align 4, !dbg !4891
  call void @_ZNSt14basic_ifstreamIcSt11char_traitsIcEED1Ev(%"class.std::basic_ifstream"* %ins) #3, !dbg !4892
  br label %eh.resume, !dbg !4892

if.end:                                           ; preds = %invoke.cont
  call void @llvm.dbg.declare(metadata i32* %count, metadata !4893, metadata !DIExpression()), !dbg !4894
  store i32 0, i32* %count, align 4, !dbg !4894
  call void @llvm.dbg.declare(metadata i32* %nesting, metadata !4895, metadata !DIExpression()), !dbg !4896
  store i32 0, i32* %nesting, align 4, !dbg !4896
  call void @llvm.dbg.declare(metadata i8* %c, metadata !4897, metadata !DIExpression()), !dbg !4898
  br label %while.cond, !dbg !4899

while.cond:                                       ; preds = %if.end28, %do.end, %if.end
  %8 = bitcast %"class.std::basic_ifstream"* %ins to %"class.std::basic_istream"*, !dbg !4900
  %call4 = invoke dereferenceable(280) %"class.std::basic_istream"* @_ZStrsISt11char_traitsIcEERSt13basic_istreamIcT_ES5_Rh(%"class.std::basic_istream"* dereferenceable(280) %8, i8* dereferenceable(1) %c)
          to label %invoke.cont3 unwind label %lpad, !dbg !4901

invoke.cont3:                                     ; preds = %while.cond
  %9 = bitcast %"class.std::basic_istream"* %call4 to i8**, !dbg !4900
  %vtable5 = load i8*, i8** %9, align 8, !dbg !4900
  %vbase.offset.ptr6 = getelementptr i8, i8* %vtable5, i64 -24, !dbg !4900
  %10 = bitcast i8* %vbase.offset.ptr6 to i64*, !dbg !4900
  %vbase.offset7 = load i64, i64* %10, align 8, !dbg !4900
  %11 = bitcast %"class.std::basic_istream"* %call4 to i8*, !dbg !4900
  %add.ptr8 = getelementptr inbounds i8, i8* %11, i64 %vbase.offset7, !dbg !4900
  %12 = bitcast i8* %add.ptr8 to %"class.std::basic_ios"*, !dbg !4900
  %call10 = invoke zeroext i1 @_ZNKSt9basic_iosIcSt11char_traitsIcEEcvbEv(%"class.std::basic_ios"* %12)
          to label %invoke.cont9 unwind label %lpad, !dbg !4900

invoke.cont9:                                     ; preds = %invoke.cont3
  br i1 %call10, label %while.body, label %while.end, !dbg !4899

while.body:                                       ; preds = %invoke.cont9
  %13 = load i8, i8* %c, align 1, !dbg !4902
  %conv = zext i8 %13 to i32, !dbg !4902
  %cmp = icmp sgt i32 %conv, 127, !dbg !4905
  br i1 %cmp, label %if.then11, label %if.end16, !dbg !4906

if.then11:                                        ; preds = %while.body
  br label %do.body, !dbg !4907

do.body:                                          ; preds = %do.cond, %if.then11
  %14 = bitcast %"class.std::basic_ifstream"* %ins to %"class.std::basic_istream"*, !dbg !4909
  %call13 = invoke dereferenceable(280) %"class.std::basic_istream"* @_ZStrsISt11char_traitsIcEERSt13basic_istreamIcT_ES5_Rh(%"class.std::basic_istream"* dereferenceable(280) %14, i8* dereferenceable(1) %c)
          to label %invoke.cont12 unwind label %lpad, !dbg !4911

invoke.cont12:                                    ; preds = %do.body
  br label %do.cond, !dbg !4912

do.cond:                                          ; preds = %invoke.cont12
  %15 = load i8, i8* %c, align 1, !dbg !4913
  %conv14 = zext i8 %15 to i32, !dbg !4913
  %cmp15 = icmp sgt i32 %conv14, 127, !dbg !4914
  br i1 %cmp15, label %do.body, label %do.end, !dbg !4912, !llvm.loop !4915

do.end:                                           ; preds = %do.cond
  br label %while.cond, !dbg !4917, !llvm.loop !4918

if.end16:                                         ; preds = %while.body
  %16 = load i8, i8* %c, align 1, !dbg !4920
  %conv17 = zext i8 %16 to i32, !dbg !4920
  %cmp18 = icmp eq i32 %conv17, 40, !dbg !4922
  br i1 %cmp18, label %if.then19, label %if.else, !dbg !4923

if.then19:                                        ; preds = %if.end16
  %17 = load i32, i32* %nesting, align 4, !dbg !4924
  %inc = add nsw i32 %17, 1, !dbg !4924
  store i32 %inc, i32* %nesting, align 4, !dbg !4924
  br label %if.end28, !dbg !4926

if.else:                                          ; preds = %if.end16
  %18 = load i8, i8* %c, align 1, !dbg !4927
  %conv20 = zext i8 %18 to i32, !dbg !4927
  %cmp21 = icmp eq i32 %conv20, 41, !dbg !4929
  br i1 %cmp21, label %if.then22, label %if.end27, !dbg !4930

if.then22:                                        ; preds = %if.else
  %19 = load i32, i32* %nesting, align 4, !dbg !4931
  %dec = add nsw i32 %19, -1, !dbg !4931
  store i32 %dec, i32* %nesting, align 4, !dbg !4931
  %20 = load i32, i32* %nesting, align 4, !dbg !4933
  %cmp23 = icmp eq i32 %20, 0, !dbg !4935
  br i1 %cmp23, label %if.then24, label %if.end26, !dbg !4936

if.then24:                                        ; preds = %if.then22
  %21 = load i32, i32* %count, align 4, !dbg !4937
  %inc25 = add nsw i32 %21, 1, !dbg !4937
  store i32 %inc25, i32* %count, align 4, !dbg !4937
  br label %if.end26, !dbg !4939

if.end26:                                         ; preds = %if.then24, %if.then22
  br label %if.end27, !dbg !4940

if.end27:                                         ; preds = %if.end26, %if.else
  br label %if.end28

if.end28:                                         ; preds = %if.end27, %if.then19
  br label %while.cond, !dbg !4899, !llvm.loop !4918

while.end:                                        ; preds = %invoke.cont9
  invoke void @_ZNSt14basic_ifstreamIcSt11char_traitsIcEE5closeEv(%"class.std::basic_ifstream"* %ins)
          to label %invoke.cont29 unwind label %lpad, !dbg !4941

invoke.cont29:                                    ; preds = %while.end
  %22 = load i32, i32* %count, align 4, !dbg !4942
  call void @_ZNSt14basic_ifstreamIcSt11char_traitsIcEED1Ev(%"class.std::basic_ifstream"* %ins) #3, !dbg !4892
  ret i32 %22, !dbg !4892

eh.resume:                                        ; preds = %lpad
  %exn = load i8*, i8** %exn.slot, align 8, !dbg !4892
  %sel = load i32, i32* %ehselector.slot, align 4, !dbg !4892
  %lpad.val = insertvalue { i8*, i32 } undef, i8* %exn, 0, !dbg !4892
  %lpad.val30 = insertvalue { i8*, i32 } %lpad.val, i32 %sel, 1, !dbg !4892
  resume { i8*, i32 } %lpad.val30, !dbg !4892

unreachable:                                      ; preds = %if.then
  unreachable
}

declare dso_local dereferenceable(280) %"class.std::basic_istream"* @_ZStrsISt11char_traitsIcEERSt13basic_istreamIcT_ES5_Rh(%"class.std::basic_istream"* dereferenceable(280), i8* dereferenceable(1)) #1

; Function Attrs: noinline uwtable
define linkonce_odr dso_local void @_ZNSt8ios_base6unsetfESt13_Ios_Fmtflags(%"class.std::ios_base"* %this, i32 %__mask) #0 comdat align 2 !dbg !4943 {
entry:
  %this.addr = alloca %"class.std::ios_base"*, align 8
  %__mask.addr = alloca i32, align 4
  store %"class.std::ios_base"* %this, %"class.std::ios_base"** %this.addr, align 8
  call void @llvm.dbg.declare(metadata %"class.std::ios_base"** %this.addr, metadata !4949, metadata !DIExpression()), !dbg !4951
  store i32 %__mask, i32* %__mask.addr, align 4
  call void @llvm.dbg.declare(metadata i32* %__mask.addr, metadata !4952, metadata !DIExpression()), !dbg !4953
  %this1 = load %"class.std::ios_base"*, %"class.std::ios_base"** %this.addr, align 8
  %0 = load i32, i32* %__mask.addr, align 4, !dbg !4954
  %call = call i32 @_ZStcoSt13_Ios_Fmtflags(i32 %0), !dbg !4955
  %_M_flags = getelementptr inbounds %"class.std::ios_base", %"class.std::ios_base"* %this1, i32 0, i32 3, !dbg !4956
  %call2 = call dereferenceable(4) i32* @_ZStaNRSt13_Ios_FmtflagsS_(i32* dereferenceable(4) %_M_flags, i32 %call), !dbg !4957
  ret void, !dbg !4958
}

; Function Attrs: noinline uwtable
define linkonce_odr dso_local dereferenceable(4) i32* @_ZStaNRSt13_Ios_FmtflagsS_(i32* dereferenceable(4) %__a, i32 %__b) #0 comdat !dbg !4959 {
entry:
  %__a.addr = alloca i32*, align 8
  %__b.addr = alloca i32, align 4
  store i32* %__a, i32** %__a.addr, align 8
  call void @llvm.dbg.declare(metadata i32** %__a.addr, metadata !4965, metadata !DIExpression()), !dbg !4966
  store i32 %__b, i32* %__b.addr, align 4
  call void @llvm.dbg.declare(metadata i32* %__b.addr, metadata !4967, metadata !DIExpression()), !dbg !4968
  %0 = load i32*, i32** %__a.addr, align 8, !dbg !4969
  %1 = load i32, i32* %0, align 4, !dbg !4969
  %2 = load i32, i32* %__b.addr, align 4, !dbg !4970
  %call = call i32 @_ZStanSt13_Ios_FmtflagsS_(i32 %1, i32 %2), !dbg !4971
  %3 = load i32*, i32** %__a.addr, align 8, !dbg !4972
  store i32 %call, i32* %3, align 4, !dbg !4973
  ret i32* %3, !dbg !4974
}

; Function Attrs: noinline nounwind uwtable
define linkonce_odr dso_local i32 @_ZStcoSt13_Ios_Fmtflags(i32 %__a) #5 comdat !dbg !4975 {
entry:
  %__a.addr = alloca i32, align 4
  store i32 %__a, i32* %__a.addr, align 4
  call void @llvm.dbg.declare(metadata i32* %__a.addr, metadata !4978, metadata !DIExpression()), !dbg !4979
  %0 = load i32, i32* %__a.addr, align 4, !dbg !4980
  %neg = xor i32 %0, -1, !dbg !4981
  ret i32 %neg, !dbg !4982
}

; Function Attrs: noinline nounwind uwtable
define linkonce_odr dso_local i32 @_ZStanSt13_Ios_FmtflagsS_(i32 %__a, i32 %__b) #5 comdat !dbg !4983 {
entry:
  %__a.addr = alloca i32, align 4
  %__b.addr = alloca i32, align 4
  store i32 %__a, i32* %__a.addr, align 4
  call void @llvm.dbg.declare(metadata i32* %__a.addr, metadata !4986, metadata !DIExpression()), !dbg !4987
  store i32 %__b, i32* %__b.addr, align 4
  call void @llvm.dbg.declare(metadata i32* %__b.addr, metadata !4988, metadata !DIExpression()), !dbg !4989
  %0 = load i32, i32* %__a.addr, align 4, !dbg !4990
  %1 = load i32, i32* %__b.addr, align 4, !dbg !4991
  %and = and i32 %0, %1, !dbg !4992
  ret i32 %and, !dbg !4993
}

; Function Attrs: noinline uwtable
define linkonce_odr dso_local i32 @_ZNSt8ios_base4setfESt13_Ios_Fmtflags(%"class.std::ios_base"* %this, i32 %__fmtfl) #0 comdat align 2 !dbg !4994 {
entry:
  %this.addr = alloca %"class.std::ios_base"*, align 8
  %__fmtfl.addr = alloca i32, align 4
  %__old = alloca i32, align 4
  store %"class.std::ios_base"* %this, %"class.std::ios_base"** %this.addr, align 8
  call void @llvm.dbg.declare(metadata %"class.std::ios_base"** %this.addr, metadata !4998, metadata !DIExpression()), !dbg !4999
  store i32 %__fmtfl, i32* %__fmtfl.addr, align 4
  call void @llvm.dbg.declare(metadata i32* %__fmtfl.addr, metadata !5000, metadata !DIExpression()), !dbg !5001
  %this1 = load %"class.std::ios_base"*, %"class.std::ios_base"** %this.addr, align 8
  call void @llvm.dbg.declare(metadata i32* %__old, metadata !5002, metadata !DIExpression()), !dbg !5003
  %_M_flags = getelementptr inbounds %"class.std::ios_base", %"class.std::ios_base"* %this1, i32 0, i32 3, !dbg !5004
  %0 = load i32, i32* %_M_flags, align 8, !dbg !5004
  store i32 %0, i32* %__old, align 4, !dbg !5003
  %1 = load i32, i32* %__fmtfl.addr, align 4, !dbg !5005
  %_M_flags2 = getelementptr inbounds %"class.std::ios_base", %"class.std::ios_base"* %this1, i32 0, i32 3, !dbg !5006
  %call = call dereferenceable(4) i32* @_ZStoRRSt13_Ios_FmtflagsS_(i32* dereferenceable(4) %_M_flags2, i32 %1), !dbg !5007
  %2 = load i32, i32* %__old, align 4, !dbg !5008
  ret i32 %2, !dbg !5009
}

; Function Attrs: noinline uwtable
define linkonce_odr dso_local dereferenceable(4) i32* @_ZStoRRSt13_Ios_FmtflagsS_(i32* dereferenceable(4) %__a, i32 %__b) #0 comdat !dbg !5010 {
entry:
  %__a.addr = alloca i32*, align 8
  %__b.addr = alloca i32, align 4
  store i32* %__a, i32** %__a.addr, align 8
  call void @llvm.dbg.declare(metadata i32** %__a.addr, metadata !5011, metadata !DIExpression()), !dbg !5012
  store i32 %__b, i32* %__b.addr, align 4
  call void @llvm.dbg.declare(metadata i32* %__b.addr, metadata !5013, metadata !DIExpression()), !dbg !5014
  %0 = load i32*, i32** %__a.addr, align 8, !dbg !5015
  %1 = load i32, i32* %0, align 4, !dbg !5015
  %2 = load i32, i32* %__b.addr, align 4, !dbg !5016
  %call = call i32 @_ZStorSt13_Ios_FmtflagsS_(i32 %1, i32 %2), !dbg !5017
  %3 = load i32*, i32** %__a.addr, align 8, !dbg !5018
  store i32 %call, i32* %3, align 4, !dbg !5019
  ret i32* %3, !dbg !5020
}

; Function Attrs: noinline nounwind uwtable
define linkonce_odr dso_local i32 @_ZStorSt13_Ios_FmtflagsS_(i32 %__a, i32 %__b) #5 comdat !dbg !5021 {
entry:
  %__a.addr = alloca i32, align 4
  %__b.addr = alloca i32, align 4
  store i32 %__a, i32* %__a.addr, align 4
  call void @llvm.dbg.declare(metadata i32* %__a.addr, metadata !5022, metadata !DIExpression()), !dbg !5023
  store i32 %__b, i32* %__b.addr, align 4
  call void @llvm.dbg.declare(metadata i32* %__b.addr, metadata !5024, metadata !DIExpression()), !dbg !5025
  %0 = load i32, i32* %__a.addr, align 4, !dbg !5026
  %1 = load i32, i32* %__b.addr, align 4, !dbg !5027
  %or = or i32 %0, %1, !dbg !5028
  ret i32 %or, !dbg !5029
}

; Function Attrs: noinline uwtable
define linkonce_odr dso_local void @_ZN7KoStateC2ERKS_(%class.KoState* %this, %class.KoState* dereferenceable(8440) %0) unnamed_addr #0 comdat align 2 personality i8* bitcast (i32 (...)* @__gxx_personality_v0 to i8*) !dbg !5030 {
entry:
  %this.addr = alloca %class.KoState*, align 8
  %.addr = alloca %class.KoState*, align 8
  %exn.slot = alloca i8*
  %ehselector.slot = alloca i32
  store %class.KoState* %this, %class.KoState** %this.addr, align 8
  call void @llvm.dbg.declare(metadata %class.KoState** %this.addr, metadata !5036, metadata !DIExpression()), !dbg !5037
  store %class.KoState* %0, %class.KoState** %.addr, align 8
  call void @llvm.dbg.declare(metadata %class.KoState** %.addr, metadata !5038, metadata !DIExpression()), !dbg !5037
  %this1 = load %class.KoState*, %class.KoState** %this.addr, align 8
  %1 = bitcast %class.KoState* %this1 to %class.FastState*, !dbg !5039
  %2 = load %class.KoState*, %class.KoState** %.addr, align 8, !dbg !5039
  %3 = bitcast %class.KoState* %2 to %class.FastState*, !dbg !5039
  call void @_ZN9FastStateC2ERKS_(%class.FastState* %1, %class.FastState* dereferenceable(8392) %3), !dbg !5039
  %ko_hash_history = getelementptr inbounds %class.KoState, %class.KoState* %this1, i32 0, i32 1, !dbg !5039
  %4 = load %class.KoState*, %class.KoState** %.addr, align 8, !dbg !5039
  %ko_hash_history2 = getelementptr inbounds %class.KoState, %class.KoState* %4, i32 0, i32 1, !dbg !5039
  invoke void @_ZNSt6vectorIySaIyEEC2ERKS1_(%"class.std::vector.11"* %ko_hash_history, %"class.std::vector.11"* dereferenceable(24) %ko_hash_history2)
          to label %invoke.cont unwind label %lpad, !dbg !5039

invoke.cont:                                      ; preds = %entry
  %hash_history = getelementptr inbounds %class.KoState, %class.KoState* %this1, i32 0, i32 2, !dbg !5039
  %5 = load %class.KoState*, %class.KoState** %.addr, align 8, !dbg !5039
  %hash_history3 = getelementptr inbounds %class.KoState, %class.KoState* %5, i32 0, i32 2, !dbg !5039
  invoke void @_ZNSt6vectorIySaIyEEC2ERKS1_(%"class.std::vector.11"* %hash_history, %"class.std::vector.11"* dereferenceable(24) %hash_history3)
          to label %invoke.cont5 unwind label %lpad4, !dbg !5039

invoke.cont5:                                     ; preds = %invoke.cont
  ret void, !dbg !5039

lpad:                                             ; preds = %entry
  %6 = landingpad { i8*, i32 }
          cleanup, !dbg !5039
  %7 = extractvalue { i8*, i32 } %6, 0, !dbg !5039
  store i8* %7, i8** %exn.slot, align 8, !dbg !5039
  %8 = extractvalue { i8*, i32 } %6, 1, !dbg !5039
  store i32 %8, i32* %ehselector.slot, align 4, !dbg !5039
  br label %ehcleanup, !dbg !5039

lpad4:                                            ; preds = %invoke.cont
  %9 = landingpad { i8*, i32 }
          cleanup, !dbg !5039
  %10 = extractvalue { i8*, i32 } %9, 0, !dbg !5039
  store i8* %10, i8** %exn.slot, align 8, !dbg !5039
  %11 = extractvalue { i8*, i32 } %9, 1, !dbg !5039
  store i32 %11, i32* %ehselector.slot, align 4, !dbg !5039
  call void @_ZNSt6vectorIySaIyEED2Ev(%"class.std::vector.11"* %ko_hash_history) #3, !dbg !5040
  br label %ehcleanup, !dbg !5040

ehcleanup:                                        ; preds = %lpad4, %lpad
  %12 = bitcast %class.KoState* %this1 to %class.FastState*, !dbg !5040
  call void @_ZN9FastStateD2Ev(%class.FastState* %12) #3, !dbg !5040
  br label %eh.resume, !dbg !5040

eh.resume:                                        ; preds = %ehcleanup
  %exn = load i8*, i8** %exn.slot, align 8, !dbg !5040
  %sel = load i32, i32* %ehselector.slot, align 4, !dbg !5040
  %lpad.val = insertvalue { i8*, i32 } undef, i8* %exn, 0, !dbg !5040
  %lpad.val6 = insertvalue { i8*, i32 } %lpad.val, i32 %sel, 1, !dbg !5040
  resume { i8*, i32 } %lpad.val6, !dbg !5040
}

; Function Attrs: noinline uwtable
define linkonce_odr dso_local void @_ZNSt6vectorI7SGFTreeSaIS0_EEC2ERKS2_(%"class.std::vector.16"* %this, %"class.std::vector.16"* dereferenceable(24) %__x) unnamed_addr #0 comdat align 2 personality i8* bitcast (i32 (...)* @__gxx_personality_v0 to i8*) !dbg !5042 {
entry:
  %this.addr = alloca %"class.std::vector.16"*, align 8
  %__x.addr = alloca %"class.std::vector.16"*, align 8
  %ref.tmp = alloca %"class.std::allocator.18", align 1
  %exn.slot = alloca i8*
  %ehselector.slot = alloca i32
  %agg.tmp = alloca %"class.__gnu_cxx::__normal_iterator.25", align 8
  %agg.tmp4 = alloca %"class.__gnu_cxx::__normal_iterator.25", align 8
  store %"class.std::vector.16"* %this, %"class.std::vector.16"** %this.addr, align 8
  call void @llvm.dbg.declare(metadata %"class.std::vector.16"** %this.addr, metadata !5043, metadata !DIExpression()), !dbg !5045
  store %"class.std::vector.16"* %__x, %"class.std::vector.16"** %__x.addr, align 8
  call void @llvm.dbg.declare(metadata %"class.std::vector.16"** %__x.addr, metadata !5046, metadata !DIExpression()), !dbg !5047
  %this1 = load %"class.std::vector.16"*, %"class.std::vector.16"** %this.addr, align 8
  %0 = bitcast %"class.std::vector.16"* %this1 to %"struct.std::_Vector_base.17"*, !dbg !5048
  %1 = load %"class.std::vector.16"*, %"class.std::vector.16"** %__x.addr, align 8, !dbg !5049
  %call = call i64 @_ZNKSt6vectorI7SGFTreeSaIS0_EE4sizeEv(%"class.std::vector.16"* %1) #3, !dbg !5050
  %2 = load %"class.std::vector.16"*, %"class.std::vector.16"** %__x.addr, align 8, !dbg !5051
  %3 = bitcast %"class.std::vector.16"* %2 to %"struct.std::_Vector_base.17"*, !dbg !5051
  %call2 = call dereferenceable(1) %"class.std::allocator.18"* @_ZNKSt12_Vector_baseI7SGFTreeSaIS0_EE19_M_get_Tp_allocatorEv(%"struct.std::_Vector_base.17"* %3) #3, !dbg !5052
  call void @_ZN9__gnu_cxx14__alloc_traitsISaI7SGFTreeES1_E17_S_select_on_copyERKS2_(%"class.std::allocator.18"* sret %ref.tmp, %"class.std::allocator.18"* dereferenceable(1) %call2), !dbg !5053
  invoke void @_ZNSt12_Vector_baseI7SGFTreeSaIS0_EEC2EmRKS1_(%"struct.std::_Vector_base.17"* %0, i64 %call, %"class.std::allocator.18"* dereferenceable(1) %ref.tmp)
          to label %invoke.cont unwind label %lpad, !dbg !5054

invoke.cont:                                      ; preds = %entry
  call void @_ZNSaI7SGFTreeED2Ev(%"class.std::allocator.18"* %ref.tmp) #3, !dbg !5054
  %4 = load %"class.std::vector.16"*, %"class.std::vector.16"** %__x.addr, align 8, !dbg !5055
  %call3 = call %class.SGFTree* @_ZNKSt6vectorI7SGFTreeSaIS0_EE5beginEv(%"class.std::vector.16"* %4) #3, !dbg !5057
  %coerce.dive = getelementptr inbounds %"class.__gnu_cxx::__normal_iterator.25", %"class.__gnu_cxx::__normal_iterator.25"* %agg.tmp, i32 0, i32 0, !dbg !5057
  store %class.SGFTree* %call3, %class.SGFTree** %coerce.dive, align 8, !dbg !5057
  %5 = load %"class.std::vector.16"*, %"class.std::vector.16"** %__x.addr, align 8, !dbg !5058
  %call5 = call %class.SGFTree* @_ZNKSt6vectorI7SGFTreeSaIS0_EE3endEv(%"class.std::vector.16"* %5) #3, !dbg !5059
  %coerce.dive6 = getelementptr inbounds %"class.__gnu_cxx::__normal_iterator.25", %"class.__gnu_cxx::__normal_iterator.25"* %agg.tmp4, i32 0, i32 0, !dbg !5059
  store %class.SGFTree* %call5, %class.SGFTree** %coerce.dive6, align 8, !dbg !5059
  %6 = bitcast %"class.std::vector.16"* %this1 to %"struct.std::_Vector_base.17"*, !dbg !5060
  %_M_impl = getelementptr inbounds %"struct.std::_Vector_base.17", %"struct.std::_Vector_base.17"* %6, i32 0, i32 0, !dbg !5060
  %7 = bitcast %"struct.std::_Vector_base<SGFTree, std::allocator<SGFTree> >::_Vector_impl"* %_M_impl to %"struct.std::_Vector_base<SGFTree, std::allocator<SGFTree> >::_Vector_impl_data"*, !dbg !5061
  %_M_start = getelementptr inbounds %"struct.std::_Vector_base<SGFTree, std::allocator<SGFTree> >::_Vector_impl_data", %"struct.std::_Vector_base<SGFTree, std::allocator<SGFTree> >::_Vector_impl_data"* %7, i32 0, i32 0, !dbg !5062
  %8 = load %class.SGFTree*, %class.SGFTree** %_M_start, align 8, !dbg !5062
  %9 = bitcast %"class.std::vector.16"* %this1 to %"struct.std::_Vector_base.17"*, !dbg !5063
  %call7 = call dereferenceable(1) %"class.std::allocator.18"* @_ZNSt12_Vector_baseI7SGFTreeSaIS0_EE19_M_get_Tp_allocatorEv(%"struct.std::_Vector_base.17"* %9) #3, !dbg !5063
  %coerce.dive8 = getelementptr inbounds %"class.__gnu_cxx::__normal_iterator.25", %"class.__gnu_cxx::__normal_iterator.25"* %agg.tmp, i32 0, i32 0, !dbg !5064
  %10 = load %class.SGFTree*, %class.SGFTree** %coerce.dive8, align 8, !dbg !5064
  %coerce.dive9 = getelementptr inbounds %"class.__gnu_cxx::__normal_iterator.25", %"class.__gnu_cxx::__normal_iterator.25"* %agg.tmp4, i32 0, i32 0, !dbg !5064
  %11 = load %class.SGFTree*, %class.SGFTree** %coerce.dive9, align 8, !dbg !5064
  %call12 = invoke %class.SGFTree* @_ZSt22__uninitialized_copy_aIN9__gnu_cxx17__normal_iteratorIPK7SGFTreeSt6vectorIS2_SaIS2_EEEEPS2_S2_ET0_T_SB_SA_RSaIT1_E(%class.SGFTree* %10, %class.SGFTree* %11, %class.SGFTree* %8, %"class.std::allocator.18"* dereferenceable(1) %call7)
          to label %invoke.cont11 unwind label %lpad10, !dbg !5064

invoke.cont11:                                    ; preds = %invoke.cont
  %12 = bitcast %"class.std::vector.16"* %this1 to %"struct.std::_Vector_base.17"*, !dbg !5065
  %_M_impl13 = getelementptr inbounds %"struct.std::_Vector_base.17", %"struct.std::_Vector_base.17"* %12, i32 0, i32 0, !dbg !5065
  %13 = bitcast %"struct.std::_Vector_base<SGFTree, std::allocator<SGFTree> >::_Vector_impl"* %_M_impl13 to %"struct.std::_Vector_base<SGFTree, std::allocator<SGFTree> >::_Vector_impl_data"*, !dbg !5066
  %_M_finish = getelementptr inbounds %"struct.std::_Vector_base<SGFTree, std::allocator<SGFTree> >::_Vector_impl_data", %"struct.std::_Vector_base<SGFTree, std::allocator<SGFTree> >::_Vector_impl_data"* %13, i32 0, i32 1, !dbg !5067
  store %class.SGFTree* %call12, %class.SGFTree** %_M_finish, align 8, !dbg !5068
  ret void, !dbg !5069

lpad:                                             ; preds = %entry
  %14 = landingpad { i8*, i32 }
          cleanup, !dbg !5069
  %15 = extractvalue { i8*, i32 } %14, 0, !dbg !5069
  store i8* %15, i8** %exn.slot, align 8, !dbg !5069
  %16 = extractvalue { i8*, i32 } %14, 1, !dbg !5069
  store i32 %16, i32* %ehselector.slot, align 4, !dbg !5069
  call void @_ZNSaI7SGFTreeED2Ev(%"class.std::allocator.18"* %ref.tmp) #3, !dbg !5054
  br label %eh.resume, !dbg !5054

lpad10:                                           ; preds = %invoke.cont
  %17 = landingpad { i8*, i32 }
          cleanup, !dbg !5070
  %18 = extractvalue { i8*, i32 } %17, 0, !dbg !5070
  store i8* %18, i8** %exn.slot, align 8, !dbg !5070
  %19 = extractvalue { i8*, i32 } %17, 1, !dbg !5070
  store i32 %19, i32* %ehselector.slot, align 4, !dbg !5070
  %20 = bitcast %"class.std::vector.16"* %this1 to %"struct.std::_Vector_base.17"*, !dbg !5070
  call void @_ZNSt12_Vector_baseI7SGFTreeSaIS0_EED2Ev(%"struct.std::_Vector_base.17"* %20) #3, !dbg !5070
  br label %eh.resume, !dbg !5070

eh.resume:                                        ; preds = %lpad10, %lpad
  %exn = load i8*, i8** %exn.slot, align 8, !dbg !5054
  %sel = load i32, i32* %ehselector.slot, align 4, !dbg !5054
  %lpad.val = insertvalue { i8*, i32 } undef, i8* %exn, 0, !dbg !5054
  %lpad.val14 = insertvalue { i8*, i32 } %lpad.val, i32 %sel, 1, !dbg !5054
  resume { i8*, i32 } %lpad.val14, !dbg !5054
}

; Function Attrs: noinline uwtable
define linkonce_odr dso_local void @_ZNSt8multimapINSt7__cxx1112basic_stringIcSt11char_traitsIcESaIcEEES5_St4lessIS5_ESaISt4pairIKS5_S5_EEEC2ERKSC_(%"class.std::multimap"* %this, %"class.std::multimap"* dereferenceable(48) %0) unnamed_addr #0 comdat align 2 !dbg !5071 {
entry:
  %this.addr = alloca %"class.std::multimap"*, align 8
  %.addr = alloca %"class.std::multimap"*, align 8
  store %"class.std::multimap"* %this, %"class.std::multimap"** %this.addr, align 8
  call void @llvm.dbg.declare(metadata %"class.std::multimap"** %this.addr, metadata !5072, metadata !DIExpression()), !dbg !5074
  store %"class.std::multimap"* %0, %"class.std::multimap"** %.addr, align 8
  call void @llvm.dbg.declare(metadata %"class.std::multimap"** %.addr, metadata !5075, metadata !DIExpression()), !dbg !5076
  %this1 = load %"class.std::multimap"*, %"class.std::multimap"** %this.addr, align 8
  %_M_t = getelementptr inbounds %"class.std::multimap", %"class.std::multimap"* %this1, i32 0, i32 0, !dbg !5077
  %1 = load %"class.std::multimap"*, %"class.std::multimap"** %.addr, align 8, !dbg !5077
  %_M_t2 = getelementptr inbounds %"class.std::multimap", %"class.std::multimap"* %1, i32 0, i32 0, !dbg !5077
  call void @_ZNSt8_Rb_treeINSt7__cxx1112basic_stringIcSt11char_traitsIcESaIcEEESt4pairIKS5_S5_ESt10_Select1stIS8_ESt4lessIS5_ESaIS8_EEC2ERKSE_(%"class.std::_Rb_tree"* %_M_t, %"class.std::_Rb_tree"* dereferenceable(48) %_M_t2), !dbg !5077
  ret void, !dbg !5078
}

; Function Attrs: noinline nounwind uwtable
define linkonce_odr dso_local void @_ZNSt6vectorI7SGFTreeSaIS0_EED2Ev(%"class.std::vector.16"* %this) unnamed_addr #5 comdat align 2 personality i8* bitcast (i32 (...)* @__gxx_personality_v0 to i8*) !dbg !5079 {
entry:
  %this.addr = alloca %"class.std::vector.16"*, align 8
  %exn.slot = alloca i8*
  %ehselector.slot = alloca i32
  store %"class.std::vector.16"* %this, %"class.std::vector.16"** %this.addr, align 8
  call void @llvm.dbg.declare(metadata %"class.std::vector.16"** %this.addr, metadata !5080, metadata !DIExpression()), !dbg !5081
  %this1 = load %"class.std::vector.16"*, %"class.std::vector.16"** %this.addr, align 8
  %0 = bitcast %"class.std::vector.16"* %this1 to %"struct.std::_Vector_base.17"*, !dbg !5082
  %_M_impl = getelementptr inbounds %"struct.std::_Vector_base.17", %"struct.std::_Vector_base.17"* %0, i32 0, i32 0, !dbg !5082
  %1 = bitcast %"struct.std::_Vector_base<SGFTree, std::allocator<SGFTree> >::_Vector_impl"* %_M_impl to %"struct.std::_Vector_base<SGFTree, std::allocator<SGFTree> >::_Vector_impl_data"*, !dbg !5084
  %_M_start = getelementptr inbounds %"struct.std::_Vector_base<SGFTree, std::allocator<SGFTree> >::_Vector_impl_data", %"struct.std::_Vector_base<SGFTree, std::allocator<SGFTree> >::_Vector_impl_data"* %1, i32 0, i32 0, !dbg !5085
  %2 = load %class.SGFTree*, %class.SGFTree** %_M_start, align 8, !dbg !5085
  %3 = bitcast %"class.std::vector.16"* %this1 to %"struct.std::_Vector_base.17"*, !dbg !5086
  %_M_impl2 = getelementptr inbounds %"struct.std::_Vector_base.17", %"struct.std::_Vector_base.17"* %3, i32 0, i32 0, !dbg !5086
  %4 = bitcast %"struct.std::_Vector_base<SGFTree, std::allocator<SGFTree> >::_Vector_impl"* %_M_impl2 to %"struct.std::_Vector_base<SGFTree, std::allocator<SGFTree> >::_Vector_impl_data"*, !dbg !5087
  %_M_finish = getelementptr inbounds %"struct.std::_Vector_base<SGFTree, std::allocator<SGFTree> >::_Vector_impl_data", %"struct.std::_Vector_base<SGFTree, std::allocator<SGFTree> >::_Vector_impl_data"* %4, i32 0, i32 1, !dbg !5088
  %5 = load %class.SGFTree*, %class.SGFTree** %_M_finish, align 8, !dbg !5088
  %6 = bitcast %"class.std::vector.16"* %this1 to %"struct.std::_Vector_base.17"*, !dbg !5089
  %call = call dereferenceable(1) %"class.std::allocator.18"* @_ZNSt12_Vector_baseI7SGFTreeSaIS0_EE19_M_get_Tp_allocatorEv(%"struct.std::_Vector_base.17"* %6) #3, !dbg !5089
  invoke void @_ZSt8_DestroyIP7SGFTreeS0_EvT_S2_RSaIT0_E(%class.SGFTree* %2, %class.SGFTree* %5, %"class.std::allocator.18"* dereferenceable(1) %call)
          to label %invoke.cont unwind label %lpad, !dbg !5090

invoke.cont:                                      ; preds = %entry
  %7 = bitcast %"class.std::vector.16"* %this1 to %"struct.std::_Vector_base.17"*, !dbg !5091
  call void @_ZNSt12_Vector_baseI7SGFTreeSaIS0_EED2Ev(%"struct.std::_Vector_base.17"* %7) #3, !dbg !5091
  ret void, !dbg !5092

lpad:                                             ; preds = %entry
  %8 = landingpad { i8*, i32 }
          catch i8* null, !dbg !5091
  %9 = extractvalue { i8*, i32 } %8, 0, !dbg !5091
  store i8* %9, i8** %exn.slot, align 8, !dbg !5091
  %10 = extractvalue { i8*, i32 } %8, 1, !dbg !5091
  store i32 %10, i32* %ehselector.slot, align 4, !dbg !5091
  %11 = bitcast %"class.std::vector.16"* %this1 to %"struct.std::_Vector_base.17"*, !dbg !5091
  call void @_ZNSt12_Vector_baseI7SGFTreeSaIS0_EED2Ev(%"struct.std::_Vector_base.17"* %11) #3, !dbg !5091
  br label %terminate.handler, !dbg !5091

terminate.handler:                                ; preds = %lpad
  %exn = load i8*, i8** %exn.slot, align 8, !dbg !5091
  call void @__clang_call_terminate(i8* %exn) #17, !dbg !5091
  unreachable, !dbg !5091
}

; Function Attrs: noinline nounwind uwtable
define linkonce_odr dso_local void @_ZN7KoStateD2Ev(%class.KoState* %this) unnamed_addr #5 comdat align 2 !dbg !5093 {
entry:
  %this.addr = alloca %class.KoState*, align 8
  store %class.KoState* %this, %class.KoState** %this.addr, align 8
  call void @llvm.dbg.declare(metadata %class.KoState** %this.addr, metadata !5095, metadata !DIExpression()), !dbg !5096
  %this1 = load %class.KoState*, %class.KoState** %this.addr, align 8
  %hash_history = getelementptr inbounds %class.KoState, %class.KoState* %this1, i32 0, i32 2, !dbg !5097
  call void @_ZNSt6vectorIySaIyEED2Ev(%"class.std::vector.11"* %hash_history) #3, !dbg !5097
  %ko_hash_history = getelementptr inbounds %class.KoState, %class.KoState* %this1, i32 0, i32 1, !dbg !5097
  call void @_ZNSt6vectorIySaIyEED2Ev(%"class.std::vector.11"* %ko_hash_history) #3, !dbg !5097
  %0 = bitcast %class.KoState* %this1 to %class.FastState*, !dbg !5097
  call void @_ZN9FastStateD2Ev(%class.FastState* %0) #3, !dbg !5097
  ret void, !dbg !5099
}

; Function Attrs: noinline uwtable
define linkonce_odr dso_local void @_ZN9FastStateC2ERKS_(%class.FastState* %this, %class.FastState* dereferenceable(8392) %0) unnamed_addr #0 comdat align 2 !dbg !5100 {
entry:
  %this.addr = alloca %class.FastState*, align 8
  %.addr = alloca %class.FastState*, align 8
  store %class.FastState* %this, %class.FastState** %this.addr, align 8
  call void @llvm.dbg.declare(metadata %class.FastState** %this.addr, metadata !5106, metadata !DIExpression()), !dbg !5108
  store %class.FastState* %0, %class.FastState** %.addr, align 8
  call void @llvm.dbg.declare(metadata %class.FastState** %.addr, metadata !5109, metadata !DIExpression()), !dbg !5108
  %this1 = load %class.FastState*, %class.FastState** %this.addr, align 8
  %board = getelementptr inbounds %class.FastState, %class.FastState* %this1, i32 0, i32 0, !dbg !5110
  %1 = load %class.FastState*, %class.FastState** %.addr, align 8, !dbg !5110
  %board2 = getelementptr inbounds %class.FastState, %class.FastState* %1, i32 0, i32 0, !dbg !5110
  call void @_ZN9FullBoardC2ERKS_(%class.FullBoard* %board, %class.FullBoard* dereferenceable(8072) %board2), !dbg !5110
  %m_komi = getelementptr inbounds %class.FastState, %class.FastState* %this1, i32 0, i32 1, !dbg !5110
  %2 = load %class.FastState*, %class.FastState** %.addr, align 8, !dbg !5110
  %m_komi3 = getelementptr inbounds %class.FastState, %class.FastState* %2, i32 0, i32 1, !dbg !5110
  %3 = bitcast float* %m_komi to i8*, !dbg !5110
  %4 = bitcast float* %m_komi3 to i8*, !dbg !5110
  call void @llvm.memcpy.p0i8.p0i8.i64(i8* align 8 %3, i8* align 8 %4, i64 316, i1 false), !dbg !5110
  ret void, !dbg !5110
}

; Function Attrs: noinline uwtable
define linkonce_odr dso_local void @_ZNSt6vectorIySaIyEEC2ERKS1_(%"class.std::vector.11"* %this, %"class.std::vector.11"* dereferenceable(24) %__x) unnamed_addr #0 comdat align 2 personality i8* bitcast (i32 (...)* @__gxx_personality_v0 to i8*) !dbg !5111 {
entry:
  %this.addr = alloca %"class.std::vector.11"*, align 8
  %__x.addr = alloca %"class.std::vector.11"*, align 8
  %ref.tmp = alloca %"class.std::allocator.13", align 1
  %exn.slot = alloca i8*
  %ehselector.slot = alloca i32
  %agg.tmp = alloca %"class.__gnu_cxx::__normal_iterator.24", align 8
  %agg.tmp4 = alloca %"class.__gnu_cxx::__normal_iterator.24", align 8
  store %"class.std::vector.11"* %this, %"class.std::vector.11"** %this.addr, align 8
  call void @llvm.dbg.declare(metadata %"class.std::vector.11"** %this.addr, metadata !5112, metadata !DIExpression()), !dbg !5114
  store %"class.std::vector.11"* %__x, %"class.std::vector.11"** %__x.addr, align 8
  call void @llvm.dbg.declare(metadata %"class.std::vector.11"** %__x.addr, metadata !5115, metadata !DIExpression()), !dbg !5116
  %this1 = load %"class.std::vector.11"*, %"class.std::vector.11"** %this.addr, align 8
  %0 = bitcast %"class.std::vector.11"* %this1 to %"struct.std::_Vector_base.12"*, !dbg !5117
  %1 = load %"class.std::vector.11"*, %"class.std::vector.11"** %__x.addr, align 8, !dbg !5118
  %call = call i64 @_ZNKSt6vectorIySaIyEE4sizeEv(%"class.std::vector.11"* %1) #3, !dbg !5119
  %2 = load %"class.std::vector.11"*, %"class.std::vector.11"** %__x.addr, align 8, !dbg !5120
  %3 = bitcast %"class.std::vector.11"* %2 to %"struct.std::_Vector_base.12"*, !dbg !5120
  %call2 = call dereferenceable(1) %"class.std::allocator.13"* @_ZNKSt12_Vector_baseIySaIyEE19_M_get_Tp_allocatorEv(%"struct.std::_Vector_base.12"* %3) #3, !dbg !5121
  call void @_ZN9__gnu_cxx14__alloc_traitsISaIyEyE17_S_select_on_copyERKS1_(%"class.std::allocator.13"* sret %ref.tmp, %"class.std::allocator.13"* dereferenceable(1) %call2), !dbg !5122
  invoke void @_ZNSt12_Vector_baseIySaIyEEC2EmRKS0_(%"struct.std::_Vector_base.12"* %0, i64 %call, %"class.std::allocator.13"* dereferenceable(1) %ref.tmp)
          to label %invoke.cont unwind label %lpad, !dbg !5123

invoke.cont:                                      ; preds = %entry
  call void @_ZNSaIyED2Ev(%"class.std::allocator.13"* %ref.tmp) #3, !dbg !5123
  %4 = load %"class.std::vector.11"*, %"class.std::vector.11"** %__x.addr, align 8, !dbg !5124
  %call3 = call i64* @_ZNKSt6vectorIySaIyEE5beginEv(%"class.std::vector.11"* %4) #3, !dbg !5126
  %coerce.dive = getelementptr inbounds %"class.__gnu_cxx::__normal_iterator.24", %"class.__gnu_cxx::__normal_iterator.24"* %agg.tmp, i32 0, i32 0, !dbg !5126
  store i64* %call3, i64** %coerce.dive, align 8, !dbg !5126
  %5 = load %"class.std::vector.11"*, %"class.std::vector.11"** %__x.addr, align 8, !dbg !5127
  %call5 = call i64* @_ZNKSt6vectorIySaIyEE3endEv(%"class.std::vector.11"* %5) #3, !dbg !5128
  %coerce.dive6 = getelementptr inbounds %"class.__gnu_cxx::__normal_iterator.24", %"class.__gnu_cxx::__normal_iterator.24"* %agg.tmp4, i32 0, i32 0, !dbg !5128
  store i64* %call5, i64** %coerce.dive6, align 8, !dbg !5128
  %6 = bitcast %"class.std::vector.11"* %this1 to %"struct.std::_Vector_base.12"*, !dbg !5129
  %_M_impl = getelementptr inbounds %"struct.std::_Vector_base.12", %"struct.std::_Vector_base.12"* %6, i32 0, i32 0, !dbg !5129
  %7 = bitcast %"struct.std::_Vector_base<unsigned long long, std::allocator<unsigned long long> >::_Vector_impl"* %_M_impl to %"struct.std::_Vector_base<unsigned long long, std::allocator<unsigned long long> >::_Vector_impl_data"*, !dbg !5130
  %_M_start = getelementptr inbounds %"struct.std::_Vector_base<unsigned long long, std::allocator<unsigned long long> >::_Vector_impl_data", %"struct.std::_Vector_base<unsigned long long, std::allocator<unsigned long long> >::_Vector_impl_data"* %7, i32 0, i32 0, !dbg !5131
  %8 = load i64*, i64** %_M_start, align 8, !dbg !5131
  %9 = bitcast %"class.std::vector.11"* %this1 to %"struct.std::_Vector_base.12"*, !dbg !5132
  %call7 = call dereferenceable(1) %"class.std::allocator.13"* @_ZNSt12_Vector_baseIySaIyEE19_M_get_Tp_allocatorEv(%"struct.std::_Vector_base.12"* %9) #3, !dbg !5132
  %coerce.dive8 = getelementptr inbounds %"class.__gnu_cxx::__normal_iterator.24", %"class.__gnu_cxx::__normal_iterator.24"* %agg.tmp, i32 0, i32 0, !dbg !5133
  %10 = load i64*, i64** %coerce.dive8, align 8, !dbg !5133
  %coerce.dive9 = getelementptr inbounds %"class.__gnu_cxx::__normal_iterator.24", %"class.__gnu_cxx::__normal_iterator.24"* %agg.tmp4, i32 0, i32 0, !dbg !5133
  %11 = load i64*, i64** %coerce.dive9, align 8, !dbg !5133
  %call12 = invoke i64* @_ZSt22__uninitialized_copy_aIN9__gnu_cxx17__normal_iteratorIPKySt6vectorIySaIyEEEEPyyET0_T_SA_S9_RSaIT1_E(i64* %10, i64* %11, i64* %8, %"class.std::allocator.13"* dereferenceable(1) %call7)
          to label %invoke.cont11 unwind label %lpad10, !dbg !5133

invoke.cont11:                                    ; preds = %invoke.cont
  %12 = bitcast %"class.std::vector.11"* %this1 to %"struct.std::_Vector_base.12"*, !dbg !5134
  %_M_impl13 = getelementptr inbounds %"struct.std::_Vector_base.12", %"struct.std::_Vector_base.12"* %12, i32 0, i32 0, !dbg !5134
  %13 = bitcast %"struct.std::_Vector_base<unsigned long long, std::allocator<unsigned long long> >::_Vector_impl"* %_M_impl13 to %"struct.std::_Vector_base<unsigned long long, std::allocator<unsigned long long> >::_Vector_impl_data"*, !dbg !5135
  %_M_finish = getelementptr inbounds %"struct.std::_Vector_base<unsigned long long, std::allocator<unsigned long long> >::_Vector_impl_data", %"struct.std::_Vector_base<unsigned long long, std::allocator<unsigned long long> >::_Vector_impl_data"* %13, i32 0, i32 1, !dbg !5136
  store i64* %call12, i64** %_M_finish, align 8, !dbg !5137
  ret void, !dbg !5138

lpad:                                             ; preds = %entry
  %14 = landingpad { i8*, i32 }
          cleanup, !dbg !5138
  %15 = extractvalue { i8*, i32 } %14, 0, !dbg !5138
  store i8* %15, i8** %exn.slot, align 8, !dbg !5138
  %16 = extractvalue { i8*, i32 } %14, 1, !dbg !5138
  store i32 %16, i32* %ehselector.slot, align 4, !dbg !5138
  call void @_ZNSaIyED2Ev(%"class.std::allocator.13"* %ref.tmp) #3, !dbg !5123
  br label %eh.resume, !dbg !5123

lpad10:                                           ; preds = %invoke.cont
  %17 = landingpad { i8*, i32 }
          cleanup, !dbg !5139
  %18 = extractvalue { i8*, i32 } %17, 0, !dbg !5139
  store i8* %18, i8** %exn.slot, align 8, !dbg !5139
  %19 = extractvalue { i8*, i32 } %17, 1, !dbg !5139
  store i32 %19, i32* %ehselector.slot, align 4, !dbg !5139
  %20 = bitcast %"class.std::vector.11"* %this1 to %"struct.std::_Vector_base.12"*, !dbg !5139
  call void @_ZNSt12_Vector_baseIySaIyEED2Ev(%"struct.std::_Vector_base.12"* %20) #3, !dbg !5139
  br label %eh.resume, !dbg !5139

eh.resume:                                        ; preds = %lpad10, %lpad
  %exn = load i8*, i8** %exn.slot, align 8, !dbg !5123
  %sel = load i32, i32* %ehselector.slot, align 4, !dbg !5123
  %lpad.val = insertvalue { i8*, i32 } undef, i8* %exn, 0, !dbg !5123
  %lpad.val14 = insertvalue { i8*, i32 } %lpad.val, i32 %sel, 1, !dbg !5123
  resume { i8*, i32 } %lpad.val14, !dbg !5123
}

; Function Attrs: noinline nounwind uwtable
define linkonce_odr dso_local void @_ZNSt6vectorIySaIyEED2Ev(%"class.std::vector.11"* %this) unnamed_addr #5 comdat align 2 personality i8* bitcast (i32 (...)* @__gxx_personality_v0 to i8*) !dbg !5140 {
entry:
  %this.addr = alloca %"class.std::vector.11"*, align 8
  %exn.slot = alloca i8*
  %ehselector.slot = alloca i32
  store %"class.std::vector.11"* %this, %"class.std::vector.11"** %this.addr, align 8
  call void @llvm.dbg.declare(metadata %"class.std::vector.11"** %this.addr, metadata !5141, metadata !DIExpression()), !dbg !5142
  %this1 = load %"class.std::vector.11"*, %"class.std::vector.11"** %this.addr, align 8
  %0 = bitcast %"class.std::vector.11"* %this1 to %"struct.std::_Vector_base.12"*, !dbg !5143
  %_M_impl = getelementptr inbounds %"struct.std::_Vector_base.12", %"struct.std::_Vector_base.12"* %0, i32 0, i32 0, !dbg !5143
  %1 = bitcast %"struct.std::_Vector_base<unsigned long long, std::allocator<unsigned long long> >::_Vector_impl"* %_M_impl to %"struct.std::_Vector_base<unsigned long long, std::allocator<unsigned long long> >::_Vector_impl_data"*, !dbg !5145
  %_M_start = getelementptr inbounds %"struct.std::_Vector_base<unsigned long long, std::allocator<unsigned long long> >::_Vector_impl_data", %"struct.std::_Vector_base<unsigned long long, std::allocator<unsigned long long> >::_Vector_impl_data"* %1, i32 0, i32 0, !dbg !5146
  %2 = load i64*, i64** %_M_start, align 8, !dbg !5146
  %3 = bitcast %"class.std::vector.11"* %this1 to %"struct.std::_Vector_base.12"*, !dbg !5147
  %_M_impl2 = getelementptr inbounds %"struct.std::_Vector_base.12", %"struct.std::_Vector_base.12"* %3, i32 0, i32 0, !dbg !5147
  %4 = bitcast %"struct.std::_Vector_base<unsigned long long, std::allocator<unsigned long long> >::_Vector_impl"* %_M_impl2 to %"struct.std::_Vector_base<unsigned long long, std::allocator<unsigned long long> >::_Vector_impl_data"*, !dbg !5148
  %_M_finish = getelementptr inbounds %"struct.std::_Vector_base<unsigned long long, std::allocator<unsigned long long> >::_Vector_impl_data", %"struct.std::_Vector_base<unsigned long long, std::allocator<unsigned long long> >::_Vector_impl_data"* %4, i32 0, i32 1, !dbg !5149
  %5 = load i64*, i64** %_M_finish, align 8, !dbg !5149
  %6 = bitcast %"class.std::vector.11"* %this1 to %"struct.std::_Vector_base.12"*, !dbg !5150
  %call = call dereferenceable(1) %"class.std::allocator.13"* @_ZNSt12_Vector_baseIySaIyEE19_M_get_Tp_allocatorEv(%"struct.std::_Vector_base.12"* %6) #3, !dbg !5150
  invoke void @_ZSt8_DestroyIPyyEvT_S1_RSaIT0_E(i64* %2, i64* %5, %"class.std::allocator.13"* dereferenceable(1) %call)
          to label %invoke.cont unwind label %lpad, !dbg !5151

invoke.cont:                                      ; preds = %entry
  %7 = bitcast %"class.std::vector.11"* %this1 to %"struct.std::_Vector_base.12"*, !dbg !5152
  call void @_ZNSt12_Vector_baseIySaIyEED2Ev(%"struct.std::_Vector_base.12"* %7) #3, !dbg !5152
  ret void, !dbg !5153

lpad:                                             ; preds = %entry
  %8 = landingpad { i8*, i32 }
          catch i8* null, !dbg !5152
  %9 = extractvalue { i8*, i32 } %8, 0, !dbg !5152
  store i8* %9, i8** %exn.slot, align 8, !dbg !5152
  %10 = extractvalue { i8*, i32 } %8, 1, !dbg !5152
  store i32 %10, i32* %ehselector.slot, align 4, !dbg !5152
  %11 = bitcast %"class.std::vector.11"* %this1 to %"struct.std::_Vector_base.12"*, !dbg !5152
  call void @_ZNSt12_Vector_baseIySaIyEED2Ev(%"struct.std::_Vector_base.12"* %11) #3, !dbg !5152
  br label %terminate.handler, !dbg !5152

terminate.handler:                                ; preds = %lpad
  %exn = load i8*, i8** %exn.slot, align 8, !dbg !5152
  call void @__clang_call_terminate(i8* %exn) #17, !dbg !5152
  unreachable, !dbg !5152
}

; Function Attrs: noinline nounwind uwtable
define linkonce_odr dso_local void @_ZN9FastStateD2Ev(%class.FastState* %this) unnamed_addr #5 comdat align 2 !dbg !5154 {
entry:
  %this.addr = alloca %class.FastState*, align 8
  store %class.FastState* %this, %class.FastState** %this.addr, align 8
  call void @llvm.dbg.declare(metadata %class.FastState** %this.addr, metadata !5156, metadata !DIExpression()), !dbg !5157
  %this1 = load %class.FastState*, %class.FastState** %this.addr, align 8
  %board = getelementptr inbounds %class.FastState, %class.FastState* %this1, i32 0, i32 0, !dbg !5158
  call void @_ZN9FullBoardD2Ev(%class.FullBoard* %board) #3, !dbg !5158
  ret void, !dbg !5160
}

; Function Attrs: noinline uwtable
define linkonce_odr dso_local void @_ZN9FullBoardC2ERKS_(%class.FullBoard* %this, %class.FullBoard* dereferenceable(8072) %0) unnamed_addr #0 comdat align 2 !dbg !5161 {
entry:
  %this.addr = alloca %class.FullBoard*, align 8
  %.addr = alloca %class.FullBoard*, align 8
  store %class.FullBoard* %this, %class.FullBoard** %this.addr, align 8
  call void @llvm.dbg.declare(metadata %class.FullBoard** %this.addr, metadata !5167, metadata !DIExpression()), !dbg !5169
  store %class.FullBoard* %0, %class.FullBoard** %.addr, align 8
  call void @llvm.dbg.declare(metadata %class.FullBoard** %.addr, metadata !5170, metadata !DIExpression()), !dbg !5169
  %this1 = load %class.FullBoard*, %class.FullBoard** %this.addr, align 8
  %1 = bitcast %class.FullBoard* %this1 to %class.FastBoard*, !dbg !5171
  %2 = load %class.FullBoard*, %class.FullBoard** %.addr, align 8, !dbg !5171
  %3 = bitcast %class.FullBoard* %2 to %class.FastBoard*, !dbg !5171
  call void @_ZN9FastBoardC2ERKS_(%class.FastBoard* %1, %class.FastBoard* dereferenceable(8056) %3), !dbg !5171
  %hash = getelementptr inbounds %class.FullBoard, %class.FullBoard* %this1, i32 0, i32 1, !dbg !5171
  %4 = load %class.FullBoard*, %class.FullBoard** %.addr, align 8, !dbg !5171
  %hash2 = getelementptr inbounds %class.FullBoard, %class.FullBoard* %4, i32 0, i32 1, !dbg !5171
  %5 = bitcast i64* %hash to i8*, !dbg !5171
  %6 = bitcast i64* %hash2 to i8*, !dbg !5171
  call void @llvm.memcpy.p0i8.p0i8.i64(i8* align 8 %5, i8* align 8 %6, i64 16, i1 false), !dbg !5171
  ret void, !dbg !5171
}

; Function Attrs: argmemonly nounwind willreturn
declare void @llvm.memcpy.p0i8.p0i8.i64(i8* noalias nocapture writeonly, i8* noalias nocapture readonly, i64, i1 immarg) #9

; Function Attrs: noinline uwtable
define linkonce_odr dso_local void @_ZN9FastBoardC2ERKS_(%class.FastBoard* %this, %class.FastBoard* dereferenceable(8056) %0) unnamed_addr #0 comdat align 2 !dbg !5172 {
entry:
  %this.addr = alloca %class.FastBoard*, align 8
  %.addr = alloca %class.FastBoard*, align 8
  store %class.FastBoard* %this, %class.FastBoard** %this.addr, align 8
  call void @llvm.dbg.declare(metadata %class.FastBoard** %this.addr, metadata !5178, metadata !DIExpression()), !dbg !5180
  store %class.FastBoard* %0, %class.FastBoard** %.addr, align 8
  call void @llvm.dbg.declare(metadata %class.FastBoard** %.addr, metadata !5181, metadata !DIExpression()), !dbg !5180
  %this1 = load %class.FastBoard*, %class.FastBoard** %this.addr, align 8
  %m_empty = getelementptr inbounds %class.FastBoard, %class.FastBoard* %this1, i32 0, i32 0, !dbg !5182
  %1 = load %class.FastBoard*, %class.FastBoard** %.addr, align 8, !dbg !5182
  %m_empty2 = getelementptr inbounds %class.FastBoard, %class.FastBoard* %1, i32 0, i32 0, !dbg !5182
  %2 = bitcast %"class.boost::array"* %m_empty to i8*, !dbg !5182
  %3 = bitcast %"class.boost::array"* %m_empty2 to i8*, !dbg !5182
  call void @llvm.memcpy.p0i8.p0i8.i64(i8* align 8 %2, i8* align 8 %3, i64 8024, i1 false), !dbg !5182
  %m_critical = getelementptr inbounds %class.FastBoard, %class.FastBoard* %this1, i32 0, i32 16, !dbg !5182
  %4 = load %class.FastBoard*, %class.FastBoard** %.addr, align 8, !dbg !5182
  %m_critical3 = getelementptr inbounds %class.FastBoard, %class.FastBoard* %4, i32 0, i32 16, !dbg !5182
  call void @_ZNSt6vectorIiSaIiEEC2ERKS1_(%"class.std::vector"* %m_critical, %"class.std::vector"* dereferenceable(24) %m_critical3), !dbg !5182
  %m_boardsize = getelementptr inbounds %class.FastBoard, %class.FastBoard* %this1, i32 0, i32 17, !dbg !5182
  %5 = load %class.FastBoard*, %class.FastBoard** %.addr, align 8, !dbg !5182
  %m_boardsize4 = getelementptr inbounds %class.FastBoard, %class.FastBoard* %5, i32 0, i32 17, !dbg !5182
  %6 = load i32, i32* %m_boardsize4, align 8, !dbg !5182
  store i32 %6, i32* %m_boardsize, align 8, !dbg !5182
  ret void, !dbg !5182
}

; Function Attrs: noinline uwtable
define linkonce_odr dso_local void @_ZNSt6vectorIiSaIiEEC2ERKS1_(%"class.std::vector"* %this, %"class.std::vector"* dereferenceable(24) %__x) unnamed_addr #0 comdat align 2 personality i8* bitcast (i32 (...)* @__gxx_personality_v0 to i8*) !dbg !5183 {
entry:
  %this.addr = alloca %"class.std::vector"*, align 8
  %__x.addr = alloca %"class.std::vector"*, align 8
  %ref.tmp = alloca %"class.std::allocator.6", align 1
  %exn.slot = alloca i8*
  %ehselector.slot = alloca i32
  %agg.tmp = alloca %"class.__gnu_cxx::__normal_iterator", align 8
  %agg.tmp4 = alloca %"class.__gnu_cxx::__normal_iterator", align 8
  store %"class.std::vector"* %this, %"class.std::vector"** %this.addr, align 8
  call void @llvm.dbg.declare(metadata %"class.std::vector"** %this.addr, metadata !5184, metadata !DIExpression()), !dbg !5186
  store %"class.std::vector"* %__x, %"class.std::vector"** %__x.addr, align 8
  call void @llvm.dbg.declare(metadata %"class.std::vector"** %__x.addr, metadata !5187, metadata !DIExpression()), !dbg !5188
  %this1 = load %"class.std::vector"*, %"class.std::vector"** %this.addr, align 8
  %0 = bitcast %"class.std::vector"* %this1 to %"struct.std::_Vector_base"*, !dbg !5189
  %1 = load %"class.std::vector"*, %"class.std::vector"** %__x.addr, align 8, !dbg !5190
  %call = call i64 @_ZNKSt6vectorIiSaIiEE4sizeEv(%"class.std::vector"* %1) #3, !dbg !5191
  %2 = load %"class.std::vector"*, %"class.std::vector"** %__x.addr, align 8, !dbg !5192
  %3 = bitcast %"class.std::vector"* %2 to %"struct.std::_Vector_base"*, !dbg !5192
  %call2 = call dereferenceable(1) %"class.std::allocator.6"* @_ZNKSt12_Vector_baseIiSaIiEE19_M_get_Tp_allocatorEv(%"struct.std::_Vector_base"* %3) #3, !dbg !5193
  call void @_ZN9__gnu_cxx14__alloc_traitsISaIiEiE17_S_select_on_copyERKS1_(%"class.std::allocator.6"* sret %ref.tmp, %"class.std::allocator.6"* dereferenceable(1) %call2), !dbg !5194
  invoke void @_ZNSt12_Vector_baseIiSaIiEEC2EmRKS0_(%"struct.std::_Vector_base"* %0, i64 %call, %"class.std::allocator.6"* dereferenceable(1) %ref.tmp)
          to label %invoke.cont unwind label %lpad, !dbg !5195

invoke.cont:                                      ; preds = %entry
  call void @_ZNSaIiED2Ev(%"class.std::allocator.6"* %ref.tmp) #3, !dbg !5195
  %4 = load %"class.std::vector"*, %"class.std::vector"** %__x.addr, align 8, !dbg !5196
  %call3 = call i32* @_ZNKSt6vectorIiSaIiEE5beginEv(%"class.std::vector"* %4) #3, !dbg !5198
  %coerce.dive = getelementptr inbounds %"class.__gnu_cxx::__normal_iterator", %"class.__gnu_cxx::__normal_iterator"* %agg.tmp, i32 0, i32 0, !dbg !5198
  store i32* %call3, i32** %coerce.dive, align 8, !dbg !5198
  %5 = load %"class.std::vector"*, %"class.std::vector"** %__x.addr, align 8, !dbg !5199
  %call5 = call i32* @_ZNKSt6vectorIiSaIiEE3endEv(%"class.std::vector"* %5) #3, !dbg !5200
  %coerce.dive6 = getelementptr inbounds %"class.__gnu_cxx::__normal_iterator", %"class.__gnu_cxx::__normal_iterator"* %agg.tmp4, i32 0, i32 0, !dbg !5200
  store i32* %call5, i32** %coerce.dive6, align 8, !dbg !5200
  %6 = bitcast %"class.std::vector"* %this1 to %"struct.std::_Vector_base"*, !dbg !5201
  %_M_impl = getelementptr inbounds %"struct.std::_Vector_base", %"struct.std::_Vector_base"* %6, i32 0, i32 0, !dbg !5201
  %7 = bitcast %"struct.std::_Vector_base<int, std::allocator<int> >::_Vector_impl"* %_M_impl to %"struct.std::_Vector_base<int, std::allocator<int> >::_Vector_impl_data"*, !dbg !5202
  %_M_start = getelementptr inbounds %"struct.std::_Vector_base<int, std::allocator<int> >::_Vector_impl_data", %"struct.std::_Vector_base<int, std::allocator<int> >::_Vector_impl_data"* %7, i32 0, i32 0, !dbg !5203
  %8 = load i32*, i32** %_M_start, align 8, !dbg !5203
  %9 = bitcast %"class.std::vector"* %this1 to %"struct.std::_Vector_base"*, !dbg !5204
  %call7 = call dereferenceable(1) %"class.std::allocator.6"* @_ZNSt12_Vector_baseIiSaIiEE19_M_get_Tp_allocatorEv(%"struct.std::_Vector_base"* %9) #3, !dbg !5204
  %coerce.dive8 = getelementptr inbounds %"class.__gnu_cxx::__normal_iterator", %"class.__gnu_cxx::__normal_iterator"* %agg.tmp, i32 0, i32 0, !dbg !5205
  %10 = load i32*, i32** %coerce.dive8, align 8, !dbg !5205
  %coerce.dive9 = getelementptr inbounds %"class.__gnu_cxx::__normal_iterator", %"class.__gnu_cxx::__normal_iterator"* %agg.tmp4, i32 0, i32 0, !dbg !5205
  %11 = load i32*, i32** %coerce.dive9, align 8, !dbg !5205
  %call12 = invoke i32* @_ZSt22__uninitialized_copy_aIN9__gnu_cxx17__normal_iteratorIPKiSt6vectorIiSaIiEEEEPiiET0_T_SA_S9_RSaIT1_E(i32* %10, i32* %11, i32* %8, %"class.std::allocator.6"* dereferenceable(1) %call7)
          to label %invoke.cont11 unwind label %lpad10, !dbg !5205

invoke.cont11:                                    ; preds = %invoke.cont
  %12 = bitcast %"class.std::vector"* %this1 to %"struct.std::_Vector_base"*, !dbg !5206
  %_M_impl13 = getelementptr inbounds %"struct.std::_Vector_base", %"struct.std::_Vector_base"* %12, i32 0, i32 0, !dbg !5206
  %13 = bitcast %"struct.std::_Vector_base<int, std::allocator<int> >::_Vector_impl"* %_M_impl13 to %"struct.std::_Vector_base<int, std::allocator<int> >::_Vector_impl_data"*, !dbg !5207
  %_M_finish = getelementptr inbounds %"struct.std::_Vector_base<int, std::allocator<int> >::_Vector_impl_data", %"struct.std::_Vector_base<int, std::allocator<int> >::_Vector_impl_data"* %13, i32 0, i32 1, !dbg !5208
  store i32* %call12, i32** %_M_finish, align 8, !dbg !5209
  ret void, !dbg !5210

lpad:                                             ; preds = %entry
  %14 = landingpad { i8*, i32 }
          cleanup, !dbg !5210
  %15 = extractvalue { i8*, i32 } %14, 0, !dbg !5210
  store i8* %15, i8** %exn.slot, align 8, !dbg !5210
  %16 = extractvalue { i8*, i32 } %14, 1, !dbg !5210
  store i32 %16, i32* %ehselector.slot, align 4, !dbg !5210
  call void @_ZNSaIiED2Ev(%"class.std::allocator.6"* %ref.tmp) #3, !dbg !5195
  br label %eh.resume, !dbg !5195

lpad10:                                           ; preds = %invoke.cont
  %17 = landingpad { i8*, i32 }
          cleanup, !dbg !5211
  %18 = extractvalue { i8*, i32 } %17, 0, !dbg !5211
  store i8* %18, i8** %exn.slot, align 8, !dbg !5211
  %19 = extractvalue { i8*, i32 } %17, 1, !dbg !5211
  store i32 %19, i32* %ehselector.slot, align 4, !dbg !5211
  %20 = bitcast %"class.std::vector"* %this1 to %"struct.std::_Vector_base"*, !dbg !5211
  call void @_ZNSt12_Vector_baseIiSaIiEED2Ev(%"struct.std::_Vector_base"* %20) #3, !dbg !5211
  br label %eh.resume, !dbg !5211

eh.resume:                                        ; preds = %lpad10, %lpad
  %exn = load i8*, i8** %exn.slot, align 8, !dbg !5195
  %sel = load i32, i32* %ehselector.slot, align 4, !dbg !5195
  %lpad.val = insertvalue { i8*, i32 } undef, i8* %exn, 0, !dbg !5195
  %lpad.val14 = insertvalue { i8*, i32 } %lpad.val, i32 %sel, 1, !dbg !5195
  resume { i8*, i32 } %lpad.val14, !dbg !5195
}

; Function Attrs: noinline nounwind uwtable
define linkonce_odr dso_local i64 @_ZNKSt6vectorIiSaIiEE4sizeEv(%"class.std::vector"* %this) #5 comdat align 2 !dbg !5212 {
entry:
  %this.addr = alloca %"class.std::vector"*, align 8
  store %"class.std::vector"* %this, %"class.std::vector"** %this.addr, align 8
  call void @llvm.dbg.declare(metadata %"class.std::vector"** %this.addr, metadata !5213, metadata !DIExpression()), !dbg !5215
  %this1 = load %"class.std::vector"*, %"class.std::vector"** %this.addr, align 8
  %0 = bitcast %"class.std::vector"* %this1 to %"struct.std::_Vector_base"*, !dbg !5216
  %_M_impl = getelementptr inbounds %"struct.std::_Vector_base", %"struct.std::_Vector_base"* %0, i32 0, i32 0, !dbg !5216
  %1 = bitcast %"struct.std::_Vector_base<int, std::allocator<int> >::_Vector_impl"* %_M_impl to %"struct.std::_Vector_base<int, std::allocator<int> >::_Vector_impl_data"*, !dbg !5217
  %_M_finish = getelementptr inbounds %"struct.std::_Vector_base<int, std::allocator<int> >::_Vector_impl_data", %"struct.std::_Vector_base<int, std::allocator<int> >::_Vector_impl_data"* %1, i32 0, i32 1, !dbg !5218
  %2 = load i32*, i32** %_M_finish, align 8, !dbg !5218
  %3 = bitcast %"class.std::vector"* %this1 to %"struct.std::_Vector_base"*, !dbg !5219
  %_M_impl2 = getelementptr inbounds %"struct.std::_Vector_base", %"struct.std::_Vector_base"* %3, i32 0, i32 0, !dbg !5219
  %4 = bitcast %"struct.std::_Vector_base<int, std::allocator<int> >::_Vector_impl"* %_M_impl2 to %"struct.std::_Vector_base<int, std::allocator<int> >::_Vector_impl_data"*, !dbg !5220
  %_M_start = getelementptr inbounds %"struct.std::_Vector_base<int, std::allocator<int> >::_Vector_impl_data", %"struct.std::_Vector_base<int, std::allocator<int> >::_Vector_impl_data"* %4, i32 0, i32 0, !dbg !5221
  %5 = load i32*, i32** %_M_start, align 8, !dbg !5221
  %sub.ptr.lhs.cast = ptrtoint i32* %2 to i64, !dbg !5222
  %sub.ptr.rhs.cast = ptrtoint i32* %5 to i64, !dbg !5222
  %sub.ptr.sub = sub i64 %sub.ptr.lhs.cast, %sub.ptr.rhs.cast, !dbg !5222
  %sub.ptr.div = sdiv exact i64 %sub.ptr.sub, 4, !dbg !5222
  ret i64 %sub.ptr.div, !dbg !5223
}

; Function Attrs: noinline uwtable
define linkonce_odr dso_local void @_ZN9__gnu_cxx14__alloc_traitsISaIiEiE17_S_select_on_copyERKS1_(%"class.std::allocator.6"* noalias sret %agg.result, %"class.std::allocator.6"* dereferenceable(1) %__a) #0 comdat align 2 !dbg !5224 {
entry:
  %result.ptr = alloca i8*, align 8
  %__a.addr = alloca %"class.std::allocator.6"*, align 8
  %0 = bitcast %"class.std::allocator.6"* %agg.result to i8*
  store i8* %0, i8** %result.ptr, align 8
  store %"class.std::allocator.6"* %__a, %"class.std::allocator.6"** %__a.addr, align 8
  call void @llvm.dbg.declare(metadata %"class.std::allocator.6"** %__a.addr, metadata !5225, metadata !DIExpression()), !dbg !5226
  %1 = load %"class.std::allocator.6"*, %"class.std::allocator.6"** %__a.addr, align 8, !dbg !5227
  call void @_ZNSt16allocator_traitsISaIiEE37select_on_container_copy_constructionERKS0_(%"class.std::allocator.6"* sret %agg.result, %"class.std::allocator.6"* dereferenceable(1) %1), !dbg !5228
  ret void, !dbg !5229
}

; Function Attrs: noinline nounwind uwtable
define linkonce_odr dso_local dereferenceable(1) %"class.std::allocator.6"* @_ZNKSt12_Vector_baseIiSaIiEE19_M_get_Tp_allocatorEv(%"struct.std::_Vector_base"* %this) #5 comdat align 2 !dbg !5230 {
entry:
  %this.addr = alloca %"struct.std::_Vector_base"*, align 8
  store %"struct.std::_Vector_base"* %this, %"struct.std::_Vector_base"** %this.addr, align 8
  call void @llvm.dbg.declare(metadata %"struct.std::_Vector_base"** %this.addr, metadata !5231, metadata !DIExpression()), !dbg !5233
  %this1 = load %"struct.std::_Vector_base"*, %"struct.std::_Vector_base"** %this.addr, align 8
  %_M_impl = getelementptr inbounds %"struct.std::_Vector_base", %"struct.std::_Vector_base"* %this1, i32 0, i32 0, !dbg !5234
  %0 = bitcast %"struct.std::_Vector_base<int, std::allocator<int> >::_Vector_impl"* %_M_impl to %"class.std::allocator.6"*, !dbg !5235
  ret %"class.std::allocator.6"* %0, !dbg !5236
}

; Function Attrs: noinline uwtable
define linkonce_odr dso_local void @_ZNSt12_Vector_baseIiSaIiEEC2EmRKS0_(%"struct.std::_Vector_base"* %this, i64 %__n, %"class.std::allocator.6"* dereferenceable(1) %__a) unnamed_addr #0 comdat align 2 personality i8* bitcast (i32 (...)* @__gxx_personality_v0 to i8*) !dbg !5237 {
entry:
  %this.addr = alloca %"struct.std::_Vector_base"*, align 8
  %__n.addr = alloca i64, align 8
  %__a.addr = alloca %"class.std::allocator.6"*, align 8
  %exn.slot = alloca i8*
  %ehselector.slot = alloca i32
  store %"struct.std::_Vector_base"* %this, %"struct.std::_Vector_base"** %this.addr, align 8
  call void @llvm.dbg.declare(metadata %"struct.std::_Vector_base"** %this.addr, metadata !5238, metadata !DIExpression()), !dbg !5240
  store i64 %__n, i64* %__n.addr, align 8
  call void @llvm.dbg.declare(metadata i64* %__n.addr, metadata !5241, metadata !DIExpression()), !dbg !5242
  store %"class.std::allocator.6"* %__a, %"class.std::allocator.6"** %__a.addr, align 8
  call void @llvm.dbg.declare(metadata %"class.std::allocator.6"** %__a.addr, metadata !5243, metadata !DIExpression()), !dbg !5244
  %this1 = load %"struct.std::_Vector_base"*, %"struct.std::_Vector_base"** %this.addr, align 8
  %_M_impl = getelementptr inbounds %"struct.std::_Vector_base", %"struct.std::_Vector_base"* %this1, i32 0, i32 0, !dbg !5245
  %0 = load %"class.std::allocator.6"*, %"class.std::allocator.6"** %__a.addr, align 8, !dbg !5246
  call void @_ZNSt12_Vector_baseIiSaIiEE12_Vector_implC2ERKS0_(%"struct.std::_Vector_base<int, std::allocator<int> >::_Vector_impl"* %_M_impl, %"class.std::allocator.6"* dereferenceable(1) %0) #3, !dbg !5245
  %1 = load i64, i64* %__n.addr, align 8, !dbg !5247
  invoke void @_ZNSt12_Vector_baseIiSaIiEE17_M_create_storageEm(%"struct.std::_Vector_base"* %this1, i64 %1)
          to label %invoke.cont unwind label %lpad, !dbg !5249

invoke.cont:                                      ; preds = %entry
  ret void, !dbg !5250

lpad:                                             ; preds = %entry
  %2 = landingpad { i8*, i32 }
          cleanup, !dbg !5251
  %3 = extractvalue { i8*, i32 } %2, 0, !dbg !5251
  store i8* %3, i8** %exn.slot, align 8, !dbg !5251
  %4 = extractvalue { i8*, i32 } %2, 1, !dbg !5251
  store i32 %4, i32* %ehselector.slot, align 4, !dbg !5251
  call void @_ZNSt12_Vector_baseIiSaIiEE12_Vector_implD2Ev(%"struct.std::_Vector_base<int, std::allocator<int> >::_Vector_impl"* %_M_impl) #3, !dbg !5251
  br label %eh.resume, !dbg !5251

eh.resume:                                        ; preds = %lpad
  %exn = load i8*, i8** %exn.slot, align 8, !dbg !5251
  %sel = load i32, i32* %ehselector.slot, align 4, !dbg !5251
  %lpad.val = insertvalue { i8*, i32 } undef, i8* %exn, 0, !dbg !5251
  %lpad.val2 = insertvalue { i8*, i32 } %lpad.val, i32 %sel, 1, !dbg !5251
  resume { i8*, i32 } %lpad.val2, !dbg !5251
}

; Function Attrs: noinline nounwind uwtable
define linkonce_odr dso_local void @_ZNSaIiED2Ev(%"class.std::allocator.6"* %this) unnamed_addr #5 comdat align 2 !dbg !5252 {
entry:
  %this.addr = alloca %"class.std::allocator.6"*, align 8
  store %"class.std::allocator.6"* %this, %"class.std::allocator.6"** %this.addr, align 8
  call void @llvm.dbg.declare(metadata %"class.std::allocator.6"** %this.addr, metadata !5253, metadata !DIExpression()), !dbg !5255
  %this1 = load %"class.std::allocator.6"*, %"class.std::allocator.6"** %this.addr, align 8
  %0 = bitcast %"class.std::allocator.6"* %this1 to %"class.__gnu_cxx::new_allocator.7"*, !dbg !5256
  call void @_ZN9__gnu_cxx13new_allocatorIiED2Ev(%"class.__gnu_cxx::new_allocator.7"* %0) #3, !dbg !5256
  ret void, !dbg !5258
}

; Function Attrs: noinline uwtable
define linkonce_odr dso_local i32* @_ZSt22__uninitialized_copy_aIN9__gnu_cxx17__normal_iteratorIPKiSt6vectorIiSaIiEEEEPiiET0_T_SA_S9_RSaIT1_E(i32* %__first.coerce, i32* %__last.coerce, i32* %__result, %"class.std::allocator.6"* dereferenceable(1) %0) #0 comdat !dbg !5259 {
entry:
  %__first = alloca %"class.__gnu_cxx::__normal_iterator", align 8
  %__last = alloca %"class.__gnu_cxx::__normal_iterator", align 8
  %__result.addr = alloca i32*, align 8
  %.addr = alloca %"class.std::allocator.6"*, align 8
  %agg.tmp = alloca %"class.__gnu_cxx::__normal_iterator", align 8
  %agg.tmp2 = alloca %"class.__gnu_cxx::__normal_iterator", align 8
  %coerce.dive = getelementptr inbounds %"class.__gnu_cxx::__normal_iterator", %"class.__gnu_cxx::__normal_iterator"* %__first, i32 0, i32 0
  store i32* %__first.coerce, i32** %coerce.dive, align 8
  %coerce.dive1 = getelementptr inbounds %"class.__gnu_cxx::__normal_iterator", %"class.__gnu_cxx::__normal_iterator"* %__last, i32 0, i32 0
  store i32* %__last.coerce, i32** %coerce.dive1, align 8
  call void @llvm.dbg.declare(metadata %"class.__gnu_cxx::__normal_iterator"* %__first, metadata !5266, metadata !DIExpression()), !dbg !5267
  call void @llvm.dbg.declare(metadata %"class.__gnu_cxx::__normal_iterator"* %__last, metadata !5268, metadata !DIExpression()), !dbg !5269
  store i32* %__result, i32** %__result.addr, align 8
  call void @llvm.dbg.declare(metadata i32** %__result.addr, metadata !5270, metadata !DIExpression()), !dbg !5271
  store %"class.std::allocator.6"* %0, %"class.std::allocator.6"** %.addr, align 8
  call void @llvm.dbg.declare(metadata %"class.std::allocator.6"** %.addr, metadata !5272, metadata !DIExpression()), !dbg !5273
  %1 = bitcast %"class.__gnu_cxx::__normal_iterator"* %agg.tmp to i8*, !dbg !5274
  %2 = bitcast %"class.__gnu_cxx::__normal_iterator"* %__first to i8*, !dbg !5274
  call void @llvm.memcpy.p0i8.p0i8.i64(i8* align 8 %1, i8* align 8 %2, i64 8, i1 false), !dbg !5274
  %3 = bitcast %"class.__gnu_cxx::__normal_iterator"* %agg.tmp2 to i8*, !dbg !5275
  %4 = bitcast %"class.__gnu_cxx::__normal_iterator"* %__last to i8*, !dbg !5275
  call void @llvm.memcpy.p0i8.p0i8.i64(i8* align 8 %3, i8* align 8 %4, i64 8, i1 false), !dbg !5275
  %5 = load i32*, i32** %__result.addr, align 8, !dbg !5276
  %coerce.dive3 = getelementptr inbounds %"class.__gnu_cxx::__normal_iterator", %"class.__gnu_cxx::__normal_iterator"* %agg.tmp, i32 0, i32 0, !dbg !5277
  %6 = load i32*, i32** %coerce.dive3, align 8, !dbg !5277
  %coerce.dive4 = getelementptr inbounds %"class.__gnu_cxx::__normal_iterator", %"class.__gnu_cxx::__normal_iterator"* %agg.tmp2, i32 0, i32 0, !dbg !5277
  %7 = load i32*, i32** %coerce.dive4, align 8, !dbg !5277
  %call = call i32* @_ZSt18uninitialized_copyIN9__gnu_cxx17__normal_iteratorIPKiSt6vectorIiSaIiEEEEPiET0_T_SA_S9_(i32* %6, i32* %7, i32* %5), !dbg !5277
  ret i32* %call, !dbg !5278
}

; Function Attrs: noinline nounwind uwtable
define linkonce_odr dso_local i32* @_ZNKSt6vectorIiSaIiEE5beginEv(%"class.std::vector"* %this) #5 comdat align 2 !dbg !5279 {
entry:
  %retval = alloca %"class.__gnu_cxx::__normal_iterator", align 8
  %this.addr = alloca %"class.std::vector"*, align 8
  store %"class.std::vector"* %this, %"class.std::vector"** %this.addr, align 8
  call void @llvm.dbg.declare(metadata %"class.std::vector"** %this.addr, metadata !5280, metadata !DIExpression()), !dbg !5281
  %this1 = load %"class.std::vector"*, %"class.std::vector"** %this.addr, align 8
  %0 = bitcast %"class.std::vector"* %this1 to %"struct.std::_Vector_base"*, !dbg !5282
  %_M_impl = getelementptr inbounds %"struct.std::_Vector_base", %"struct.std::_Vector_base"* %0, i32 0, i32 0, !dbg !5282
  %1 = bitcast %"struct.std::_Vector_base<int, std::allocator<int> >::_Vector_impl"* %_M_impl to %"struct.std::_Vector_base<int, std::allocator<int> >::_Vector_impl_data"*, !dbg !5283
  %_M_start = getelementptr inbounds %"struct.std::_Vector_base<int, std::allocator<int> >::_Vector_impl_data", %"struct.std::_Vector_base<int, std::allocator<int> >::_Vector_impl_data"* %1, i32 0, i32 0, !dbg !5284
  call void @_ZN9__gnu_cxx17__normal_iteratorIPKiSt6vectorIiSaIiEEEC2ERKS2_(%"class.__gnu_cxx::__normal_iterator"* %retval, i32** dereferenceable(8) %_M_start) #3, !dbg !5285
  %coerce.dive = getelementptr inbounds %"class.__gnu_cxx::__normal_iterator", %"class.__gnu_cxx::__normal_iterator"* %retval, i32 0, i32 0, !dbg !5286
  %2 = load i32*, i32** %coerce.dive, align 8, !dbg !5286
  ret i32* %2, !dbg !5286
}

; Function Attrs: noinline nounwind uwtable
define linkonce_odr dso_local i32* @_ZNKSt6vectorIiSaIiEE3endEv(%"class.std::vector"* %this) #5 comdat align 2 !dbg !5287 {
entry:
  %retval = alloca %"class.__gnu_cxx::__normal_iterator", align 8
  %this.addr = alloca %"class.std::vector"*, align 8
  store %"class.std::vector"* %this, %"class.std::vector"** %this.addr, align 8
  call void @llvm.dbg.declare(metadata %"class.std::vector"** %this.addr, metadata !5288, metadata !DIExpression()), !dbg !5289
  %this1 = load %"class.std::vector"*, %"class.std::vector"** %this.addr, align 8
  %0 = bitcast %"class.std::vector"* %this1 to %"struct.std::_Vector_base"*, !dbg !5290
  %_M_impl = getelementptr inbounds %"struct.std::_Vector_base", %"struct.std::_Vector_base"* %0, i32 0, i32 0, !dbg !5290
  %1 = bitcast %"struct.std::_Vector_base<int, std::allocator<int> >::_Vector_impl"* %_M_impl to %"struct.std::_Vector_base<int, std::allocator<int> >::_Vector_impl_data"*, !dbg !5291
  %_M_finish = getelementptr inbounds %"struct.std::_Vector_base<int, std::allocator<int> >::_Vector_impl_data", %"struct.std::_Vector_base<int, std::allocator<int> >::_Vector_impl_data"* %1, i32 0, i32 1, !dbg !5292
  call void @_ZN9__gnu_cxx17__normal_iteratorIPKiSt6vectorIiSaIiEEEC2ERKS2_(%"class.__gnu_cxx::__normal_iterator"* %retval, i32** dereferenceable(8) %_M_finish) #3, !dbg !5293
  %coerce.dive = getelementptr inbounds %"class.__gnu_cxx::__normal_iterator", %"class.__gnu_cxx::__normal_iterator"* %retval, i32 0, i32 0, !dbg !5294
  %2 = load i32*, i32** %coerce.dive, align 8, !dbg !5294
  ret i32* %2, !dbg !5294
}

; Function Attrs: noinline nounwind uwtable
define linkonce_odr dso_local dereferenceable(1) %"class.std::allocator.6"* @_ZNSt12_Vector_baseIiSaIiEE19_M_get_Tp_allocatorEv(%"struct.std::_Vector_base"* %this) #5 comdat align 2 !dbg !5295 {
entry:
  %this.addr = alloca %"struct.std::_Vector_base"*, align 8
  store %"struct.std::_Vector_base"* %this, %"struct.std::_Vector_base"** %this.addr, align 8
  call void @llvm.dbg.declare(metadata %"struct.std::_Vector_base"** %this.addr, metadata !5296, metadata !DIExpression()), !dbg !5297
  %this1 = load %"struct.std::_Vector_base"*, %"struct.std::_Vector_base"** %this.addr, align 8
  %_M_impl = getelementptr inbounds %"struct.std::_Vector_base", %"struct.std::_Vector_base"* %this1, i32 0, i32 0, !dbg !5298
  %0 = bitcast %"struct.std::_Vector_base<int, std::allocator<int> >::_Vector_impl"* %_M_impl to %"class.std::allocator.6"*, !dbg !5299
  ret %"class.std::allocator.6"* %0, !dbg !5300
}

; Function Attrs: noinline nounwind uwtable
define linkonce_odr dso_local void @_ZNSt12_Vector_baseIiSaIiEED2Ev(%"struct.std::_Vector_base"* %this) unnamed_addr #5 comdat align 2 personality i8* bitcast (i32 (...)* @__gxx_personality_v0 to i8*) !dbg !5301 {
entry:
  %this.addr = alloca %"struct.std::_Vector_base"*, align 8
  %exn.slot = alloca i8*
  %ehselector.slot = alloca i32
  store %"struct.std::_Vector_base"* %this, %"struct.std::_Vector_base"** %this.addr, align 8
  call void @llvm.dbg.declare(metadata %"struct.std::_Vector_base"** %this.addr, metadata !5302, metadata !DIExpression()), !dbg !5303
  %this1 = load %"struct.std::_Vector_base"*, %"struct.std::_Vector_base"** %this.addr, align 8
  %_M_impl = getelementptr inbounds %"struct.std::_Vector_base", %"struct.std::_Vector_base"* %this1, i32 0, i32 0, !dbg !5304
  %0 = bitcast %"struct.std::_Vector_base<int, std::allocator<int> >::_Vector_impl"* %_M_impl to %"struct.std::_Vector_base<int, std::allocator<int> >::_Vector_impl_data"*, !dbg !5304
  %_M_start = getelementptr inbounds %"struct.std::_Vector_base<int, std::allocator<int> >::_Vector_impl_data", %"struct.std::_Vector_base<int, std::allocator<int> >::_Vector_impl_data"* %0, i32 0, i32 0, !dbg !5306
  %1 = load i32*, i32** %_M_start, align 8, !dbg !5306
  %_M_impl2 = getelementptr inbounds %"struct.std::_Vector_base", %"struct.std::_Vector_base"* %this1, i32 0, i32 0, !dbg !5307
  %2 = bitcast %"struct.std::_Vector_base<int, std::allocator<int> >::_Vector_impl"* %_M_impl2 to %"struct.std::_Vector_base<int, std::allocator<int> >::_Vector_impl_data"*, !dbg !5307
  %_M_end_of_storage = getelementptr inbounds %"struct.std::_Vector_base<int, std::allocator<int> >::_Vector_impl_data", %"struct.std::_Vector_base<int, std::allocator<int> >::_Vector_impl_data"* %2, i32 0, i32 2, !dbg !5308
  %3 = load i32*, i32** %_M_end_of_storage, align 8, !dbg !5308
  %_M_impl3 = getelementptr inbounds %"struct.std::_Vector_base", %"struct.std::_Vector_base"* %this1, i32 0, i32 0, !dbg !5309
  %4 = bitcast %"struct.std::_Vector_base<int, std::allocator<int> >::_Vector_impl"* %_M_impl3 to %"struct.std::_Vector_base<int, std::allocator<int> >::_Vector_impl_data"*, !dbg !5309
  %_M_start4 = getelementptr inbounds %"struct.std::_Vector_base<int, std::allocator<int> >::_Vector_impl_data", %"struct.std::_Vector_base<int, std::allocator<int> >::_Vector_impl_data"* %4, i32 0, i32 0, !dbg !5310
  %5 = load i32*, i32** %_M_start4, align 8, !dbg !5310
  %sub.ptr.lhs.cast = ptrtoint i32* %3 to i64, !dbg !5311
  %sub.ptr.rhs.cast = ptrtoint i32* %5 to i64, !dbg !5311
  %sub.ptr.sub = sub i64 %sub.ptr.lhs.cast, %sub.ptr.rhs.cast, !dbg !5311
  %sub.ptr.div = sdiv exact i64 %sub.ptr.sub, 4, !dbg !5311
  invoke void @_ZNSt12_Vector_baseIiSaIiEE13_M_deallocateEPim(%"struct.std::_Vector_base"* %this1, i32* %1, i64 %sub.ptr.div)
          to label %invoke.cont unwind label %lpad, !dbg !5312

invoke.cont:                                      ; preds = %entry
  %_M_impl5 = getelementptr inbounds %"struct.std::_Vector_base", %"struct.std::_Vector_base"* %this1, i32 0, i32 0, !dbg !5313
  call void @_ZNSt12_Vector_baseIiSaIiEE12_Vector_implD2Ev(%"struct.std::_Vector_base<int, std::allocator<int> >::_Vector_impl"* %_M_impl5) #3, !dbg !5313
  ret void, !dbg !5314

lpad:                                             ; preds = %entry
  %6 = landingpad { i8*, i32 }
          catch i8* null, !dbg !5313
  %7 = extractvalue { i8*, i32 } %6, 0, !dbg !5313
  store i8* %7, i8** %exn.slot, align 8, !dbg !5313
  %8 = extractvalue { i8*, i32 } %6, 1, !dbg !5313
  store i32 %8, i32* %ehselector.slot, align 4, !dbg !5313
  %_M_impl6 = getelementptr inbounds %"struct.std::_Vector_base", %"struct.std::_Vector_base"* %this1, i32 0, i32 0, !dbg !5313
  call void @_ZNSt12_Vector_baseIiSaIiEE12_Vector_implD2Ev(%"struct.std::_Vector_base<int, std::allocator<int> >::_Vector_impl"* %_M_impl6) #3, !dbg !5313
  br label %terminate.handler, !dbg !5313

terminate.handler:                                ; preds = %lpad
  %exn = load i8*, i8** %exn.slot, align 8, !dbg !5313
  call void @__clang_call_terminate(i8* %exn) #17, !dbg !5313
  unreachable, !dbg !5313
}

; Function Attrs: noinline nounwind uwtable
define linkonce_odr dso_local void @_ZNSt16allocator_traitsISaIiEE37select_on_container_copy_constructionERKS0_(%"class.std::allocator.6"* noalias sret %agg.result, %"class.std::allocator.6"* dereferenceable(1) %__rhs) #5 comdat align 2 !dbg !5315 {
entry:
  %result.ptr = alloca i8*, align 8
  %__rhs.addr = alloca %"class.std::allocator.6"*, align 8
  %0 = bitcast %"class.std::allocator.6"* %agg.result to i8*
  store i8* %0, i8** %result.ptr, align 8
  store %"class.std::allocator.6"* %__rhs, %"class.std::allocator.6"** %__rhs.addr, align 8
  call void @llvm.dbg.declare(metadata %"class.std::allocator.6"** %__rhs.addr, metadata !5316, metadata !DIExpression()), !dbg !5317
  %1 = load %"class.std::allocator.6"*, %"class.std::allocator.6"** %__rhs.addr, align 8, !dbg !5318
  call void @_ZNSaIiEC2ERKS_(%"class.std::allocator.6"* %agg.result, %"class.std::allocator.6"* dereferenceable(1) %1) #3, !dbg !5318
  ret void, !dbg !5319
}

; Function Attrs: noinline nounwind uwtable
define linkonce_odr dso_local void @_ZNSaIiEC2ERKS_(%"class.std::allocator.6"* %this, %"class.std::allocator.6"* dereferenceable(1) %__a) unnamed_addr #5 comdat align 2 !dbg !5320 {
entry:
  %this.addr = alloca %"class.std::allocator.6"*, align 8
  %__a.addr = alloca %"class.std::allocator.6"*, align 8
  store %"class.std::allocator.6"* %this, %"class.std::allocator.6"** %this.addr, align 8
  call void @llvm.dbg.declare(metadata %"class.std::allocator.6"** %this.addr, metadata !5321, metadata !DIExpression()), !dbg !5322
  store %"class.std::allocator.6"* %__a, %"class.std::allocator.6"** %__a.addr, align 8
  call void @llvm.dbg.declare(metadata %"class.std::allocator.6"** %__a.addr, metadata !5323, metadata !DIExpression()), !dbg !5324
  %this1 = load %"class.std::allocator.6"*, %"class.std::allocator.6"** %this.addr, align 8
  %0 = bitcast %"class.std::allocator.6"* %this1 to %"class.__gnu_cxx::new_allocator.7"*, !dbg !5325
  %1 = load %"class.std::allocator.6"*, %"class.std::allocator.6"** %__a.addr, align 8, !dbg !5326
  %2 = bitcast %"class.std::allocator.6"* %1 to %"class.__gnu_cxx::new_allocator.7"*, !dbg !5326
  call void @_ZN9__gnu_cxx13new_allocatorIiEC2ERKS1_(%"class.__gnu_cxx::new_allocator.7"* %0, %"class.__gnu_cxx::new_allocator.7"* dereferenceable(1) %2) #3, !dbg !5327
  ret void, !dbg !5328
}

; Function Attrs: noinline nounwind uwtable
define linkonce_odr dso_local void @_ZN9__gnu_cxx13new_allocatorIiEC2ERKS1_(%"class.__gnu_cxx::new_allocator.7"* %this, %"class.__gnu_cxx::new_allocator.7"* dereferenceable(1) %0) unnamed_addr #5 comdat align 2 !dbg !5329 {
entry:
  %this.addr = alloca %"class.__gnu_cxx::new_allocator.7"*, align 8
  %.addr = alloca %"class.__gnu_cxx::new_allocator.7"*, align 8
  store %"class.__gnu_cxx::new_allocator.7"* %this, %"class.__gnu_cxx::new_allocator.7"** %this.addr, align 8
  call void @llvm.dbg.declare(metadata %"class.__gnu_cxx::new_allocator.7"** %this.addr, metadata !5330, metadata !DIExpression()), !dbg !5332
  store %"class.__gnu_cxx::new_allocator.7"* %0, %"class.__gnu_cxx::new_allocator.7"** %.addr, align 8
  call void @llvm.dbg.declare(metadata %"class.__gnu_cxx::new_allocator.7"** %.addr, metadata !5333, metadata !DIExpression()), !dbg !5334
  %this1 = load %"class.__gnu_cxx::new_allocator.7"*, %"class.__gnu_cxx::new_allocator.7"** %this.addr, align 8
  ret void, !dbg !5335
}

; Function Attrs: noinline nounwind uwtable
define linkonce_odr dso_local void @_ZNSt12_Vector_baseIiSaIiEE12_Vector_implC2ERKS0_(%"struct.std::_Vector_base<int, std::allocator<int> >::_Vector_impl"* %this, %"class.std::allocator.6"* dereferenceable(1) %__a) unnamed_addr #5 comdat align 2 !dbg !5336 {
entry:
  %this.addr = alloca %"struct.std::_Vector_base<int, std::allocator<int> >::_Vector_impl"*, align 8
  %__a.addr = alloca %"class.std::allocator.6"*, align 8
  store %"struct.std::_Vector_base<int, std::allocator<int> >::_Vector_impl"* %this, %"struct.std::_Vector_base<int, std::allocator<int> >::_Vector_impl"** %this.addr, align 8
  call void @llvm.dbg.declare(metadata %"struct.std::_Vector_base<int, std::allocator<int> >::_Vector_impl"** %this.addr, metadata !5337, metadata !DIExpression()), !dbg !5339
  store %"class.std::allocator.6"* %__a, %"class.std::allocator.6"** %__a.addr, align 8
  call void @llvm.dbg.declare(metadata %"class.std::allocator.6"** %__a.addr, metadata !5340, metadata !DIExpression()), !dbg !5341
  %this1 = load %"struct.std::_Vector_base<int, std::allocator<int> >::_Vector_impl"*, %"struct.std::_Vector_base<int, std::allocator<int> >::_Vector_impl"** %this.addr, align 8
  %0 = bitcast %"struct.std::_Vector_base<int, std::allocator<int> >::_Vector_impl"* %this1 to %"class.std::allocator.6"*, !dbg !5342
  %1 = load %"class.std::allocator.6"*, %"class.std::allocator.6"** %__a.addr, align 8, !dbg !5343
  call void @_ZNSaIiEC2ERKS_(%"class.std::allocator.6"* %0, %"class.std::allocator.6"* dereferenceable(1) %1) #3, !dbg !5344
  %2 = bitcast %"struct.std::_Vector_base<int, std::allocator<int> >::_Vector_impl"* %this1 to %"struct.std::_Vector_base<int, std::allocator<int> >::_Vector_impl_data"*, !dbg !5342
  call void @_ZNSt12_Vector_baseIiSaIiEE17_Vector_impl_dataC2Ev(%"struct.std::_Vector_base<int, std::allocator<int> >::_Vector_impl_data"* %2) #3, !dbg !5345
  ret void, !dbg !5346
}

; Function Attrs: noinline uwtable
define linkonce_odr dso_local void @_ZNSt12_Vector_baseIiSaIiEE17_M_create_storageEm(%"struct.std::_Vector_base"* %this, i64 %__n) #0 comdat align 2 !dbg !5347 {
entry:
  %this.addr = alloca %"struct.std::_Vector_base"*, align 8
  %__n.addr = alloca i64, align 8
  store %"struct.std::_Vector_base"* %this, %"struct.std::_Vector_base"** %this.addr, align 8
  call void @llvm.dbg.declare(metadata %"struct.std::_Vector_base"** %this.addr, metadata !5348, metadata !DIExpression()), !dbg !5349
  store i64 %__n, i64* %__n.addr, align 8
  call void @llvm.dbg.declare(metadata i64* %__n.addr, metadata !5350, metadata !DIExpression()), !dbg !5351
  %this1 = load %"struct.std::_Vector_base"*, %"struct.std::_Vector_base"** %this.addr, align 8
  %0 = load i64, i64* %__n.addr, align 8, !dbg !5352
  %call = call i32* @_ZNSt12_Vector_baseIiSaIiEE11_M_allocateEm(%"struct.std::_Vector_base"* %this1, i64 %0), !dbg !5353
  %_M_impl = getelementptr inbounds %"struct.std::_Vector_base", %"struct.std::_Vector_base"* %this1, i32 0, i32 0, !dbg !5354
  %1 = bitcast %"struct.std::_Vector_base<int, std::allocator<int> >::_Vector_impl"* %_M_impl to %"struct.std::_Vector_base<int, std::allocator<int> >::_Vector_impl_data"*, !dbg !5355
  %_M_start = getelementptr inbounds %"struct.std::_Vector_base<int, std::allocator<int> >::_Vector_impl_data", %"struct.std::_Vector_base<int, std::allocator<int> >::_Vector_impl_data"* %1, i32 0, i32 0, !dbg !5356
  store i32* %call, i32** %_M_start, align 8, !dbg !5357
  %_M_impl2 = getelementptr inbounds %"struct.std::_Vector_base", %"struct.std::_Vector_base"* %this1, i32 0, i32 0, !dbg !5358
  %2 = bitcast %"struct.std::_Vector_base<int, std::allocator<int> >::_Vector_impl"* %_M_impl2 to %"struct.std::_Vector_base<int, std::allocator<int> >::_Vector_impl_data"*, !dbg !5359
  %_M_start3 = getelementptr inbounds %"struct.std::_Vector_base<int, std::allocator<int> >::_Vector_impl_data", %"struct.std::_Vector_base<int, std::allocator<int> >::_Vector_impl_data"* %2, i32 0, i32 0, !dbg !5360
  %3 = load i32*, i32** %_M_start3, align 8, !dbg !5360
  %_M_impl4 = getelementptr inbounds %"struct.std::_Vector_base", %"struct.std::_Vector_base"* %this1, i32 0, i32 0, !dbg !5361
  %4 = bitcast %"struct.std::_Vector_base<int, std::allocator<int> >::_Vector_impl"* %_M_impl4 to %"struct.std::_Vector_base<int, std::allocator<int> >::_Vector_impl_data"*, !dbg !5362
  %_M_finish = getelementptr inbounds %"struct.std::_Vector_base<int, std::allocator<int> >::_Vector_impl_data", %"struct.std::_Vector_base<int, std::allocator<int> >::_Vector_impl_data"* %4, i32 0, i32 1, !dbg !5363
  store i32* %3, i32** %_M_finish, align 8, !dbg !5364
  %_M_impl5 = getelementptr inbounds %"struct.std::_Vector_base", %"struct.std::_Vector_base"* %this1, i32 0, i32 0, !dbg !5365
  %5 = bitcast %"struct.std::_Vector_base<int, std::allocator<int> >::_Vector_impl"* %_M_impl5 to %"struct.std::_Vector_base<int, std::allocator<int> >::_Vector_impl_data"*, !dbg !5366
  %_M_start6 = getelementptr inbounds %"struct.std::_Vector_base<int, std::allocator<int> >::_Vector_impl_data", %"struct.std::_Vector_base<int, std::allocator<int> >::_Vector_impl_data"* %5, i32 0, i32 0, !dbg !5367
  %6 = load i32*, i32** %_M_start6, align 8, !dbg !5367
  %7 = load i64, i64* %__n.addr, align 8, !dbg !5368
  %add.ptr = getelementptr inbounds i32, i32* %6, i64 %7, !dbg !5369
  %_M_impl7 = getelementptr inbounds %"struct.std::_Vector_base", %"struct.std::_Vector_base"* %this1, i32 0, i32 0, !dbg !5370
  %8 = bitcast %"struct.std::_Vector_base<int, std::allocator<int> >::_Vector_impl"* %_M_impl7 to %"struct.std::_Vector_base<int, std::allocator<int> >::_Vector_impl_data"*, !dbg !5371
  %_M_end_of_storage = getelementptr inbounds %"struct.std::_Vector_base<int, std::allocator<int> >::_Vector_impl_data", %"struct.std::_Vector_base<int, std::allocator<int> >::_Vector_impl_data"* %8, i32 0, i32 2, !dbg !5372
  store i32* %add.ptr, i32** %_M_end_of_storage, align 8, !dbg !5373
  ret void, !dbg !5374
}

; Function Attrs: noinline nounwind uwtable
define linkonce_odr dso_local void @_ZNSt12_Vector_baseIiSaIiEE12_Vector_implD2Ev(%"struct.std::_Vector_base<int, std::allocator<int> >::_Vector_impl"* %this) unnamed_addr #5 comdat align 2 !dbg !5375 {
entry:
  %this.addr = alloca %"struct.std::_Vector_base<int, std::allocator<int> >::_Vector_impl"*, align 8
  store %"struct.std::_Vector_base<int, std::allocator<int> >::_Vector_impl"* %this, %"struct.std::_Vector_base<int, std::allocator<int> >::_Vector_impl"** %this.addr, align 8
  call void @llvm.dbg.declare(metadata %"struct.std::_Vector_base<int, std::allocator<int> >::_Vector_impl"** %this.addr, metadata !5377, metadata !DIExpression()), !dbg !5378
  %this1 = load %"struct.std::_Vector_base<int, std::allocator<int> >::_Vector_impl"*, %"struct.std::_Vector_base<int, std::allocator<int> >::_Vector_impl"** %this.addr, align 8
  %0 = bitcast %"struct.std::_Vector_base<int, std::allocator<int> >::_Vector_impl"* %this1 to %"class.std::allocator.6"*, !dbg !5379
  call void @_ZNSaIiED2Ev(%"class.std::allocator.6"* %0) #3, !dbg !5379
  ret void, !dbg !5381
}

; Function Attrs: noinline nounwind uwtable
define linkonce_odr dso_local void @_ZNSt12_Vector_baseIiSaIiEE17_Vector_impl_dataC2Ev(%"struct.std::_Vector_base<int, std::allocator<int> >::_Vector_impl_data"* %this) unnamed_addr #5 comdat align 2 !dbg !5382 {
entry:
  %this.addr = alloca %"struct.std::_Vector_base<int, std::allocator<int> >::_Vector_impl_data"*, align 8
  store %"struct.std::_Vector_base<int, std::allocator<int> >::_Vector_impl_data"* %this, %"struct.std::_Vector_base<int, std::allocator<int> >::_Vector_impl_data"** %this.addr, align 8
  call void @llvm.dbg.declare(metadata %"struct.std::_Vector_base<int, std::allocator<int> >::_Vector_impl_data"** %this.addr, metadata !5383, metadata !DIExpression()), !dbg !5385
  %this1 = load %"struct.std::_Vector_base<int, std::allocator<int> >::_Vector_impl_data"*, %"struct.std::_Vector_base<int, std::allocator<int> >::_Vector_impl_data"** %this.addr, align 8
  %_M_start = getelementptr inbounds %"struct.std::_Vector_base<int, std::allocator<int> >::_Vector_impl_data", %"struct.std::_Vector_base<int, std::allocator<int> >::_Vector_impl_data"* %this1, i32 0, i32 0, !dbg !5386
  store i32* null, i32** %_M_start, align 8, !dbg !5386
  %_M_finish = getelementptr inbounds %"struct.std::_Vector_base<int, std::allocator<int> >::_Vector_impl_data", %"struct.std::_Vector_base<int, std::allocator<int> >::_Vector_impl_data"* %this1, i32 0, i32 1, !dbg !5387
  store i32* null, i32** %_M_finish, align 8, !dbg !5387
  %_M_end_of_storage = getelementptr inbounds %"struct.std::_Vector_base<int, std::allocator<int> >::_Vector_impl_data", %"struct.std::_Vector_base<int, std::allocator<int> >::_Vector_impl_data"* %this1, i32 0, i32 2, !dbg !5388
  store i32* null, i32** %_M_end_of_storage, align 8, !dbg !5388
  ret void, !dbg !5389
}

; Function Attrs: noinline uwtable
define linkonce_odr dso_local i32* @_ZNSt12_Vector_baseIiSaIiEE11_M_allocateEm(%"struct.std::_Vector_base"* %this, i64 %__n) #0 comdat align 2 !dbg !5390 {
entry:
  %this.addr = alloca %"struct.std::_Vector_base"*, align 8
  %__n.addr = alloca i64, align 8
  store %"struct.std::_Vector_base"* %this, %"struct.std::_Vector_base"** %this.addr, align 8
  call void @llvm.dbg.declare(metadata %"struct.std::_Vector_base"** %this.addr, metadata !5391, metadata !DIExpression()), !dbg !5392
  store i64 %__n, i64* %__n.addr, align 8
  call void @llvm.dbg.declare(metadata i64* %__n.addr, metadata !5393, metadata !DIExpression()), !dbg !5394
  %this1 = load %"struct.std::_Vector_base"*, %"struct.std::_Vector_base"** %this.addr, align 8
  %0 = load i64, i64* %__n.addr, align 8, !dbg !5395
  %cmp = icmp ne i64 %0, 0, !dbg !5396
  br i1 %cmp, label %cond.true, label %cond.false, !dbg !5395

cond.true:                                        ; preds = %entry
  %_M_impl = getelementptr inbounds %"struct.std::_Vector_base", %"struct.std::_Vector_base"* %this1, i32 0, i32 0, !dbg !5397
  %1 = bitcast %"struct.std::_Vector_base<int, std::allocator<int> >::_Vector_impl"* %_M_impl to %"class.std::allocator.6"*, !dbg !5397
  %2 = load i64, i64* %__n.addr, align 8, !dbg !5398
  %call = call i32* @_ZNSt16allocator_traitsISaIiEE8allocateERS0_m(%"class.std::allocator.6"* dereferenceable(1) %1, i64 %2), !dbg !5399
  br label %cond.end, !dbg !5395

cond.false:                                       ; preds = %entry
  br label %cond.end, !dbg !5395

cond.end:                                         ; preds = %cond.false, %cond.true
  %cond = phi i32* [ %call, %cond.true ], [ null, %cond.false ], !dbg !5395
  ret i32* %cond, !dbg !5400
}

; Function Attrs: noinline uwtable
define linkonce_odr dso_local i32* @_ZNSt16allocator_traitsISaIiEE8allocateERS0_m(%"class.std::allocator.6"* dereferenceable(1) %__a, i64 %__n) #0 comdat align 2 !dbg !5401 {
entry:
  %__a.addr = alloca %"class.std::allocator.6"*, align 8
  %__n.addr = alloca i64, align 8
  store %"class.std::allocator.6"* %__a, %"class.std::allocator.6"** %__a.addr, align 8
  call void @llvm.dbg.declare(metadata %"class.std::allocator.6"** %__a.addr, metadata !5402, metadata !DIExpression()), !dbg !5403
  store i64 %__n, i64* %__n.addr, align 8
  call void @llvm.dbg.declare(metadata i64* %__n.addr, metadata !5404, metadata !DIExpression()), !dbg !5405
  %0 = load %"class.std::allocator.6"*, %"class.std::allocator.6"** %__a.addr, align 8, !dbg !5406
  %1 = bitcast %"class.std::allocator.6"* %0 to %"class.__gnu_cxx::new_allocator.7"*, !dbg !5406
  %2 = load i64, i64* %__n.addr, align 8, !dbg !5407
  %call = call i32* @_ZN9__gnu_cxx13new_allocatorIiE8allocateEmPKv(%"class.__gnu_cxx::new_allocator.7"* %1, i64 %2, i8* null), !dbg !5408
  ret i32* %call, !dbg !5409
}

; Function Attrs: noinline uwtable
define linkonce_odr dso_local i32* @_ZN9__gnu_cxx13new_allocatorIiE8allocateEmPKv(%"class.__gnu_cxx::new_allocator.7"* %this, i64 %__n, i8* %0) #0 comdat align 2 !dbg !5410 {
entry:
  %this.addr = alloca %"class.__gnu_cxx::new_allocator.7"*, align 8
  %__n.addr = alloca i64, align 8
  %.addr = alloca i8*, align 8
  store %"class.__gnu_cxx::new_allocator.7"* %this, %"class.__gnu_cxx::new_allocator.7"** %this.addr, align 8
  call void @llvm.dbg.declare(metadata %"class.__gnu_cxx::new_allocator.7"** %this.addr, metadata !5411, metadata !DIExpression()), !dbg !5412
  store i64 %__n, i64* %__n.addr, align 8
  call void @llvm.dbg.declare(metadata i64* %__n.addr, metadata !5413, metadata !DIExpression()), !dbg !5414
  store i8* %0, i8** %.addr, align 8
  call void @llvm.dbg.declare(metadata i8** %.addr, metadata !5415, metadata !DIExpression()), !dbg !5416
  %this1 = load %"class.__gnu_cxx::new_allocator.7"*, %"class.__gnu_cxx::new_allocator.7"** %this.addr, align 8
  %1 = load i64, i64* %__n.addr, align 8, !dbg !5417
  %call = call i64 @_ZNK9__gnu_cxx13new_allocatorIiE11_M_max_sizeEv(%"class.__gnu_cxx::new_allocator.7"* %this1) #3, !dbg !5419
  %cmp = icmp ugt i64 %1, %call, !dbg !5420
  br i1 %cmp, label %if.then, label %if.end, !dbg !5421

if.then:                                          ; preds = %entry
  call void @_ZSt17__throw_bad_allocv() #13, !dbg !5422
  unreachable, !dbg !5422

if.end:                                           ; preds = %entry
  %2 = load i64, i64* %__n.addr, align 8, !dbg !5423
  %mul = mul i64 %2, 4, !dbg !5424
  %call2 = call i8* @_Znwm(i64 %mul), !dbg !5425
  %3 = bitcast i8* %call2 to i32*, !dbg !5426
  ret i32* %3, !dbg !5427
}

; Function Attrs: noinline nounwind uwtable
define linkonce_odr dso_local i64 @_ZNK9__gnu_cxx13new_allocatorIiE11_M_max_sizeEv(%"class.__gnu_cxx::new_allocator.7"* %this) #5 comdat align 2 !dbg !5428 {
entry:
  %this.addr = alloca %"class.__gnu_cxx::new_allocator.7"*, align 8
  store %"class.__gnu_cxx::new_allocator.7"* %this, %"class.__gnu_cxx::new_allocator.7"** %this.addr, align 8
  call void @llvm.dbg.declare(metadata %"class.__gnu_cxx::new_allocator.7"** %this.addr, metadata !5429, metadata !DIExpression()), !dbg !5431
  %this1 = load %"class.__gnu_cxx::new_allocator.7"*, %"class.__gnu_cxx::new_allocator.7"** %this.addr, align 8
  ret i64 2305843009213693951, !dbg !5432
}

; Function Attrs: noreturn
declare dso_local void @_ZSt17__throw_bad_allocv() #10

; Function Attrs: noinline nounwind uwtable
define linkonce_odr dso_local void @_ZN9__gnu_cxx13new_allocatorIiED2Ev(%"class.__gnu_cxx::new_allocator.7"* %this) unnamed_addr #5 comdat align 2 !dbg !5433 {
entry:
  %this.addr = alloca %"class.__gnu_cxx::new_allocator.7"*, align 8
  store %"class.__gnu_cxx::new_allocator.7"* %this, %"class.__gnu_cxx::new_allocator.7"** %this.addr, align 8
  call void @llvm.dbg.declare(metadata %"class.__gnu_cxx::new_allocator.7"** %this.addr, metadata !5434, metadata !DIExpression()), !dbg !5435
  %this1 = load %"class.__gnu_cxx::new_allocator.7"*, %"class.__gnu_cxx::new_allocator.7"** %this.addr, align 8
  ret void, !dbg !5436
}

; Function Attrs: noinline uwtable
define linkonce_odr dso_local i32* @_ZSt18uninitialized_copyIN9__gnu_cxx17__normal_iteratorIPKiSt6vectorIiSaIiEEEEPiET0_T_SA_S9_(i32* %__first.coerce, i32* %__last.coerce, i32* %__result) #0 comdat !dbg !5437 {
entry:
  %__first = alloca %"class.__gnu_cxx::__normal_iterator", align 8
  %__last = alloca %"class.__gnu_cxx::__normal_iterator", align 8
  %__result.addr = alloca i32*, align 8
  %__assignable = alloca i8, align 1
  %agg.tmp = alloca %"class.__gnu_cxx::__normal_iterator", align 8
  %agg.tmp2 = alloca %"class.__gnu_cxx::__normal_iterator", align 8
  %coerce.dive = getelementptr inbounds %"class.__gnu_cxx::__normal_iterator", %"class.__gnu_cxx::__normal_iterator"* %__first, i32 0, i32 0
  store i32* %__first.coerce, i32** %coerce.dive, align 8
  %coerce.dive1 = getelementptr inbounds %"class.__gnu_cxx::__normal_iterator", %"class.__gnu_cxx::__normal_iterator"* %__last, i32 0, i32 0
  store i32* %__last.coerce, i32** %coerce.dive1, align 8
  call void @llvm.dbg.declare(metadata %"class.__gnu_cxx::__normal_iterator"* %__first, metadata !5441, metadata !DIExpression()), !dbg !5442
  call void @llvm.dbg.declare(metadata %"class.__gnu_cxx::__normal_iterator"* %__last, metadata !5443, metadata !DIExpression()), !dbg !5444
  store i32* %__result, i32** %__result.addr, align 8
  call void @llvm.dbg.declare(metadata i32** %__result.addr, metadata !5445, metadata !DIExpression()), !dbg !5446
  call void @llvm.dbg.declare(metadata i8* %__assignable, metadata !5447, metadata !DIExpression()), !dbg !5448
  store i8 1, i8* %__assignable, align 1, !dbg !5448
  %0 = bitcast %"class.__gnu_cxx::__normal_iterator"* %agg.tmp to i8*, !dbg !5449
  %1 = bitcast %"class.__gnu_cxx::__normal_iterator"* %__first to i8*, !dbg !5449
  call void @llvm.memcpy.p0i8.p0i8.i64(i8* align 8 %0, i8* align 8 %1, i64 8, i1 false), !dbg !5449
  %2 = bitcast %"class.__gnu_cxx::__normal_iterator"* %agg.tmp2 to i8*, !dbg !5450
  %3 = bitcast %"class.__gnu_cxx::__normal_iterator"* %__last to i8*, !dbg !5450
  call void @llvm.memcpy.p0i8.p0i8.i64(i8* align 8 %2, i8* align 8 %3, i64 8, i1 false), !dbg !5450
  %4 = load i32*, i32** %__result.addr, align 8, !dbg !5451
  %coerce.dive3 = getelementptr inbounds %"class.__gnu_cxx::__normal_iterator", %"class.__gnu_cxx::__normal_iterator"* %agg.tmp, i32 0, i32 0, !dbg !5452
  %5 = load i32*, i32** %coerce.dive3, align 8, !dbg !5452
  %coerce.dive4 = getelementptr inbounds %"class.__gnu_cxx::__normal_iterator", %"class.__gnu_cxx::__normal_iterator"* %agg.tmp2, i32 0, i32 0, !dbg !5452
  %6 = load i32*, i32** %coerce.dive4, align 8, !dbg !5452
  %call = call i32* @_ZNSt20__uninitialized_copyILb1EE13__uninit_copyIN9__gnu_cxx17__normal_iteratorIPKiSt6vectorIiSaIiEEEEPiEET0_T_SC_SB_(i32* %5, i32* %6, i32* %4), !dbg !5452
  ret i32* %call, !dbg !5453
}

; Function Attrs: noinline uwtable
define linkonce_odr dso_local i32* @_ZNSt20__uninitialized_copyILb1EE13__uninit_copyIN9__gnu_cxx17__normal_iteratorIPKiSt6vectorIiSaIiEEEEPiEET0_T_SC_SB_(i32* %__first.coerce, i32* %__last.coerce, i32* %__result) #0 comdat align 2 !dbg !5454 {
entry:
  %__first = alloca %"class.__gnu_cxx::__normal_iterator", align 8
  %__last = alloca %"class.__gnu_cxx::__normal_iterator", align 8
  %__result.addr = alloca i32*, align 8
  %agg.tmp = alloca %"class.__gnu_cxx::__normal_iterator", align 8
  %agg.tmp2 = alloca %"class.__gnu_cxx::__normal_iterator", align 8
  %coerce.dive = getelementptr inbounds %"class.__gnu_cxx::__normal_iterator", %"class.__gnu_cxx::__normal_iterator"* %__first, i32 0, i32 0
  store i32* %__first.coerce, i32** %coerce.dive, align 8
  %coerce.dive1 = getelementptr inbounds %"class.__gnu_cxx::__normal_iterator", %"class.__gnu_cxx::__normal_iterator"* %__last, i32 0, i32 0
  store i32* %__last.coerce, i32** %coerce.dive1, align 8
  call void @llvm.dbg.declare(metadata %"class.__gnu_cxx::__normal_iterator"* %__first, metadata !5459, metadata !DIExpression()), !dbg !5460
  call void @llvm.dbg.declare(metadata %"class.__gnu_cxx::__normal_iterator"* %__last, metadata !5461, metadata !DIExpression()), !dbg !5462
  store i32* %__result, i32** %__result.addr, align 8
  call void @llvm.dbg.declare(metadata i32** %__result.addr, metadata !5463, metadata !DIExpression()), !dbg !5464
  %0 = bitcast %"class.__gnu_cxx::__normal_iterator"* %agg.tmp to i8*, !dbg !5465
  %1 = bitcast %"class.__gnu_cxx::__normal_iterator"* %__first to i8*, !dbg !5465
  call void @llvm.memcpy.p0i8.p0i8.i64(i8* align 8 %0, i8* align 8 %1, i64 8, i1 false), !dbg !5465
  %2 = bitcast %"class.__gnu_cxx::__normal_iterator"* %agg.tmp2 to i8*, !dbg !5466
  %3 = bitcast %"class.__gnu_cxx::__normal_iterator"* %__last to i8*, !dbg !5466
  call void @llvm.memcpy.p0i8.p0i8.i64(i8* align 8 %2, i8* align 8 %3, i64 8, i1 false), !dbg !5466
  %4 = load i32*, i32** %__result.addr, align 8, !dbg !5467
  %coerce.dive3 = getelementptr inbounds %"class.__gnu_cxx::__normal_iterator", %"class.__gnu_cxx::__normal_iterator"* %agg.tmp, i32 0, i32 0, !dbg !5468
  %5 = load i32*, i32** %coerce.dive3, align 8, !dbg !5468
  %coerce.dive4 = getelementptr inbounds %"class.__gnu_cxx::__normal_iterator", %"class.__gnu_cxx::__normal_iterator"* %agg.tmp2, i32 0, i32 0, !dbg !5468
  %6 = load i32*, i32** %coerce.dive4, align 8, !dbg !5468
  %call = call i32* @_ZSt4copyIN9__gnu_cxx17__normal_iteratorIPKiSt6vectorIiSaIiEEEEPiET0_T_SA_S9_(i32* %5, i32* %6, i32* %4), !dbg !5468
  ret i32* %call, !dbg !5469
}

; Function Attrs: noinline uwtable
define linkonce_odr dso_local i32* @_ZSt4copyIN9__gnu_cxx17__normal_iteratorIPKiSt6vectorIiSaIiEEEEPiET0_T_SA_S9_(i32* %__first.coerce, i32* %__last.coerce, i32* %__result) #0 comdat !dbg !5470 {
entry:
  %__first = alloca %"class.__gnu_cxx::__normal_iterator", align 8
  %__last = alloca %"class.__gnu_cxx::__normal_iterator", align 8
  %__result.addr = alloca i32*, align 8
  %agg.tmp = alloca %"class.__gnu_cxx::__normal_iterator", align 8
  %agg.tmp2 = alloca %"class.__gnu_cxx::__normal_iterator", align 8
  %agg.tmp5 = alloca %"class.__gnu_cxx::__normal_iterator", align 8
  %agg.tmp6 = alloca %"class.__gnu_cxx::__normal_iterator", align 8
  %coerce.dive = getelementptr inbounds %"class.__gnu_cxx::__normal_iterator", %"class.__gnu_cxx::__normal_iterator"* %__first, i32 0, i32 0
  store i32* %__first.coerce, i32** %coerce.dive, align 8
  %coerce.dive1 = getelementptr inbounds %"class.__gnu_cxx::__normal_iterator", %"class.__gnu_cxx::__normal_iterator"* %__last, i32 0, i32 0
  store i32* %__last.coerce, i32** %coerce.dive1, align 8
  call void @llvm.dbg.declare(metadata %"class.__gnu_cxx::__normal_iterator"* %__first, metadata !5475, metadata !DIExpression()), !dbg !5476
  call void @llvm.dbg.declare(metadata %"class.__gnu_cxx::__normal_iterator"* %__last, metadata !5477, metadata !DIExpression()), !dbg !5478
  store i32* %__result, i32** %__result.addr, align 8
  call void @llvm.dbg.declare(metadata i32** %__result.addr, metadata !5479, metadata !DIExpression()), !dbg !5480
  %0 = bitcast %"class.__gnu_cxx::__normal_iterator"* %agg.tmp2 to i8*, !dbg !5481
  %1 = bitcast %"class.__gnu_cxx::__normal_iterator"* %__first to i8*, !dbg !5481
  call void @llvm.memcpy.p0i8.p0i8.i64(i8* align 8 %0, i8* align 8 %1, i64 8, i1 false), !dbg !5481
  %coerce.dive3 = getelementptr inbounds %"class.__gnu_cxx::__normal_iterator", %"class.__gnu_cxx::__normal_iterator"* %agg.tmp2, i32 0, i32 0, !dbg !5482
  %2 = load i32*, i32** %coerce.dive3, align 8, !dbg !5482
  %call = call i32* @_ZSt12__miter_baseIN9__gnu_cxx17__normal_iteratorIPKiSt6vectorIiSaIiEEEEET_S8_(i32* %2), !dbg !5482
  %coerce.dive4 = getelementptr inbounds %"class.__gnu_cxx::__normal_iterator", %"class.__gnu_cxx::__normal_iterator"* %agg.tmp, i32 0, i32 0, !dbg !5482
  store i32* %call, i32** %coerce.dive4, align 8, !dbg !5482
  %3 = bitcast %"class.__gnu_cxx::__normal_iterator"* %agg.tmp6 to i8*, !dbg !5483
  %4 = bitcast %"class.__gnu_cxx::__normal_iterator"* %__last to i8*, !dbg !5483
  call void @llvm.memcpy.p0i8.p0i8.i64(i8* align 8 %3, i8* align 8 %4, i64 8, i1 false), !dbg !5483
  %coerce.dive7 = getelementptr inbounds %"class.__gnu_cxx::__normal_iterator", %"class.__gnu_cxx::__normal_iterator"* %agg.tmp6, i32 0, i32 0, !dbg !5484
  %5 = load i32*, i32** %coerce.dive7, align 8, !dbg !5484
  %call8 = call i32* @_ZSt12__miter_baseIN9__gnu_cxx17__normal_iteratorIPKiSt6vectorIiSaIiEEEEET_S8_(i32* %5), !dbg !5484
  %coerce.dive9 = getelementptr inbounds %"class.__gnu_cxx::__normal_iterator", %"class.__gnu_cxx::__normal_iterator"* %agg.tmp5, i32 0, i32 0, !dbg !5484
  store i32* %call8, i32** %coerce.dive9, align 8, !dbg !5484
  %6 = load i32*, i32** %__result.addr, align 8, !dbg !5485
  %coerce.dive10 = getelementptr inbounds %"class.__gnu_cxx::__normal_iterator", %"class.__gnu_cxx::__normal_iterator"* %agg.tmp, i32 0, i32 0, !dbg !5486
  %7 = load i32*, i32** %coerce.dive10, align 8, !dbg !5486
  %coerce.dive11 = getelementptr inbounds %"class.__gnu_cxx::__normal_iterator", %"class.__gnu_cxx::__normal_iterator"* %agg.tmp5, i32 0, i32 0, !dbg !5486
  %8 = load i32*, i32** %coerce.dive11, align 8, !dbg !5486
  %call12 = call i32* @_ZSt13__copy_move_aILb0EN9__gnu_cxx17__normal_iteratorIPKiSt6vectorIiSaIiEEEEPiET1_T0_SA_S9_(i32* %7, i32* %8, i32* %6), !dbg !5486
  ret i32* %call12, !dbg !5487
}

; Function Attrs: noinline uwtable
define linkonce_odr dso_local i32* @_ZSt13__copy_move_aILb0EN9__gnu_cxx17__normal_iteratorIPKiSt6vectorIiSaIiEEEEPiET1_T0_SA_S9_(i32* %__first.coerce, i32* %__last.coerce, i32* %__result) #0 comdat !dbg !5488 {
entry:
  %__first = alloca %"class.__gnu_cxx::__normal_iterator", align 8
  %__last = alloca %"class.__gnu_cxx::__normal_iterator", align 8
  %__result.addr = alloca i32*, align 8
  %agg.tmp = alloca %"class.__gnu_cxx::__normal_iterator", align 8
  %agg.tmp3 = alloca %"class.__gnu_cxx::__normal_iterator", align 8
  %coerce.dive = getelementptr inbounds %"class.__gnu_cxx::__normal_iterator", %"class.__gnu_cxx::__normal_iterator"* %__first, i32 0, i32 0
  store i32* %__first.coerce, i32** %coerce.dive, align 8
  %coerce.dive1 = getelementptr inbounds %"class.__gnu_cxx::__normal_iterator", %"class.__gnu_cxx::__normal_iterator"* %__last, i32 0, i32 0
  store i32* %__last.coerce, i32** %coerce.dive1, align 8
  call void @llvm.dbg.declare(metadata %"class.__gnu_cxx::__normal_iterator"* %__first, metadata !5491, metadata !DIExpression()), !dbg !5492
  call void @llvm.dbg.declare(metadata %"class.__gnu_cxx::__normal_iterator"* %__last, metadata !5493, metadata !DIExpression()), !dbg !5494
  store i32* %__result, i32** %__result.addr, align 8
  call void @llvm.dbg.declare(metadata i32** %__result.addr, metadata !5495, metadata !DIExpression()), !dbg !5496
  %0 = bitcast %"class.__gnu_cxx::__normal_iterator"* %agg.tmp to i8*, !dbg !5497
  %1 = bitcast %"class.__gnu_cxx::__normal_iterator"* %__first to i8*, !dbg !5497
  call void @llvm.memcpy.p0i8.p0i8.i64(i8* align 8 %0, i8* align 8 %1, i64 8, i1 false), !dbg !5497
  %coerce.dive2 = getelementptr inbounds %"class.__gnu_cxx::__normal_iterator", %"class.__gnu_cxx::__normal_iterator"* %agg.tmp, i32 0, i32 0, !dbg !5498
  %2 = load i32*, i32** %coerce.dive2, align 8, !dbg !5498
  %call = call i32* @_ZSt12__niter_baseIPKiSt6vectorIiSaIiEEET_N9__gnu_cxx17__normal_iteratorIS5_T0_EE(i32* %2) #3, !dbg !5498
  %3 = bitcast %"class.__gnu_cxx::__normal_iterator"* %agg.tmp3 to i8*, !dbg !5499
  %4 = bitcast %"class.__gnu_cxx::__normal_iterator"* %__last to i8*, !dbg !5499
  call void @llvm.memcpy.p0i8.p0i8.i64(i8* align 8 %3, i8* align 8 %4, i64 8, i1 false), !dbg !5499
  %coerce.dive4 = getelementptr inbounds %"class.__gnu_cxx::__normal_iterator", %"class.__gnu_cxx::__normal_iterator"* %agg.tmp3, i32 0, i32 0, !dbg !5500
  %5 = load i32*, i32** %coerce.dive4, align 8, !dbg !5500
  %call5 = call i32* @_ZSt12__niter_baseIPKiSt6vectorIiSaIiEEET_N9__gnu_cxx17__normal_iteratorIS5_T0_EE(i32* %5) #3, !dbg !5500
  %6 = load i32*, i32** %__result.addr, align 8, !dbg !5501
  %call6 = call i32* @_ZSt12__niter_baseIPiET_S1_(i32* %6) #3, !dbg !5502
  %call7 = call i32* @_ZSt14__copy_move_a1ILb0EPKiPiET1_T0_S4_S3_(i32* %call, i32* %call5, i32* %call6), !dbg !5503
  %call8 = call i32* @_ZSt12__niter_wrapIPiET_RKS1_S1_(i32** dereferenceable(8) %__result.addr, i32* %call7), !dbg !5504
  ret i32* %call8, !dbg !5505
}

; Function Attrs: noinline nounwind uwtable
define linkonce_odr dso_local i32* @_ZSt12__miter_baseIN9__gnu_cxx17__normal_iteratorIPKiSt6vectorIiSaIiEEEEET_S8_(i32* %__it.coerce) #5 comdat !dbg !5506 {
entry:
  %retval = alloca %"class.__gnu_cxx::__normal_iterator", align 8
  %__it = alloca %"class.__gnu_cxx::__normal_iterator", align 8
  %coerce.dive = getelementptr inbounds %"class.__gnu_cxx::__normal_iterator", %"class.__gnu_cxx::__normal_iterator"* %__it, i32 0, i32 0
  store i32* %__it.coerce, i32** %coerce.dive, align 8
  call void @llvm.dbg.declare(metadata %"class.__gnu_cxx::__normal_iterator"* %__it, metadata !5512, metadata !DIExpression()), !dbg !5513
  %0 = bitcast %"class.__gnu_cxx::__normal_iterator"* %retval to i8*, !dbg !5514
  %1 = bitcast %"class.__gnu_cxx::__normal_iterator"* %__it to i8*, !dbg !5514
  call void @llvm.memcpy.p0i8.p0i8.i64(i8* align 8 %0, i8* align 8 %1, i64 8, i1 false), !dbg !5514
  %coerce.dive1 = getelementptr inbounds %"class.__gnu_cxx::__normal_iterator", %"class.__gnu_cxx::__normal_iterator"* %retval, i32 0, i32 0, !dbg !5515
  %2 = load i32*, i32** %coerce.dive1, align 8, !dbg !5515
  ret i32* %2, !dbg !5515
}

; Function Attrs: noinline nounwind uwtable
define linkonce_odr dso_local i32* @_ZSt12__niter_wrapIPiET_RKS1_S1_(i32** dereferenceable(8) %0, i32* %__res) #5 comdat !dbg !5516 {
entry:
  %.addr = alloca i32**, align 8
  %__res.addr = alloca i32*, align 8
  store i32** %0, i32*** %.addr, align 8
  call void @llvm.dbg.declare(metadata i32*** %.addr, metadata !5523, metadata !DIExpression()), !dbg !5524
  store i32* %__res, i32** %__res.addr, align 8
  call void @llvm.dbg.declare(metadata i32** %__res.addr, metadata !5525, metadata !DIExpression()), !dbg !5526
  %1 = load i32*, i32** %__res.addr, align 8, !dbg !5527
  ret i32* %1, !dbg !5528
}

; Function Attrs: noinline uwtable
define linkonce_odr dso_local i32* @_ZSt14__copy_move_a1ILb0EPKiPiET1_T0_S4_S3_(i32* %__first, i32* %__last, i32* %__result) #0 comdat !dbg !5529 {
entry:
  %__first.addr = alloca i32*, align 8
  %__last.addr = alloca i32*, align 8
  %__result.addr = alloca i32*, align 8
  store i32* %__first, i32** %__first.addr, align 8
  call void @llvm.dbg.declare(metadata i32** %__first.addr, metadata !5534, metadata !DIExpression()), !dbg !5535
  store i32* %__last, i32** %__last.addr, align 8
  call void @llvm.dbg.declare(metadata i32** %__last.addr, metadata !5536, metadata !DIExpression()), !dbg !5537
  store i32* %__result, i32** %__result.addr, align 8
  call void @llvm.dbg.declare(metadata i32** %__result.addr, metadata !5538, metadata !DIExpression()), !dbg !5539
  %0 = load i32*, i32** %__first.addr, align 8, !dbg !5540
  %1 = load i32*, i32** %__last.addr, align 8, !dbg !5541
  %2 = load i32*, i32** %__result.addr, align 8, !dbg !5542
  %call = call i32* @_ZSt14__copy_move_a2ILb0EPKiPiET1_T0_S4_S3_(i32* %0, i32* %1, i32* %2), !dbg !5543
  ret i32* %call, !dbg !5544
}

; Function Attrs: noinline nounwind uwtable
define linkonce_odr dso_local i32* @_ZSt12__niter_baseIPKiSt6vectorIiSaIiEEET_N9__gnu_cxx17__normal_iteratorIS5_T0_EE(i32* %__it.coerce) #5 comdat !dbg !5545 {
entry:
  %__it = alloca %"class.__gnu_cxx::__normal_iterator", align 8
  %coerce.dive = getelementptr inbounds %"class.__gnu_cxx::__normal_iterator", %"class.__gnu_cxx::__normal_iterator"* %__it, i32 0, i32 0
  store i32* %__it.coerce, i32** %coerce.dive, align 8
  call void @llvm.dbg.declare(metadata %"class.__gnu_cxx::__normal_iterator"* %__it, metadata !5548, metadata !DIExpression()), !dbg !5549
  %call = call dereferenceable(8) i32** @_ZNK9__gnu_cxx17__normal_iteratorIPKiSt6vectorIiSaIiEEE4baseEv(%"class.__gnu_cxx::__normal_iterator"* %__it) #3, !dbg !5550
  %0 = load i32*, i32** %call, align 8, !dbg !5550
  ret i32* %0, !dbg !5551
}

; Function Attrs: noinline nounwind uwtable
define linkonce_odr dso_local i32* @_ZSt12__niter_baseIPiET_S1_(i32* %__it) #5 comdat !dbg !5552 {
entry:
  %__it.addr = alloca i32*, align 8
  store i32* %__it, i32** %__it.addr, align 8
  call void @llvm.dbg.declare(metadata i32** %__it.addr, metadata !5555, metadata !DIExpression()), !dbg !5556
  %0 = load i32*, i32** %__it.addr, align 8, !dbg !5557
  ret i32* %0, !dbg !5558
}

; Function Attrs: noinline uwtable
define linkonce_odr dso_local i32* @_ZSt14__copy_move_a2ILb0EPKiPiET1_T0_S4_S3_(i32* %__first, i32* %__last, i32* %__result) #0 comdat !dbg !5559 {
entry:
  %__first.addr = alloca i32*, align 8
  %__last.addr = alloca i32*, align 8
  %__result.addr = alloca i32*, align 8
  store i32* %__first, i32** %__first.addr, align 8
  call void @llvm.dbg.declare(metadata i32** %__first.addr, metadata !5560, metadata !DIExpression()), !dbg !5561
  store i32* %__last, i32** %__last.addr, align 8
  call void @llvm.dbg.declare(metadata i32** %__last.addr, metadata !5562, metadata !DIExpression()), !dbg !5563
  store i32* %__result, i32** %__result.addr, align 8
  call void @llvm.dbg.declare(metadata i32** %__result.addr, metadata !5564, metadata !DIExpression()), !dbg !5565
  %0 = load i32*, i32** %__first.addr, align 8, !dbg !5566
  %1 = load i32*, i32** %__last.addr, align 8, !dbg !5567
  %2 = load i32*, i32** %__result.addr, align 8, !dbg !5568
  %call = call i32* @_ZNSt11__copy_moveILb0ELb1ESt26random_access_iterator_tagE8__copy_mIiEEPT_PKS3_S6_S4_(i32* %0, i32* %1, i32* %2), !dbg !5569
  ret i32* %call, !dbg !5570
}

; Function Attrs: noinline nounwind uwtable
define linkonce_odr dso_local i32* @_ZNSt11__copy_moveILb0ELb1ESt26random_access_iterator_tagE8__copy_mIiEEPT_PKS3_S6_S4_(i32* %__first, i32* %__last, i32* %__result) #5 comdat align 2 !dbg !5571 {
entry:
  %__first.addr = alloca i32*, align 8
  %__last.addr = alloca i32*, align 8
  %__result.addr = alloca i32*, align 8
  %_Num = alloca i64, align 8
  store i32* %__first, i32** %__first.addr, align 8
  call void @llvm.dbg.declare(metadata i32** %__first.addr, metadata !5587, metadata !DIExpression()), !dbg !5588
  store i32* %__last, i32** %__last.addr, align 8
  call void @llvm.dbg.declare(metadata i32** %__last.addr, metadata !5589, metadata !DIExpression()), !dbg !5590
  store i32* %__result, i32** %__result.addr, align 8
  call void @llvm.dbg.declare(metadata i32** %__result.addr, metadata !5591, metadata !DIExpression()), !dbg !5592
  call void @llvm.dbg.declare(metadata i64* %_Num, metadata !5593, metadata !DIExpression()), !dbg !5595
  %0 = load i32*, i32** %__last.addr, align 8, !dbg !5596
  %1 = load i32*, i32** %__first.addr, align 8, !dbg !5597
  %sub.ptr.lhs.cast = ptrtoint i32* %0 to i64, !dbg !5598
  %sub.ptr.rhs.cast = ptrtoint i32* %1 to i64, !dbg !5598
  %sub.ptr.sub = sub i64 %sub.ptr.lhs.cast, %sub.ptr.rhs.cast, !dbg !5598
  %sub.ptr.div = sdiv exact i64 %sub.ptr.sub, 4, !dbg !5598
  store i64 %sub.ptr.div, i64* %_Num, align 8, !dbg !5595
  %2 = load i64, i64* %_Num, align 8, !dbg !5599
  %tobool = icmp ne i64 %2, 0, !dbg !5599
  br i1 %tobool, label %if.then, label %if.end, !dbg !5601

if.then:                                          ; preds = %entry
  %3 = load i32*, i32** %__result.addr, align 8, !dbg !5602
  %4 = bitcast i32* %3 to i8*, !dbg !5603
  %5 = load i32*, i32** %__first.addr, align 8, !dbg !5604
  %6 = bitcast i32* %5 to i8*, !dbg !5603
  %7 = load i64, i64* %_Num, align 8, !dbg !5605
  %mul = mul i64 4, %7, !dbg !5606
  call void @llvm.memmove.p0i8.p0i8.i64(i8* align 4 %4, i8* align 4 %6, i64 %mul, i1 false), !dbg !5603
  br label %if.end, !dbg !5603

if.end:                                           ; preds = %if.then, %entry
  %8 = load i32*, i32** %__result.addr, align 8, !dbg !5607
  %9 = load i64, i64* %_Num, align 8, !dbg !5608
  %add.ptr = getelementptr inbounds i32, i32* %8, i64 %9, !dbg !5609
  ret i32* %add.ptr, !dbg !5610
}

; Function Attrs: argmemonly nounwind willreturn
declare void @llvm.memmove.p0i8.p0i8.i64(i8* nocapture, i8* nocapture readonly, i64, i1 immarg) #9

; Function Attrs: noinline nounwind uwtable
define linkonce_odr dso_local dereferenceable(8) i32** @_ZNK9__gnu_cxx17__normal_iteratorIPKiSt6vectorIiSaIiEEE4baseEv(%"class.__gnu_cxx::__normal_iterator"* %this) #5 comdat align 2 !dbg !5611 {
entry:
  %this.addr = alloca %"class.__gnu_cxx::__normal_iterator"*, align 8
  store %"class.__gnu_cxx::__normal_iterator"* %this, %"class.__gnu_cxx::__normal_iterator"** %this.addr, align 8
  call void @llvm.dbg.declare(metadata %"class.__gnu_cxx::__normal_iterator"** %this.addr, metadata !5612, metadata !DIExpression()), !dbg !5614
  %this1 = load %"class.__gnu_cxx::__normal_iterator"*, %"class.__gnu_cxx::__normal_iterator"** %this.addr, align 8
  %_M_current = getelementptr inbounds %"class.__gnu_cxx::__normal_iterator", %"class.__gnu_cxx::__normal_iterator"* %this1, i32 0, i32 0, !dbg !5615
  ret i32** %_M_current, !dbg !5616
}

; Function Attrs: noinline nounwind uwtable
define linkonce_odr dso_local void @_ZN9__gnu_cxx17__normal_iteratorIPKiSt6vectorIiSaIiEEEC2ERKS2_(%"class.__gnu_cxx::__normal_iterator"* %this, i32** dereferenceable(8) %__i) unnamed_addr #5 comdat align 2 !dbg !5617 {
entry:
  %this.addr = alloca %"class.__gnu_cxx::__normal_iterator"*, align 8
  %__i.addr = alloca i32**, align 8
  store %"class.__gnu_cxx::__normal_iterator"* %this, %"class.__gnu_cxx::__normal_iterator"** %this.addr, align 8
  call void @llvm.dbg.declare(metadata %"class.__gnu_cxx::__normal_iterator"** %this.addr, metadata !5618, metadata !DIExpression()), !dbg !5620
  store i32** %__i, i32*** %__i.addr, align 8
  call void @llvm.dbg.declare(metadata i32*** %__i.addr, metadata !5621, metadata !DIExpression()), !dbg !5622
  %this1 = load %"class.__gnu_cxx::__normal_iterator"*, %"class.__gnu_cxx::__normal_iterator"** %this.addr, align 8
  %_M_current = getelementptr inbounds %"class.__gnu_cxx::__normal_iterator", %"class.__gnu_cxx::__normal_iterator"* %this1, i32 0, i32 0, !dbg !5623
  %0 = load i32**, i32*** %__i.addr, align 8, !dbg !5624
  %1 = load i32*, i32** %0, align 8, !dbg !5624
  store i32* %1, i32** %_M_current, align 8, !dbg !5623
  ret void, !dbg !5625
}

; Function Attrs: noinline uwtable
define linkonce_odr dso_local void @_ZNSt12_Vector_baseIiSaIiEE13_M_deallocateEPim(%"struct.std::_Vector_base"* %this, i32* %__p, i64 %__n) #0 comdat align 2 !dbg !5626 {
entry:
  %this.addr = alloca %"struct.std::_Vector_base"*, align 8
  %__p.addr = alloca i32*, align 8
  %__n.addr = alloca i64, align 8
  store %"struct.std::_Vector_base"* %this, %"struct.std::_Vector_base"** %this.addr, align 8
  call void @llvm.dbg.declare(metadata %"struct.std::_Vector_base"** %this.addr, metadata !5627, metadata !DIExpression()), !dbg !5628
  store i32* %__p, i32** %__p.addr, align 8
  call void @llvm.dbg.declare(metadata i32** %__p.addr, metadata !5629, metadata !DIExpression()), !dbg !5630
  store i64 %__n, i64* %__n.addr, align 8
  call void @llvm.dbg.declare(metadata i64* %__n.addr, metadata !5631, metadata !DIExpression()), !dbg !5632
  %this1 = load %"struct.std::_Vector_base"*, %"struct.std::_Vector_base"** %this.addr, align 8
  %0 = load i32*, i32** %__p.addr, align 8, !dbg !5633
  %tobool = icmp ne i32* %0, null, !dbg !5633
  br i1 %tobool, label %if.then, label %if.end, !dbg !5635

if.then:                                          ; preds = %entry
  %_M_impl = getelementptr inbounds %"struct.std::_Vector_base", %"struct.std::_Vector_base"* %this1, i32 0, i32 0, !dbg !5636
  %1 = bitcast %"struct.std::_Vector_base<int, std::allocator<int> >::_Vector_impl"* %_M_impl to %"class.std::allocator.6"*, !dbg !5636
  %2 = load i32*, i32** %__p.addr, align 8, !dbg !5637
  %3 = load i64, i64* %__n.addr, align 8, !dbg !5638
  call void @_ZNSt16allocator_traitsISaIiEE10deallocateERS0_Pim(%"class.std::allocator.6"* dereferenceable(1) %1, i32* %2, i64 %3), !dbg !5639
  br label %if.end, !dbg !5639

if.end:                                           ; preds = %if.then, %entry
  ret void, !dbg !5640
}

; Function Attrs: noinline noreturn nounwind
define linkonce_odr hidden void @__clang_call_terminate(i8* %0) #11 comdat {
  %2 = call i8* @__cxa_begin_catch(i8* %0) #3
  call void @_ZSt9terminatev() #17
  unreachable
}

declare dso_local i8* @__cxa_begin_catch(i8*)

declare dso_local void @_ZSt9terminatev()

; Function Attrs: noinline uwtable
define linkonce_odr dso_local void @_ZNSt16allocator_traitsISaIiEE10deallocateERS0_Pim(%"class.std::allocator.6"* dereferenceable(1) %__a, i32* %__p, i64 %__n) #0 comdat align 2 !dbg !5641 {
entry:
  %__a.addr = alloca %"class.std::allocator.6"*, align 8
  %__p.addr = alloca i32*, align 8
  %__n.addr = alloca i64, align 8
  store %"class.std::allocator.6"* %__a, %"class.std::allocator.6"** %__a.addr, align 8
  call void @llvm.dbg.declare(metadata %"class.std::allocator.6"** %__a.addr, metadata !5642, metadata !DIExpression()), !dbg !5643
  store i32* %__p, i32** %__p.addr, align 8
  call void @llvm.dbg.declare(metadata i32** %__p.addr, metadata !5644, metadata !DIExpression()), !dbg !5645
  store i64 %__n, i64* %__n.addr, align 8
  call void @llvm.dbg.declare(metadata i64* %__n.addr, metadata !5646, metadata !DIExpression()), !dbg !5647
  %0 = load %"class.std::allocator.6"*, %"class.std::allocator.6"** %__a.addr, align 8, !dbg !5648
  %1 = bitcast %"class.std::allocator.6"* %0 to %"class.__gnu_cxx::new_allocator.7"*, !dbg !5648
  %2 = load i32*, i32** %__p.addr, align 8, !dbg !5649
  %3 = load i64, i64* %__n.addr, align 8, !dbg !5650
  call void @_ZN9__gnu_cxx13new_allocatorIiE10deallocateEPim(%"class.__gnu_cxx::new_allocator.7"* %1, i32* %2, i64 %3), !dbg !5651
  ret void, !dbg !5652
}

; Function Attrs: noinline nounwind uwtable
define linkonce_odr dso_local void @_ZN9__gnu_cxx13new_allocatorIiE10deallocateEPim(%"class.__gnu_cxx::new_allocator.7"* %this, i32* %__p, i64 %__t) #5 comdat align 2 !dbg !5653 {
entry:
  %this.addr = alloca %"class.__gnu_cxx::new_allocator.7"*, align 8
  %__p.addr = alloca i32*, align 8
  %__t.addr = alloca i64, align 8
  store %"class.__gnu_cxx::new_allocator.7"* %this, %"class.__gnu_cxx::new_allocator.7"** %this.addr, align 8
  call void @llvm.dbg.declare(metadata %"class.__gnu_cxx::new_allocator.7"** %this.addr, metadata !5654, metadata !DIExpression()), !dbg !5655
  store i32* %__p, i32** %__p.addr, align 8
  call void @llvm.dbg.declare(metadata i32** %__p.addr, metadata !5656, metadata !DIExpression()), !dbg !5657
  store i64 %__t, i64* %__t.addr, align 8
  call void @llvm.dbg.declare(metadata i64* %__t.addr, metadata !5658, metadata !DIExpression()), !dbg !5659
  %this1 = load %"class.__gnu_cxx::new_allocator.7"*, %"class.__gnu_cxx::new_allocator.7"** %this.addr, align 8
  %0 = load i32*, i32** %__p.addr, align 8, !dbg !5660
  %1 = bitcast i32* %0 to i8*, !dbg !5660
  call void @_ZdlPv(i8* %1) #3, !dbg !5661
  ret void, !dbg !5662
}

; Function Attrs: noinline nounwind uwtable
define linkonce_odr dso_local i64 @_ZNKSt6vectorIySaIyEE4sizeEv(%"class.std::vector.11"* %this) #5 comdat align 2 !dbg !5663 {
entry:
  %this.addr = alloca %"class.std::vector.11"*, align 8
  store %"class.std::vector.11"* %this, %"class.std::vector.11"** %this.addr, align 8
  call void @llvm.dbg.declare(metadata %"class.std::vector.11"** %this.addr, metadata !5664, metadata !DIExpression()), !dbg !5666
  %this1 = load %"class.std::vector.11"*, %"class.std::vector.11"** %this.addr, align 8
  %0 = bitcast %"class.std::vector.11"* %this1 to %"struct.std::_Vector_base.12"*, !dbg !5667
  %_M_impl = getelementptr inbounds %"struct.std::_Vector_base.12", %"struct.std::_Vector_base.12"* %0, i32 0, i32 0, !dbg !5667
  %1 = bitcast %"struct.std::_Vector_base<unsigned long long, std::allocator<unsigned long long> >::_Vector_impl"* %_M_impl to %"struct.std::_Vector_base<unsigned long long, std::allocator<unsigned long long> >::_Vector_impl_data"*, !dbg !5668
  %_M_finish = getelementptr inbounds %"struct.std::_Vector_base<unsigned long long, std::allocator<unsigned long long> >::_Vector_impl_data", %"struct.std::_Vector_base<unsigned long long, std::allocator<unsigned long long> >::_Vector_impl_data"* %1, i32 0, i32 1, !dbg !5669
  %2 = load i64*, i64** %_M_finish, align 8, !dbg !5669
  %3 = bitcast %"class.std::vector.11"* %this1 to %"struct.std::_Vector_base.12"*, !dbg !5670
  %_M_impl2 = getelementptr inbounds %"struct.std::_Vector_base.12", %"struct.std::_Vector_base.12"* %3, i32 0, i32 0, !dbg !5670
  %4 = bitcast %"struct.std::_Vector_base<unsigned long long, std::allocator<unsigned long long> >::_Vector_impl"* %_M_impl2 to %"struct.std::_Vector_base<unsigned long long, std::allocator<unsigned long long> >::_Vector_impl_data"*, !dbg !5671
  %_M_start = getelementptr inbounds %"struct.std::_Vector_base<unsigned long long, std::allocator<unsigned long long> >::_Vector_impl_data", %"struct.std::_Vector_base<unsigned long long, std::allocator<unsigned long long> >::_Vector_impl_data"* %4, i32 0, i32 0, !dbg !5672
  %5 = load i64*, i64** %_M_start, align 8, !dbg !5672
  %sub.ptr.lhs.cast = ptrtoint i64* %2 to i64, !dbg !5673
  %sub.ptr.rhs.cast = ptrtoint i64* %5 to i64, !dbg !5673
  %sub.ptr.sub = sub i64 %sub.ptr.lhs.cast, %sub.ptr.rhs.cast, !dbg !5673
  %sub.ptr.div = sdiv exact i64 %sub.ptr.sub, 8, !dbg !5673
  ret i64 %sub.ptr.div, !dbg !5674
}

; Function Attrs: noinline uwtable
define linkonce_odr dso_local void @_ZN9__gnu_cxx14__alloc_traitsISaIyEyE17_S_select_on_copyERKS1_(%"class.std::allocator.13"* noalias sret %agg.result, %"class.std::allocator.13"* dereferenceable(1) %__a) #0 comdat align 2 !dbg !5675 {
entry:
  %result.ptr = alloca i8*, align 8
  %__a.addr = alloca %"class.std::allocator.13"*, align 8
  %0 = bitcast %"class.std::allocator.13"* %agg.result to i8*
  store i8* %0, i8** %result.ptr, align 8
  store %"class.std::allocator.13"* %__a, %"class.std::allocator.13"** %__a.addr, align 8
  call void @llvm.dbg.declare(metadata %"class.std::allocator.13"** %__a.addr, metadata !5676, metadata !DIExpression()), !dbg !5677
  %1 = load %"class.std::allocator.13"*, %"class.std::allocator.13"** %__a.addr, align 8, !dbg !5678
  call void @_ZNSt16allocator_traitsISaIyEE37select_on_container_copy_constructionERKS0_(%"class.std::allocator.13"* sret %agg.result, %"class.std::allocator.13"* dereferenceable(1) %1), !dbg !5679
  ret void, !dbg !5680
}

; Function Attrs: noinline nounwind uwtable
define linkonce_odr dso_local dereferenceable(1) %"class.std::allocator.13"* @_ZNKSt12_Vector_baseIySaIyEE19_M_get_Tp_allocatorEv(%"struct.std::_Vector_base.12"* %this) #5 comdat align 2 !dbg !5681 {
entry:
  %this.addr = alloca %"struct.std::_Vector_base.12"*, align 8
  store %"struct.std::_Vector_base.12"* %this, %"struct.std::_Vector_base.12"** %this.addr, align 8
  call void @llvm.dbg.declare(metadata %"struct.std::_Vector_base.12"** %this.addr, metadata !5682, metadata !DIExpression()), !dbg !5684
  %this1 = load %"struct.std::_Vector_base.12"*, %"struct.std::_Vector_base.12"** %this.addr, align 8
  %_M_impl = getelementptr inbounds %"struct.std::_Vector_base.12", %"struct.std::_Vector_base.12"* %this1, i32 0, i32 0, !dbg !5685
  %0 = bitcast %"struct.std::_Vector_base<unsigned long long, std::allocator<unsigned long long> >::_Vector_impl"* %_M_impl to %"class.std::allocator.13"*, !dbg !5686
  ret %"class.std::allocator.13"* %0, !dbg !5687
}

; Function Attrs: noinline uwtable
define linkonce_odr dso_local void @_ZNSt12_Vector_baseIySaIyEEC2EmRKS0_(%"struct.std::_Vector_base.12"* %this, i64 %__n, %"class.std::allocator.13"* dereferenceable(1) %__a) unnamed_addr #0 comdat align 2 personality i8* bitcast (i32 (...)* @__gxx_personality_v0 to i8*) !dbg !5688 {
entry:
  %this.addr = alloca %"struct.std::_Vector_base.12"*, align 8
  %__n.addr = alloca i64, align 8
  %__a.addr = alloca %"class.std::allocator.13"*, align 8
  %exn.slot = alloca i8*
  %ehselector.slot = alloca i32
  store %"struct.std::_Vector_base.12"* %this, %"struct.std::_Vector_base.12"** %this.addr, align 8
  call void @llvm.dbg.declare(metadata %"struct.std::_Vector_base.12"** %this.addr, metadata !5689, metadata !DIExpression()), !dbg !5691
  store i64 %__n, i64* %__n.addr, align 8
  call void @llvm.dbg.declare(metadata i64* %__n.addr, metadata !5692, metadata !DIExpression()), !dbg !5693
  store %"class.std::allocator.13"* %__a, %"class.std::allocator.13"** %__a.addr, align 8
  call void @llvm.dbg.declare(metadata %"class.std::allocator.13"** %__a.addr, metadata !5694, metadata !DIExpression()), !dbg !5695
  %this1 = load %"struct.std::_Vector_base.12"*, %"struct.std::_Vector_base.12"** %this.addr, align 8
  %_M_impl = getelementptr inbounds %"struct.std::_Vector_base.12", %"struct.std::_Vector_base.12"* %this1, i32 0, i32 0, !dbg !5696
  %0 = load %"class.std::allocator.13"*, %"class.std::allocator.13"** %__a.addr, align 8, !dbg !5697
  call void @_ZNSt12_Vector_baseIySaIyEE12_Vector_implC2ERKS0_(%"struct.std::_Vector_base<unsigned long long, std::allocator<unsigned long long> >::_Vector_impl"* %_M_impl, %"class.std::allocator.13"* dereferenceable(1) %0) #3, !dbg !5696
  %1 = load i64, i64* %__n.addr, align 8, !dbg !5698
  invoke void @_ZNSt12_Vector_baseIySaIyEE17_M_create_storageEm(%"struct.std::_Vector_base.12"* %this1, i64 %1)
          to label %invoke.cont unwind label %lpad, !dbg !5700

invoke.cont:                                      ; preds = %entry
  ret void, !dbg !5701

lpad:                                             ; preds = %entry
  %2 = landingpad { i8*, i32 }
          cleanup, !dbg !5702
  %3 = extractvalue { i8*, i32 } %2, 0, !dbg !5702
  store i8* %3, i8** %exn.slot, align 8, !dbg !5702
  %4 = extractvalue { i8*, i32 } %2, 1, !dbg !5702
  store i32 %4, i32* %ehselector.slot, align 4, !dbg !5702
  call void @_ZNSt12_Vector_baseIySaIyEE12_Vector_implD2Ev(%"struct.std::_Vector_base<unsigned long long, std::allocator<unsigned long long> >::_Vector_impl"* %_M_impl) #3, !dbg !5702
  br label %eh.resume, !dbg !5702

eh.resume:                                        ; preds = %lpad
  %exn = load i8*, i8** %exn.slot, align 8, !dbg !5702
  %sel = load i32, i32* %ehselector.slot, align 4, !dbg !5702
  %lpad.val = insertvalue { i8*, i32 } undef, i8* %exn, 0, !dbg !5702
  %lpad.val2 = insertvalue { i8*, i32 } %lpad.val, i32 %sel, 1, !dbg !5702
  resume { i8*, i32 } %lpad.val2, !dbg !5702
}

; Function Attrs: noinline nounwind uwtable
define linkonce_odr dso_local void @_ZNSaIyED2Ev(%"class.std::allocator.13"* %this) unnamed_addr #5 comdat align 2 !dbg !5703 {
entry:
  %this.addr = alloca %"class.std::allocator.13"*, align 8
  store %"class.std::allocator.13"* %this, %"class.std::allocator.13"** %this.addr, align 8
  call void @llvm.dbg.declare(metadata %"class.std::allocator.13"** %this.addr, metadata !5704, metadata !DIExpression()), !dbg !5706
  %this1 = load %"class.std::allocator.13"*, %"class.std::allocator.13"** %this.addr, align 8
  %0 = bitcast %"class.std::allocator.13"* %this1 to %"class.__gnu_cxx::new_allocator.14"*, !dbg !5707
  call void @_ZN9__gnu_cxx13new_allocatorIyED2Ev(%"class.__gnu_cxx::new_allocator.14"* %0) #3, !dbg !5707
  ret void, !dbg !5709
}

; Function Attrs: noinline uwtable
define linkonce_odr dso_local i64* @_ZSt22__uninitialized_copy_aIN9__gnu_cxx17__normal_iteratorIPKySt6vectorIySaIyEEEEPyyET0_T_SA_S9_RSaIT1_E(i64* %__first.coerce, i64* %__last.coerce, i64* %__result, %"class.std::allocator.13"* dereferenceable(1) %0) #0 comdat !dbg !5710 {
entry:
  %__first = alloca %"class.__gnu_cxx::__normal_iterator.24", align 8
  %__last = alloca %"class.__gnu_cxx::__normal_iterator.24", align 8
  %__result.addr = alloca i64*, align 8
  %.addr = alloca %"class.std::allocator.13"*, align 8
  %agg.tmp = alloca %"class.__gnu_cxx::__normal_iterator.24", align 8
  %agg.tmp2 = alloca %"class.__gnu_cxx::__normal_iterator.24", align 8
  %coerce.dive = getelementptr inbounds %"class.__gnu_cxx::__normal_iterator.24", %"class.__gnu_cxx::__normal_iterator.24"* %__first, i32 0, i32 0
  store i64* %__first.coerce, i64** %coerce.dive, align 8
  %coerce.dive1 = getelementptr inbounds %"class.__gnu_cxx::__normal_iterator.24", %"class.__gnu_cxx::__normal_iterator.24"* %__last, i32 0, i32 0
  store i64* %__last.coerce, i64** %coerce.dive1, align 8
  call void @llvm.dbg.declare(metadata %"class.__gnu_cxx::__normal_iterator.24"* %__first, metadata !5716, metadata !DIExpression()), !dbg !5717
  call void @llvm.dbg.declare(metadata %"class.__gnu_cxx::__normal_iterator.24"* %__last, metadata !5718, metadata !DIExpression()), !dbg !5719
  store i64* %__result, i64** %__result.addr, align 8
  call void @llvm.dbg.declare(metadata i64** %__result.addr, metadata !5720, metadata !DIExpression()), !dbg !5721
  store %"class.std::allocator.13"* %0, %"class.std::allocator.13"** %.addr, align 8
  call void @llvm.dbg.declare(metadata %"class.std::allocator.13"** %.addr, metadata !5722, metadata !DIExpression()), !dbg !5723
  %1 = bitcast %"class.__gnu_cxx::__normal_iterator.24"* %agg.tmp to i8*, !dbg !5724
  %2 = bitcast %"class.__gnu_cxx::__normal_iterator.24"* %__first to i8*, !dbg !5724
  call void @llvm.memcpy.p0i8.p0i8.i64(i8* align 8 %1, i8* align 8 %2, i64 8, i1 false), !dbg !5724
  %3 = bitcast %"class.__gnu_cxx::__normal_iterator.24"* %agg.tmp2 to i8*, !dbg !5725
  %4 = bitcast %"class.__gnu_cxx::__normal_iterator.24"* %__last to i8*, !dbg !5725
  call void @llvm.memcpy.p0i8.p0i8.i64(i8* align 8 %3, i8* align 8 %4, i64 8, i1 false), !dbg !5725
  %5 = load i64*, i64** %__result.addr, align 8, !dbg !5726
  %coerce.dive3 = getelementptr inbounds %"class.__gnu_cxx::__normal_iterator.24", %"class.__gnu_cxx::__normal_iterator.24"* %agg.tmp, i32 0, i32 0, !dbg !5727
  %6 = load i64*, i64** %coerce.dive3, align 8, !dbg !5727
  %coerce.dive4 = getelementptr inbounds %"class.__gnu_cxx::__normal_iterator.24", %"class.__gnu_cxx::__normal_iterator.24"* %agg.tmp2, i32 0, i32 0, !dbg !5727
  %7 = load i64*, i64** %coerce.dive4, align 8, !dbg !5727
  %call = call i64* @_ZSt18uninitialized_copyIN9__gnu_cxx17__normal_iteratorIPKySt6vectorIySaIyEEEEPyET0_T_SA_S9_(i64* %6, i64* %7, i64* %5), !dbg !5727
  ret i64* %call, !dbg !5728
}

; Function Attrs: noinline nounwind uwtable
define linkonce_odr dso_local i64* @_ZNKSt6vectorIySaIyEE5beginEv(%"class.std::vector.11"* %this) #5 comdat align 2 !dbg !5729 {
entry:
  %retval = alloca %"class.__gnu_cxx::__normal_iterator.24", align 8
  %this.addr = alloca %"class.std::vector.11"*, align 8
  store %"class.std::vector.11"* %this, %"class.std::vector.11"** %this.addr, align 8
  call void @llvm.dbg.declare(metadata %"class.std::vector.11"** %this.addr, metadata !5730, metadata !DIExpression()), !dbg !5731
  %this1 = load %"class.std::vector.11"*, %"class.std::vector.11"** %this.addr, align 8
  %0 = bitcast %"class.std::vector.11"* %this1 to %"struct.std::_Vector_base.12"*, !dbg !5732
  %_M_impl = getelementptr inbounds %"struct.std::_Vector_base.12", %"struct.std::_Vector_base.12"* %0, i32 0, i32 0, !dbg !5732
  %1 = bitcast %"struct.std::_Vector_base<unsigned long long, std::allocator<unsigned long long> >::_Vector_impl"* %_M_impl to %"struct.std::_Vector_base<unsigned long long, std::allocator<unsigned long long> >::_Vector_impl_data"*, !dbg !5733
  %_M_start = getelementptr inbounds %"struct.std::_Vector_base<unsigned long long, std::allocator<unsigned long long> >::_Vector_impl_data", %"struct.std::_Vector_base<unsigned long long, std::allocator<unsigned long long> >::_Vector_impl_data"* %1, i32 0, i32 0, !dbg !5734
  call void @_ZN9__gnu_cxx17__normal_iteratorIPKySt6vectorIySaIyEEEC2ERKS2_(%"class.__gnu_cxx::__normal_iterator.24"* %retval, i64** dereferenceable(8) %_M_start) #3, !dbg !5735
  %coerce.dive = getelementptr inbounds %"class.__gnu_cxx::__normal_iterator.24", %"class.__gnu_cxx::__normal_iterator.24"* %retval, i32 0, i32 0, !dbg !5736
  %2 = load i64*, i64** %coerce.dive, align 8, !dbg !5736
  ret i64* %2, !dbg !5736
}

; Function Attrs: noinline nounwind uwtable
define linkonce_odr dso_local i64* @_ZNKSt6vectorIySaIyEE3endEv(%"class.std::vector.11"* %this) #5 comdat align 2 !dbg !5737 {
entry:
  %retval = alloca %"class.__gnu_cxx::__normal_iterator.24", align 8
  %this.addr = alloca %"class.std::vector.11"*, align 8
  store %"class.std::vector.11"* %this, %"class.std::vector.11"** %this.addr, align 8
  call void @llvm.dbg.declare(metadata %"class.std::vector.11"** %this.addr, metadata !5738, metadata !DIExpression()), !dbg !5739
  %this1 = load %"class.std::vector.11"*, %"class.std::vector.11"** %this.addr, align 8
  %0 = bitcast %"class.std::vector.11"* %this1 to %"struct.std::_Vector_base.12"*, !dbg !5740
  %_M_impl = getelementptr inbounds %"struct.std::_Vector_base.12", %"struct.std::_Vector_base.12"* %0, i32 0, i32 0, !dbg !5740
  %1 = bitcast %"struct.std::_Vector_base<unsigned long long, std::allocator<unsigned long long> >::_Vector_impl"* %_M_impl to %"struct.std::_Vector_base<unsigned long long, std::allocator<unsigned long long> >::_Vector_impl_data"*, !dbg !5741
  %_M_finish = getelementptr inbounds %"struct.std::_Vector_base<unsigned long long, std::allocator<unsigned long long> >::_Vector_impl_data", %"struct.std::_Vector_base<unsigned long long, std::allocator<unsigned long long> >::_Vector_impl_data"* %1, i32 0, i32 1, !dbg !5742
  call void @_ZN9__gnu_cxx17__normal_iteratorIPKySt6vectorIySaIyEEEC2ERKS2_(%"class.__gnu_cxx::__normal_iterator.24"* %retval, i64** dereferenceable(8) %_M_finish) #3, !dbg !5743
  %coerce.dive = getelementptr inbounds %"class.__gnu_cxx::__normal_iterator.24", %"class.__gnu_cxx::__normal_iterator.24"* %retval, i32 0, i32 0, !dbg !5744
  %2 = load i64*, i64** %coerce.dive, align 8, !dbg !5744
  ret i64* %2, !dbg !5744
}

; Function Attrs: noinline nounwind uwtable
define linkonce_odr dso_local dereferenceable(1) %"class.std::allocator.13"* @_ZNSt12_Vector_baseIySaIyEE19_M_get_Tp_allocatorEv(%"struct.std::_Vector_base.12"* %this) #5 comdat align 2 !dbg !5745 {
entry:
  %this.addr = alloca %"struct.std::_Vector_base.12"*, align 8
  store %"struct.std::_Vector_base.12"* %this, %"struct.std::_Vector_base.12"** %this.addr, align 8
  call void @llvm.dbg.declare(metadata %"struct.std::_Vector_base.12"** %this.addr, metadata !5746, metadata !DIExpression()), !dbg !5747
  %this1 = load %"struct.std::_Vector_base.12"*, %"struct.std::_Vector_base.12"** %this.addr, align 8
  %_M_impl = getelementptr inbounds %"struct.std::_Vector_base.12", %"struct.std::_Vector_base.12"* %this1, i32 0, i32 0, !dbg !5748
  %0 = bitcast %"struct.std::_Vector_base<unsigned long long, std::allocator<unsigned long long> >::_Vector_impl"* %_M_impl to %"class.std::allocator.13"*, !dbg !5749
  ret %"class.std::allocator.13"* %0, !dbg !5750
}

; Function Attrs: noinline nounwind uwtable
define linkonce_odr dso_local void @_ZNSt12_Vector_baseIySaIyEED2Ev(%"struct.std::_Vector_base.12"* %this) unnamed_addr #5 comdat align 2 personality i8* bitcast (i32 (...)* @__gxx_personality_v0 to i8*) !dbg !5751 {
entry:
  %this.addr = alloca %"struct.std::_Vector_base.12"*, align 8
  %exn.slot = alloca i8*
  %ehselector.slot = alloca i32
  store %"struct.std::_Vector_base.12"* %this, %"struct.std::_Vector_base.12"** %this.addr, align 8
  call void @llvm.dbg.declare(metadata %"struct.std::_Vector_base.12"** %this.addr, metadata !5752, metadata !DIExpression()), !dbg !5753
  %this1 = load %"struct.std::_Vector_base.12"*, %"struct.std::_Vector_base.12"** %this.addr, align 8
  %_M_impl = getelementptr inbounds %"struct.std::_Vector_base.12", %"struct.std::_Vector_base.12"* %this1, i32 0, i32 0, !dbg !5754
  %0 = bitcast %"struct.std::_Vector_base<unsigned long long, std::allocator<unsigned long long> >::_Vector_impl"* %_M_impl to %"struct.std::_Vector_base<unsigned long long, std::allocator<unsigned long long> >::_Vector_impl_data"*, !dbg !5754
  %_M_start = getelementptr inbounds %"struct.std::_Vector_base<unsigned long long, std::allocator<unsigned long long> >::_Vector_impl_data", %"struct.std::_Vector_base<unsigned long long, std::allocator<unsigned long long> >::_Vector_impl_data"* %0, i32 0, i32 0, !dbg !5756
  %1 = load i64*, i64** %_M_start, align 8, !dbg !5756
  %_M_impl2 = getelementptr inbounds %"struct.std::_Vector_base.12", %"struct.std::_Vector_base.12"* %this1, i32 0, i32 0, !dbg !5757
  %2 = bitcast %"struct.std::_Vector_base<unsigned long long, std::allocator<unsigned long long> >::_Vector_impl"* %_M_impl2 to %"struct.std::_Vector_base<unsigned long long, std::allocator<unsigned long long> >::_Vector_impl_data"*, !dbg !5757
  %_M_end_of_storage = getelementptr inbounds %"struct.std::_Vector_base<unsigned long long, std::allocator<unsigned long long> >::_Vector_impl_data", %"struct.std::_Vector_base<unsigned long long, std::allocator<unsigned long long> >::_Vector_impl_data"* %2, i32 0, i32 2, !dbg !5758
  %3 = load i64*, i64** %_M_end_of_storage, align 8, !dbg !5758
  %_M_impl3 = getelementptr inbounds %"struct.std::_Vector_base.12", %"struct.std::_Vector_base.12"* %this1, i32 0, i32 0, !dbg !5759
  %4 = bitcast %"struct.std::_Vector_base<unsigned long long, std::allocator<unsigned long long> >::_Vector_impl"* %_M_impl3 to %"struct.std::_Vector_base<unsigned long long, std::allocator<unsigned long long> >::_Vector_impl_data"*, !dbg !5759
  %_M_start4 = getelementptr inbounds %"struct.std::_Vector_base<unsigned long long, std::allocator<unsigned long long> >::_Vector_impl_data", %"struct.std::_Vector_base<unsigned long long, std::allocator<unsigned long long> >::_Vector_impl_data"* %4, i32 0, i32 0, !dbg !5760
  %5 = load i64*, i64** %_M_start4, align 8, !dbg !5760
  %sub.ptr.lhs.cast = ptrtoint i64* %3 to i64, !dbg !5761
  %sub.ptr.rhs.cast = ptrtoint i64* %5 to i64, !dbg !5761
  %sub.ptr.sub = sub i64 %sub.ptr.lhs.cast, %sub.ptr.rhs.cast, !dbg !5761
  %sub.ptr.div = sdiv exact i64 %sub.ptr.sub, 8, !dbg !5761
  invoke void @_ZNSt12_Vector_baseIySaIyEE13_M_deallocateEPym(%"struct.std::_Vector_base.12"* %this1, i64* %1, i64 %sub.ptr.div)
          to label %invoke.cont unwind label %lpad, !dbg !5762

invoke.cont:                                      ; preds = %entry
  %_M_impl5 = getelementptr inbounds %"struct.std::_Vector_base.12", %"struct.std::_Vector_base.12"* %this1, i32 0, i32 0, !dbg !5763
  call void @_ZNSt12_Vector_baseIySaIyEE12_Vector_implD2Ev(%"struct.std::_Vector_base<unsigned long long, std::allocator<unsigned long long> >::_Vector_impl"* %_M_impl5) #3, !dbg !5763
  ret void, !dbg !5764

lpad:                                             ; preds = %entry
  %6 = landingpad { i8*, i32 }
          catch i8* null, !dbg !5763
  %7 = extractvalue { i8*, i32 } %6, 0, !dbg !5763
  store i8* %7, i8** %exn.slot, align 8, !dbg !5763
  %8 = extractvalue { i8*, i32 } %6, 1, !dbg !5763
  store i32 %8, i32* %ehselector.slot, align 4, !dbg !5763
  %_M_impl6 = getelementptr inbounds %"struct.std::_Vector_base.12", %"struct.std::_Vector_base.12"* %this1, i32 0, i32 0, !dbg !5763
  call void @_ZNSt12_Vector_baseIySaIyEE12_Vector_implD2Ev(%"struct.std::_Vector_base<unsigned long long, std::allocator<unsigned long long> >::_Vector_impl"* %_M_impl6) #3, !dbg !5763
  br label %terminate.handler, !dbg !5763

terminate.handler:                                ; preds = %lpad
  %exn = load i8*, i8** %exn.slot, align 8, !dbg !5763
  call void @__clang_call_terminate(i8* %exn) #17, !dbg !5763
  unreachable, !dbg !5763
}

; Function Attrs: noinline nounwind uwtable
define linkonce_odr dso_local void @_ZNSt16allocator_traitsISaIyEE37select_on_container_copy_constructionERKS0_(%"class.std::allocator.13"* noalias sret %agg.result, %"class.std::allocator.13"* dereferenceable(1) %__rhs) #5 comdat align 2 !dbg !5765 {
entry:
  %result.ptr = alloca i8*, align 8
  %__rhs.addr = alloca %"class.std::allocator.13"*, align 8
  %0 = bitcast %"class.std::allocator.13"* %agg.result to i8*
  store i8* %0, i8** %result.ptr, align 8
  store %"class.std::allocator.13"* %__rhs, %"class.std::allocator.13"** %__rhs.addr, align 8
  call void @llvm.dbg.declare(metadata %"class.std::allocator.13"** %__rhs.addr, metadata !5766, metadata !DIExpression()), !dbg !5767
  %1 = load %"class.std::allocator.13"*, %"class.std::allocator.13"** %__rhs.addr, align 8, !dbg !5768
  call void @_ZNSaIyEC2ERKS_(%"class.std::allocator.13"* %agg.result, %"class.std::allocator.13"* dereferenceable(1) %1) #3, !dbg !5768
  ret void, !dbg !5769
}

; Function Attrs: noinline nounwind uwtable
define linkonce_odr dso_local void @_ZNSaIyEC2ERKS_(%"class.std::allocator.13"* %this, %"class.std::allocator.13"* dereferenceable(1) %__a) unnamed_addr #5 comdat align 2 !dbg !5770 {
entry:
  %this.addr = alloca %"class.std::allocator.13"*, align 8
  %__a.addr = alloca %"class.std::allocator.13"*, align 8
  store %"class.std::allocator.13"* %this, %"class.std::allocator.13"** %this.addr, align 8
  call void @llvm.dbg.declare(metadata %"class.std::allocator.13"** %this.addr, metadata !5771, metadata !DIExpression()), !dbg !5772
  store %"class.std::allocator.13"* %__a, %"class.std::allocator.13"** %__a.addr, align 8
  call void @llvm.dbg.declare(metadata %"class.std::allocator.13"** %__a.addr, metadata !5773, metadata !DIExpression()), !dbg !5774
  %this1 = load %"class.std::allocator.13"*, %"class.std::allocator.13"** %this.addr, align 8
  %0 = bitcast %"class.std::allocator.13"* %this1 to %"class.__gnu_cxx::new_allocator.14"*, !dbg !5775
  %1 = load %"class.std::allocator.13"*, %"class.std::allocator.13"** %__a.addr, align 8, !dbg !5776
  %2 = bitcast %"class.std::allocator.13"* %1 to %"class.__gnu_cxx::new_allocator.14"*, !dbg !5776
  call void @_ZN9__gnu_cxx13new_allocatorIyEC2ERKS1_(%"class.__gnu_cxx::new_allocator.14"* %0, %"class.__gnu_cxx::new_allocator.14"* dereferenceable(1) %2) #3, !dbg !5777
  ret void, !dbg !5778
}

; Function Attrs: noinline nounwind uwtable
define linkonce_odr dso_local void @_ZN9__gnu_cxx13new_allocatorIyEC2ERKS1_(%"class.__gnu_cxx::new_allocator.14"* %this, %"class.__gnu_cxx::new_allocator.14"* dereferenceable(1) %0) unnamed_addr #5 comdat align 2 !dbg !5779 {
entry:
  %this.addr = alloca %"class.__gnu_cxx::new_allocator.14"*, align 8
  %.addr = alloca %"class.__gnu_cxx::new_allocator.14"*, align 8
  store %"class.__gnu_cxx::new_allocator.14"* %this, %"class.__gnu_cxx::new_allocator.14"** %this.addr, align 8
  call void @llvm.dbg.declare(metadata %"class.__gnu_cxx::new_allocator.14"** %this.addr, metadata !5780, metadata !DIExpression()), !dbg !5782
  store %"class.__gnu_cxx::new_allocator.14"* %0, %"class.__gnu_cxx::new_allocator.14"** %.addr, align 8
  call void @llvm.dbg.declare(metadata %"class.__gnu_cxx::new_allocator.14"** %.addr, metadata !5783, metadata !DIExpression()), !dbg !5784
  %this1 = load %"class.__gnu_cxx::new_allocator.14"*, %"class.__gnu_cxx::new_allocator.14"** %this.addr, align 8
  ret void, !dbg !5785
}

; Function Attrs: noinline nounwind uwtable
define linkonce_odr dso_local void @_ZNSt12_Vector_baseIySaIyEE12_Vector_implC2ERKS0_(%"struct.std::_Vector_base<unsigned long long, std::allocator<unsigned long long> >::_Vector_impl"* %this, %"class.std::allocator.13"* dereferenceable(1) %__a) unnamed_addr #5 comdat align 2 !dbg !5786 {
entry:
  %this.addr = alloca %"struct.std::_Vector_base<unsigned long long, std::allocator<unsigned long long> >::_Vector_impl"*, align 8
  %__a.addr = alloca %"class.std::allocator.13"*, align 8
  store %"struct.std::_Vector_base<unsigned long long, std::allocator<unsigned long long> >::_Vector_impl"* %this, %"struct.std::_Vector_base<unsigned long long, std::allocator<unsigned long long> >::_Vector_impl"** %this.addr, align 8
  call void @llvm.dbg.declare(metadata %"struct.std::_Vector_base<unsigned long long, std::allocator<unsigned long long> >::_Vector_impl"** %this.addr, metadata !5787, metadata !DIExpression()), !dbg !5789
  store %"class.std::allocator.13"* %__a, %"class.std::allocator.13"** %__a.addr, align 8
  call void @llvm.dbg.declare(metadata %"class.std::allocator.13"** %__a.addr, metadata !5790, metadata !DIExpression()), !dbg !5791
  %this1 = load %"struct.std::_Vector_base<unsigned long long, std::allocator<unsigned long long> >::_Vector_impl"*, %"struct.std::_Vector_base<unsigned long long, std::allocator<unsigned long long> >::_Vector_impl"** %this.addr, align 8
  %0 = bitcast %"struct.std::_Vector_base<unsigned long long, std::allocator<unsigned long long> >::_Vector_impl"* %this1 to %"class.std::allocator.13"*, !dbg !5792
  %1 = load %"class.std::allocator.13"*, %"class.std::allocator.13"** %__a.addr, align 8, !dbg !5793
  call void @_ZNSaIyEC2ERKS_(%"class.std::allocator.13"* %0, %"class.std::allocator.13"* dereferenceable(1) %1) #3, !dbg !5794
  %2 = bitcast %"struct.std::_Vector_base<unsigned long long, std::allocator<unsigned long long> >::_Vector_impl"* %this1 to %"struct.std::_Vector_base<unsigned long long, std::allocator<unsigned long long> >::_Vector_impl_data"*, !dbg !5792
  call void @_ZNSt12_Vector_baseIySaIyEE17_Vector_impl_dataC2Ev(%"struct.std::_Vector_base<unsigned long long, std::allocator<unsigned long long> >::_Vector_impl_data"* %2) #3, !dbg !5795
  ret void, !dbg !5796
}

; Function Attrs: noinline uwtable
define linkonce_odr dso_local void @_ZNSt12_Vector_baseIySaIyEE17_M_create_storageEm(%"struct.std::_Vector_base.12"* %this, i64 %__n) #0 comdat align 2 !dbg !5797 {
entry:
  %this.addr = alloca %"struct.std::_Vector_base.12"*, align 8
  %__n.addr = alloca i64, align 8
  store %"struct.std::_Vector_base.12"* %this, %"struct.std::_Vector_base.12"** %this.addr, align 8
  call void @llvm.dbg.declare(metadata %"struct.std::_Vector_base.12"** %this.addr, metadata !5798, metadata !DIExpression()), !dbg !5799
  store i64 %__n, i64* %__n.addr, align 8
  call void @llvm.dbg.declare(metadata i64* %__n.addr, metadata !5800, metadata !DIExpression()), !dbg !5801
  %this1 = load %"struct.std::_Vector_base.12"*, %"struct.std::_Vector_base.12"** %this.addr, align 8
  %0 = load i64, i64* %__n.addr, align 8, !dbg !5802
  %call = call i64* @_ZNSt12_Vector_baseIySaIyEE11_M_allocateEm(%"struct.std::_Vector_base.12"* %this1, i64 %0), !dbg !5803
  %_M_impl = getelementptr inbounds %"struct.std::_Vector_base.12", %"struct.std::_Vector_base.12"* %this1, i32 0, i32 0, !dbg !5804
  %1 = bitcast %"struct.std::_Vector_base<unsigned long long, std::allocator<unsigned long long> >::_Vector_impl"* %_M_impl to %"struct.std::_Vector_base<unsigned long long, std::allocator<unsigned long long> >::_Vector_impl_data"*, !dbg !5805
  %_M_start = getelementptr inbounds %"struct.std::_Vector_base<unsigned long long, std::allocator<unsigned long long> >::_Vector_impl_data", %"struct.std::_Vector_base<unsigned long long, std::allocator<unsigned long long> >::_Vector_impl_data"* %1, i32 0, i32 0, !dbg !5806
  store i64* %call, i64** %_M_start, align 8, !dbg !5807
  %_M_impl2 = getelementptr inbounds %"struct.std::_Vector_base.12", %"struct.std::_Vector_base.12"* %this1, i32 0, i32 0, !dbg !5808
  %2 = bitcast %"struct.std::_Vector_base<unsigned long long, std::allocator<unsigned long long> >::_Vector_impl"* %_M_impl2 to %"struct.std::_Vector_base<unsigned long long, std::allocator<unsigned long long> >::_Vector_impl_data"*, !dbg !5809
  %_M_start3 = getelementptr inbounds %"struct.std::_Vector_base<unsigned long long, std::allocator<unsigned long long> >::_Vector_impl_data", %"struct.std::_Vector_base<unsigned long long, std::allocator<unsigned long long> >::_Vector_impl_data"* %2, i32 0, i32 0, !dbg !5810
  %3 = load i64*, i64** %_M_start3, align 8, !dbg !5810
  %_M_impl4 = getelementptr inbounds %"struct.std::_Vector_base.12", %"struct.std::_Vector_base.12"* %this1, i32 0, i32 0, !dbg !5811
  %4 = bitcast %"struct.std::_Vector_base<unsigned long long, std::allocator<unsigned long long> >::_Vector_impl"* %_M_impl4 to %"struct.std::_Vector_base<unsigned long long, std::allocator<unsigned long long> >::_Vector_impl_data"*, !dbg !5812
  %_M_finish = getelementptr inbounds %"struct.std::_Vector_base<unsigned long long, std::allocator<unsigned long long> >::_Vector_impl_data", %"struct.std::_Vector_base<unsigned long long, std::allocator<unsigned long long> >::_Vector_impl_data"* %4, i32 0, i32 1, !dbg !5813
  store i64* %3, i64** %_M_finish, align 8, !dbg !5814
  %_M_impl5 = getelementptr inbounds %"struct.std::_Vector_base.12", %"struct.std::_Vector_base.12"* %this1, i32 0, i32 0, !dbg !5815
  %5 = bitcast %"struct.std::_Vector_base<unsigned long long, std::allocator<unsigned long long> >::_Vector_impl"* %_M_impl5 to %"struct.std::_Vector_base<unsigned long long, std::allocator<unsigned long long> >::_Vector_impl_data"*, !dbg !5816
  %_M_start6 = getelementptr inbounds %"struct.std::_Vector_base<unsigned long long, std::allocator<unsigned long long> >::_Vector_impl_data", %"struct.std::_Vector_base<unsigned long long, std::allocator<unsigned long long> >::_Vector_impl_data"* %5, i32 0, i32 0, !dbg !5817
  %6 = load i64*, i64** %_M_start6, align 8, !dbg !5817
  %7 = load i64, i64* %__n.addr, align 8, !dbg !5818
  %add.ptr = getelementptr inbounds i64, i64* %6, i64 %7, !dbg !5819
  %_M_impl7 = getelementptr inbounds %"struct.std::_Vector_base.12", %"struct.std::_Vector_base.12"* %this1, i32 0, i32 0, !dbg !5820
  %8 = bitcast %"struct.std::_Vector_base<unsigned long long, std::allocator<unsigned long long> >::_Vector_impl"* %_M_impl7 to %"struct.std::_Vector_base<unsigned long long, std::allocator<unsigned long long> >::_Vector_impl_data"*, !dbg !5821
  %_M_end_of_storage = getelementptr inbounds %"struct.std::_Vector_base<unsigned long long, std::allocator<unsigned long long> >::_Vector_impl_data", %"struct.std::_Vector_base<unsigned long long, std::allocator<unsigned long long> >::_Vector_impl_data"* %8, i32 0, i32 2, !dbg !5822
  store i64* %add.ptr, i64** %_M_end_of_storage, align 8, !dbg !5823
  ret void, !dbg !5824
}

; Function Attrs: noinline nounwind uwtable
