; ModuleID = 'UCTSearch.cpp'
source_filename = "UCTSearch.cpp"
target datalayout = "e-m:e-p270:32:32-p271:32:32-p272:64:64-i64:64-f80:128-n8:16:32:64-S128"
target triple = "x86_64-unknown-linux-gnu"

%class.UCTSearch = type <{ %class.GameState*, %class.UCTNode, i32, i32, float, i8, i8, [2 x i8], i8*, i8, i8, [6 x i8] }>
%class.UCTNode = type { %class.UCTNode*, %class.UCTNode*, i32, i32, i32, i32, i32, i8, i32, %"class.SMP::Mutex" }
%"class.SMP::Mutex" = type { i64 }
%class.GameState = type <{ %class.KoState, %"class.std::vector.12", %class.TimeControl, [4 x i8] }>
%class.KoState = type { %class.FastState.base, %"class.std::vector.7", %"class.std::vector.7" }
%class.FastState.base = type <{ %class.FullBoard, float, i32, i32, i32, i32, i32, i32, %"class.boost::array.5", %"class.boost::array.6" }>
%class.FullBoard = type { %class.FastBoard.base, i64, i64 }
%class.FastBoard.base = type <{ %"class.boost::array", %"class.boost::array", i32, i32, i32, %"class.boost::array.0", %"class.boost::array.1", %"class.boost::array.1", %"class.boost::array.1", %"class.boost::array.1", %"class.boost::array", [2 x i8], %"class.boost::array.2", %"class.boost::array.3", %"class.boost::array.4", %"class.boost::array.4", %"class.std::vector", i32 }>
%"class.boost::array.0" = type { [441 x i32] }
%"class.boost::array.1" = type { [442 x i16] }
%"class.boost::array" = type { [441 x i16] }
%"class.boost::array.2" = type { [4 x i32] }
%"class.boost::array.3" = type { [8 x i32] }
%"class.boost::array.4" = type { [2 x i32] }
%"class.std::vector" = type { %"struct.std::_Vector_base" }
%"struct.std::_Vector_base" = type { %"struct.std::_Vector_base<int, std::allocator<int> >::_Vector_impl" }
%"struct.std::_Vector_base<int, std::allocator<int> >::_Vector_impl" = type { %"struct.std::_Vector_base<int, std::allocator<int> >::_Vector_impl_data" }
%"struct.std::_Vector_base<int, std::allocator<int> >::_Vector_impl_data" = type { i32*, i32*, i32* }
%"class.boost::array.5" = type { [24 x i32] }
%"class.boost::array.6" = type { [24 x %"struct.std::pair"] }
%"struct.std::pair" = type { i32, i32 }
%"class.std::vector.7" = type { %"struct.std::_Vector_base.8" }
%"struct.std::_Vector_base.8" = type { %"struct.std::_Vector_base<unsigned long long, std::allocator<unsigned long long> >::_Vector_impl" }
%"struct.std::_Vector_base<unsigned long long, std::allocator<unsigned long long> >::_Vector_impl" = type { %"struct.std::_Vector_base<unsigned long long, std::allocator<unsigned long long> >::_Vector_impl_data" }
%"struct.std::_Vector_base<unsigned long long, std::allocator<unsigned long long> >::_Vector_impl_data" = type { i64*, i64*, i64* }
%"class.std::vector.12" = type { %"struct.std::_Vector_base.13" }
%"struct.std::_Vector_base.13" = type { %"struct.std::_Vector_base<KoState, std::allocator<KoState> >::_Vector_impl" }
%"struct.std::_Vector_base<KoState, std::allocator<KoState> >::_Vector_impl" = type { %"struct.std::_Vector_base<KoState, std::allocator<KoState> >::_Vector_impl_data" }
%"struct.std::_Vector_base<KoState, std::allocator<KoState> >::_Vector_impl_data" = type { %class.KoState*, %class.KoState*, %class.KoState* }
%class.TimeControl = type { i32, i32, i32, i32, %"class.boost::array.4", %"class.boost::array.4", %"class.boost::array.17", %"class.boost::array.18" }
%"class.boost::array.17" = type { [2 x i8] }
%"class.boost::array.18" = type { [2 x %class.Time] }
%class.Time = type { i32 }
%class.FastState = type <{ %class.FullBoard, float, i32, i32, i32, i32, i32, i32, %"class.boost::array.5", %"class.boost::array.6", [4 x i8] }>
%class.Playout = type { i8, float, %"class.boost::array.19" }
%"class.boost::array.19" = type { [2 x %"class.std::bitset"] }
%"class.std::bitset" = type { %"struct.std::_Base_bitset" }
%"struct.std::_Base_bitset" = type { [7 x i64] }
%class.TTable = type { %"class.std::vector.20", %"class.SMP::Mutex" }
%"class.std::vector.20" = type { %"struct.std::_Vector_base.21" }
%"struct.std::_Vector_base.21" = type { %"struct.std::_Vector_base<TTEntry, std::allocator<TTEntry> >::_Vector_impl" }
%"struct.std::_Vector_base<TTEntry, std::allocator<TTEntry> >::_Vector_impl" = type { %"struct.std::_Vector_base<TTEntry, std::allocator<TTEntry> >::_Vector_impl_data" }
%"struct.std::_Vector_base<TTEntry, std::allocator<TTEntry> >::_Vector_impl_data" = type { %class.TTEntry*, %class.TTEntry*, %class.TTEntry* }
%class.TTEntry = type { i64, float, i32 }
%"class.std::__cxx11::basic_string" = type { %"struct.std::__cxx11::basic_string<char, std::char_traits<char>, std::allocator<char> >::_Alloc_hider", i64, %union.anon }
%"struct.std::__cxx11::basic_string<char, std::char_traits<char>, std::allocator<char> >::_Alloc_hider" = type { i8* }
%union.anon = type { i64, [8 x i8] }
%class.FastBoard = type <{ %"class.boost::array", %"class.boost::array", i32, i32, i32, %"class.boost::array.0", %"class.boost::array.1", %"class.boost::array.1", %"class.boost::array.1", %"class.boost::array.1", %"class.boost::array", [2 x i8], %"class.boost::array.2", %"class.boost::array.3", %"class.boost::array.4", %"class.boost::array.4", %"class.std::vector", i32, [4 x i8] }>
%class.UCTWorker = type { %class.GameState*, %class.UCTNode*, %class.UCTSearch* }
%class.Random = type { i32, i32, i32 }
%"class.std::allocator.14" = type { i8 }
%"class.__gnu_cxx::__normal_iterator.29" = type { %class.KoState* }
%"class.std::allocator.9" = type { i8 }
%"class.__gnu_cxx::__normal_iterator.28" = type { i64* }
%"class.std::allocator" = type { i8 }
%"class.__gnu_cxx::__normal_iterator" = type { i32* }
%"class.__gnu_cxx::new_allocator" = type { i8 }
%"class.__gnu_cxx::new_allocator.10" = type { i8 }
%"class.__gnu_cxx::new_allocator.15" = type { i8 }

$_ZN9GameStateC2ERKS_ = comdat any

$_ZN9GameStateD2Ev = comdat any

$_ZSt3maxIfERKT_S2_S2_ = comdat any

$_ZSt3minIfERKT_S2_S2_ = comdat any

$_ZN7KoStateC2ERKS_ = comdat any

$_ZN7KoStateD2Ev = comdat any

$_ZNSt6vectorI7KoStateSaIS0_EEC2ERKS2_ = comdat any

$_ZN9FastStateC2ERKS_ = comdat any

$_ZNSt6vectorIySaIyEEC2ERKS1_ = comdat any

$_ZNSt6vectorIySaIyEED2Ev = comdat any

$_ZN9FastStateD2Ev = comdat any

$_ZN9FullBoardC2ERKS_ = comdat any

$_ZN9FastBoardC2ERKS_ = comdat any

$_ZNSt6vectorIiSaIiEEC2ERKS1_ = comdat any

$_ZNKSt6vectorIiSaIiEE4sizeEv = comdat any

$_ZN9__gnu_cxx14__alloc_traitsISaIiEiE17_S_select_on_copyERKS1_ = comdat any

$_ZNKSt12_Vector_baseIiSaIiEE19_M_get_Tp_allocatorEv = comdat any

$_ZNSt12_Vector_baseIiSaIiEEC2EmRKS0_ = comdat any

$_ZNSaIiED2Ev = comdat any

$_ZSt22__uninitialized_copy_aIN9__gnu_cxx17__normal_iteratorIPKiSt6vectorIiSaIiEEEEPiiET0_T_SA_S9_RSaIT1_E = comdat any

$_ZNKSt6vectorIiSaIiEE5beginEv = comdat any

$_ZNKSt6vectorIiSaIiEE3endEv = comdat any

$_ZNSt12_Vector_baseIiSaIiEE19_M_get_Tp_allocatorEv = comdat any

$_ZNSt12_Vector_baseIiSaIiEED2Ev = comdat any

$_ZNSt16allocator_traitsISaIiEE37select_on_container_copy_constructionERKS0_ = comdat any

$_ZNSaIiEC2ERKS_ = comdat any

$_ZN9__gnu_cxx13new_allocatorIiEC2ERKS1_ = comdat any

$_ZNSt12_Vector_baseIiSaIiEE12_Vector_implC2ERKS0_ = comdat any

$_ZNSt12_Vector_baseIiSaIiEE17_M_create_storageEm = comdat any

$_ZNSt12_Vector_baseIiSaIiEE12_Vector_implD2Ev = comdat any

$_ZNSt12_Vector_baseIiSaIiEE17_Vector_impl_dataC2Ev = comdat any

$_ZNSt12_Vector_baseIiSaIiEE11_M_allocateEm = comdat any

$_ZNSt16allocator_traitsISaIiEE8allocateERS0_m = comdat any

$_ZN9__gnu_cxx13new_allocatorIiE8allocateEmPKv = comdat any

$_ZNK9__gnu_cxx13new_allocatorIiE11_M_max_sizeEv = comdat any

$_ZN9__gnu_cxx13new_allocatorIiED2Ev = comdat any

$_ZSt18uninitialized_copyIN9__gnu_cxx17__normal_iteratorIPKiSt6vectorIiSaIiEEEEPiET0_T_SA_S9_ = comdat any

$_ZNSt20__uninitialized_copyILb1EE13__uninit_copyIN9__gnu_cxx17__normal_iteratorIPKiSt6vectorIiSaIiEEEEPiEET0_T_SC_SB_ = comdat any

$_ZSt4copyIN9__gnu_cxx17__normal_iteratorIPKiSt6vectorIiSaIiEEEEPiET0_T_SA_S9_ = comdat any

$_ZSt13__copy_move_aILb0EN9__gnu_cxx17__normal_iteratorIPKiSt6vectorIiSaIiEEEEPiET1_T0_SA_S9_ = comdat any

$_ZSt12__miter_baseIN9__gnu_cxx17__normal_iteratorIPKiSt6vectorIiSaIiEEEEET_S8_ = comdat any

$_ZSt12__niter_wrapIPiET_RKS1_S1_ = comdat any

$_ZSt14__copy_move_a1ILb0EPKiPiET1_T0_S4_S3_ = comdat any

$_ZSt12__niter_baseIPKiSt6vectorIiSaIiEEET_N9__gnu_cxx17__normal_iteratorIS5_T0_EE = comdat any

$_ZSt12__niter_baseIPiET_S1_ = comdat any

$_ZSt14__copy_move_a2ILb0EPKiPiET1_T0_S4_S3_ = comdat any

$_ZNSt11__copy_moveILb0ELb1ESt26random_access_iterator_tagE8__copy_mIiEEPT_PKS3_S6_S4_ = comdat any

$_ZNK9__gnu_cxx17__normal_iteratorIPKiSt6vectorIiSaIiEEE4baseEv = comdat any

$_ZN9__gnu_cxx17__normal_iteratorIPKiSt6vectorIiSaIiEEEC2ERKS2_ = comdat any

$_ZNSt12_Vector_baseIiSaIiEE13_M_deallocateEPim = comdat any

$__clang_call_terminate = comdat any

$_ZNSt16allocator_traitsISaIiEE10deallocateERS0_Pim = comdat any

$_ZN9__gnu_cxx13new_allocatorIiE10deallocateEPim = comdat any

$_ZNKSt6vectorIySaIyEE4sizeEv = comdat any

$_ZN9__gnu_cxx14__alloc_traitsISaIyEyE17_S_select_on_copyERKS1_ = comdat any

$_ZNKSt12_Vector_baseIySaIyEE19_M_get_Tp_allocatorEv = comdat any

$_ZNSt12_Vector_baseIySaIyEEC2EmRKS0_ = comdat any

$_ZNSaIyED2Ev = comdat any

$_ZSt22__uninitialized_copy_aIN9__gnu_cxx17__normal_iteratorIPKySt6vectorIySaIyEEEEPyyET0_T_SA_S9_RSaIT1_E = comdat any

$_ZNKSt6vectorIySaIyEE5beginEv = comdat any

$_ZNKSt6vectorIySaIyEE3endEv = comdat any

$_ZNSt12_Vector_baseIySaIyEE19_M_get_Tp_allocatorEv = comdat any

$_ZNSt12_Vector_baseIySaIyEED2Ev = comdat any

$_ZNSt16allocator_traitsISaIyEE37select_on_container_copy_constructionERKS0_ = comdat any

$_ZNSaIyEC2ERKS_ = comdat any

$_ZN9__gnu_cxx13new_allocatorIyEC2ERKS1_ = comdat any

$_ZNSt12_Vector_baseIySaIyEE12_Vector_implC2ERKS0_ = comdat any

$_ZNSt12_Vector_baseIySaIyEE17_M_create_storageEm = comdat any

$_ZNSt12_Vector_baseIySaIyEE12_Vector_implD2Ev = comdat any

$_ZNSt12_Vector_baseIySaIyEE17_Vector_impl_dataC2Ev = comdat any

$_ZNSt12_Vector_baseIySaIyEE11_M_allocateEm = comdat any

$_ZNSt16allocator_traitsISaIyEE8allocateERS0_m = comdat any

$_ZN9__gnu_cxx13new_allocatorIyE8allocateEmPKv = comdat any

$_ZNK9__gnu_cxx13new_allocatorIyE11_M_max_sizeEv = comdat any

$_ZN9__gnu_cxx13new_allocatorIyED2Ev = comdat any

$_ZSt18uninitialized_copyIN9__gnu_cxx17__normal_iteratorIPKySt6vectorIySaIyEEEEPyET0_T_SA_S9_ = comdat any

$_ZNSt20__uninitialized_copyILb1EE13__uninit_copyIN9__gnu_cxx17__normal_iteratorIPKySt6vectorIySaIyEEEEPyEET0_T_SC_SB_ = comdat any

$_ZSt4copyIN9__gnu_cxx17__normal_iteratorIPKySt6vectorIySaIyEEEEPyET0_T_SA_S9_ = comdat any

$_ZSt13__copy_move_aILb0EN9__gnu_cxx17__normal_iteratorIPKySt6vectorIySaIyEEEEPyET1_T0_SA_S9_ = comdat any

$_ZSt12__miter_baseIN9__gnu_cxx17__normal_iteratorIPKySt6vectorIySaIyEEEEET_S8_ = comdat any

$_ZSt12__niter_wrapIPyET_RKS1_S1_ = comdat any

$_ZSt14__copy_move_a1ILb0EPKyPyET1_T0_S4_S3_ = comdat any

$_ZSt12__niter_baseIPKySt6vectorIySaIyEEET_N9__gnu_cxx17__normal_iteratorIS5_T0_EE = comdat any

$_ZSt12__niter_baseIPyET_S1_ = comdat any

$_ZSt14__copy_move_a2ILb0EPKyPyET1_T0_S4_S3_ = comdat any

$_ZNSt11__copy_moveILb0ELb1ESt26random_access_iterator_tagE8__copy_mIyEEPT_PKS3_S6_S4_ = comdat any

$_ZNK9__gnu_cxx17__normal_iteratorIPKySt6vectorIySaIyEEE4baseEv = comdat any

$_ZN9__gnu_cxx17__normal_iteratorIPKySt6vectorIySaIyEEEC2ERKS2_ = comdat any

$_ZNSt12_Vector_baseIySaIyEE13_M_deallocateEPym = comdat any

$_ZNSt16allocator_traitsISaIyEE10deallocateERS0_Pym = comdat any

$_ZN9__gnu_cxx13new_allocatorIyE10deallocateEPym = comdat any

$_ZSt8_DestroyIPyyEvT_S1_RSaIT0_E = comdat any

$_ZSt8_DestroyIPyEvT_S1_ = comdat any

$_ZNSt12_Destroy_auxILb1EE9__destroyIPyEEvT_S3_ = comdat any

$_ZN9FullBoardD2Ev = comdat any

$_ZN9FastBoardD2Ev = comdat any

$_ZNSt6vectorIiSaIiEED2Ev = comdat any

$_ZSt8_DestroyIPiiEvT_S1_RSaIT0_E = comdat any

$_ZSt8_DestroyIPiEvT_S1_ = comdat any

$_ZNSt12_Destroy_auxILb1EE9__destroyIPiEEvT_S3_ = comdat any

$_ZNKSt6vectorI7KoStateSaIS0_EE4sizeEv = comdat any

$_ZN9__gnu_cxx14__alloc_traitsISaI7KoStateES1_E17_S_select_on_copyERKS2_ = comdat any

$_ZNKSt12_Vector_baseI7KoStateSaIS0_EE19_M_get_Tp_allocatorEv = comdat any

$_ZNSt12_Vector_baseI7KoStateSaIS0_EEC2EmRKS1_ = comdat any

$_ZNSaI7KoStateED2Ev = comdat any

$_ZSt22__uninitialized_copy_aIN9__gnu_cxx17__normal_iteratorIPK7KoStateSt6vectorIS2_SaIS2_EEEEPS2_S2_ET0_T_SB_SA_RSaIT1_E = comdat any

$_ZNKSt6vectorI7KoStateSaIS0_EE5beginEv = comdat any

$_ZNKSt6vectorI7KoStateSaIS0_EE3endEv = comdat any

$_ZNSt12_Vector_baseI7KoStateSaIS0_EE19_M_get_Tp_allocatorEv = comdat any

$_ZNSt12_Vector_baseI7KoStateSaIS0_EED2Ev = comdat any

$_ZNSt16allocator_traitsISaI7KoStateEE37select_on_container_copy_constructionERKS1_ = comdat any

$_ZNSaI7KoStateEC2ERKS0_ = comdat any

$_ZN9__gnu_cxx13new_allocatorI7KoStateEC2ERKS2_ = comdat any

$_ZNSt12_Vector_baseI7KoStateSaIS0_EE12_Vector_implC2ERKS1_ = comdat any

$_ZNSt12_Vector_baseI7KoStateSaIS0_EE17_M_create_storageEm = comdat any

$_ZNSt12_Vector_baseI7KoStateSaIS0_EE12_Vector_implD2Ev = comdat any

$_ZNSt12_Vector_baseI7KoStateSaIS0_EE17_Vector_impl_dataC2Ev = comdat any

$_ZNSt12_Vector_baseI7KoStateSaIS0_EE11_M_allocateEm = comdat any

$_ZNSt16allocator_traitsISaI7KoStateEE8allocateERS1_m = comdat any

$_ZN9__gnu_cxx13new_allocatorI7KoStateE8allocateEmPKv = comdat any

$_ZNK9__gnu_cxx13new_allocatorI7KoStateE11_M_max_sizeEv = comdat any

$_ZN9__gnu_cxx13new_allocatorI7KoStateED2Ev = comdat any

$_ZSt18uninitialized_copyIN9__gnu_cxx17__normal_iteratorIPK7KoStateSt6vectorIS2_SaIS2_EEEEPS2_ET0_T_SB_SA_ = comdat any

$_ZNSt20__uninitialized_copyILb0EE13__uninit_copyIN9__gnu_cxx17__normal_iteratorIPK7KoStateSt6vectorIS4_SaIS4_EEEEPS4_EET0_T_SD_SC_ = comdat any

$_ZN9__gnu_cxxneIPK7KoStateSt6vectorIS1_SaIS1_EEEEbRKNS_17__normal_iteratorIT_T0_EESC_ = comdat any

$_ZSt10_ConstructI7KoStateJRKS0_EEvPT_DpOT0_ = comdat any

$_ZSt11__addressofI7KoStateEPT_RS1_ = comdat any

$_ZNK9__gnu_cxx17__normal_iteratorIPK7KoStateSt6vectorIS1_SaIS1_EEEdeEv = comdat any

$_ZN9__gnu_cxx17__normal_iteratorIPK7KoStateSt6vectorIS1_SaIS1_EEEppEv = comdat any

$_ZSt8_DestroyIP7KoStateEvT_S2_ = comdat any

$_ZNK9__gnu_cxx17__normal_iteratorIPK7KoStateSt6vectorIS1_SaIS1_EEE4baseEv = comdat any

$_ZSt7forwardIRK7KoStateEOT_RNSt16remove_referenceIS3_E4typeE = comdat any

$_ZNSt12_Destroy_auxILb0EE9__destroyIP7KoStateEEvT_S4_ = comdat any

$_ZSt8_DestroyI7KoStateEvPT_ = comdat any

$_ZN9__gnu_cxx17__normal_iteratorIPK7KoStateSt6vectorIS1_SaIS1_EEEC2ERKS3_ = comdat any

$_ZNSt12_Vector_baseI7KoStateSaIS0_EE13_M_deallocateEPS0_m = comdat any

$_ZNSt16allocator_traitsISaI7KoStateEE10deallocateERS1_PS0_m = comdat any

$_ZN9__gnu_cxx13new_allocatorI7KoStateE10deallocateEPS1_m = comdat any

$_ZNSt6vectorI7KoStateSaIS0_EED2Ev = comdat any

$_ZSt8_DestroyIP7KoStateS0_EvT_S2_RSaIT0_E = comdat any

@.str = private unnamed_addr constant [50 x i8] c"%4s -> %7d (U: %4.1f%%) (R: %4.1f%%: %7d) PV: %s \00", align 1
@.str.1 = private unnamed_addr constant [2 x i8] c"\0A\00", align 1
@.str.2 = private unnamed_addr constant [82 x i8] c"====================================\0A%d visits, score %4.1f%% (from %4.1f%%) PV: \00", align 1
@.str.3 = private unnamed_addr constant [25 x i8] c"Preferring not to pass.\0A\00", align 1
@.str.4 = private unnamed_addr constant [35 x i8] c"Pass is the only acceptable move.\0A\00", align 1
@.str.5 = private unnamed_addr constant [60 x i8] c"Preferring to pass since it's %5.2f%% compared to %5.2f%%.\0A\00", align 1
@.str.6 = private unnamed_addr constant [19 x i8] c"Passing loses :-(\0A\00", align 1
@.str.7 = private unnamed_addr constant [33 x i8] c"Avoiding pass because it loses.\0A\00", align 1
@.str.8 = private unnamed_addr constant [28 x i8] c"No alternative to passing.\0A\00", align 1
@.str.9 = private unnamed_addr constant [18 x i8] c"Passing wins :-)\0A\00", align 1
@.str.10 = private unnamed_addr constant [29 x i8] c"Score looks bad. Resigning.\0A\00", align 1
@.str.11 = private unnamed_addr constant [2 x i8] c" \00", align 1
@.str.12 = private unnamed_addr constant [33 x i8] c"Nodes: %d, Win: %4.1f%%, PV: %s\0A\00", align 1
@.str.13 = private unnamed_addr constant [23 x i8] c"\0A%d visits, %d nodes\0A\0A\00", align 1

@_ZN9UCTSearchC1ER9GameState = dso_local unnamed_addr alias void (%class.UCTSearch*, %class.GameState*), void (%class.UCTSearch*, %class.GameState*)* @_ZN9UCTSearchC2ER9GameState

; Function Attrs: noinline uwtable
define dso_local void @_ZN9UCTSearchC2ER9GameState(%class.UCTSearch* %this, %class.GameState* dereferenceable(8512) %g) unnamed_addr #0 align 2 !dbg !4354 {
entry:
  %this.addr = alloca %class.UCTSearch*, align 8
  %g.addr = alloca %class.GameState*, align 8
  store %class.UCTSearch* %this, %class.UCTSearch** %this.addr, align 8
  call void @llvm.dbg.declare(metadata %class.UCTSearch** %this.addr, metadata !4355, metadata !DIExpression()), !dbg !4357
  store %class.GameState* %g, %class.GameState** %g.addr, align 8
  call void @llvm.dbg.declare(metadata %class.GameState** %g.addr, metadata !4358, metadata !DIExpression()), !dbg !4359
  %this1 = load %class.UCTSearch*, %class.UCTSearch** %this.addr, align 8
  %m_rootstate = getelementptr inbounds %class.UCTSearch, %class.UCTSearch* %this1, i32 0, i32 0, !dbg !4360
  %0 = load %class.GameState*, %class.GameState** %g.addr, align 8, !dbg !4361
  store %class.GameState* %0, %class.GameState** %m_rootstate, align 8, !dbg !4360
  %m_root = getelementptr inbounds %class.UCTSearch, %class.UCTSearch* %this1, i32 0, i32 1, !dbg !4362
  %1 = load %class.GameState*, %class.GameState** %g.addr, align 8, !dbg !4363
  %2 = bitcast %class.GameState* %1 to %class.FastState*, !dbg !4363
  %call = call i32 @_ZN9FastState11get_to_moveEv(%class.FastState* %2), !dbg !4364
  call void @_ZN7UCTNodeC1Eii(%class.UCTNode* %m_root, i32 %call, i32 -1), !dbg !4362
  %m_nodes = getelementptr inbounds %class.UCTSearch, %class.UCTSearch* %this1, i32 0, i32 2, !dbg !4365
  store i32 0, i32* %m_nodes, align 8, !dbg !4365
  %m_maxvisits = getelementptr inbounds %class.UCTSearch, %class.UCTSearch* %this1, i32 0, i32 3, !dbg !4366
  store i32 500000000, i32* %m_maxvisits, align 4, !dbg !4366
  %m_score = getelementptr inbounds %class.UCTSearch, %class.UCTSearch* %this1, i32 0, i32 4, !dbg !4367
  store float 0.000000e+00, float* %m_score, align 8, !dbg !4367
  %m_hasrunflag = getelementptr inbounds %class.UCTSearch, %class.UCTSearch* %this1, i32 0, i32 6, !dbg !4368
  store i8 0, i8* %m_hasrunflag, align 1, !dbg !4368
  %m_runflag = getelementptr inbounds %class.UCTSearch, %class.UCTSearch* %this1, i32 0, i32 8, !dbg !4369
  store i8* null, i8** %m_runflag, align 8, !dbg !4369
  %m_analyzing = getelementptr inbounds %class.UCTSearch, %class.UCTSearch* %this1, i32 0, i32 9, !dbg !4370
  store i8 0, i8* %m_analyzing, align 8, !dbg !4370
  ret void, !dbg !4371
}

; Function Attrs: nounwind readnone speculatable willreturn
declare void @llvm.dbg.declare(metadata, metadata, metadata) #1

declare dso_local i32 @_ZN9FastState11get_to_moveEv(%class.FastState*) #2

declare dso_local void @_ZN7UCTNodeC1Eii(%class.UCTNode*, i32, i32) unnamed_addr #2

; Function Attrs: noinline nounwind uwtable
define dso_local void @_ZN9UCTSearch11set_runflagEPb(%class.UCTSearch* %this, i8* %flag) #3 align 2 !dbg !4372 {
entry:
  %this.addr = alloca %class.UCTSearch*, align 8
  %flag.addr = alloca i8*, align 8
  store %class.UCTSearch* %this, %class.UCTSearch** %this.addr, align 8
  call void @llvm.dbg.declare(metadata %class.UCTSearch** %this.addr, metadata !4373, metadata !DIExpression()), !dbg !4374
  store i8* %flag, i8** %flag.addr, align 8
  call void @llvm.dbg.declare(metadata i8** %flag.addr, metadata !4375, metadata !DIExpression()), !dbg !4376
  %this1 = load %class.UCTSearch*, %class.UCTSearch** %this.addr, align 8
  %0 = load i8*, i8** %flag.addr, align 8, !dbg !4377
  %m_runflag = getelementptr inbounds %class.UCTSearch, %class.UCTSearch* %this1, i32 0, i32 8, !dbg !4378
  store i8* %0, i8** %m_runflag, align 8, !dbg !4379
  %m_hasrunflag = getelementptr inbounds %class.UCTSearch, %class.UCTSearch* %this1, i32 0, i32 6, !dbg !4380
  store i8 1, i8* %m_hasrunflag, align 1, !dbg !4381
  ret void, !dbg !4382
}

; Function Attrs: noinline uwtable
define dso_local void @_ZN9UCTSearch15play_simulationER7KoStateP7UCTNode(%class.Playout* noalias sret %agg.result, %class.UCTSearch* %this, %class.KoState* dereferenceable(8440) %currstate, %class.UCTNode* %node) #0 align 2 !dbg !4383 {
entry:
  %this.addr = alloca %class.UCTSearch*, align 8
  %currstate.addr = alloca %class.KoState*, align 8
  %node.addr = alloca %class.UCTNode*, align 8
  %color = alloca i32, align 4
  %hash = alloca i64, align 8
  %has_children = alloca i8, align 1
  %next = alloca %class.UCTNode*, align 8
  %move = alloca i32, align 4
  %ref.tmp = alloca %class.Playout, align 8
  %ref.tmp31 = alloca %class.Playout, align 8
  store %class.UCTSearch* %this, %class.UCTSearch** %this.addr, align 8
  call void @llvm.dbg.declare(metadata %class.UCTSearch** %this.addr, metadata !4384, metadata !DIExpression()), !dbg !4385
  store %class.KoState* %currstate, %class.KoState** %currstate.addr, align 8
  call void @llvm.dbg.declare(metadata %class.KoState** %currstate.addr, metadata !4386, metadata !DIExpression()), !dbg !4387
  store %class.UCTNode* %node, %class.UCTNode** %node.addr, align 8
  call void @llvm.dbg.declare(metadata %class.UCTNode** %node.addr, metadata !4388, metadata !DIExpression()), !dbg !4389
  %this1 = load %class.UCTSearch*, %class.UCTSearch** %this.addr, align 8
  call void @llvm.dbg.declare(metadata i32* %color, metadata !4390, metadata !DIExpression()), !dbg !4391
  %0 = load %class.KoState*, %class.KoState** %currstate.addr, align 8, !dbg !4392
  %1 = bitcast %class.KoState* %0 to %class.FastState*, !dbg !4392
  %call = call i32 @_ZN9FastState11get_to_moveEv(%class.FastState* %1), !dbg !4393
  store i32 %call, i32* %color, align 4, !dbg !4391
  call void @llvm.dbg.declare(metadata i64* %hash, metadata !4394, metadata !DIExpression()), !dbg !4396
  %2 = load %class.KoState*, %class.KoState** %currstate.addr, align 8, !dbg !4397
  %3 = bitcast %class.KoState* %2 to %class.FastState*, !dbg !4397
  %board = getelementptr inbounds %class.FastState, %class.FastState* %3, i32 0, i32 0, !dbg !4398
  %call2 = call i64 @_ZN9FullBoard8get_hashEv(%class.FullBoard* %board), !dbg !4399
  store i64 %call2, i64* %hash, align 8, !dbg !4396
  call void @llvm.dbg.declare(metadata %class.Playout* %agg.result, metadata !4400, metadata !DIExpression()), !dbg !4401
  call void @_ZN7PlayoutC1Ev(%class.Playout* %agg.result), !dbg !4401
  %call3 = call %class.TTable* @_ZN6TTable6get_TTEv(), !dbg !4402
  %4 = load i64, i64* %hash, align 8, !dbg !4403
  %5 = load %class.UCTNode*, %class.UCTNode** %node.addr, align 8, !dbg !4404
  call void @_ZN6TTable4syncEyP7UCTNode(%class.TTable* %call3, i64 %4, %class.UCTNode* %5), !dbg !4405
  call void @llvm.dbg.declare(metadata i8* %has_children, metadata !4406, metadata !DIExpression()), !dbg !4407
  %6 = load %class.UCTNode*, %class.UCTNode** %node.addr, align 8, !dbg !4408
  %call4 = call zeroext i1 @_ZNK7UCTNode12has_childrenEv(%class.UCTNode* %6), !dbg !4409
  %frombool = zext i1 %call4 to i8, !dbg !4407
  store i8 %frombool, i8* %has_children, align 1, !dbg !4407
  %7 = load i8, i8* %has_children, align 1, !dbg !4410
  %tobool = trunc i8 %7 to i1, !dbg !4410
  %conv = zext i1 %tobool to i32, !dbg !4410
  %cmp = icmp eq i32 %conv, 0, !dbg !4412
  br i1 %cmp, label %land.lhs.true, label %if.else, !dbg !4413

land.lhs.true:                                    ; preds = %entry
  %8 = load %class.UCTNode*, %class.UCTNode** %node.addr, align 8, !dbg !4414
  %call5 = call i32 @_ZNK7UCTNode10get_visitsEv(%class.UCTNode* %8), !dbg !4415
  %9 = load %class.UCTNode*, %class.UCTNode** %node.addr, align 8, !dbg !4416
  %call6 = call i32 @_ZNK7UCTNode9do_extendEv(%class.UCTNode* %9), !dbg !4417
  %cmp7 = icmp sle i32 %call5, %call6, !dbg !4418
  br i1 %cmp7, label %if.then, label %if.else, !dbg !4419

if.then:                                          ; preds = %land.lhs.true
  %10 = load %class.KoState*, %class.KoState** %currstate.addr, align 8, !dbg !4420
  %11 = bitcast %class.KoState* %10 to %class.FastState*, !dbg !4420
  call void @_ZN7Playout3runER9FastStateb(%class.Playout* %agg.result, %class.FastState* dereferenceable(8392) %11, i1 zeroext true), !dbg !4422
  br label %if.end43, !dbg !4423

if.else:                                          ; preds = %land.lhs.true, %entry
  %12 = load i8, i8* %has_children, align 1, !dbg !4424
  %tobool8 = trunc i8 %12 to i1, !dbg !4424
  %conv9 = zext i1 %tobool8 to i32, !dbg !4424
  %cmp10 = icmp eq i32 %conv9, 0, !dbg !4427
  br i1 %cmp10, label %land.lhs.true11, label %if.end, !dbg !4428

land.lhs.true11:                                  ; preds = %if.else
  %m_nodes = getelementptr inbounds %class.UCTSearch, %class.UCTSearch* %this1, i32 0, i32 2, !dbg !4429
  %13 = load i32, i32* %m_nodes, align 8, !dbg !4429
  %cmp12 = icmp slt i32 %13, 5000000, !dbg !4430
  br i1 %cmp12, label %if.then13, label %if.end, !dbg !4431

if.then13:                                        ; preds = %land.lhs.true11
  %14 = load %class.UCTNode*, %class.UCTNode** %node.addr, align 8, !dbg !4432
  %15 = load %class.KoState*, %class.KoState** %currstate.addr, align 8, !dbg !4434
  %16 = bitcast %class.KoState* %15 to %class.FastState*, !dbg !4434
  %call14 = call i32 @_ZN7UCTNode15create_childrenER9FastStateb(%class.UCTNode* %14, %class.FastState* dereferenceable(8392) %16, i1 zeroext false), !dbg !4435
  %m_nodes15 = getelementptr inbounds %class.UCTSearch, %class.UCTSearch* %this1, i32 0, i32 2, !dbg !4436
  %17 = load i32, i32* %m_nodes15, align 8, !dbg !4437
  %add = add nsw i32 %17, %call14, !dbg !4437
  store i32 %add, i32* %m_nodes15, align 8, !dbg !4437
  br label %if.end, !dbg !4438

if.end:                                           ; preds = %if.then13, %land.lhs.true11, %if.else
  %18 = load %class.UCTNode*, %class.UCTNode** %node.addr, align 8, !dbg !4439
  %call16 = call zeroext i1 @_ZNK7UCTNode12has_childrenEv(%class.UCTNode* %18), !dbg !4441
  %conv17 = zext i1 %call16 to i32, !dbg !4439
  %cmp18 = icmp eq i32 %conv17, 1, !dbg !4442
  br i1 %cmp18, label %if.then19, label %if.else35, !dbg !4443

if.then19:                                        ; preds = %if.end
  call void @llvm.dbg.declare(metadata %class.UCTNode** %next, metadata !4444, metadata !DIExpression()), !dbg !4446
  %19 = load %class.UCTNode*, %class.UCTNode** %node.addr, align 8, !dbg !4447
  %20 = load i32, i32* %color, align 4, !dbg !4448
  %call20 = call %class.UCTNode* @_ZN7UCTNode16uct_select_childEi(%class.UCTNode* %19, i32 %20), !dbg !4449
  store %class.UCTNode* %call20, %class.UCTNode** %next, align 8, !dbg !4446
  %21 = load %class.UCTNode*, %class.UCTNode** %next, align 8, !dbg !4450
  %cmp21 = icmp ne %class.UCTNode* %21, null, !dbg !4452
  br i1 %cmp21, label %if.then22, label %if.else33, !dbg !4453

if.then22:                                        ; preds = %if.then19
  call void @llvm.dbg.declare(metadata i32* %move, metadata !4454, metadata !DIExpression()), !dbg !4456
  %22 = load %class.UCTNode*, %class.UCTNode** %next, align 8, !dbg !4457
  %call23 = call i32 @_ZNK7UCTNode8get_moveEv(%class.UCTNode* %22), !dbg !4458
  store i32 %call23, i32* %move, align 4, !dbg !4456
  %23 = load i32, i32* %move, align 4, !dbg !4459
  %cmp24 = icmp ne i32 %23, -1, !dbg !4461
  br i1 %cmp24, label %if.then25, label %if.else30, !dbg !4462

if.then25:                                        ; preds = %if.then22
  %24 = load %class.KoState*, %class.KoState** %currstate.addr, align 8, !dbg !4463
  %25 = load i32, i32* %move, align 4, !dbg !4465
  call void @_ZN7KoState9play_moveEi(%class.KoState* %24, i32 %25), !dbg !4466
  %26 = load %class.KoState*, %class.KoState** %currstate.addr, align 8, !dbg !4467
  %call26 = call zeroext i1 @_ZN7KoState7superkoEv(%class.KoState* %26), !dbg !4469
  br i1 %call26, label %if.else28, label %if.then27, !dbg !4470

if.then27:                                        ; preds = %if.then25
  %27 = load %class.KoState*, %class.KoState** %currstate.addr, align 8, !dbg !4471
  %28 = load %class.UCTNode*, %class.UCTNode** %next, align 8, !dbg !4473
  call void @_ZN9UCTSearch15play_simulationER7KoStateP7UCTNode(%class.Playout* sret %ref.tmp, %class.UCTSearch* %this1, %class.KoState* dereferenceable(8440) %27, %class.UCTNode* %28), !dbg !4474
  %29 = bitcast %class.Playout* %agg.result to i8*, !dbg !4475
  %30 = bitcast %class.Playout* %ref.tmp to i8*, !dbg !4475
  call void @llvm.memcpy.p0i8.p0i8.i64(i8* align 8 %29, i8* align 8 %30, i64 120, i1 false), !dbg !4475
  br label %if.end29, !dbg !4476

if.else28:                                        ; preds = %if.then25
  %31 = load %class.UCTNode*, %class.UCTNode** %next, align 8, !dbg !4477
  call void @_ZN7UCTNode10invalidateEv(%class.UCTNode* %31), !dbg !4479
  %32 = load %class.KoState*, %class.KoState** %currstate.addr, align 8, !dbg !4480
  %33 = bitcast %class.KoState* %32 to %class.FastState*, !dbg !4480
  call void @_ZN7Playout3runER9FastStateb(%class.Playout* %agg.result, %class.FastState* dereferenceable(8392) %33, i1 zeroext true), !dbg !4481
  br label %if.end29

if.end29:                                         ; preds = %if.else28, %if.then27
  br label %if.end32, !dbg !4482

if.else30:                                        ; preds = %if.then22
  %34 = load %class.KoState*, %class.KoState** %currstate.addr, align 8, !dbg !4483
  call void @_ZN7KoState9play_passEv(%class.KoState* %34), !dbg !4485
  %35 = load %class.KoState*, %class.KoState** %currstate.addr, align 8, !dbg !4486
  %36 = load %class.UCTNode*, %class.UCTNode** %next, align 8, !dbg !4487
  call void @_ZN9UCTSearch15play_simulationER7KoStateP7UCTNode(%class.Playout* sret %ref.tmp31, %class.UCTSearch* %this1, %class.KoState* dereferenceable(8440) %35, %class.UCTNode* %36), !dbg !4488
  %37 = bitcast %class.Playout* %agg.result to i8*, !dbg !4489
  %38 = bitcast %class.Playout* %ref.tmp31 to i8*, !dbg !4489
  call void @llvm.memcpy.p0i8.p0i8.i64(i8* align 8 %37, i8* align 8 %38, i64 120, i1 false), !dbg !4489
  br label %if.end32

if.end32:                                         ; preds = %if.else30, %if.end29
  br label %if.end34, !dbg !4490

if.else33:                                        ; preds = %if.then19
  %39 = load %class.KoState*, %class.KoState** %currstate.addr, align 8, !dbg !4491
  %40 = bitcast %class.KoState* %39 to %class.FastState*, !dbg !4491
  call void @_ZN7Playout3runER9FastStateb(%class.Playout* %agg.result, %class.FastState* dereferenceable(8392) %40, i1 zeroext true), !dbg !4493
  br label %if.end34

if.end34:                                         ; preds = %if.else33, %if.end32
  %41 = load %class.UCTNode*, %class.UCTNode** %node.addr, align 8, !dbg !4494
  %42 = load i32, i32* %color, align 4, !dbg !4495
  call void @_ZN7UCTNode10updateRAVEER7Playouti(%class.UCTNode* %41, %class.Playout* dereferenceable(120) %agg.result, i32 %42), !dbg !4496
  br label %if.end42, !dbg !4497

if.else35:                                        ; preds = %if.end
  %m_nodes36 = getelementptr inbounds %class.UCTSearch, %class.UCTSearch* %this1, i32 0, i32 2, !dbg !4498
  %43 = load i32, i32* %m_nodes36, align 8, !dbg !4498
  %cmp37 = icmp sge i32 %43, 5000000, !dbg !4500
  br i1 %cmp37, label %if.then38, label %if.else39, !dbg !4501

if.then38:                                        ; preds = %if.else35
  %44 = load %class.KoState*, %class.KoState** %currstate.addr, align 8, !dbg !4502
  %45 = bitcast %class.KoState* %44 to %class.FastState*, !dbg !4502
  call void @_ZN7Playout3runER9FastStateb(%class.Playout* %agg.result, %class.FastState* dereferenceable(8392) %45, i1 zeroext true), !dbg !4504
  br label %if.end41, !dbg !4505

if.else39:                                        ; preds = %if.else35
  %46 = load %class.KoState*, %class.KoState** %currstate.addr, align 8, !dbg !4506
  %47 = bitcast %class.KoState* %46 to %class.FastState*, !dbg !4506
  %call40 = call float @_ZN9FastState21percentual_area_scoreEv(%class.FastState* %47), !dbg !4508
  call void @_ZN7Playout15set_final_scoreEf(%class.Playout* %agg.result, float %call40), !dbg !4509
  br label %if.end41

if.end41:                                         ; preds = %if.else39, %if.then38
  br label %if.end42

if.end42:                                         ; preds = %if.end41, %if.end34
  br label %if.end43

if.end43:                                         ; preds = %if.end42, %if.then
  %48 = load %class.UCTNode*, %class.UCTNode** %node.addr, align 8, !dbg !4510
  %49 = load i32, i32* %color, align 4, !dbg !4511
  %tobool44 = icmp ne i32 %49, 0, !dbg !4511
  %lnot = xor i1 %tobool44, true, !dbg !4512
  %conv45 = zext i1 %lnot to i32, !dbg !4512
  call void @_ZN7UCTNode6updateER7Playouti(%class.UCTNode* %48, %class.Playout* dereferenceable(120) %agg.result, i32 %conv45), !dbg !4513
  %call46 = call %class.TTable* @_ZN6TTable6get_TTEv(), !dbg !4514
  %50 = load i64, i64* %hash, align 8, !dbg !4515
  %51 = load %class.UCTNode*, %class.UCTNode** %node.addr, align 8, !dbg !4516
  call void @_ZN6TTable6updateEyPK7UCTNode(%class.TTable* %call46, i64 %50, %class.UCTNode* %51), !dbg !4517
  ret void, !dbg !4518
}

declare dso_local i64 @_ZN9FullBoard8get_hashEv(%class.FullBoard*) #2

declare dso_local void @_ZN7PlayoutC1Ev(%class.Playout*) unnamed_addr #2

declare dso_local %class.TTable* @_ZN6TTable6get_TTEv() #2

declare dso_local void @_ZN6TTable4syncEyP7UCTNode(%class.TTable*, i64, %class.UCTNode*) #2

declare dso_local zeroext i1 @_ZNK7UCTNode12has_childrenEv(%class.UCTNode*) #2

declare dso_local i32 @_ZNK7UCTNode10get_visitsEv(%class.UCTNode*) #2

declare dso_local i32 @_ZNK7UCTNode9do_extendEv(%class.UCTNode*) #2

declare dso_local void @_ZN7Playout3runER9FastStateb(%class.Playout*, %class.FastState* dereferenceable(8392), i1 zeroext) #2

declare dso_local i32 @_ZN7UCTNode15create_childrenER9FastStateb(%class.UCTNode*, %class.FastState* dereferenceable(8392), i1 zeroext) #2

declare dso_local %class.UCTNode* @_ZN7UCTNode16uct_select_childEi(%class.UCTNode*, i32) #2

declare dso_local i32 @_ZNK7UCTNode8get_moveEv(%class.UCTNode*) #2

declare dso_local void @_ZN7KoState9play_moveEi(%class.KoState*, i32) #2

declare dso_local zeroext i1 @_ZN7KoState7superkoEv(%class.KoState*) #2

; Function Attrs: argmemonly nounwind willreturn
declare void @llvm.memcpy.p0i8.p0i8.i64(i8* noalias nocapture writeonly, i8* noalias nocapture readonly, i64, i1 immarg) #4

declare dso_local void @_ZN7UCTNode10invalidateEv(%class.UCTNode*) #2

declare dso_local void @_ZN7KoState9play_passEv(%class.KoState*) #2

declare dso_local void @_ZN7UCTNode10updateRAVEER7Playouti(%class.UCTNode*, %class.Playout* dereferenceable(120), i32) #2

declare dso_local void @_ZN7Playout15set_final_scoreEf(%class.Playout*, float) #2

declare dso_local float @_ZN9FastState21percentual_area_scoreEv(%class.FastState*) #2

declare dso_local void @_ZN7UCTNode6updateER7Playouti(%class.UCTNode*, %class.Playout* dereferenceable(120), i32) #2

declare dso_local void @_ZN6TTable6updateEyPK7UCTNode(%class.TTable*, i64, %class.UCTNode*) #2

; Function Attrs: noinline uwtable
define dso_local void @_ZN9UCTSearch10dump_statsER9GameStateR7UCTNode(%class.UCTSearch* %this, %class.GameState* dereferenceable(8512) %state, %class.UCTNode* dereferenceable(56) %parent) #0 align 2 personality i8* bitcast (i32 (...)* @__gxx_personality_v0 to i8*) !dbg !4519 {
entry:
  %this.addr = alloca %class.UCTSearch*, align 8
  %state.addr = alloca %class.GameState*, align 8
  %parent.addr = alloca %class.UCTNode*, align 8
  %color = alloca i32, align 4
  %bestmove = alloca i32, align 4
  %bestvisits = alloca i32, align 4
  %bestrate = alloca float, align 4
  %bestnode = alloca %class.UCTNode*, align 8
  %movecount = alloca i32, align 4
  %node = alloca %class.UCTNode*, align 8
  %tmp = alloca %"class.std::__cxx11::basic_string", align 8
  %exn.slot = alloca i8*
  %ehselector.slot = alloca i32
  %tmpstate = alloca %class.GameState, align 8
  %ref.tmp = alloca %"class.std::__cxx11::basic_string", align 8
  %tmp52 = alloca %"class.std::__cxx11::basic_string", align 8
  %tmpstate76 = alloca %class.GameState, align 8
  %ref.tmp78 = alloca %"class.std::__cxx11::basic_string", align 8
  store %class.UCTSearch* %this, %class.UCTSearch** %this.addr, align 8
  call void @llvm.dbg.declare(metadata %class.UCTSearch** %this.addr, metadata !4520, metadata !DIExpression()), !dbg !4521
  store %class.GameState* %state, %class.GameState** %state.addr, align 8
  call void @llvm.dbg.declare(metadata %class.GameState** %state.addr, metadata !4522, metadata !DIExpression()), !dbg !4523
  store %class.UCTNode* %parent, %class.UCTNode** %parent.addr, align 8
  call void @llvm.dbg.declare(metadata %class.UCTNode** %parent.addr, metadata !4524, metadata !DIExpression()), !dbg !4525
  %this1 = load %class.UCTSearch*, %class.UCTSearch** %this.addr, align 8
  call void @llvm.dbg.declare(metadata i32* %color, metadata !4526, metadata !DIExpression()), !dbg !4527
  %0 = load %class.GameState*, %class.GameState** %state.addr, align 8, !dbg !4528
  %1 = bitcast %class.GameState* %0 to %class.FastState*, !dbg !4528
  %call = call i32 @_ZN9FastState11get_to_moveEv(%class.FastState* %1), !dbg !4529
  store i32 %call, i32* %color, align 4, !dbg !4527
  call void @llvm.dbg.declare(metadata i32* %bestmove, metadata !4530, metadata !DIExpression()), !dbg !4531
  store i32 -1, i32* %bestmove, align 4, !dbg !4531
  call void @llvm.dbg.declare(metadata i32* %bestvisits, metadata !4532, metadata !DIExpression()), !dbg !4533
  store i32 0, i32* %bestvisits, align 4, !dbg !4533
  call void @llvm.dbg.declare(metadata float* %bestrate, metadata !4534, metadata !DIExpression()), !dbg !4535
  store float 0.000000e+00, float* %bestrate, align 4, !dbg !4535
  %2 = load %class.UCTNode*, %class.UCTNode** %parent.addr, align 8, !dbg !4536
  %call2 = call zeroext i1 @_ZNK7UCTNode12has_childrenEv(%class.UCTNode* %2), !dbg !4538
  br i1 %call2, label %if.end, label %if.then, !dbg !4539

if.then:                                          ; preds = %entry
  br label %return, !dbg !4540

if.end:                                           ; preds = %entry
  %m_root = getelementptr inbounds %class.UCTSearch, %class.UCTSearch* %this1, i32 0, i32 1, !dbg !4542
  %3 = load i32, i32* %color, align 4, !dbg !4543
  call void @_ZN7UCTNode13sort_childrenEi(%class.UCTNode* %m_root, i32 %3), !dbg !4544
  call void @llvm.dbg.declare(metadata %class.UCTNode** %bestnode, metadata !4545, metadata !DIExpression()), !dbg !4546
  %4 = load %class.UCTNode*, %class.UCTNode** %parent.addr, align 8, !dbg !4547
  %call3 = call %class.UCTNode* @_ZN7UCTNode15get_first_childEv(%class.UCTNode* %4), !dbg !4548
  store %class.UCTNode* %call3, %class.UCTNode** %bestnode, align 8, !dbg !4546
  %5 = load %class.UCTNode*, %class.UCTNode** %bestnode, align 8, !dbg !4549
  %call4 = call zeroext i1 @_ZNK7UCTNode11first_visitEv(%class.UCTNode* %5), !dbg !4551
  br i1 %call4, label %if.then5, label %if.end6, !dbg !4552

if.then5:                                         ; preds = %if.end
  br label %return, !dbg !4553

if.end6:                                          ; preds = %if.end
  %6 = load %class.UCTNode*, %class.UCTNode** %bestnode, align 8, !dbg !4555
  %7 = load i32, i32* %color, align 4, !dbg !4556
  %call7 = call i32 @_ZNK7UCTNode11get_winrateEi(%class.UCTNode* %6, i32 %7), !dbg !4557
  %conv = sitofp i32 %call7 to float, !dbg !4555
  store float %conv, float* %bestrate, align 4, !dbg !4558
  %8 = load %class.UCTNode*, %class.UCTNode** %bestnode, align 8, !dbg !4559
  %call8 = call i32 @_ZNK7UCTNode10get_visitsEv(%class.UCTNode* %8), !dbg !4560
  store i32 %call8, i32* %bestvisits, align 4, !dbg !4561
  %9 = load %class.UCTNode*, %class.UCTNode** %bestnode, align 8, !dbg !4562
  %call9 = call i32 @_ZNK7UCTNode8get_moveEv(%class.UCTNode* %9), !dbg !4563
  store i32 %call9, i32* %bestmove, align 4, !dbg !4564
  call void @llvm.dbg.declare(metadata i32* %movecount, metadata !4565, metadata !DIExpression()), !dbg !4566
  store i32 0, i32* %movecount, align 4, !dbg !4566
  call void @llvm.dbg.declare(metadata %class.UCTNode** %node, metadata !4567, metadata !DIExpression()), !dbg !4568
  %10 = load %class.UCTNode*, %class.UCTNode** %bestnode, align 8, !dbg !4569
  store %class.UCTNode* %10, %class.UCTNode** %node, align 8, !dbg !4568
  br label %while.cond, !dbg !4570

while.cond:                                       ; preds = %invoke.cont49, %if.end6
  %11 = load %class.UCTNode*, %class.UCTNode** %node, align 8, !dbg !4571
  %cmp = icmp ne %class.UCTNode* %11, null, !dbg !4572
  br i1 %cmp, label %while.body, label %while.end, !dbg !4570

while.body:                                       ; preds = %while.cond
  %12 = load i32, i32* %movecount, align 4, !dbg !4573
  %inc = add nsw i32 %12, 1, !dbg !4573
  store i32 %inc, i32* %movecount, align 4, !dbg !4573
  %cmp10 = icmp sgt i32 %inc, 6, !dbg !4576
  br i1 %cmp10, label %if.then11, label %if.end12, !dbg !4577

if.then11:                                        ; preds = %while.body
  br label %while.end, !dbg !4578

if.end12:                                         ; preds = %while.body
  call void @llvm.dbg.declare(metadata %"class.std::__cxx11::basic_string"* %tmp, metadata !4579, metadata !DIExpression()), !dbg !4580
  %13 = load %class.GameState*, %class.GameState** %state.addr, align 8, !dbg !4581
  %14 = bitcast %class.GameState* %13 to %class.FastState*, !dbg !4581
  %15 = load %class.UCTNode*, %class.UCTNode** %node, align 8, !dbg !4582
  %call13 = call i32 @_ZNK7UCTNode8get_moveEv(%class.UCTNode* %15), !dbg !4583
  call void @_ZN9FastState12move_to_textB5cxx11Ei(%"class.std::__cxx11::basic_string"* sret %tmp, %class.FastState* %14, i32 %call13), !dbg !4584
  %call14 = call i8* @_ZNKSt7__cxx1112basic_stringIcSt11char_traitsIcESaIcEE5c_strEv(%"class.std::__cxx11::basic_string"* %tmp) #11, !dbg !4585
  %16 = load %class.UCTNode*, %class.UCTNode** %node, align 8, !dbg !4586
  %call15 = invoke i32 @_ZNK7UCTNode10get_visitsEv(%class.UCTNode* %16)
          to label %invoke.cont unwind label %lpad, !dbg !4587

invoke.cont:                                      ; preds = %if.end12
  %17 = load %class.UCTNode*, %class.UCTNode** %node, align 8, !dbg !4588
  %call17 = invoke i32 @_ZNK7UCTNode10get_visitsEv(%class.UCTNode* %17)
          to label %invoke.cont16 unwind label %lpad, !dbg !4589

invoke.cont16:                                    ; preds = %invoke.cont
  %cmp18 = icmp sgt i32 %call17, 0, !dbg !4590
  br i1 %cmp18, label %cond.true, label %cond.false, !dbg !4588

cond.true:                                        ; preds = %invoke.cont16
  %18 = load %class.UCTNode*, %class.UCTNode** %node, align 8, !dbg !4591
  %19 = load i32, i32* %color, align 4, !dbg !4592
  %call20 = invoke i32 @_ZNK7UCTNode11get_winrateEi(%class.UCTNode* %18, i32 %19)
          to label %invoke.cont19 unwind label %lpad, !dbg !4593

invoke.cont19:                                    ; preds = %cond.true
  %conv21 = sitofp i32 %call20 to float, !dbg !4591
  %div = fdiv float %conv21, 1.000000e+01, !dbg !4594
  br label %cond.end, !dbg !4588

cond.false:                                       ; preds = %invoke.cont16
  br label %cond.end, !dbg !4588

cond.end:                                         ; preds = %cond.false, %invoke.cont19
  %cond = phi float [ %div, %invoke.cont19 ], [ 0.000000e+00, %cond.false ], !dbg !4588
  %conv22 = fpext float %cond to double, !dbg !4588
  %20 = load %class.UCTNode*, %class.UCTNode** %node, align 8, !dbg !4595
  %call24 = invoke i32 @_ZNK7UCTNode10get_visitsEv(%class.UCTNode* %20)
          to label %invoke.cont23 unwind label %lpad, !dbg !4596

invoke.cont23:                                    ; preds = %cond.end
  %cmp25 = icmp sgt i32 %call24, 0, !dbg !4597
  br i1 %cmp25, label %cond.true26, label %cond.false31, !dbg !4595

cond.true26:                                      ; preds = %invoke.cont23
  %21 = load %class.UCTNode*, %class.UCTNode** %node, align 8, !dbg !4598
  %call28 = invoke i32 @_ZNK7UCTNode12get_raverateEv(%class.UCTNode* %21)
          to label %invoke.cont27 unwind label %lpad, !dbg !4599

invoke.cont27:                                    ; preds = %cond.true26
  %conv29 = sitofp i32 %call28 to float, !dbg !4598
  %div30 = fdiv float %conv29, 1.000000e+01, !dbg !4600
  br label %cond.end32, !dbg !4595

cond.false31:                                     ; preds = %invoke.cont23
  br label %cond.end32, !dbg !4595

cond.end32:                                       ; preds = %cond.false31, %invoke.cont27
  %cond33 = phi float [ %div30, %invoke.cont27 ], [ 0.000000e+00, %cond.false31 ], !dbg !4595
  %conv34 = fpext float %cond33 to double, !dbg !4595
  %22 = load %class.UCTNode*, %class.UCTNode** %node, align 8, !dbg !4601
  %call36 = invoke i32 @_ZNK7UCTNode14get_ravevisitsEv(%class.UCTNode* %22)
          to label %invoke.cont35 unwind label %lpad, !dbg !4602

invoke.cont35:                                    ; preds = %cond.end32
  %call37 = call i8* @_ZNKSt7__cxx1112basic_stringIcSt11char_traitsIcESaIcEE5c_strEv(%"class.std::__cxx11::basic_string"* %tmp) #11, !dbg !4603
  invoke void (i8*, ...) @_ZN5Utils8myprintfEPKcz(i8* getelementptr inbounds ([50 x i8], [50 x i8]* @.str, i64 0, i64 0), i8* %call14, i32 %call15, double %conv22, double %conv34, i32 %call36, i8* %call37)
          to label %invoke.cont38 unwind label %lpad, !dbg !4604

invoke.cont38:                                    ; preds = %invoke.cont35
  call void @llvm.dbg.declare(metadata %class.GameState* %tmpstate, metadata !4605, metadata !DIExpression()), !dbg !4606
  %23 = load %class.GameState*, %class.GameState** %state.addr, align 8, !dbg !4607
  invoke void @_ZN9GameStateC2ERKS_(%class.GameState* %tmpstate, %class.GameState* dereferenceable(8512) %23)
          to label %invoke.cont39 unwind label %lpad, !dbg !4607

invoke.cont39:                                    ; preds = %invoke.cont38
  %24 = load %class.UCTNode*, %class.UCTNode** %node, align 8, !dbg !4608
  %call42 = invoke i32 @_ZNK7UCTNode8get_moveEv(%class.UCTNode* %24)
          to label %invoke.cont41 unwind label %lpad40, !dbg !4609

invoke.cont41:                                    ; preds = %invoke.cont39
  invoke void @_ZN9GameState9play_moveEi(%class.GameState* %tmpstate, i32 %call42)
          to label %invoke.cont43 unwind label %lpad40, !dbg !4610

invoke.cont43:                                    ; preds = %invoke.cont41
  %25 = load %class.UCTNode*, %class.UCTNode** %node, align 8, !dbg !4611
  invoke void @_ZN9UCTSearch6get_pvB5cxx11ER9GameStateR7UCTNode(%"class.std::__cxx11::basic_string"* sret %ref.tmp, %class.UCTSearch* %this1, %class.GameState* dereferenceable(8512) %tmpstate, %class.UCTNode* dereferenceable(56) %25)
          to label %invoke.cont44 unwind label %lpad40, !dbg !4612

invoke.cont44:                                    ; preds = %invoke.cont43
  %call45 = call i8* @_ZNKSt7__cxx1112basic_stringIcSt11char_traitsIcESaIcEE5c_strEv(%"class.std::__cxx11::basic_string"* %ref.tmp) #11, !dbg !4613
  invoke void (i8*, ...) @_ZN5Utils8myprintfEPKcz(i8* %call45)
          to label %invoke.cont47 unwind label %lpad46, !dbg !4614

invoke.cont47:                                    ; preds = %invoke.cont44
  call void @_ZNSt7__cxx1112basic_stringIcSt11char_traitsIcESaIcEED1Ev(%"class.std::__cxx11::basic_string"* %ref.tmp) #11, !dbg !4614
  invoke void (i8*, ...) @_ZN5Utils8myprintfEPKcz(i8* getelementptr inbounds ([2 x i8], [2 x i8]* @.str.1, i64 0, i64 0))
          to label %invoke.cont48 unwind label %lpad40, !dbg !4615

invoke.cont48:                                    ; preds = %invoke.cont47
  %26 = load %class.UCTNode*, %class.UCTNode** %node, align 8, !dbg !4616
  %call50 = invoke %class.UCTNode* @_ZN7UCTNode11get_siblingEv(%class.UCTNode* %26)
          to label %invoke.cont49 unwind label %lpad40, !dbg !4617

invoke.cont49:                                    ; preds = %invoke.cont48
  store %class.UCTNode* %call50, %class.UCTNode** %node, align 8, !dbg !4618
  call void @_ZN9GameStateD2Ev(%class.GameState* %tmpstate) #11, !dbg !4619
  call void @_ZNSt7__cxx1112basic_stringIcSt11char_traitsIcESaIcEED1Ev(%"class.std::__cxx11::basic_string"* %tmp) #11, !dbg !4619
  br label %while.cond, !dbg !4570, !llvm.loop !4620

lpad:                                             ; preds = %invoke.cont38, %invoke.cont35, %cond.end32, %cond.true26, %cond.end, %cond.true, %invoke.cont, %if.end12
  %27 = landingpad { i8*, i32 }
          cleanup, !dbg !4621
  %28 = extractvalue { i8*, i32 } %27, 0, !dbg !4621
  store i8* %28, i8** %exn.slot, align 8, !dbg !4621
  %29 = extractvalue { i8*, i32 } %27, 1, !dbg !4621
  store i32 %29, i32* %ehselector.slot, align 4, !dbg !4621
  br label %ehcleanup51, !dbg !4621

lpad40:                                           ; preds = %invoke.cont48, %invoke.cont47, %invoke.cont43, %invoke.cont41, %invoke.cont39
  %30 = landingpad { i8*, i32 }
          cleanup, !dbg !4621
  %31 = extractvalue { i8*, i32 } %30, 0, !dbg !4621
  store i8* %31, i8** %exn.slot, align 8, !dbg !4621
  %32 = extractvalue { i8*, i32 } %30, 1, !dbg !4621
  store i32 %32, i32* %ehselector.slot, align 4, !dbg !4621
  br label %ehcleanup, !dbg !4621

lpad46:                                           ; preds = %invoke.cont44
  %33 = landingpad { i8*, i32 }
          cleanup, !dbg !4621
  %34 = extractvalue { i8*, i32 } %33, 0, !dbg !4621
  store i8* %34, i8** %exn.slot, align 8, !dbg !4621
  %35 = extractvalue { i8*, i32 } %33, 1, !dbg !4621
  store i32 %35, i32* %ehselector.slot, align 4, !dbg !4621
  call void @_ZNSt7__cxx1112basic_stringIcSt11char_traitsIcESaIcEED1Ev(%"class.std::__cxx11::basic_string"* %ref.tmp) #11, !dbg !4614
  br label %ehcleanup, !dbg !4614

ehcleanup:                                        ; preds = %lpad46, %lpad40
  call void @_ZN9GameStateD2Ev(%class.GameState* %tmpstate) #11, !dbg !4619
  br label %ehcleanup51, !dbg !4619

ehcleanup51:                                      ; preds = %ehcleanup, %lpad
  call void @_ZNSt7__cxx1112basic_stringIcSt11char_traitsIcESaIcEED1Ev(%"class.std::__cxx11::basic_string"* %tmp) #11, !dbg !4619
  br label %eh.resume, !dbg !4619

while.end:                                        ; preds = %if.then11, %while.cond
  call void @llvm.dbg.declare(metadata %"class.std::__cxx11::basic_string"* %tmp52, metadata !4622, metadata !DIExpression()), !dbg !4623
  %36 = load %class.GameState*, %class.GameState** %state.addr, align 8, !dbg !4624
  %37 = bitcast %class.GameState* %36 to %class.FastState*, !dbg !4624
  %38 = load %class.UCTNode*, %class.UCTNode** %bestnode, align 8, !dbg !4625
  %call53 = call i32 @_ZNK7UCTNode8get_moveEv(%class.UCTNode* %38), !dbg !4626
  call void @_ZN9FastState12move_to_textB5cxx11Ei(%"class.std::__cxx11::basic_string"* sret %tmp52, %class.FastState* %37, i32 %call53), !dbg !4627
  %39 = load %class.UCTNode*, %class.UCTNode** %bestnode, align 8, !dbg !4628
  %call56 = invoke i32 @_ZNK7UCTNode10get_visitsEv(%class.UCTNode* %39)
          to label %invoke.cont55 unwind label %lpad54, !dbg !4629

invoke.cont55:                                    ; preds = %while.end
  %40 = load %class.UCTNode*, %class.UCTNode** %bestnode, align 8, !dbg !4630
  %call58 = invoke i32 @_ZNK7UCTNode10get_visitsEv(%class.UCTNode* %40)
          to label %invoke.cont57 unwind label %lpad54, !dbg !4631

invoke.cont57:                                    ; preds = %invoke.cont55
  %cmp59 = icmp sgt i32 %call58, 0, !dbg !4632
  br i1 %cmp59, label %cond.true60, label %cond.false65, !dbg !4630

cond.true60:                                      ; preds = %invoke.cont57
  %41 = load %class.UCTNode*, %class.UCTNode** %bestnode, align 8, !dbg !4633
  %42 = load i32, i32* %color, align 4, !dbg !4634
  %call62 = invoke i32 @_ZNK7UCTNode11get_winrateEi(%class.UCTNode* %41, i32 %42)
          to label %invoke.cont61 unwind label %lpad54, !dbg !4635

invoke.cont61:                                    ; preds = %cond.true60
  %conv63 = sitofp i32 %call62 to float, !dbg !4633
  %div64 = fdiv float %conv63, 1.000000e+01, !dbg !4636
  br label %cond.end66, !dbg !4630

cond.false65:                                     ; preds = %invoke.cont57
  br label %cond.end66, !dbg !4630

cond.end66:                                       ; preds = %cond.false65, %invoke.cont61
  %cond67 = phi float [ %div64, %invoke.cont61 ], [ 0.000000e+00, %cond.false65 ], !dbg !4630
  %conv68 = fpext float %cond67 to double, !dbg !4630
  %43 = load %class.UCTNode*, %class.UCTNode** %parent.addr, align 8, !dbg !4637
  %44 = load i32, i32* %color, align 4, !dbg !4638
  %call70 = invoke i32 @_ZNK7UCTNode11get_winrateEi(%class.UCTNode* %43, i32 %44)
          to label %invoke.cont69 unwind label %lpad54, !dbg !4639

invoke.cont69:                                    ; preds = %cond.end66
  %conv71 = sitofp i32 %call70 to float, !dbg !4637
  %div72 = fdiv float %conv71, 1.000000e+01, !dbg !4640
  %conv73 = fpext float %div72 to double, !dbg !4637
  %call74 = call i8* @_ZNKSt7__cxx1112basic_stringIcSt11char_traitsIcESaIcEE5c_strEv(%"class.std::__cxx11::basic_string"* %tmp52) #11, !dbg !4641
  invoke void (i8*, ...) @_ZN5Utils8myprintfEPKcz(i8* getelementptr inbounds ([82 x i8], [82 x i8]* @.str.2, i64 0, i64 0), i32 %call56, double %conv68, double %conv73, i8* %call74)
          to label %invoke.cont75 unwind label %lpad54, !dbg !4642

invoke.cont75:                                    ; preds = %invoke.cont69
  call void @llvm.dbg.declare(metadata %class.GameState* %tmpstate76, metadata !4643, metadata !DIExpression()), !dbg !4644
  %45 = load %class.GameState*, %class.GameState** %state.addr, align 8, !dbg !4645
  invoke void @_ZN9GameStateC2ERKS_(%class.GameState* %tmpstate76, %class.GameState* dereferenceable(8512) %45)
          to label %invoke.cont77 unwind label %lpad54, !dbg !4645

invoke.cont77:                                    ; preds = %invoke.cont75
  %46 = load %class.UCTNode*, %class.UCTNode** %parent.addr, align 8, !dbg !4646
  invoke void @_ZN9UCTSearch6get_pvB5cxx11ER9GameStateR7UCTNode(%"class.std::__cxx11::basic_string"* sret %ref.tmp78, %class.UCTSearch* %this1, %class.GameState* dereferenceable(8512) %tmpstate76, %class.UCTNode* dereferenceable(56) %46)
          to label %invoke.cont80 unwind label %lpad79, !dbg !4647

invoke.cont80:                                    ; preds = %invoke.cont77
  %call81 = call i8* @_ZNKSt7__cxx1112basic_stringIcSt11char_traitsIcESaIcEE5c_strEv(%"class.std::__cxx11::basic_string"* %ref.tmp78) #11, !dbg !4648
  invoke void (i8*, ...) @_ZN5Utils8myprintfEPKcz(i8* %call81)
          to label %invoke.cont83 unwind label %lpad82, !dbg !4649

invoke.cont83:                                    ; preds = %invoke.cont80
  call void @_ZNSt7__cxx1112basic_stringIcSt11char_traitsIcESaIcEED1Ev(%"class.std::__cxx11::basic_string"* %ref.tmp78) #11, !dbg !4649
  invoke void (i8*, ...) @_ZN5Utils8myprintfEPKcz(i8* getelementptr inbounds ([2 x i8], [2 x i8]* @.str.1, i64 0, i64 0))
          to label %invoke.cont85 unwind label %lpad79, !dbg !4650

invoke.cont85:                                    ; preds = %invoke.cont83
  call void @_ZN9GameStateD2Ev(%class.GameState* %tmpstate76) #11, !dbg !4651
  call void @_ZNSt7__cxx1112basic_stringIcSt11char_traitsIcESaIcEED1Ev(%"class.std::__cxx11::basic_string"* %tmp52) #11, !dbg !4651
  br label %return

return:                                           ; preds = %invoke.cont85, %if.then5, %if.then
  ret void, !dbg !4651

lpad54:                                           ; preds = %invoke.cont75, %invoke.cont69, %cond.end66, %cond.true60, %invoke.cont55, %while.end
  %47 = landingpad { i8*, i32 }
          cleanup, !dbg !4651
  %48 = extractvalue { i8*, i32 } %47, 0, !dbg !4651
  store i8* %48, i8** %exn.slot, align 8, !dbg !4651
  %49 = extractvalue { i8*, i32 } %47, 1, !dbg !4651
  store i32 %49, i32* %ehselector.slot, align 4, !dbg !4651
  br label %ehcleanup87, !dbg !4651

lpad79:                                           ; preds = %invoke.cont83, %invoke.cont77
  %50 = landingpad { i8*, i32 }
          cleanup, !dbg !4651
  %51 = extractvalue { i8*, i32 } %50, 0, !dbg !4651
  store i8* %51, i8** %exn.slot, align 8, !dbg !4651
  %52 = extractvalue { i8*, i32 } %50, 1, !dbg !4651
  store i32 %52, i32* %ehselector.slot, align 4, !dbg !4651
  br label %ehcleanup86, !dbg !4651

lpad82:                                           ; preds = %invoke.cont80
  %53 = landingpad { i8*, i32 }
          cleanup, !dbg !4651
  %54 = extractvalue { i8*, i32 } %53, 0, !dbg !4651
  store i8* %54, i8** %exn.slot, align 8, !dbg !4651
  %55 = extractvalue { i8*, i32 } %53, 1, !dbg !4651
  store i32 %55, i32* %ehselector.slot, align 4, !dbg !4651
  call void @_ZNSt7__cxx1112basic_stringIcSt11char_traitsIcESaIcEED1Ev(%"class.std::__cxx11::basic_string"* %ref.tmp78) #11, !dbg !4649
  br label %ehcleanup86, !dbg !4649

ehcleanup86:                                      ; preds = %lpad82, %lpad79
  call void @_ZN9GameStateD2Ev(%class.GameState* %tmpstate76) #11, !dbg !4651
  br label %ehcleanup87, !dbg !4651

ehcleanup87:                                      ; preds = %ehcleanup86, %lpad54
  call void @_ZNSt7__cxx1112basic_stringIcSt11char_traitsIcESaIcEED1Ev(%"class.std::__cxx11::basic_string"* %tmp52) #11, !dbg !4651
  br label %eh.resume, !dbg !4651

eh.resume:                                        ; preds = %ehcleanup87, %ehcleanup51
  %exn = load i8*, i8** %exn.slot, align 8, !dbg !4619
  %sel = load i32, i32* %ehselector.slot, align 4, !dbg !4619
  %lpad.val = insertvalue { i8*, i32 } undef, i8* %exn, 0, !dbg !4619
  %lpad.val88 = insertvalue { i8*, i32 } %lpad.val, i32 %sel, 1, !dbg !4619
  resume { i8*, i32 } %lpad.val88, !dbg !4619
}

declare dso_local void @_ZN7UCTNode13sort_childrenEi(%class.UCTNode*, i32) #2

declare dso_local %class.UCTNode* @_ZN7UCTNode15get_first_childEv(%class.UCTNode*) #2

declare dso_local zeroext i1 @_ZNK7UCTNode11first_visitEv(%class.UCTNode*) #2

declare dso_local i32 @_ZNK7UCTNode11get_winrateEi(%class.UCTNode*, i32) #2

declare dso_local void @_ZN9FastState12move_to_textB5cxx11Ei(%"class.std::__cxx11::basic_string"* sret, %class.FastState*, i32) #2

declare dso_local void @_ZN5Utils8myprintfEPKcz(i8*, ...) #2

; Function Attrs: nounwind
declare dso_local i8* @_ZNKSt7__cxx1112basic_stringIcSt11char_traitsIcESaIcEE5c_strEv(%"class.std::__cxx11::basic_string"*) #5

declare dso_local i32 @__gxx_personality_v0(...)

declare dso_local i32 @_ZNK7UCTNode12get_raverateEv(%class.UCTNode*) #2

declare dso_local i32 @_ZNK7UCTNode14get_ravevisitsEv(%class.UCTNode*) #2

; Function Attrs: noinline uwtable
define linkonce_odr dso_local void @_ZN9GameStateC2ERKS_(%class.GameState* %this, %class.GameState* dereferenceable(8512) %0) unnamed_addr #0 comdat align 2 personality i8* bitcast (i32 (...)* @__gxx_personality_v0 to i8*) !dbg !4652 {
entry:
  %this.addr = alloca %class.GameState*, align 8
  %.addr = alloca %class.GameState*, align 8
  %exn.slot = alloca i8*
  %ehselector.slot = alloca i32
  store %class.GameState* %this, %class.GameState** %this.addr, align 8
  call void @llvm.dbg.declare(metadata %class.GameState** %this.addr, metadata !4658, metadata !DIExpression()), !dbg !4660
  store %class.GameState* %0, %class.GameState** %.addr, align 8
  call void @llvm.dbg.declare(metadata %class.GameState** %.addr, metadata !4661, metadata !DIExpression()), !dbg !4660
  %this1 = load %class.GameState*, %class.GameState** %this.addr, align 8
  %1 = bitcast %class.GameState* %this1 to %class.KoState*, !dbg !4662
  %2 = load %class.GameState*, %class.GameState** %.addr, align 8, !dbg !4662
  %3 = bitcast %class.GameState* %2 to %class.KoState*, !dbg !4662
  call void @_ZN7KoStateC2ERKS_(%class.KoState* %1, %class.KoState* dereferenceable(8440) %3), !dbg !4662
  %game_history = getelementptr inbounds %class.GameState, %class.GameState* %this1, i32 0, i32 1, !dbg !4662
  %4 = load %class.GameState*, %class.GameState** %.addr, align 8, !dbg !4662
  %game_history2 = getelementptr inbounds %class.GameState, %class.GameState* %4, i32 0, i32 1, !dbg !4662
  invoke void @_ZNSt6vectorI7KoStateSaIS0_EEC2ERKS2_(%"class.std::vector.12"* %game_history, %"class.std::vector.12"* dereferenceable(24) %game_history2)
          to label %invoke.cont unwind label %lpad, !dbg !4662

invoke.cont:                                      ; preds = %entry
  %m_timecontrol = getelementptr inbounds %class.GameState, %class.GameState* %this1, i32 0, i32 2, !dbg !4662
  %5 = load %class.GameState*, %class.GameState** %.addr, align 8, !dbg !4662
  %m_timecontrol3 = getelementptr inbounds %class.GameState, %class.GameState* %5, i32 0, i32 2, !dbg !4662
  %6 = bitcast %class.TimeControl* %m_timecontrol to i8*, !dbg !4662
  %7 = bitcast %class.TimeControl* %m_timecontrol3 to i8*, !dbg !4662
  call void @llvm.memcpy.p0i8.p0i8.i64(i8* align 8 %6, i8* align 8 %7, i64 44, i1 false), !dbg !4662
  ret void, !dbg !4662

lpad:                                             ; preds = %entry
  %8 = landingpad { i8*, i32 }
          cleanup, !dbg !4662
  %9 = extractvalue { i8*, i32 } %8, 0, !dbg !4662
  store i8* %9, i8** %exn.slot, align 8, !dbg !4662
  %10 = extractvalue { i8*, i32 } %8, 1, !dbg !4662
  store i32 %10, i32* %ehselector.slot, align 4, !dbg !4662
  %11 = bitcast %class.GameState* %this1 to %class.KoState*, !dbg !4663
  call void @_ZN7KoStateD2Ev(%class.KoState* %11) #11, !dbg !4663
  br label %eh.resume, !dbg !4663

eh.resume:                                        ; preds = %lpad
  %exn = load i8*, i8** %exn.slot, align 8, !dbg !4663
  %sel = load i32, i32* %ehselector.slot, align 4, !dbg !4663
  %lpad.val = insertvalue { i8*, i32 } undef, i8* %exn, 0, !dbg !4663
  %lpad.val4 = insertvalue { i8*, i32 } %lpad.val, i32 %sel, 1, !dbg !4663
  resume { i8*, i32 } %lpad.val4, !dbg !4663
}

declare dso_local void @_ZN9GameState9play_moveEi(%class.GameState*, i32) #2

; Function Attrs: noinline uwtable
define dso_local void @_ZN9UCTSearch6get_pvB5cxx11ER9GameStateR7UCTNode(%"class.std::__cxx11::basic_string"* noalias sret %agg.result, %class.UCTSearch* %this, %class.GameState* dereferenceable(8512) %state, %class.UCTNode* dereferenceable(56) %parent) #0 align 2 personality i8* bitcast (i32 (...)* @__gxx_personality_v0 to i8*) !dbg !4665 {
entry:
  %result.ptr = alloca i8*, align 8
  %this.addr = alloca %class.UCTSearch*, align 8
  %state.addr = alloca %class.GameState*, align 8
  %parent.addr = alloca %class.UCTNode*, align 8
  %bestchild = alloca %class.UCTNode*, align 8
  %bestmove = alloca i32, align 4
  %tmp = alloca %"class.std::__cxx11::basic_string", align 8
  %res = alloca %"class.std::__cxx11::basic_string", align 8
  %exn.slot = alloca i8*
  %ehselector.slot = alloca i32
  %next = alloca %"class.std::__cxx11::basic_string", align 8
  %0 = bitcast %"class.std::__cxx11::basic_string"* %agg.result to i8*
  store i8* %0, i8** %result.ptr, align 8
  store %class.UCTSearch* %this, %class.UCTSearch** %this.addr, align 8
  call void @llvm.dbg.declare(metadata %class.UCTSearch** %this.addr, metadata !4666, metadata !DIExpression()), !dbg !4667
  store %class.GameState* %state, %class.GameState** %state.addr, align 8
  call void @llvm.dbg.declare(metadata %class.GameState** %state.addr, metadata !4668, metadata !DIExpression()), !dbg !4669
  store %class.UCTNode* %parent, %class.UCTNode** %parent.addr, align 8
  call void @llvm.dbg.declare(metadata %class.UCTNode** %parent.addr, metadata !4670, metadata !DIExpression()), !dbg !4671
  %this1 = load %class.UCTSearch*, %class.UCTSearch** %this.addr, align 8
  %1 = load %class.UCTNode*, %class.UCTNode** %parent.addr, align 8, !dbg !4672
  %call = call zeroext i1 @_ZNK7UCTNode12has_childrenEv(%class.UCTNode* %1), !dbg !4674
  br i1 %call, label %if.end, label %if.then, !dbg !4675

if.then:                                          ; preds = %entry
  call void @_ZNSt7__cxx1112basic_stringIcSt11char_traitsIcESaIcEEC1Ev(%"class.std::__cxx11::basic_string"* %agg.result) #11, !dbg !4676
  br label %return, !dbg !4678

if.end:                                           ; preds = %entry
  %2 = load %class.UCTNode*, %class.UCTNode** %parent.addr, align 8, !dbg !4679
  %3 = load %class.GameState*, %class.GameState** %state.addr, align 8, !dbg !4680
  %4 = bitcast %class.GameState* %3 to %class.FastState*, !dbg !4680
  %call2 = call i32 @_ZN9FastState11get_to_moveEv(%class.FastState* %4), !dbg !4681
  call void @_ZN7UCTNode13sort_childrenEi(%class.UCTNode* %2, i32 %call2), !dbg !4682
  call void @llvm.dbg.declare(metadata %class.UCTNode** %bestchild, metadata !4683, metadata !DIExpression()), !dbg !4684
  %5 = load %class.UCTNode*, %class.UCTNode** %parent.addr, align 8, !dbg !4685
  %call3 = call %class.UCTNode* @_ZN7UCTNode15get_first_childEv(%class.UCTNode* %5), !dbg !4686
  store %class.UCTNode* %call3, %class.UCTNode** %bestchild, align 8, !dbg !4684
  %6 = load %class.UCTNode*, %class.UCTNode** %bestchild, align 8, !dbg !4687
  %call4 = call i32 @_ZNK7UCTNode10get_visitsEv(%class.UCTNode* %6), !dbg !4689
  %cmp = icmp sle i32 %call4, 15, !dbg !4690
  br i1 %cmp, label %if.then5, label %if.end6, !dbg !4691

if.then5:                                         ; preds = %if.end
  call void @_ZNSt7__cxx1112basic_stringIcSt11char_traitsIcESaIcEEC1Ev(%"class.std::__cxx11::basic_string"* %agg.result) #11, !dbg !4692
  br label %return, !dbg !4694

if.end6:                                          ; preds = %if.end
  call void @llvm.dbg.declare(metadata i32* %bestmove, metadata !4695, metadata !DIExpression()), !dbg !4696
  %7 = load %class.UCTNode*, %class.UCTNode** %bestchild, align 8, !dbg !4697
  %call7 = call i32 @_ZNK7UCTNode8get_moveEv(%class.UCTNode* %7), !dbg !4698
  store i32 %call7, i32* %bestmove, align 4, !dbg !4696
  call void @llvm.dbg.declare(metadata %"class.std::__cxx11::basic_string"* %tmp, metadata !4699, metadata !DIExpression()), !dbg !4700
  %8 = load %class.GameState*, %class.GameState** %state.addr, align 8, !dbg !4701
  %9 = bitcast %class.GameState* %8 to %class.FastState*, !dbg !4701
  %10 = load i32, i32* %bestmove, align 4, !dbg !4702
  call void @_ZN9FastState12move_to_textB5cxx11Ei(%"class.std::__cxx11::basic_string"* sret %tmp, %class.FastState* %9, i32 %10), !dbg !4703
  call void @llvm.dbg.declare(metadata %"class.std::__cxx11::basic_string"* %res, metadata !4704, metadata !DIExpression()), !dbg !4705
  invoke void @_ZNSt7__cxx1112basic_stringIcSt11char_traitsIcESaIcEEC1ERKS4_(%"class.std::__cxx11::basic_string"* %res, %"class.std::__cxx11::basic_string"* dereferenceable(32) %tmp)
          to label %invoke.cont unwind label %lpad, !dbg !4705

invoke.cont:                                      ; preds = %if.end6
  %call10 = invoke dereferenceable(32) %"class.std::__cxx11::basic_string"* @_ZNSt7__cxx1112basic_stringIcSt11char_traitsIcESaIcEE6appendEPKc(%"class.std::__cxx11::basic_string"* %res, i8* getelementptr inbounds ([2 x i8], [2 x i8]* @.str.11, i64 0, i64 0))
          to label %invoke.cont9 unwind label %lpad8, !dbg !4706

invoke.cont9:                                     ; preds = %invoke.cont
  %11 = load %class.GameState*, %class.GameState** %state.addr, align 8, !dbg !4707
  %12 = load i32, i32* %bestmove, align 4, !dbg !4708
  invoke void @_ZN9GameState9play_moveEi(%class.GameState* %11, i32 %12)
          to label %invoke.cont11 unwind label %lpad8, !dbg !4709

invoke.cont11:                                    ; preds = %invoke.cont9
  call void @llvm.dbg.declare(metadata %"class.std::__cxx11::basic_string"* %next, metadata !4710, metadata !DIExpression()), !dbg !4711
  %13 = load %class.GameState*, %class.GameState** %state.addr, align 8, !dbg !4712
  %14 = load %class.UCTNode*, %class.UCTNode** %bestchild, align 8, !dbg !4713
  invoke void @_ZN9UCTSearch6get_pvB5cxx11ER9GameStateR7UCTNode(%"class.std::__cxx11::basic_string"* sret %next, %class.UCTSearch* %this1, %class.GameState* dereferenceable(8512) %13, %class.UCTNode* dereferenceable(56) %14)
          to label %invoke.cont12 unwind label %lpad8, !dbg !4714

invoke.cont12:                                    ; preds = %invoke.cont11
  %call15 = invoke dereferenceable(32) %"class.std::__cxx11::basic_string"* @_ZNSt7__cxx1112basic_stringIcSt11char_traitsIcESaIcEE6appendERKS4_(%"class.std::__cxx11::basic_string"* %res, %"class.std::__cxx11::basic_string"* dereferenceable(32) %next)
          to label %invoke.cont14 unwind label %lpad13, !dbg !4715

invoke.cont14:                                    ; preds = %invoke.cont12
  call void @_ZNSt7__cxx1112basic_stringIcSt11char_traitsIcESaIcEEC1EOS4_(%"class.std::__cxx11::basic_string"* %agg.result, %"class.std::__cxx11::basic_string"* dereferenceable(32) %res) #11, !dbg !4716
  call void @_ZNSt7__cxx1112basic_stringIcSt11char_traitsIcESaIcEED1Ev(%"class.std::__cxx11::basic_string"* %next) #11, !dbg !4717
  call void @_ZNSt7__cxx1112basic_stringIcSt11char_traitsIcESaIcEED1Ev(%"class.std::__cxx11::basic_string"* %res) #11, !dbg !4717
  call void @_ZNSt7__cxx1112basic_stringIcSt11char_traitsIcESaIcEED1Ev(%"class.std::__cxx11::basic_string"* %tmp) #11, !dbg !4717
  br label %return

lpad:                                             ; preds = %if.end6
  %15 = landingpad { i8*, i32 }
          cleanup, !dbg !4717
  %16 = extractvalue { i8*, i32 } %15, 0, !dbg !4717
  store i8* %16, i8** %exn.slot, align 8, !dbg !4717
  %17 = extractvalue { i8*, i32 } %15, 1, !dbg !4717
  store i32 %17, i32* %ehselector.slot, align 4, !dbg !4717
  br label %ehcleanup16, !dbg !4717

lpad8:                                            ; preds = %invoke.cont11, %invoke.cont9, %invoke.cont
  %18 = landingpad { i8*, i32 }
          cleanup, !dbg !4717
  %19 = extractvalue { i8*, i32 } %18, 0, !dbg !4717
  store i8* %19, i8** %exn.slot, align 8, !dbg !4717
  %20 = extractvalue { i8*, i32 } %18, 1, !dbg !4717
  store i32 %20, i32* %ehselector.slot, align 4, !dbg !4717
  br label %ehcleanup, !dbg !4717

lpad13:                                           ; preds = %invoke.cont12
  %21 = landingpad { i8*, i32 }
          cleanup, !dbg !4717
  %22 = extractvalue { i8*, i32 } %21, 0, !dbg !4717
  store i8* %22, i8** %exn.slot, align 8, !dbg !4717
  %23 = extractvalue { i8*, i32 } %21, 1, !dbg !4717
  store i32 %23, i32* %ehselector.slot, align 4, !dbg !4717
  call void @_ZNSt7__cxx1112basic_stringIcSt11char_traitsIcESaIcEED1Ev(%"class.std::__cxx11::basic_string"* %next) #11, !dbg !4717
  br label %ehcleanup, !dbg !4717

ehcleanup:                                        ; preds = %lpad13, %lpad8
  call void @_ZNSt7__cxx1112basic_stringIcSt11char_traitsIcESaIcEED1Ev(%"class.std::__cxx11::basic_string"* %res) #11, !dbg !4717
  br label %ehcleanup16, !dbg !4717

ehcleanup16:                                      ; preds = %ehcleanup, %lpad
  call void @_ZNSt7__cxx1112basic_stringIcSt11char_traitsIcESaIcEED1Ev(%"class.std::__cxx11::basic_string"* %tmp) #11, !dbg !4717
  br label %eh.resume, !dbg !4717

return:                                           ; preds = %invoke.cont14, %if.then5, %if.then
  ret void, !dbg !4717

eh.resume:                                        ; preds = %ehcleanup16
  %exn = load i8*, i8** %exn.slot, align 8, !dbg !4717
  %sel = load i32, i32* %ehselector.slot, align 4, !dbg !4717
  %lpad.val = insertvalue { i8*, i32 } undef, i8* %exn, 0, !dbg !4717
  %lpad.val17 = insertvalue { i8*, i32 } %lpad.val, i32 %sel, 1, !dbg !4717
  resume { i8*, i32 } %lpad.val17, !dbg !4717
}

; Function Attrs: nounwind
declare dso_local void @_ZNSt7__cxx1112basic_stringIcSt11char_traitsIcESaIcEED1Ev(%"class.std::__cxx11::basic_string"*) unnamed_addr #5

declare dso_local %class.UCTNode* @_ZN7UCTNode11get_siblingEv(%class.UCTNode*) #2

; Function Attrs: noinline nounwind uwtable
define linkonce_odr dso_local void @_ZN9GameStateD2Ev(%class.GameState* %this) unnamed_addr #3 comdat align 2 !dbg !4718 {
entry:
  %this.addr = alloca %class.GameState*, align 8
  store %class.GameState* %this, %class.GameState** %this.addr, align 8
  call void @llvm.dbg.declare(metadata %class.GameState** %this.addr, metadata !4720, metadata !DIExpression()), !dbg !4721
  %this1 = load %class.GameState*, %class.GameState** %this.addr, align 8
  %game_history = getelementptr inbounds %class.GameState, %class.GameState* %this1, i32 0, i32 1, !dbg !4722
  call void @_ZNSt6vectorI7KoStateSaIS0_EED2Ev(%"class.std::vector.12"* %game_history) #11, !dbg !4722
  %0 = bitcast %class.GameState* %this1 to %class.KoState*, !dbg !4722
  call void @_ZN7KoStateD2Ev(%class.KoState* %0) #11, !dbg !4722
  ret void, !dbg !4724
}

; Function Attrs: noinline uwtable
define dso_local i32 @_ZN9UCTSearch13get_best_moveEi(%class.UCTSearch* %this, i32 %passflag) #0 align 2 !dbg !4725 {
entry:
  %retval = alloca i32, align 4
  %this.addr = alloca %class.UCTSearch*, align 8
  %passflag.addr = alloca i32, align 4
  %color = alloca i32, align 4
  %bestmove = alloca i32, align 4
  %bestscore = alloca float, align 4
  %visits = alloca i32, align 4
  %nopass = alloca %class.UCTNode*, align 8
  %passscore = alloca float, align 4
  %score = alloca float, align 4
  %nopass75 = alloca %class.UCTNode*, align 8
  %movetresh = alloca i32, align 4
  store %class.UCTSearch* %this, %class.UCTSearch** %this.addr, align 8
  call void @llvm.dbg.declare(metadata %class.UCTSearch** %this.addr, metadata !4726, metadata !DIExpression()), !dbg !4727
  store i32 %passflag, i32* %passflag.addr, align 4
  call void @llvm.dbg.declare(metadata i32* %passflag.addr, metadata !4728, metadata !DIExpression()), !dbg !4729
  %this1 = load %class.UCTSearch*, %class.UCTSearch** %this.addr, align 8
  call void @llvm.dbg.declare(metadata i32* %color, metadata !4730, metadata !DIExpression()), !dbg !4731
  %m_rootstate = getelementptr inbounds %class.UCTSearch, %class.UCTSearch* %this1, i32 0, i32 0, !dbg !4732
  %0 = load %class.GameState*, %class.GameState** %m_rootstate, align 8, !dbg !4732
  %1 = bitcast %class.GameState* %0 to %class.FastState*, !dbg !4732
  %board = getelementptr inbounds %class.FastState, %class.FastState* %1, i32 0, i32 0, !dbg !4733
  %2 = bitcast %class.FullBoard* %board to %class.FastBoard*, !dbg !4732
  %m_tomove = getelementptr inbounds %class.FastBoard, %class.FastBoard* %2, i32 0, i32 3, !dbg !4734
  %3 = load i32, i32* %m_tomove, align 8, !dbg !4734
  store i32 %3, i32* %color, align 4, !dbg !4731
  %m_root = getelementptr inbounds %class.UCTSearch, %class.UCTSearch* %this1, i32 0, i32 1, !dbg !4735
  %4 = load i32, i32* %color, align 4, !dbg !4736
  call void @_ZN7UCTNode13sort_childrenEi(%class.UCTNode* %m_root, i32 %4), !dbg !4737
  call void @llvm.dbg.declare(metadata i32* %bestmove, metadata !4738, metadata !DIExpression()), !dbg !4739
  %m_root2 = getelementptr inbounds %class.UCTSearch, %class.UCTSearch* %this1, i32 0, i32 1, !dbg !4740
  %call = call %class.UCTNode* @_ZN7UCTNode15get_first_childEv(%class.UCTNode* %m_root2), !dbg !4741
  %call3 = call i32 @_ZNK7UCTNode8get_moveEv(%class.UCTNode* %call), !dbg !4742
  store i32 %call3, i32* %bestmove, align 4, !dbg !4739
  %m_root4 = getelementptr inbounds %class.UCTSearch, %class.UCTSearch* %this1, i32 0, i32 1, !dbg !4743
  %call5 = call %class.UCTNode* @_ZN7UCTNode15get_first_childEv(%class.UCTNode* %m_root4), !dbg !4745
  %cmp = icmp ne %class.UCTNode* %call5, null, !dbg !4746
  br i1 %cmp, label %if.then, label %if.end10, !dbg !4747

if.then:                                          ; preds = %entry
  %m_root6 = getelementptr inbounds %class.UCTSearch, %class.UCTSearch* %this1, i32 0, i32 1, !dbg !4748
  %call7 = call %class.UCTNode* @_ZN7UCTNode15get_first_childEv(%class.UCTNode* %m_root6), !dbg !4751
  %call8 = call zeroext i1 @_ZNK7UCTNode11first_visitEv(%class.UCTNode* %call7), !dbg !4752
  br i1 %call8, label %if.then9, label %if.end, !dbg !4753

if.then9:                                         ; preds = %if.then
  %5 = load i32, i32* %bestmove, align 4, !dbg !4754
  store i32 %5, i32* %retval, align 4, !dbg !4756
  br label %return, !dbg !4756

if.end:                                           ; preds = %if.then
  br label %if.end10, !dbg !4757

if.end10:                                         ; preds = %if.end, %entry
  call void @llvm.dbg.declare(metadata float* %bestscore, metadata !4758, metadata !DIExpression()), !dbg !4759
  %m_root11 = getelementptr inbounds %class.UCTSearch, %class.UCTSearch* %this1, i32 0, i32 1, !dbg !4760
  %call12 = call %class.UCTNode* @_ZN7UCTNode15get_first_childEv(%class.UCTNode* %m_root11), !dbg !4761
  %6 = load i32, i32* %color, align 4, !dbg !4762
  %call13 = call i32 @_ZNK7UCTNode11get_winrateEi(%class.UCTNode* %call12, i32 %6), !dbg !4763
  %conv = sitofp i32 %call13 to float, !dbg !4760
  %div = fdiv float %conv, 1.000000e+03, !dbg !4764
  store float %div, float* %bestscore, align 4, !dbg !4759
  call void @llvm.dbg.declare(metadata i32* %visits, metadata !4765, metadata !DIExpression()), !dbg !4766
  %m_root14 = getelementptr inbounds %class.UCTSearch, %class.UCTSearch* %this1, i32 0, i32 1, !dbg !4767
  %call15 = call %class.UCTNode* @_ZN7UCTNode15get_first_childEv(%class.UCTNode* %m_root14), !dbg !4768
  %call16 = call i32 @_ZNK7UCTNode10get_visitsEv(%class.UCTNode* %call15), !dbg !4769
  store i32 %call16, i32* %visits, align 4, !dbg !4766
  %7 = load float, float* %bestscore, align 4, !dbg !4770
  %m_score = getelementptr inbounds %class.UCTSearch, %class.UCTSearch* %this1, i32 0, i32 4, !dbg !4771
  store float %7, float* %m_score, align 8, !dbg !4772
  %8 = load i32, i32* %passflag.addr, align 4, !dbg !4773
  %and = and i32 %8, 1, !dbg !4775
  %tobool = icmp ne i32 %and, 0, !dbg !4773
  br i1 %tobool, label %if.then17, label %if.else34, !dbg !4776

if.then17:                                        ; preds = %if.end10
  %9 = load i32, i32* %bestmove, align 4, !dbg !4777
  %cmp18 = icmp eq i32 %9, -1, !dbg !4780
  br i1 %cmp18, label %if.then19, label %if.end33, !dbg !4781

if.then19:                                        ; preds = %if.then17
  call void @llvm.dbg.declare(metadata %class.UCTNode** %nopass, metadata !4782, metadata !DIExpression()), !dbg !4784
  %m_root20 = getelementptr inbounds %class.UCTSearch, %class.UCTSearch* %this1, i32 0, i32 1, !dbg !4785
  %call21 = call %class.UCTNode* @_ZN7UCTNode16get_nopass_childEv(%class.UCTNode* %m_root20), !dbg !4786
  store %class.UCTNode* %call21, %class.UCTNode** %nopass, align 8, !dbg !4784
  %10 = load %class.UCTNode*, %class.UCTNode** %nopass, align 8, !dbg !4787
  %cmp22 = icmp ne %class.UCTNode* %10, null, !dbg !4789
  br i1 %cmp22, label %if.then23, label %if.else31, !dbg !4790

if.then23:                                        ; preds = %if.then19
  call void (i8*, ...) @_ZN5Utils8myprintfEPKcz(i8* getelementptr inbounds ([25 x i8], [25 x i8]* @.str.3, i64 0, i64 0)), !dbg !4791
  %11 = load %class.UCTNode*, %class.UCTNode** %nopass, align 8, !dbg !4793
  %call24 = call i32 @_ZNK7UCTNode8get_moveEv(%class.UCTNode* %11), !dbg !4794
  store i32 %call24, i32* %bestmove, align 4, !dbg !4795
  %12 = load %class.UCTNode*, %class.UCTNode** %nopass, align 8, !dbg !4796
  %call25 = call zeroext i1 @_ZNK7UCTNode11first_visitEv(%class.UCTNode* %12), !dbg !4798
  br i1 %call25, label %if.then26, label %if.else, !dbg !4799

if.then26:                                        ; preds = %if.then23
  store float 1.000000e+00, float* %bestscore, align 4, !dbg !4800
  br label %if.end30, !dbg !4802

if.else:                                          ; preds = %if.then23
  %13 = load %class.UCTNode*, %class.UCTNode** %nopass, align 8, !dbg !4803
  %14 = load i32, i32* %color, align 4, !dbg !4805
  %call27 = call i32 @_ZNK7UCTNode11get_winrateEi(%class.UCTNode* %13, i32 %14), !dbg !4806
  %conv28 = sitofp i32 %call27 to float, !dbg !4803
  %div29 = fdiv float %conv28, 1.000000e+03, !dbg !4807
  store float %div29, float* %bestscore, align 4, !dbg !4808
  br label %if.end30

if.end30:                                         ; preds = %if.else, %if.then26
  br label %if.end32, !dbg !4809

if.else31:                                        ; preds = %if.then19
  call void (i8*, ...) @_ZN5Utils8myprintfEPKcz(i8* getelementptr inbounds ([35 x i8], [35 x i8]* @.str.4, i64 0, i64 0)), !dbg !4810
  br label %if.end32

if.end32:                                         ; preds = %if.else31, %if.end30
  br label %if.end33, !dbg !4812

if.end33:                                         ; preds = %if.end32, %if.then17
  br label %if.end93, !dbg !4813

if.else34:                                        ; preds = %if.end10
  %m_rootstate35 = getelementptr inbounds %class.UCTSearch, %class.UCTSearch* %this1, i32 0, i32 0, !dbg !4814
  %15 = load %class.GameState*, %class.GameState** %m_rootstate35, align 8, !dbg !4814
  %16 = bitcast %class.GameState* %15 to %class.FastState*, !dbg !4814
  %call36 = call i32 @_ZN9FastState13get_last_moveEv(%class.FastState* %16), !dbg !4817
  %cmp37 = icmp eq i32 %call36, -1, !dbg !4818
  br i1 %cmp37, label %if.then38, label %if.end64, !dbg !4819

if.then38:                                        ; preds = %if.else34
  %m_root39 = getelementptr inbounds %class.UCTSearch, %class.UCTSearch* %this1, i32 0, i32 1, !dbg !4820
  %call40 = call %class.UCTNode* @_ZN7UCTNode14get_pass_childEv(%class.UCTNode* %m_root39), !dbg !4823
  %cmp41 = icmp ne %class.UCTNode* %call40, null, !dbg !4824
  br i1 %cmp41, label %if.then42, label %if.end63, !dbg !4825

if.then42:                                        ; preds = %if.then38
  %m_root43 = getelementptr inbounds %class.UCTSearch, %class.UCTSearch* %this1, i32 0, i32 1, !dbg !4826
  %call44 = call %class.UCTNode* @_ZN7UCTNode14get_pass_childEv(%class.UCTNode* %m_root43), !dbg !4829
  %call45 = call i32 @_ZNK7UCTNode10get_visitsEv(%class.UCTNode* %call44), !dbg !4830
  %cmp46 = icmp sgt i32 %call45, 100, !dbg !4831
  br i1 %cmp46, label %if.then47, label %if.end62, !dbg !4832

if.then47:                                        ; preds = %if.then42
  call void @llvm.dbg.declare(metadata float* %passscore, metadata !4833, metadata !DIExpression()), !dbg !4835
  %m_root48 = getelementptr inbounds %class.UCTSearch, %class.UCTSearch* %this1, i32 0, i32 1, !dbg !4836
  %call49 = call %class.UCTNode* @_ZN7UCTNode14get_pass_childEv(%class.UCTNode* %m_root48), !dbg !4837
  %17 = load i32, i32* %color, align 4, !dbg !4838
  %call50 = call i32 @_ZNK7UCTNode11get_winrateEi(%class.UCTNode* %call49, i32 %17), !dbg !4839
  %conv51 = sitofp i32 %call50 to float, !dbg !4836
  %div52 = fdiv float %conv51, 1.000000e+03, !dbg !4840
  store float %div52, float* %passscore, align 4, !dbg !4835
  %18 = load float, float* %passscore, align 4, !dbg !4841
  %cmp53 = fcmp ogt float %18, 0x3FECCCCCC0000000, !dbg !4843
  br i1 %cmp53, label %if.then54, label %if.end61, !dbg !4844

if.then54:                                        ; preds = %if.then47
  %19 = load float, float* %bestscore, align 4, !dbg !4845
  %20 = load float, float* %passscore, align 4, !dbg !4848
  %sub = fsub float %19, %20, !dbg !4849
  %cmp55 = fcmp olt float %sub, 0x3FA99999A0000000, !dbg !4850
  br i1 %cmp55, label %if.then56, label %if.end60, !dbg !4851

if.then56:                                        ; preds = %if.then54
  %21 = load float, float* %passscore, align 4, !dbg !4852
  %mul = fmul float %21, 1.000000e+02, !dbg !4854
  %conv57 = fpext float %mul to double, !dbg !4852
  %22 = load float, float* %bestscore, align 4, !dbg !4855
  %mul58 = fmul float %22, 1.000000e+02, !dbg !4856
  %conv59 = fpext float %mul58 to double, !dbg !4855
  call void (i8*, ...) @_ZN5Utils8myprintfEPKcz(i8* getelementptr inbounds ([60 x i8], [60 x i8]* @.str.5, i64 0, i64 0), double %conv57, double %conv59), !dbg !4857
  store i32 -1, i32* %bestmove, align 4, !dbg !4858
  br label %if.end60, !dbg !4859

if.end60:                                         ; preds = %if.then56, %if.then54
  br label %if.end61, !dbg !4860

if.end61:                                         ; preds = %if.end60, %if.then47
  br label %if.end62, !dbg !4861

if.end62:                                         ; preds = %if.end61, %if.then42
  br label %if.end63, !dbg !4862

if.end63:                                         ; preds = %if.end62, %if.then38
  br label %if.end64, !dbg !4863

if.end64:                                         ; preds = %if.end63, %if.else34
  %23 = load i32, i32* %bestmove, align 4, !dbg !4864
  %cmp65 = icmp eq i32 %23, -1, !dbg !4866
  br i1 %cmp65, label %if.then66, label %if.end92, !dbg !4867

if.then66:                                        ; preds = %if.end64
  call void @llvm.dbg.declare(metadata float* %score, metadata !4868, metadata !DIExpression()), !dbg !4870
  %m_rootstate67 = getelementptr inbounds %class.UCTSearch, %class.UCTSearch* %this1, i32 0, i32 0, !dbg !4871
  %24 = load %class.GameState*, %class.GameState** %m_rootstate67, align 8, !dbg !4871
  %25 = bitcast %class.GameState* %24 to %class.FastState*, !dbg !4871
  %call68 = call float @_ZN9FastState11final_scoreEv(%class.FastState* %25), !dbg !4872
  store float %call68, float* %score, align 4, !dbg !4870
  %26 = load float, float* %score, align 4, !dbg !4873
  %cmp69 = fcmp ogt float %26, 0.000000e+00, !dbg !4875
  br i1 %cmp69, label %land.lhs.true, label %lor.lhs.false, !dbg !4876

land.lhs.true:                                    ; preds = %if.then66
  %27 = load i32, i32* %color, align 4, !dbg !4877
  %cmp70 = icmp eq i32 %27, 1, !dbg !4878
  br i1 %cmp70, label %if.then74, label %lor.lhs.false, !dbg !4879

lor.lhs.false:                                    ; preds = %land.lhs.true, %if.then66
  %28 = load float, float* %score, align 4, !dbg !4880
  %cmp71 = fcmp olt float %28, 0.000000e+00, !dbg !4881
  br i1 %cmp71, label %land.lhs.true72, label %if.else90, !dbg !4882

land.lhs.true72:                                  ; preds = %lor.lhs.false
  %29 = load i32, i32* %color, align 4, !dbg !4883
  %cmp73 = icmp eq i32 %29, 0, !dbg !4884
  br i1 %cmp73, label %if.then74, label %if.else90, !dbg !4885

if.then74:                                        ; preds = %land.lhs.true72, %land.lhs.true
  call void (i8*, ...) @_ZN5Utils8myprintfEPKcz(i8* getelementptr inbounds ([19 x i8], [19 x i8]* @.str.6, i64 0, i64 0)), !dbg !4886
  call void @llvm.dbg.declare(metadata %class.UCTNode** %nopass75, metadata !4888, metadata !DIExpression()), !dbg !4889
  %m_root76 = getelementptr inbounds %class.UCTSearch, %class.UCTSearch* %this1, i32 0, i32 1, !dbg !4890
  %call77 = call %class.UCTNode* @_ZN7UCTNode16get_nopass_childEv(%class.UCTNode* %m_root76), !dbg !4891
  store %class.UCTNode* %call77, %class.UCTNode** %nopass75, align 8, !dbg !4889
  %30 = load %class.UCTNode*, %class.UCTNode** %nopass75, align 8, !dbg !4892
  %cmp78 = icmp ne %class.UCTNode* %30, null, !dbg !4894
  br i1 %cmp78, label %if.then79, label %if.else88, !dbg !4895

if.then79:                                        ; preds = %if.then74
  call void (i8*, ...) @_ZN5Utils8myprintfEPKcz(i8* getelementptr inbounds ([33 x i8], [33 x i8]* @.str.7, i64 0, i64 0)), !dbg !4896
  %31 = load %class.UCTNode*, %class.UCTNode** %nopass75, align 8, !dbg !4898
  %call80 = call i32 @_ZNK7UCTNode8get_moveEv(%class.UCTNode* %31), !dbg !4899
  store i32 %call80, i32* %bestmove, align 4, !dbg !4900
  %32 = load %class.UCTNode*, %class.UCTNode** %nopass75, align 8, !dbg !4901
  %call81 = call zeroext i1 @_ZNK7UCTNode11first_visitEv(%class.UCTNode* %32), !dbg !4903
  br i1 %call81, label %if.then82, label %if.else83, !dbg !4904

if.then82:                                        ; preds = %if.then79
  store float 1.000000e+00, float* %bestscore, align 4, !dbg !4905
  br label %if.end87, !dbg !4907

if.else83:                                        ; preds = %if.then79
  %33 = load %class.UCTNode*, %class.UCTNode** %nopass75, align 8, !dbg !4908
  %34 = load i32, i32* %color, align 4, !dbg !4910
  %call84 = call i32 @_ZNK7UCTNode11get_winrateEi(%class.UCTNode* %33, i32 %34), !dbg !4911
  %conv85 = sitofp i32 %call84 to float, !dbg !4908
  %div86 = fdiv float %conv85, 1.000000e+03, !dbg !4912
  store float %div86, float* %bestscore, align 4, !dbg !4913
  br label %if.end87

if.end87:                                         ; preds = %if.else83, %if.then82
  br label %if.end89, !dbg !4914

if.else88:                                        ; preds = %if.then74
  call void (i8*, ...) @_ZN5Utils8myprintfEPKcz(i8* getelementptr inbounds ([28 x i8], [28 x i8]* @.str.8, i64 0, i64 0)), !dbg !4915
  br label %if.end89

if.end89:                                         ; preds = %if.else88, %if.end87
  br label %if.end91, !dbg !4917

if.else90:                                        ; preds = %land.lhs.true72, %lor.lhs.false
  call void (i8*, ...) @_ZN5Utils8myprintfEPKcz(i8* getelementptr inbounds ([18 x i8], [18 x i8]* @.str.9, i64 0, i64 0)), !dbg !4918
  br label %if.end91

if.end91:                                         ; preds = %if.else90, %if.end89
  br label %if.end92, !dbg !4920

if.end92:                                         ; preds = %if.end91, %if.end64
  br label %if.end93

if.end93:                                         ; preds = %if.end92, %if.end33
  %35 = load i32, i32* %bestmove, align 4, !dbg !4921
  %cmp94 = icmp ne i32 %35, -1, !dbg !4923
  br i1 %cmp94, label %if.then95, label %if.end116, !dbg !4924

if.then95:                                        ; preds = %if.end93
  %36 = load i32, i32* %passflag.addr, align 4, !dbg !4925
  %and96 = and i32 %36, 2, !dbg !4928
  %cmp97 = icmp eq i32 %and96, 0, !dbg !4929
  br i1 %cmp97, label %if.then98, label %if.end115, !dbg !4930

if.then98:                                        ; preds = %if.then95
  call void @llvm.dbg.declare(metadata i32* %movetresh, metadata !4931, metadata !DIExpression()), !dbg !4933
  %m_rootstate99 = getelementptr inbounds %class.UCTSearch, %class.UCTSearch* %this1, i32 0, i32 0, !dbg !4934
  %37 = load %class.GameState*, %class.GameState** %m_rootstate99, align 8, !dbg !4934
  %38 = bitcast %class.GameState* %37 to %class.FastState*, !dbg !4934
  %board100 = getelementptr inbounds %class.FastState, %class.FastState* %38, i32 0, i32 0, !dbg !4935
  %39 = bitcast %class.FullBoard* %board100 to %class.FastBoard*, !dbg !4934
  %call101 = call i32 @_ZN9FastBoard13get_boardsizeEv(%class.FastBoard* %39), !dbg !4936
  %m_rootstate102 = getelementptr inbounds %class.UCTSearch, %class.UCTSearch* %this1, i32 0, i32 0, !dbg !4937
  %40 = load %class.GameState*, %class.GameState** %m_rootstate102, align 8, !dbg !4937
  %41 = bitcast %class.GameState* %40 to %class.FastState*, !dbg !4937
  %board103 = getelementptr inbounds %class.FastState, %class.FastState* %41, i32 0, i32 0, !dbg !4938
  %42 = bitcast %class.FullBoard* %board103 to %class.FastBoard*, !dbg !4937
  %call104 = call i32 @_ZN9FastBoard13get_boardsizeEv(%class.FastBoard* %42), !dbg !4939
  %mul105 = mul nsw i32 %call101, %call104, !dbg !4940
  %div106 = sdiv i32 %mul105, 3, !dbg !4941
  store i32 %div106, i32* %movetresh, align 4, !dbg !4933
  %43 = load float, float* %bestscore, align 4, !dbg !4942
  %cmp107 = fcmp olt float %43, 0x3FC3333340000000, !dbg !4944
  br i1 %cmp107, label %land.lhs.true108, label %if.end114, !dbg !4945

land.lhs.true108:                                 ; preds = %if.then98
  %44 = load i32, i32* %visits, align 4, !dbg !4946
  %cmp109 = icmp sgt i32 %44, 90, !dbg !4947
  br i1 %cmp109, label %land.lhs.true110, label %if.end114, !dbg !4948

land.lhs.true110:                                 ; preds = %land.lhs.true108
  %m_rootstate111 = getelementptr inbounds %class.UCTSearch, %class.UCTSearch* %this1, i32 0, i32 0, !dbg !4949
  %45 = load %class.GameState*, %class.GameState** %m_rootstate111, align 8, !dbg !4949
  %46 = bitcast %class.GameState* %45 to %class.FastState*, !dbg !4949
  %movenum = getelementptr inbounds %class.FastState, %class.FastState* %46, i32 0, i32 5, !dbg !4950
  %47 = load i32, i32* %movenum, align 8, !dbg !4950
  %48 = load i32, i32* %movetresh, align 4, !dbg !4951
  %cmp112 = icmp sgt i32 %47, %48, !dbg !4952
  br i1 %cmp112, label %if.then113, label %if.end114, !dbg !4953

if.then113:                                       ; preds = %land.lhs.true110
  call void (i8*, ...) @_ZN5Utils8myprintfEPKcz(i8* getelementptr inbounds ([29 x i8], [29 x i8]* @.str.10, i64 0, i64 0)), !dbg !4954
  store i32 -2, i32* %bestmove, align 4, !dbg !4956
  br label %if.end114, !dbg !4957

if.end114:                                        ; preds = %if.then113, %land.lhs.true110, %land.lhs.true108, %if.then98
  br label %if.end115, !dbg !4958

if.end115:                                        ; preds = %if.end114, %if.then95
  br label %if.end116, !dbg !4959

if.end116:                                        ; preds = %if.end115, %if.end93
  %49 = load i32, i32* %bestmove, align 4, !dbg !4960
  store i32 %49, i32* %retval, align 4, !dbg !4961
  br label %return, !dbg !4961

return:                                           ; preds = %if.end116, %if.then9
  %50 = load i32, i32* %retval, align 4, !dbg !4962
  ret i32 %50, !dbg !4962
}

declare dso_local %class.UCTNode* @_ZN7UCTNode16get_nopass_childEv(%class.UCTNode*) #2

declare dso_local i32 @_ZN9FastState13get_last_moveEv(%class.FastState*) #2

declare dso_local %class.UCTNode* @_ZN7UCTNode14get_pass_childEv(%class.UCTNode*) #2

declare dso_local float @_ZN9FastState11final_scoreEv(%class.FastState*) #2

declare dso_local i32 @_ZN9FastBoard13get_boardsizeEv(%class.FastBoard*) #2

; Function Attrs: nounwind
declare dso_local void @_ZNSt7__cxx1112basic_stringIcSt11char_traitsIcESaIcEEC1Ev(%"class.std::__cxx11::basic_string"*) unnamed_addr #5

declare dso_local void @_ZNSt7__cxx1112basic_stringIcSt11char_traitsIcESaIcEEC1ERKS4_(%"class.std::__cxx11::basic_string"*, %"class.std::__cxx11::basic_string"* dereferenceable(32)) unnamed_addr #2

declare dso_local dereferenceable(32) %"class.std::__cxx11::basic_string"* @_ZNSt7__cxx1112basic_stringIcSt11char_traitsIcESaIcEE6appendEPKc(%"class.std::__cxx11::basic_string"*, i8*) #2

declare dso_local dereferenceable(32) %"class.std::__cxx11::basic_string"* @_ZNSt7__cxx1112basic_stringIcSt11char_traitsIcESaIcEE6appendERKS4_(%"class.std::__cxx11::basic_string"*, %"class.std::__cxx11::basic_string"* dereferenceable(32)) #2

; Function Attrs: nounwind
declare dso_local void @_ZNSt7__cxx1112basic_stringIcSt11char_traitsIcESaIcEEC1EOS4_(%"class.std::__cxx11::basic_string"*, %"class.std::__cxx11::basic_string"* dereferenceable(32)) unnamed_addr #5

; Function Attrs: noinline uwtable
define dso_local void @_ZN9UCTSearch13dump_analysisEv(%class.UCTSearch* %this) #0 align 2 personality i8* bitcast (i32 (...)* @__gxx_personality_v0 to i8*) !dbg !4963 {
entry:
  %this.addr = alloca %class.UCTSearch*, align 8
  %tempstate = alloca %class.GameState, align 8
  %color = alloca i32, align 4
  %pvstring = alloca %"class.std::__cxx11::basic_string", align 8
  %exn.slot = alloca i8*
  %ehselector.slot = alloca i32
  %winrate = alloca float, align 4
  %ref.tmp = alloca float, align 4
  %ref.tmp7 = alloca float, align 4
  store %class.UCTSearch* %this, %class.UCTSearch** %this.addr, align 8
  call void @llvm.dbg.declare(metadata %class.UCTSearch** %this.addr, metadata !4964, metadata !DIExpression()), !dbg !4965
  %this1 = load %class.UCTSearch*, %class.UCTSearch** %this.addr, align 8
  call void @llvm.dbg.declare(metadata %class.GameState* %tempstate, metadata !4966, metadata !DIExpression()), !dbg !4967
  %m_rootstate = getelementptr inbounds %class.UCTSearch, %class.UCTSearch* %this1, i32 0, i32 0, !dbg !4968
  %0 = load %class.GameState*, %class.GameState** %m_rootstate, align 8, !dbg !4968
  call void @_ZN9GameStateC2ERKS_(%class.GameState* %tempstate, %class.GameState* dereferenceable(8512) %0), !dbg !4968
  call void @llvm.dbg.declare(metadata i32* %color, metadata !4969, metadata !DIExpression()), !dbg !4970
  %1 = bitcast %class.GameState* %tempstate to %class.FastState*, !dbg !4971
  %board = getelementptr inbounds %class.FastState, %class.FastState* %1, i32 0, i32 0, !dbg !4972
  %2 = bitcast %class.FullBoard* %board to %class.FastBoard*, !dbg !4971
  %m_tomove = getelementptr inbounds %class.FastBoard, %class.FastBoard* %2, i32 0, i32 3, !dbg !4973
  %3 = load i32, i32* %m_tomove, align 8, !dbg !4973
  store i32 %3, i32* %color, align 4, !dbg !4970
  call void @llvm.dbg.declare(metadata %"class.std::__cxx11::basic_string"* %pvstring, metadata !4974, metadata !DIExpression()), !dbg !4975
  %m_root = getelementptr inbounds %class.UCTSearch, %class.UCTSearch* %this1, i32 0, i32 1, !dbg !4976
  invoke void @_ZN9UCTSearch6get_pvB5cxx11ER9GameStateR7UCTNode(%"class.std::__cxx11::basic_string"* sret %pvstring, %class.UCTSearch* %this1, %class.GameState* dereferenceable(8512) %tempstate, %class.UCTNode* dereferenceable(56) %m_root)
          to label %invoke.cont unwind label %lpad, !dbg !4977

invoke.cont:                                      ; preds = %entry
  call void @llvm.dbg.declare(metadata float* %winrate, metadata !4978, metadata !DIExpression()), !dbg !4979
  %m_root2 = getelementptr inbounds %class.UCTSearch, %class.UCTSearch* %this1, i32 0, i32 1, !dbg !4980
  %4 = load i32, i32* %color, align 4, !dbg !4981
  %call = invoke i32 @_ZNK7UCTNode11get_winrateEi(%class.UCTNode* %m_root2, i32 %4)
          to label %invoke.cont4 unwind label %lpad3, !dbg !4982

invoke.cont4:                                     ; preds = %invoke.cont
  %conv = sitofp i32 %call to float, !dbg !4980
  %div = fdiv float %conv, 1.000000e+01, !dbg !4983
  store float %div, float* %winrate, align 4, !dbg !4979
  store float 0.000000e+00, float* %ref.tmp, align 4, !dbg !4984
  %call6 = invoke dereferenceable(4) float* @_ZSt3maxIfERKT_S2_S2_(float* dereferenceable(4) %ref.tmp, float* dereferenceable(4) %winrate)
          to label %invoke.cont5 unwind label %lpad3, !dbg !4985

invoke.cont5:                                     ; preds = %invoke.cont4
  %5 = load float, float* %call6, align 4, !dbg !4985
  store float %5, float* %winrate, align 4, !dbg !4986
  store float 1.000000e+02, float* %ref.tmp7, align 4, !dbg !4987
  %call9 = invoke dereferenceable(4) float* @_ZSt3minIfERKT_S2_S2_(float* dereferenceable(4) %ref.tmp7, float* dereferenceable(4) %winrate)
          to label %invoke.cont8 unwind label %lpad3, !dbg !4988

invoke.cont8:                                     ; preds = %invoke.cont5
  %6 = load float, float* %call9, align 4, !dbg !4988
  store float %6, float* %winrate, align 4, !dbg !4989
  %m_root10 = getelementptr inbounds %class.UCTSearch, %class.UCTSearch* %this1, i32 0, i32 1, !dbg !4990
  %call12 = invoke i32 @_ZNK7UCTNode10get_visitsEv(%class.UCTNode* %m_root10)
          to label %invoke.cont11 unwind label %lpad3, !dbg !4991

invoke.cont11:                                    ; preds = %invoke.cont8
  %7 = load float, float* %winrate, align 4, !dbg !4992
  %conv13 = fpext float %7 to double, !dbg !4992
  %call14 = call i8* @_ZNKSt7__cxx1112basic_stringIcSt11char_traitsIcESaIcEE5c_strEv(%"class.std::__cxx11::basic_string"* %pvstring) #11, !dbg !4993
  invoke void (i8*, ...) @_ZN5Utils8myprintfEPKcz(i8* getelementptr inbounds ([33 x i8], [33 x i8]* @.str.12, i64 0, i64 0), i32 %call12, double %conv13, i8* %call14)
          to label %invoke.cont15 unwind label %lpad3, !dbg !4994

invoke.cont15:                                    ; preds = %invoke.cont11
  call void @_ZNSt7__cxx1112basic_stringIcSt11char_traitsIcESaIcEED1Ev(%"class.std::__cxx11::basic_string"* %pvstring) #11, !dbg !4995
  call void @_ZN9GameStateD2Ev(%class.GameState* %tempstate) #11, !dbg !4995
  ret void, !dbg !4995

lpad:                                             ; preds = %entry
  %8 = landingpad { i8*, i32 }
          cleanup, !dbg !4995
  %9 = extractvalue { i8*, i32 } %8, 0, !dbg !4995
  store i8* %9, i8** %exn.slot, align 8, !dbg !4995
  %10 = extractvalue { i8*, i32 } %8, 1, !dbg !4995
  store i32 %10, i32* %ehselector.slot, align 4, !dbg !4995
  br label %ehcleanup, !dbg !4995

lpad3:                                            ; preds = %invoke.cont11, %invoke.cont8, %invoke.cont5, %invoke.cont4, %invoke.cont
  %11 = landingpad { i8*, i32 }
          cleanup, !dbg !4995
  %12 = extractvalue { i8*, i32 } %11, 0, !dbg !4995
  store i8* %12, i8** %exn.slot, align 8, !dbg !4995
  %13 = extractvalue { i8*, i32 } %11, 1, !dbg !4995
  store i32 %13, i32* %ehselector.slot, align 4, !dbg !4995
  call void @_ZNSt7__cxx1112basic_stringIcSt11char_traitsIcESaIcEED1Ev(%"class.std::__cxx11::basic_string"* %pvstring) #11, !dbg !4995
  br label %ehcleanup, !dbg !4995

ehcleanup:                                        ; preds = %lpad3, %lpad
  call void @_ZN9GameStateD2Ev(%class.GameState* %tempstate) #11, !dbg !4995
  br label %eh.resume, !dbg !4995

eh.resume:                                        ; preds = %ehcleanup
  %exn = load i8*, i8** %exn.slot, align 8, !dbg !4995
  %sel = load i32, i32* %ehselector.slot, align 4, !dbg !4995
  %lpad.val = insertvalue { i8*, i32 } undef, i8* %exn, 0, !dbg !4995
  %lpad.val16 = insertvalue { i8*, i32 } %lpad.val, i32 %sel, 1, !dbg !4995
  resume { i8*, i32 } %lpad.val16, !dbg !4995
}

; Function Attrs: noinline nounwind uwtable
define linkonce_odr dso_local dereferenceable(4) float* @_ZSt3maxIfERKT_S2_S2_(float* dereferenceable(4) %__a, float* dereferenceable(4) %__b) #3 comdat !dbg !4996 {
entry:
  %retval = alloca float*, align 8
  %__a.addr = alloca float*, align 8
  %__b.addr = alloca float*, align 8
  store float* %__a, float** %__a.addr, align 8
  call void @llvm.dbg.declare(metadata float** %__a.addr, metadata !5004, metadata !DIExpression()), !dbg !5006
  store float* %__b, float** %__b.addr, align 8
  call void @llvm.dbg.declare(metadata float** %__b.addr, metadata !5007, metadata !DIExpression()), !dbg !5008
  %0 = load float*, float** %__a.addr, align 8, !dbg !5009
  %1 = load float, float* %0, align 4, !dbg !5009
  %2 = load float*, float** %__b.addr, align 8, !dbg !5011
  %3 = load float, float* %2, align 4, !dbg !5011
  %cmp = fcmp olt float %1, %3, !dbg !5012
  br i1 %cmp, label %if.then, label %if.end, !dbg !5013

if.then:                                          ; preds = %entry
  %4 = load float*, float** %__b.addr, align 8, !dbg !5014
  store float* %4, float** %retval, align 8, !dbg !5015
  br label %return, !dbg !5015

if.end:                                           ; preds = %entry
  %5 = load float*, float** %__a.addr, align 8, !dbg !5016
  store float* %5, float** %retval, align 8, !dbg !5017
  br label %return, !dbg !5017

return:                                           ; preds = %if.end, %if.then
  %6 = load float*, float** %retval, align 8, !dbg !5018
  ret float* %6, !dbg !5018
}

; Function Attrs: noinline nounwind uwtable
define linkonce_odr dso_local dereferenceable(4) float* @_ZSt3minIfERKT_S2_S2_(float* dereferenceable(4) %__a, float* dereferenceable(4) %__b) #3 comdat !dbg !5019 {
entry:
  %retval = alloca float*, align 8
  %__a.addr = alloca float*, align 8
  %__b.addr = alloca float*, align 8
  store float* %__a, float** %__a.addr, align 8
  call void @llvm.dbg.declare(metadata float** %__a.addr, metadata !5020, metadata !DIExpression()), !dbg !5021
  store float* %__b, float** %__b.addr, align 8
  call void @llvm.dbg.declare(metadata float** %__b.addr, metadata !5022, metadata !DIExpression()), !dbg !5023
  %0 = load float*, float** %__b.addr, align 8, !dbg !5024
  %1 = load float, float* %0, align 4, !dbg !5024
  %2 = load float*, float** %__a.addr, align 8, !dbg !5026
  %3 = load float, float* %2, align 4, !dbg !5026
  %cmp = fcmp olt float %1, %3, !dbg !5027
  br i1 %cmp, label %if.then, label %if.end, !dbg !5028

if.then:                                          ; preds = %entry
  %4 = load float*, float** %__b.addr, align 8, !dbg !5029
  store float* %4, float** %retval, align 8, !dbg !5030
  br label %return, !dbg !5030

if.end:                                           ; preds = %entry
  %5 = load float*, float** %__a.addr, align 8, !dbg !5031
  store float* %5, float** %retval, align 8, !dbg !5032
  br label %return, !dbg !5032

return:                                           ; preds = %if.end, %if.then
  %6 = load float*, float** %retval, align 8, !dbg !5033
  ret float* %6, !dbg !5033
}

; Function Attrs: noinline nounwind uwtable
define dso_local zeroext i1 @_ZN9UCTSearch10is_runningEv(%class.UCTSearch* %this) #3 align 2 !dbg !5034 {
entry:
  %this.addr = alloca %class.UCTSearch*, align 8
  store %class.UCTSearch* %this, %class.UCTSearch** %this.addr, align 8
  call void @llvm.dbg.declare(metadata %class.UCTSearch** %this.addr, metadata !5035, metadata !DIExpression()), !dbg !5036
  %this1 = load %class.UCTSearch*, %class.UCTSearch** %this.addr, align 8
  %m_run = getelementptr inbounds %class.UCTSearch, %class.UCTSearch* %this1, i32 0, i32 5, !dbg !5037
  %0 = load i8, i8* %m_run, align 4, !dbg !5037
  %tobool = trunc i8 %0 to i1, !dbg !5037
  ret i1 %tobool, !dbg !5038
}

; Function Attrs: noinline uwtable
define dso_local void @_ZN9UCTWorkerclEv(%class.UCTWorker* %this) #0 align 2 personality i8* bitcast (i32 (...)* @__gxx_personality_v0 to i8*) !dbg !5039 {
entry:
  %this.addr = alloca %class.UCTWorker*, align 8
  %currstate = alloca %class.KoState, align 8
  %tmp = alloca %class.Playout, align 8
  %exn.slot = alloca i8*
  %ehselector.slot = alloca i32
  store %class.UCTWorker* %this, %class.UCTWorker** %this.addr, align 8
  call void @llvm.dbg.declare(metadata %class.UCTWorker** %this.addr, metadata !5052, metadata !DIExpression()), !dbg !5054
  %this1 = load %class.UCTWorker*, %class.UCTWorker** %this.addr, align 8
  br label %do.body, !dbg !5055

do.body:                                          ; preds = %do.cond, %entry
  call void @llvm.dbg.declare(metadata %class.KoState* %currstate, metadata !5056, metadata !DIExpression()), !dbg !5058
  %m_rootstate = getelementptr inbounds %class.UCTWorker, %class.UCTWorker* %this1, i32 0, i32 0, !dbg !5059
  %0 = load %class.GameState*, %class.GameState** %m_rootstate, align 8, !dbg !5059
  %1 = bitcast %class.GameState* %0 to %class.KoState*, !dbg !5059
  call void @_ZN7KoStateC2ERKS_(%class.KoState* %currstate, %class.KoState* dereferenceable(8440) %1), !dbg !5059
  %m_search = getelementptr inbounds %class.UCTWorker, %class.UCTWorker* %this1, i32 0, i32 2, !dbg !5060
  %2 = load %class.UCTSearch*, %class.UCTSearch** %m_search, align 8, !dbg !5060
  %m_root = getelementptr inbounds %class.UCTWorker, %class.UCTWorker* %this1, i32 0, i32 1, !dbg !5061
  %3 = load %class.UCTNode*, %class.UCTNode** %m_root, align 8, !dbg !5061
  invoke void @_ZN9UCTSearch15play_simulationER7KoStateP7UCTNode(%class.Playout* sret %tmp, %class.UCTSearch* %2, %class.KoState* dereferenceable(8440) %currstate, %class.UCTNode* %3)
          to label %invoke.cont unwind label %lpad, !dbg !5062

invoke.cont:                                      ; preds = %do.body
  call void @_ZN7KoStateD2Ev(%class.KoState* %currstate) #11, !dbg !5063
  br label %do.cond, !dbg !5064

do.cond:                                          ; preds = %invoke.cont
  %m_search2 = getelementptr inbounds %class.UCTWorker, %class.UCTWorker* %this1, i32 0, i32 2, !dbg !5065
  %4 = load %class.UCTSearch*, %class.UCTSearch** %m_search2, align 8, !dbg !5065
  %call = call zeroext i1 @_ZN9UCTSearch10is_runningEv(%class.UCTSearch* %4), !dbg !5066
  br i1 %call, label %do.body, label %do.end, !dbg !5064, !llvm.loop !5067

do.end:                                           ; preds = %do.cond
  ret void, !dbg !5069

lpad:                                             ; preds = %do.body
  %5 = landingpad { i8*, i32 }
          cleanup, !dbg !5070
  %6 = extractvalue { i8*, i32 } %5, 0, !dbg !5070
  store i8* %6, i8** %exn.slot, align 8, !dbg !5070
  %7 = extractvalue { i8*, i32 } %5, 1, !dbg !5070
  store i32 %7, i32* %ehselector.slot, align 4, !dbg !5070
  call void @_ZN7KoStateD2Ev(%class.KoState* %currstate) #11, !dbg !5063
  br label %eh.resume, !dbg !5063

eh.resume:                                        ; preds = %lpad
  %exn = load i8*, i8** %exn.slot, align 8, !dbg !5063
  %sel = load i32, i32* %ehselector.slot, align 4, !dbg !5063
  %lpad.val = insertvalue { i8*, i32 } undef, i8* %exn, 0, !dbg !5063
  %lpad.val3 = insertvalue { i8*, i32 } %lpad.val, i32 %sel, 1, !dbg !5063
  resume { i8*, i32 } %lpad.val3, !dbg !5063
}

; Function Attrs: noinline uwtable
define linkonce_odr dso_local void @_ZN7KoStateC2ERKS_(%class.KoState* %this, %class.KoState* dereferenceable(8440) %0) unnamed_addr #0 comdat align 2 personality i8* bitcast (i32 (...)* @__gxx_personality_v0 to i8*) !dbg !5071 {
entry:
  %this.addr = alloca %class.KoState*, align 8
  %.addr = alloca %class.KoState*, align 8
  %exn.slot = alloca i8*
  %ehselector.slot = alloca i32
  store %class.KoState* %this, %class.KoState** %this.addr, align 8
  call void @llvm.dbg.declare(metadata %class.KoState** %this.addr, metadata !5075, metadata !DIExpression()), !dbg !5076
  store %class.KoState* %0, %class.KoState** %.addr, align 8
  call void @llvm.dbg.declare(metadata %class.KoState** %.addr, metadata !5077, metadata !DIExpression()), !dbg !5076
  %this1 = load %class.KoState*, %class.KoState** %this.addr, align 8
  %1 = bitcast %class.KoState* %this1 to %class.FastState*, !dbg !5078
  %2 = load %class.KoState*, %class.KoState** %.addr, align 8, !dbg !5078
  %3 = bitcast %class.KoState* %2 to %class.FastState*, !dbg !5078
  call void @_ZN9FastStateC2ERKS_(%class.FastState* %1, %class.FastState* dereferenceable(8392) %3), !dbg !5078
  %ko_hash_history = getelementptr inbounds %class.KoState, %class.KoState* %this1, i32 0, i32 1, !dbg !5078
  %4 = load %class.KoState*, %class.KoState** %.addr, align 8, !dbg !5078
  %ko_hash_history2 = getelementptr inbounds %class.KoState, %class.KoState* %4, i32 0, i32 1, !dbg !5078
  invoke void @_ZNSt6vectorIySaIyEEC2ERKS1_(%"class.std::vector.7"* %ko_hash_history, %"class.std::vector.7"* dereferenceable(24) %ko_hash_history2)
          to label %invoke.cont unwind label %lpad, !dbg !5078

invoke.cont:                                      ; preds = %entry
  %hash_history = getelementptr inbounds %class.KoState, %class.KoState* %this1, i32 0, i32 2, !dbg !5078
  %5 = load %class.KoState*, %class.KoState** %.addr, align 8, !dbg !5078
  %hash_history3 = getelementptr inbounds %class.KoState, %class.KoState* %5, i32 0, i32 2, !dbg !5078
  invoke void @_ZNSt6vectorIySaIyEEC2ERKS1_(%"class.std::vector.7"* %hash_history, %"class.std::vector.7"* dereferenceable(24) %hash_history3)
          to label %invoke.cont5 unwind label %lpad4, !dbg !5078

invoke.cont5:                                     ; preds = %invoke.cont
  ret void, !dbg !5078

lpad:                                             ; preds = %entry
  %6 = landingpad { i8*, i32 }
          cleanup, !dbg !5078
  %7 = extractvalue { i8*, i32 } %6, 0, !dbg !5078
  store i8* %7, i8** %exn.slot, align 8, !dbg !5078
  %8 = extractvalue { i8*, i32 } %6, 1, !dbg !5078
  store i32 %8, i32* %ehselector.slot, align 4, !dbg !5078
  br label %ehcleanup, !dbg !5078

lpad4:                                            ; preds = %invoke.cont
  %9 = landingpad { i8*, i32 }
          cleanup, !dbg !5078
  %10 = extractvalue { i8*, i32 } %9, 0, !dbg !5078
  store i8* %10, i8** %exn.slot, align 8, !dbg !5078
  %11 = extractvalue { i8*, i32 } %9, 1, !dbg !5078
  store i32 %11, i32* %ehselector.slot, align 4, !dbg !5078
  call void @_ZNSt6vectorIySaIyEED2Ev(%"class.std::vector.7"* %ko_hash_history) #11, !dbg !5079
  br label %ehcleanup, !dbg !5079

ehcleanup:                                        ; preds = %lpad4, %lpad
  %12 = bitcast %class.KoState* %this1 to %class.FastState*, !dbg !5079
  call void @_ZN9FastStateD2Ev(%class.FastState* %12) #11, !dbg !5079
  br label %eh.resume, !dbg !5079

eh.resume:                                        ; preds = %ehcleanup
  %exn = load i8*, i8** %exn.slot, align 8, !dbg !5079
  %sel = load i32, i32* %ehselector.slot, align 4, !dbg !5079
  %lpad.val = insertvalue { i8*, i32 } undef, i8* %exn, 0, !dbg !5079
  %lpad.val6 = insertvalue { i8*, i32 } %lpad.val, i32 %sel, 1, !dbg !5079
  resume { i8*, i32 } %lpad.val6, !dbg !5079
}

; Function Attrs: noinline nounwind uwtable
define linkonce_odr dso_local void @_ZN7KoStateD2Ev(%class.KoState* %this) unnamed_addr #3 comdat align 2 !dbg !5081 {
entry:
  %this.addr = alloca %class.KoState*, align 8
  store %class.KoState* %this, %class.KoState** %this.addr, align 8
  call void @llvm.dbg.declare(metadata %class.KoState** %this.addr, metadata !5083, metadata !DIExpression()), !dbg !5084
  %this1 = load %class.KoState*, %class.KoState** %this.addr, align 8
  %hash_history = getelementptr inbounds %class.KoState, %class.KoState* %this1, i32 0, i32 2, !dbg !5085
  call void @_ZNSt6vectorIySaIyEED2Ev(%"class.std::vector.7"* %hash_history) #11, !dbg !5085
  %ko_hash_history = getelementptr inbounds %class.KoState, %class.KoState* %this1, i32 0, i32 1, !dbg !5085
  call void @_ZNSt6vectorIySaIyEED2Ev(%"class.std::vector.7"* %ko_hash_history) #11, !dbg !5085
  %0 = bitcast %class.KoState* %this1 to %class.FastState*, !dbg !5085
  call void @_ZN9FastStateD2Ev(%class.FastState* %0) #11, !dbg !5085
  ret void, !dbg !5087
}

; Function Attrs: noinline nounwind uwtable
define dso_local float @_ZN9UCTSearch9get_scoreEv(%class.UCTSearch* %this) #3 align 2 !dbg !5088 {
entry:
  %this.addr = alloca %class.UCTSearch*, align 8
  store %class.UCTSearch* %this, %class.UCTSearch** %this.addr, align 8
  call void @llvm.dbg.declare(metadata %class.UCTSearch** %this.addr, metadata !5089, metadata !DIExpression()), !dbg !5090
  %this1 = load %class.UCTSearch*, %class.UCTSearch** %this.addr, align 8
  %m_score = getelementptr inbounds %class.UCTSearch, %class.UCTSearch* %this1, i32 0, i32 4, !dbg !5091
  %0 = load float, float* %m_score, align 8, !dbg !5091
  ret float %0, !dbg !5092
}

; Function Attrs: noinline uwtable
define dso_local i32 @_ZN9UCTSearch5thinkEii(%class.UCTSearch* %this, i32 %color, i32 %passflag) #0 align 2 personality i8* bitcast (i32 (...)* @__gxx_personality_v0 to i8*) !dbg !5093 {
entry:
  %retval = alloca i32, align 4
  %this.addr = alloca %class.UCTSearch*, align 8
  %color.addr = alloca i32, align 4
  %passflag.addr = alloca i32, align 4
  %start = alloca %class.Time, align 4
  %centiseconds_elapsed = alloca i32, align 4
  %time_for_move = alloca i32, align 4
  %last_update = alloca i32, align 4
  %rm = alloca i32, align 4
  %max_iterations = alloca i32, align 4
  %display_iterations = alloca i32, align 4
  %score = alloca float, align 4
  %cpus = alloca i32, align 4
  %keeprunning = alloca i8, align 1
  %iterations = alloca i32, align 4
  %currstate = alloca %class.KoState, align 8
  %tmp = alloca %class.Playout, align 8
  %exn.slot = alloca i8*
  %ehselector.slot = alloca i32
  %bestmove = alloca i32, align 4
  store %class.UCTSearch* %this, %class.UCTSearch** %this.addr, align 8
  call void @llvm.dbg.declare(metadata %class.UCTSearch** %this.addr, metadata !5094, metadata !DIExpression()), !dbg !5095
  store i32 %color, i32* %color.addr, align 4
  call void @llvm.dbg.declare(metadata i32* %color.addr, metadata !5096, metadata !DIExpression()), !dbg !5097
  store i32 %passflag, i32* %passflag.addr, align 4
  call void @llvm.dbg.declare(metadata i32* %passflag.addr, metadata !5098, metadata !DIExpression()), !dbg !5099
  %this1 = load %class.UCTSearch*, %class.UCTSearch** %this.addr, align 8
  %0 = load i32, i32* %color.addr, align 4, !dbg !5100
  %m_rootstate = getelementptr inbounds %class.UCTSearch, %class.UCTSearch* %this1, i32 0, i32 0, !dbg !5101
  %1 = load %class.GameState*, %class.GameState** %m_rootstate, align 8, !dbg !5101
  %2 = bitcast %class.GameState* %1 to %class.FastState*, !dbg !5101
  %board = getelementptr inbounds %class.FastState, %class.FastState* %2, i32 0, i32 0, !dbg !5102
  %3 = bitcast %class.FullBoard* %board to %class.FastBoard*, !dbg !5101
  %m_tomove = getelementptr inbounds %class.FastBoard, %class.FastBoard* %3, i32 0, i32 3, !dbg !5103
  store i32 %0, i32* %m_tomove, align 8, !dbg !5104
  call void @llvm.dbg.declare(metadata %class.Time* %start, metadata !5105, metadata !DIExpression()), !dbg !5106
  call void @_ZN4TimeC1Ev(%class.Time* %start), !dbg !5106
  call void @llvm.dbg.declare(metadata i32* %centiseconds_elapsed, metadata !5107, metadata !DIExpression()), !dbg !5108
  call void @llvm.dbg.declare(metadata i32* %time_for_move, metadata !5109, metadata !DIExpression()), !dbg !5110
  call void @llvm.dbg.declare(metadata i32* %last_update, metadata !5111, metadata !DIExpression()), !dbg !5112
  store i32 0, i32* %last_update, align 4, !dbg !5112
  %m_analyzing = getelementptr inbounds %class.UCTSearch, %class.UCTSearch* %this1, i32 0, i32 9, !dbg !5113
  %4 = load i8, i8* %m_analyzing, align 8, !dbg !5113
  %tobool = trunc i8 %4 to i1, !dbg !5113
  br i1 %tobool, label %if.else39, label %if.then, !dbg !5115

if.then:                                          ; preds = %entry
  %m_rootstate2 = getelementptr inbounds %class.UCTSearch, %class.UCTSearch* %this1, i32 0, i32 0, !dbg !5116
  %5 = load %class.GameState*, %class.GameState** %m_rootstate2, align 8, !dbg !5116
  %call = call %class.TimeControl* @_ZN9GameState15get_timecontrolEv(%class.GameState* %5), !dbg !5118
  %6 = load i32, i32* %color.addr, align 4, !dbg !5119
  %call3 = call i32 @_ZN11TimeControl17max_time_for_moveEi(%class.TimeControl* %call, i32 %6), !dbg !5120
  store i32 %call3, i32* %time_for_move, align 4, !dbg !5121
  %m_rootstate4 = getelementptr inbounds %class.UCTSearch, %class.UCTSearch* %this1, i32 0, i32 0, !dbg !5122
  %7 = load %class.GameState*, %class.GameState** %m_rootstate4, align 8, !dbg !5122
  %8 = bitcast %class.GameState* %7 to %class.FastState*, !dbg !5122
  %call5 = call i32 @_ZN9FastState12get_handicapEv(%class.FastState* %8), !dbg !5124
  %cmp = icmp eq i32 %call5, 0, !dbg !5125
  br i1 %cmp, label %if.then6, label %if.end38, !dbg !5126

if.then6:                                         ; preds = %if.then
  %m_rootstate7 = getelementptr inbounds %class.UCTSearch, %class.UCTSearch* %this1, i32 0, i32 0, !dbg !5127
  %9 = load %class.GameState*, %class.GameState** %m_rootstate7, align 8, !dbg !5127
  %10 = bitcast %class.GameState* %9 to %class.FastState*, !dbg !5127
  %board8 = getelementptr inbounds %class.FastState, %class.FastState* %10, i32 0, i32 0, !dbg !5130
  %call9 = call i64 @_ZN9FullBoard11get_ko_hashEv(%class.FullBoard* %board8), !dbg !5131
  %cmp10 = icmp eq i64 %call9, -4227546272005961421, !dbg !5132
  br i1 %cmp10, label %if.then11, label %if.else, !dbg !5133

if.then11:                                        ; preds = %if.then6
  store i32 60, i32* %retval, align 4, !dbg !5134
  br label %return, !dbg !5134

if.else:                                          ; preds = %if.then6
  %m_rootstate12 = getelementptr inbounds %class.UCTSearch, %class.UCTSearch* %this1, i32 0, i32 0, !dbg !5136
  %11 = load %class.GameState*, %class.GameState** %m_rootstate12, align 8, !dbg !5136
  %12 = bitcast %class.GameState* %11 to %class.FastState*, !dbg !5136
  %board13 = getelementptr inbounds %class.FastState, %class.FastState* %12, i32 0, i32 0, !dbg !5138
  %call14 = call i64 @_ZN9FullBoard11get_ko_hashEv(%class.FullBoard* %board13), !dbg !5139
  %cmp15 = icmp eq i64 %call14, 1645110429106286179, !dbg !5140
  br i1 %cmp15, label %if.then16, label %if.else22, !dbg !5141

if.then16:                                        ; preds = %if.else
  %call17 = call %class.Random* @_ZN6Random7get_RngEv(), !dbg !5142
  %call18 = call i32 @_ZN6Random7randintEt(%class.Random* %call17, i16 zeroext 2), !dbg !5145
  %cmp19 = icmp eq i32 %call18, 0, !dbg !5146
  br i1 %cmp19, label %if.then20, label %if.else21, !dbg !5147

if.then20:                                        ; preds = %if.then16
  store i32 82, i32* %retval, align 4, !dbg !5148
  br label %return, !dbg !5148

if.else21:                                        ; preds = %if.then16
  store i32 81, i32* %retval, align 4, !dbg !5150
  br label %return, !dbg !5150

if.else22:                                        ; preds = %if.else
  %m_rootstate23 = getelementptr inbounds %class.UCTSearch, %class.UCTSearch* %this1, i32 0, i32 0, !dbg !5152
  %13 = load %class.GameState*, %class.GameState** %m_rootstate23, align 8, !dbg !5152
  %14 = bitcast %class.GameState* %13 to %class.FastState*, !dbg !5152
  %board24 = getelementptr inbounds %class.FastState, %class.FastState* %14, i32 0, i32 0, !dbg !5154
  %call25 = call i64 @_ZN9FullBoard11get_ko_hashEv(%class.FullBoard* %board24), !dbg !5155
  %cmp26 = icmp eq i64 %call25, -7724308731872248033, !dbg !5156
  br i1 %cmp26, label %if.then27, label %if.end, !dbg !5157

if.then27:                                        ; preds = %if.else22
  call void @llvm.dbg.declare(metadata i32* %rm, metadata !5158, metadata !DIExpression()), !dbg !5160
  %call28 = call %class.Random* @_ZN6Random7get_RngEv(), !dbg !5161
  %call29 = call i32 @_ZN6Random7randintEt(%class.Random* %call28, i16 zeroext 3), !dbg !5162
  store i32 %call29, i32* %rm, align 4, !dbg !5160
  %15 = load i32, i32* %rm, align 4, !dbg !5163
  %cmp30 = icmp eq i32 %15, 0, !dbg !5165
  br i1 %cmp30, label %if.then31, label %if.else32, !dbg !5166

if.then31:                                        ; preds = %if.then27
  store i32 352, i32* %retval, align 4, !dbg !5167
  br label %return, !dbg !5167

if.else32:                                        ; preds = %if.then27
  %16 = load i32, i32* %rm, align 4, !dbg !5169
  %cmp33 = icmp eq i32 %16, 1, !dbg !5171
  br i1 %cmp33, label %if.then34, label %if.else35, !dbg !5172

if.then34:                                        ; preds = %if.else32
  store i32 373, i32* %retval, align 4, !dbg !5173
  br label %return, !dbg !5173

if.else35:                                        ; preds = %if.else32
  store i32 374, i32* %retval, align 4, !dbg !5175
  br label %return, !dbg !5175

if.end:                                           ; preds = %if.else22
  br label %if.end36

if.end36:                                         ; preds = %if.end
  br label %if.end37

if.end37:                                         ; preds = %if.end36
  br label %if.end38, !dbg !5177

if.end38:                                         ; preds = %if.end37, %if.then
  br label %if.end40, !dbg !5178

if.else39:                                        ; preds = %entry
  store i32 500000000, i32* %time_for_move, align 4, !dbg !5179
  br label %if.end40

if.end40:                                         ; preds = %if.else39, %if.end38
  call void @llvm.dbg.declare(metadata i32* %max_iterations, metadata !5181, metadata !DIExpression()), !dbg !5182
  store i32 0, i32* %max_iterations, align 4, !dbg !5182
  call void @llvm.dbg.declare(metadata i32* %display_iterations, metadata !5183, metadata !DIExpression()), !dbg !5184
  store i32 0, i32* %display_iterations, align 4, !dbg !5184
  %m_rootstate41 = getelementptr inbounds %class.UCTSearch, %class.UCTSearch* %this1, i32 0, i32 0, !dbg !5185
  %17 = load %class.GameState*, %class.GameState** %m_rootstate41, align 8, !dbg !5185
  %18 = bitcast %class.GameState* %17 to %class.FastState*, !dbg !5185
  %board42 = getelementptr inbounds %class.FastState, %class.FastState* %18, i32 0, i32 0, !dbg !5187
  %19 = bitcast %class.FullBoard* %board42 to %class.FastBoard*, !dbg !5185
  %call43 = call i32 @_ZN9FastBoard13get_boardsizeEv(%class.FastBoard* %19), !dbg !5188
  %cmp44 = icmp eq i32 %call43, 9, !dbg !5189
  br i1 %cmp44, label %if.then45, label %if.else46, !dbg !5190

if.then45:                                        ; preds = %if.end40
  store i32 10000, i32* %max_iterations, align 4, !dbg !5191
  store i32 2000, i32* %display_iterations, align 4, !dbg !5193
  br label %if.end47, !dbg !5194

if.else46:                                        ; preds = %if.end40
  store i32 4000, i32* %max_iterations, align 4, !dbg !5195
  store i32 1000, i32* %display_iterations, align 4, !dbg !5197
  br label %if.end47

if.end47:                                         ; preds = %if.else46, %if.then45
  %m_rootstate48 = getelementptr inbounds %class.UCTSearch, %class.UCTSearch* %this1, i32 0, i32 0, !dbg !5198
  %20 = load %class.GameState*, %class.GameState** %m_rootstate48, align 8, !dbg !5198
  %21 = load i32, i32* %color.addr, align 4, !dbg !5199
  call void @_ZN9GameState11start_clockEi(%class.GameState* %20, i32 %21), !dbg !5200
  call void @_ZN12MCOwnerTable5clearEv(), !dbg !5201
  call void @llvm.dbg.declare(metadata float* %score, metadata !5202, metadata !DIExpression()), !dbg !5203
  %m_rootstate49 = getelementptr inbounds %class.UCTSearch, %class.UCTSearch* %this1, i32 0, i32 0, !dbg !5204
  %22 = load %class.GameState*, %class.GameState** %m_rootstate49, align 8, !dbg !5204
  %23 = bitcast %class.GameState* %22 to %class.FastState*, !dbg !5204
  %call50 = call float @_ZN7Playout8mc_ownerER9FastStatei(%class.FastState* dereferenceable(8392) %23, i32 64), !dbg !5205
  store float %call50, float* %score, align 4, !dbg !5203
  %m_root = getelementptr inbounds %class.UCTSearch, %class.UCTSearch* %this1, i32 0, i32 1, !dbg !5206
  %m_rootstate51 = getelementptr inbounds %class.UCTSearch, %class.UCTSearch* %this1, i32 0, i32 0, !dbg !5207
  %24 = load %class.GameState*, %class.GameState** %m_rootstate51, align 8, !dbg !5207
  %25 = bitcast %class.GameState* %24 to %class.FastState*, !dbg !5207
  %call52 = call i32 @_ZN7UCTNode15create_childrenER9FastStateb(%class.UCTNode* %m_root, %class.FastState* dereferenceable(8392) %25, i1 zeroext true), !dbg !5208
  %m_nodes = getelementptr inbounds %class.UCTSearch, %class.UCTSearch* %this1, i32 0, i32 2, !dbg !5209
  %26 = load i32, i32* %m_nodes, align 8, !dbg !5210
  %add = add nsw i32 %26, %call52, !dbg !5210
  store i32 %add, i32* %m_nodes, align 8, !dbg !5210
  %m_root53 = getelementptr inbounds %class.UCTSearch, %class.UCTSearch* %this1, i32 0, i32 1, !dbg !5211
  %m_rootstate54 = getelementptr inbounds %class.UCTSearch, %class.UCTSearch* %this1, i32 0, i32 0, !dbg !5212
  %27 = load %class.GameState*, %class.GameState** %m_rootstate54, align 8, !dbg !5212
  %28 = bitcast %class.GameState* %27 to %class.KoState*, !dbg !5212
  call void @_ZN7UCTNode13kill_superkosER7KoState(%class.UCTNode* %m_root53, %class.KoState* dereferenceable(8440) %28), !dbg !5213
  %m_run = getelementptr inbounds %class.UCTSearch, %class.UCTSearch* %this1, i32 0, i32 5, !dbg !5214
  store i8 1, i8* %m_run, align 4, !dbg !5215
  call void @llvm.dbg.declare(metadata i32* %cpus, metadata !5216, metadata !DIExpression()), !dbg !5217
  store i32 1, i32* %cpus, align 4, !dbg !5217
  call void @llvm.dbg.declare(metadata i8* %keeprunning, metadata !5218, metadata !DIExpression()), !dbg !5219
  store i8 1, i8* %keeprunning, align 1, !dbg !5219
  call void @llvm.dbg.declare(metadata i32* %iterations, metadata !5220, metadata !DIExpression()), !dbg !5221
  store i32 0, i32* %iterations, align 4, !dbg !5221
  br label %do.body, !dbg !5222

do.body:                                          ; preds = %do.cond, %if.end47
  call void @llvm.dbg.declare(metadata %class.KoState* %currstate, metadata !5223, metadata !DIExpression()), !dbg !5225
  %m_rootstate55 = getelementptr inbounds %class.UCTSearch, %class.UCTSearch* %this1, i32 0, i32 0, !dbg !5226
  %29 = load %class.GameState*, %class.GameState** %m_rootstate55, align 8, !dbg !5226
  %30 = bitcast %class.GameState* %29 to %class.KoState*, !dbg !5226
  call void @_ZN7KoStateC2ERKS_(%class.KoState* %currstate, %class.KoState* dereferenceable(8440) %30), !dbg !5226
  %m_root56 = getelementptr inbounds %class.UCTSearch, %class.UCTSearch* %this1, i32 0, i32 1, !dbg !5227
  invoke void @_ZN9UCTSearch15play_simulationER7KoStateP7UCTNode(%class.Playout* sret %tmp, %class.UCTSearch* %this1, %class.KoState* dereferenceable(8440) %currstate, %class.UCTNode* %m_root56)
          to label %invoke.cont unwind label %lpad, !dbg !5228

invoke.cont:                                      ; preds = %do.body
  %m_analyzing57 = getelementptr inbounds %class.UCTSearch, %class.UCTSearch* %this1, i32 0, i32 9, !dbg !5229
  %31 = load i8, i8* %m_analyzing57, align 8, !dbg !5229
  %tobool58 = trunc i8 %31 to i1, !dbg !5229
  br i1 %tobool58, label %if.else70, label %if.then59, !dbg !5231

if.then59:                                        ; preds = %invoke.cont
  %32 = load i32, i32* %iterations, align 4, !dbg !5232
  %33 = load i32, i32* %display_iterations, align 4, !dbg !5235
  %rem = srem i32 %32, %33, !dbg !5236
  %cmp60 = icmp eq i32 %rem, 0, !dbg !5237
  br i1 %cmp60, label %if.then61, label %if.end63, !dbg !5238

if.then61:                                        ; preds = %if.then59
  invoke void @_ZN9UCTSearch13dump_analysisEv(%class.UCTSearch* %this1)
          to label %invoke.cont62 unwind label %lpad, !dbg !5239

invoke.cont62:                                    ; preds = %if.then61
  br label %if.end63, !dbg !5241

lpad:                                             ; preds = %if.then73, %if.end63, %if.then61, %do.body
  %34 = landingpad { i8*, i32 }
          cleanup, !dbg !5242
  %35 = extractvalue { i8*, i32 } %34, 0, !dbg !5242
  store i8* %35, i8** %exn.slot, align 8, !dbg !5242
  %36 = extractvalue { i8*, i32 } %34, 1, !dbg !5242
  store i32 %36, i32* %ehselector.slot, align 4, !dbg !5242
  call void @_ZN7KoStateD2Ev(%class.KoState* %currstate) #11, !dbg !5243
  br label %eh.resume, !dbg !5243

if.end63:                                         ; preds = %invoke.cont62, %if.then59
  %m_root64 = getelementptr inbounds %class.UCTSearch, %class.UCTSearch* %this1, i32 0, i32 1, !dbg !5244
  %call66 = invoke i32 @_ZNK7UCTNode10get_visitsEv(%class.UCTNode* %m_root64)
          to label %invoke.cont65 unwind label %lpad, !dbg !5245

invoke.cont65:                                    ; preds = %if.end63
  %m_maxvisits = getelementptr inbounds %class.UCTSearch, %class.UCTSearch* %this1, i32 0, i32 3, !dbg !5246
  %37 = load i32, i32* %m_maxvisits, align 4, !dbg !5246
  %cmp67 = icmp slt i32 %call66, %37, !dbg !5247
  br i1 %cmp67, label %land.rhs, label %land.end, !dbg !5248

land.rhs:                                         ; preds = %invoke.cont65
  %m_hasrunflag = getelementptr inbounds %class.UCTSearch, %class.UCTSearch* %this1, i32 0, i32 6, !dbg !5249
  %38 = load i8, i8* %m_hasrunflag, align 1, !dbg !5249
  %tobool68 = trunc i8 %38 to i1, !dbg !5249
  br i1 %tobool68, label %lor.rhs, label %lor.end, !dbg !5250

lor.rhs:                                          ; preds = %land.rhs
  %m_runflag = getelementptr inbounds %class.UCTSearch, %class.UCTSearch* %this1, i32 0, i32 8, !dbg !5251
  %39 = load i8*, i8** %m_runflag, align 8, !dbg !5251
  %40 = load i8, i8* %39, align 1, !dbg !5252
  %tobool69 = trunc i8 %40 to i1, !dbg !5252
  br label %lor.end, !dbg !5250

lor.end:                                          ; preds = %lor.rhs, %land.rhs
  %41 = phi i1 [ true, %land.rhs ], [ %tobool69, %lor.rhs ]
  br label %land.end

land.end:                                         ; preds = %lor.end, %invoke.cont65
  %42 = phi i1 [ false, %invoke.cont65 ], [ %41, %lor.end ], !dbg !5253
  %frombool = zext i1 %42 to i8, !dbg !5254
  store i8 %frombool, i8* %keeprunning, align 1, !dbg !5254
  br label %if.end83, !dbg !5255

if.else70:                                        ; preds = %invoke.cont
  %43 = load i32, i32* %iterations, align 4, !dbg !5256
  %44 = load i32, i32* %display_iterations, align 4, !dbg !5259
  %rem71 = srem i32 %43, %44, !dbg !5260
  %cmp72 = icmp eq i32 %rem71, 0, !dbg !5261
  br i1 %cmp72, label %if.then73, label %if.end75, !dbg !5262

if.then73:                                        ; preds = %if.else70
  invoke void @_ZN9UCTSearch13dump_analysisEv(%class.UCTSearch* %this1)
          to label %invoke.cont74 unwind label %lpad, !dbg !5263

invoke.cont74:                                    ; preds = %if.then73
  br label %if.end75, !dbg !5265

if.end75:                                         ; preds = %invoke.cont74, %if.else70
  %m_hasrunflag76 = getelementptr inbounds %class.UCTSearch, %class.UCTSearch* %this1, i32 0, i32 6, !dbg !5266
  %45 = load i8, i8* %m_hasrunflag76, align 1, !dbg !5266
  %tobool77 = trunc i8 %45 to i1, !dbg !5266
  br i1 %tobool77, label %lor.rhs78, label %lor.end81, !dbg !5267

lor.rhs78:                                        ; preds = %if.end75
  %m_runflag79 = getelementptr inbounds %class.UCTSearch, %class.UCTSearch* %this1, i32 0, i32 8, !dbg !5268
  %46 = load i8*, i8** %m_runflag79, align 8, !dbg !5268
  %47 = load i8, i8* %46, align 1, !dbg !5269
  %tobool80 = trunc i8 %47 to i1, !dbg !5269
  br label %lor.end81, !dbg !5267

lor.end81:                                        ; preds = %lor.rhs78, %if.end75
  %48 = phi i1 [ true, %if.end75 ], [ %tobool80, %lor.rhs78 ]
  %frombool82 = zext i1 %48 to i8, !dbg !5270
  store i8 %frombool82, i8* %keeprunning, align 1, !dbg !5270
  br label %if.end83

if.end83:                                         ; preds = %lor.end81, %land.end
  %49 = load i32, i32* %iterations, align 4, !dbg !5271
  %inc = add nsw i32 %49, 1, !dbg !5271
  store i32 %inc, i32* %iterations, align 4, !dbg !5271
  %50 = load i32, i32* %max_iterations, align 4, !dbg !5273
  %cmp84 = icmp sgt i32 %49, %50, !dbg !5274
  br i1 %cmp84, label %if.then85, label %if.end86, !dbg !5275

if.then85:                                        ; preds = %if.end83
  store i8 0, i8* %keeprunning, align 1, !dbg !5276
  br label %if.end86, !dbg !5278

if.end86:                                         ; preds = %if.then85, %if.end83
  call void @_ZN7KoStateD2Ev(%class.KoState* %currstate) #11, !dbg !5243
  br label %do.cond, !dbg !5279

do.cond:                                          ; preds = %if.end86
  %51 = load i8, i8* %keeprunning, align 1, !dbg !5280
  %tobool87 = trunc i8 %51 to i1, !dbg !5280
  br i1 %tobool87, label %do.body, label %do.end, !dbg !5279, !llvm.loop !5281

do.end:                                           ; preds = %do.cond
  %m_run88 = getelementptr inbounds %class.UCTSearch, %class.UCTSearch* %this1, i32 0, i32 5, !dbg !5283
  store i8 0, i8* %m_run88, align 4, !dbg !5284
  %m_root89 = getelementptr inbounds %class.UCTSearch, %class.UCTSearch* %this1, i32 0, i32 1, !dbg !5285
  %call90 = call zeroext i1 @_ZNK7UCTNode12has_childrenEv(%class.UCTNode* %m_root89), !dbg !5287
  br i1 %call90, label %if.end92, label %if.then91, !dbg !5288

if.then91:                                        ; preds = %do.end
  store i32 -1, i32* %retval, align 4, !dbg !5289
  br label %return, !dbg !5289

if.end92:                                         ; preds = %do.end
  %m_rootstate93 = getelementptr inbounds %class.UCTSearch, %class.UCTSearch* %this1, i32 0, i32 0, !dbg !5291
  %52 = load %class.GameState*, %class.GameState** %m_rootstate93, align 8, !dbg !5291
  %53 = load i32, i32* %color.addr, align 4, !dbg !5292
  call void @_ZN9GameState10stop_clockEi(%class.GameState* %52, i32 %53), !dbg !5293
  call void (i8*, ...) @_ZN5Utils8myprintfEPKcz(i8* getelementptr inbounds ([2 x i8], [2 x i8]* @.str.1, i64 0, i64 0)), !dbg !5294
  %m_rootstate94 = getelementptr inbounds %class.UCTSearch, %class.UCTSearch* %this1, i32 0, i32 0, !dbg !5295
  %54 = load %class.GameState*, %class.GameState** %m_rootstate94, align 8, !dbg !5295
  %m_root95 = getelementptr inbounds %class.UCTSearch, %class.UCTSearch* %this1, i32 0, i32 1, !dbg !5296
  call void @_ZN9UCTSearch10dump_statsER9GameStateR7UCTNode(%class.UCTSearch* %this1, %class.GameState* dereferenceable(8512) %54, %class.UCTNode* dereferenceable(56) %m_root95), !dbg !5297
  %m_root96 = getelementptr inbounds %class.UCTSearch, %class.UCTSearch* %this1, i32 0, i32 1, !dbg !5298
  %call97 = call i32 @_ZNK7UCTNode10get_visitsEv(%class.UCTNode* %m_root96), !dbg !5299
  %m_nodes98 = getelementptr inbounds %class.UCTSearch, %class.UCTSearch* %this1, i32 0, i32 2, !dbg !5300
  %55 = load i32, i32* %m_nodes98, align 8, !dbg !5300
  call void (i8*, ...) @_ZN5Utils8myprintfEPKcz(i8* getelementptr inbounds ([23 x i8], [23 x i8]* @.str.13, i64 0, i64 0), i32 %call97, i32 %55), !dbg !5301
  call void @llvm.dbg.declare(metadata i32* %bestmove, metadata !5302, metadata !DIExpression()), !dbg !5303
  %56 = load i32, i32* %passflag.addr, align 4, !dbg !5304
  %call99 = call i32 @_ZN9UCTSearch13get_best_moveEi(%class.UCTSearch* %this1, i32 %56), !dbg !5305
  store i32 %call99, i32* %bestmove, align 4, !dbg !5303
  %57 = load i32, i32* %bestmove, align 4, !dbg !5306
  store i32 %57, i32* %retval, align 4, !dbg !5307
  br label %return, !dbg !5307

return:                                           ; preds = %if.end92, %if.then91, %if.else35, %if.then34, %if.then31, %if.else21, %if.then20, %if.then11
  %58 = load i32, i32* %retval, align 4, !dbg !5308
  ret i32 %58, !dbg !5308

eh.resume:                                        ; preds = %lpad
  %exn = load i8*, i8** %exn.slot, align 8, !dbg !5243
  %sel = load i32, i32* %ehselector.slot, align 4, !dbg !5243
  %lpad.val = insertvalue { i8*, i32 } undef, i8* %exn, 0, !dbg !5243
  %lpad.val100 = insertvalue { i8*, i32 } %lpad.val, i32 %sel, 1, !dbg !5243
  resume { i8*, i32 } %lpad.val100, !dbg !5243
}

declare dso_local void @_ZN4TimeC1Ev(%class.Time*) unnamed_addr #2

declare dso_local %class.TimeControl* @_ZN9GameState15get_timecontrolEv(%class.GameState*) #2

declare dso_local i32 @_ZN11TimeControl17max_time_for_moveEi(%class.TimeControl*, i32) #2

declare dso_local i32 @_ZN9FastState12get_handicapEv(%class.FastState*) #2

declare dso_local i64 @_ZN9FullBoard11get_ko_hashEv(%class.FullBoard*) #2

declare dso_local %class.Random* @_ZN6Random7get_RngEv() #2

declare dso_local i32 @_ZN6Random7randintEt(%class.Random*, i16 zeroext) #2

declare dso_local void @_ZN9GameState11start_clockEi(%class.GameState*, i32) #2

declare dso_local void @_ZN12MCOwnerTable5clearEv() #2

declare dso_local float @_ZN7Playout8mc_ownerER9FastStatei(%class.FastState* dereferenceable(8392), i32) #2

declare dso_local void @_ZN7UCTNode13kill_superkosER7KoState(%class.UCTNode*, %class.KoState* dereferenceable(8440)) #2

declare dso_local void @_ZN9GameState10stop_clockEi(%class.GameState*, i32) #2

; Function Attrs: noinline uwtable
define dso_local void @_ZN9UCTSearch6ponderEv(%class.UCTSearch* %this) #0 align 2 personality i8* bitcast (i32 (...)* @__gxx_personality_v0 to i8*) !dbg !5309 {
entry:
  %this.addr = alloca %class.UCTSearch*, align 8
  %cpus = alloca i32, align 4
  %currstate = alloca %class.KoState, align 8
  %tmp = alloca %class.Playout, align 8
  %exn.slot = alloca i8*
  %ehselector.slot = alloca i32
  store %class.UCTSearch* %this, %class.UCTSearch** %this.addr, align 8
  call void @llvm.dbg.declare(metadata %class.UCTSearch** %this.addr, metadata !5310, metadata !DIExpression()), !dbg !5311
  %this1 = load %class.UCTSearch*, %class.UCTSearch** %this.addr, align 8
  call void @_ZN12MCOwnerTable5clearEv(), !dbg !5312
  %m_rootstate = getelementptr inbounds %class.UCTSearch, %class.UCTSearch* %this1, i32 0, i32 0, !dbg !5313
  %0 = load %class.GameState*, %class.GameState** %m_rootstate, align 8, !dbg !5313
  %1 = bitcast %class.GameState* %0 to %class.FastState*, !dbg !5313
  %call = call float @_ZN7Playout8mc_ownerER9FastStatei(%class.FastState* dereferenceable(8392) %1, i32 64), !dbg !5314
  %m_run = getelementptr inbounds %class.UCTSearch, %class.UCTSearch* %this1, i32 0, i32 5, !dbg !5315
  store i8 1, i8* %m_run, align 4, !dbg !5316
  call void @llvm.dbg.declare(metadata i32* %cpus, metadata !5317, metadata !DIExpression()), !dbg !5318
  %call2 = call i32 @_ZN3SMP12get_num_cpusEv(), !dbg !5319
  store i32 %call2, i32* %cpus, align 4, !dbg !5318
  br label %do.body, !dbg !5320

do.body:                                          ; preds = %land.end, %entry
  call void @llvm.dbg.declare(metadata %class.KoState* %currstate, metadata !5321, metadata !DIExpression()), !dbg !5323
  %m_rootstate3 = getelementptr inbounds %class.UCTSearch, %class.UCTSearch* %this1, i32 0, i32 0, !dbg !5324
  %2 = load %class.GameState*, %class.GameState** %m_rootstate3, align 8, !dbg !5324
  %3 = bitcast %class.GameState* %2 to %class.KoState*, !dbg !5324
  call void @_ZN7KoStateC2ERKS_(%class.KoState* %currstate, %class.KoState* dereferenceable(8440) %3), !dbg !5324
  %m_root = getelementptr inbounds %class.UCTSearch, %class.UCTSearch* %this1, i32 0, i32 1, !dbg !5325
  invoke void @_ZN9UCTSearch15play_simulationER7KoStateP7UCTNode(%class.Playout* sret %tmp, %class.UCTSearch* %this1, %class.KoState* dereferenceable(8440) %currstate, %class.UCTNode* %m_root)
          to label %invoke.cont unwind label %lpad, !dbg !5326

invoke.cont:                                      ; preds = %do.body
  call void @_ZN7KoStateD2Ev(%class.KoState* %currstate) #11, !dbg !5327
  br label %do.cond, !dbg !5328

do.cond:                                          ; preds = %invoke.cont
  %call4 = call zeroext i1 @_ZN5Utils13input_pendingEv(), !dbg !5329
  br i1 %call4, label %land.end, label %land.rhs, !dbg !5330

land.rhs:                                         ; preds = %do.cond
  %m_hasrunflag = getelementptr inbounds %class.UCTSearch, %class.UCTSearch* %this1, i32 0, i32 6, !dbg !5331
  %4 = load i8, i8* %m_hasrunflag, align 1, !dbg !5331
  %tobool = trunc i8 %4 to i1, !dbg !5331
  br i1 %tobool, label %lor.rhs, label %lor.end, !dbg !5332

lor.rhs:                                          ; preds = %land.rhs
  %m_runflag = getelementptr inbounds %class.UCTSearch, %class.UCTSearch* %this1, i32 0, i32 8, !dbg !5333
  %5 = load i8*, i8** %m_runflag, align 8, !dbg !5333
  %6 = load i8, i8* %5, align 1, !dbg !5334
  %tobool5 = trunc i8 %6 to i1, !dbg !5334
  br label %lor.end, !dbg !5332

lor.end:                                          ; preds = %lor.rhs, %land.rhs
  %7 = phi i1 [ true, %land.rhs ], [ %tobool5, %lor.rhs ]
  br label %land.end

land.end:                                         ; preds = %lor.end, %do.cond
  %8 = phi i1 [ false, %do.cond ], [ %7, %lor.end ], !dbg !5311
  br i1 %8, label %do.body, label %do.end, !dbg !5328, !llvm.loop !5335

do.end:                                           ; preds = %land.end
  %m_run6 = getelementptr inbounds %class.UCTSearch, %class.UCTSearch* %this1, i32 0, i32 5, !dbg !5337
  store i8 0, i8* %m_run6, align 4, !dbg !5338
  call void (i8*, ...) @_ZN5Utils8myprintfEPKcz(i8* getelementptr inbounds ([2 x i8], [2 x i8]* @.str.1, i64 0, i64 0)), !dbg !5339
  %m_rootstate7 = getelementptr inbounds %class.UCTSearch, %class.UCTSearch* %this1, i32 0, i32 0, !dbg !5340
  %9 = load %class.GameState*, %class.GameState** %m_rootstate7, align 8, !dbg !5340
  %m_root8 = getelementptr inbounds %class.UCTSearch, %class.UCTSearch* %this1, i32 0, i32 1, !dbg !5341
  call void @_ZN9UCTSearch10dump_statsER9GameStateR7UCTNode(%class.UCTSearch* %this1, %class.GameState* dereferenceable(8512) %9, %class.UCTNode* dereferenceable(56) %m_root8), !dbg !5342
  %m_root9 = getelementptr inbounds %class.UCTSearch, %class.UCTSearch* %this1, i32 0, i32 1, !dbg !5343
  %call10 = call i32 @_ZNK7UCTNode10get_visitsEv(%class.UCTNode* %m_root9), !dbg !5344
  %m_nodes = getelementptr inbounds %class.UCTSearch, %class.UCTSearch* %this1, i32 0, i32 2, !dbg !5345
  %10 = load i32, i32* %m_nodes, align 8, !dbg !5345
  call void (i8*, ...) @_ZN5Utils8myprintfEPKcz(i8* getelementptr inbounds ([23 x i8], [23 x i8]* @.str.13, i64 0, i64 0), i32 %call10, i32 %10), !dbg !5346
  ret void, !dbg !5347

lpad:                                             ; preds = %do.body
  %11 = landingpad { i8*, i32 }
          cleanup, !dbg !5348
  %12 = extractvalue { i8*, i32 } %11, 0, !dbg !5348
  store i8* %12, i8** %exn.slot, align 8, !dbg !5348
  %13 = extractvalue { i8*, i32 } %11, 1, !dbg !5348
  store i32 %13, i32* %ehselector.slot, align 4, !dbg !5348
  call void @_ZN7KoStateD2Ev(%class.KoState* %currstate) #11, !dbg !5327
  br label %eh.resume, !dbg !5327

eh.resume:                                        ; preds = %lpad
  %exn = load i8*, i8** %exn.slot, align 8, !dbg !5327
  %sel = load i32, i32* %ehselector.slot, align 4, !dbg !5327
  %lpad.val = insertvalue { i8*, i32 } undef, i8* %exn, 0, !dbg !5327
  %lpad.val11 = insertvalue { i8*, i32 } %lpad.val, i32 %sel, 1, !dbg !5327
  resume { i8*, i32 } %lpad.val11, !dbg !5327
}

declare dso_local i32 @_ZN3SMP12get_num_cpusEv() #2

declare dso_local zeroext i1 @_ZN5Utils13input_pendingEv() #2

; Function Attrs: noinline nounwind uwtable
define dso_local void @_ZN9UCTSearch15set_visit_limitEi(%class.UCTSearch* %this, i32 %visits) #3 align 2 !dbg !5349 {
entry:
  %this.addr = alloca %class.UCTSearch*, align 8
  %visits.addr = alloca i32, align 4
  store %class.UCTSearch* %this, %class.UCTSearch** %this.addr, align 8
  call void @llvm.dbg.declare(metadata %class.UCTSearch** %this.addr, metadata !5350, metadata !DIExpression()), !dbg !5351
  store i32 %visits, i32* %visits.addr, align 4
  call void @llvm.dbg.declare(metadata i32* %visits.addr, metadata !5352, metadata !DIExpression()), !dbg !5353
  %this1 = load %class.UCTSearch*, %class.UCTSearch** %this.addr, align 8
  %0 = load i32, i32* %visits.addr, align 4, !dbg !5354
  %cmp = icmp eq i32 %0, 0, !dbg !5356
  br i1 %cmp, label %if.then, label %if.else, !dbg !5357

if.then:                                          ; preds = %entry
  %m_maxvisits = getelementptr inbounds %class.UCTSearch, %class.UCTSearch* %this1, i32 0, i32 3, !dbg !5358
  store i32 500000000, i32* %m_maxvisits, align 4, !dbg !5360
  br label %if.end, !dbg !5361

if.else:                                          ; preds = %entry
  %1 = load i32, i32* %visits.addr, align 4, !dbg !5362
  %m_maxvisits2 = getelementptr inbounds %class.UCTSearch, %class.UCTSearch* %this1, i32 0, i32 3, !dbg !5364
  store i32 %1, i32* %m_maxvisits2, align 4, !dbg !5365
  br label %if.end

if.end:                                           ; preds = %if.else, %if.then
  ret void, !dbg !5366
}

; Function Attrs: noinline nounwind uwtable
define dso_local void @_ZN9UCTSearch13set_analyzingEb(%class.UCTSearch* %this, i1 zeroext %flag) #3 align 2 !dbg !5367 {
entry:
  %this.addr = alloca %class.UCTSearch*, align 8
  %flag.addr = alloca i8, align 1
  store %class.UCTSearch* %this, %class.UCTSearch** %this.addr, align 8
  call void @llvm.dbg.declare(metadata %class.UCTSearch** %this.addr, metadata !5368, metadata !DIExpression()), !dbg !5369
  %frombool = zext i1 %flag to i8
  store i8 %frombool, i8* %flag.addr, align 1
  call void @llvm.dbg.declare(metadata i8* %flag.addr, metadata !5370, metadata !DIExpression()), !dbg !5371
  %this1 = load %class.UCTSearch*, %class.UCTSearch** %this.addr, align 8
  %0 = load i8, i8* %flag.addr, align 1, !dbg !5372
  %tobool = trunc i8 %0 to i1, !dbg !5372
  %m_analyzing = getelementptr inbounds %class.UCTSearch, %class.UCTSearch* %this1, i32 0, i32 9, !dbg !5373
  %frombool2 = zext i1 %tobool to i8, !dbg !5374
  store i8 %frombool2, i8* %m_analyzing, align 8, !dbg !5374
  ret void, !dbg !5375
}

; Function Attrs: noinline nounwind uwtable
define dso_local void @_ZN9UCTSearch9set_quietEb(%class.UCTSearch* %this, i1 zeroext %flag) #3 align 2 !dbg !5376 {
entry:
  %this.addr = alloca %class.UCTSearch*, align 8
  %flag.addr = alloca i8, align 1
  store %class.UCTSearch* %this, %class.UCTSearch** %this.addr, align 8
  call void @llvm.dbg.declare(metadata %class.UCTSearch** %this.addr, metadata !5377, metadata !DIExpression()), !dbg !5378
  %frombool = zext i1 %flag to i8
  store i8 %frombool, i8* %flag.addr, align 1
  call void @llvm.dbg.declare(metadata i8* %flag.addr, metadata !5379, metadata !DIExpression()), !dbg !5380
  %this1 = load %class.UCTSearch*, %class.UCTSearch** %this.addr, align 8
  %0 = load i8, i8* %flag.addr, align 1, !dbg !5381
  %tobool = trunc i8 %0 to i1, !dbg !5381
  %m_quiet = getelementptr inbounds %class.UCTSearch, %class.UCTSearch* %this1, i32 0, i32 10, !dbg !5382
  %frombool2 = zext i1 %tobool to i8, !dbg !5383
  store i8 %frombool2, i8* %m_quiet, align 1, !dbg !5383
  ret void, !dbg !5384
}

; Function Attrs: noinline uwtable
define linkonce_odr dso_local void @_ZNSt6vectorI7KoStateSaIS0_EEC2ERKS2_(%"class.std::vector.12"* %this, %"class.std::vector.12"* dereferenceable(24) %__x) unnamed_addr #0 comdat align 2 personality i8* bitcast (i32 (...)* @__gxx_personality_v0 to i8*) !dbg !5385 {
entry:
  %this.addr = alloca %"class.std::vector.12"*, align 8
  %__x.addr = alloca %"class.std::vector.12"*, align 8
  %ref.tmp = alloca %"class.std::allocator.14", align 1
  %exn.slot = alloca i8*
  %ehselector.slot = alloca i32
  %agg.tmp = alloca %"class.__gnu_cxx::__normal_iterator.29", align 8
  %agg.tmp4 = alloca %"class.__gnu_cxx::__normal_iterator.29", align 8
  store %"class.std::vector.12"* %this, %"class.std::vector.12"** %this.addr, align 8
  call void @llvm.dbg.declare(metadata %"class.std::vector.12"** %this.addr, metadata !5386, metadata !DIExpression()), !dbg !5388
  store %"class.std::vector.12"* %__x, %"class.std::vector.12"** %__x.addr, align 8
  call void @llvm.dbg.declare(metadata %"class.std::vector.12"** %__x.addr, metadata !5389, metadata !DIExpression()), !dbg !5390
  %this1 = load %"class.std::vector.12"*, %"class.std::vector.12"** %this.addr, align 8
  %0 = bitcast %"class.std::vector.12"* %this1 to %"struct.std::_Vector_base.13"*, !dbg !5391
  %1 = load %"class.std::vector.12"*, %"class.std::vector.12"** %__x.addr, align 8, !dbg !5392
  %call = call i64 @_ZNKSt6vectorI7KoStateSaIS0_EE4sizeEv(%"class.std::vector.12"* %1) #11, !dbg !5393
  %2 = load %"class.std::vector.12"*, %"class.std::vector.12"** %__x.addr, align 8, !dbg !5394
  %3 = bitcast %"class.std::vector.12"* %2 to %"struct.std::_Vector_base.13"*, !dbg !5394
  %call2 = call dereferenceable(1) %"class.std::allocator.14"* @_ZNKSt12_Vector_baseI7KoStateSaIS0_EE19_M_get_Tp_allocatorEv(%"struct.std::_Vector_base.13"* %3) #11, !dbg !5395
  call void @_ZN9__gnu_cxx14__alloc_traitsISaI7KoStateES1_E17_S_select_on_copyERKS2_(%"class.std::allocator.14"* sret %ref.tmp, %"class.std::allocator.14"* dereferenceable(1) %call2), !dbg !5396
  invoke void @_ZNSt12_Vector_baseI7KoStateSaIS0_EEC2EmRKS1_(%"struct.std::_Vector_base.13"* %0, i64 %call, %"class.std::allocator.14"* dereferenceable(1) %ref.tmp)
          to label %invoke.cont unwind label %lpad, !dbg !5397

invoke.cont:                                      ; preds = %entry
  call void @_ZNSaI7KoStateED2Ev(%"class.std::allocator.14"* %ref.tmp) #11, !dbg !5397
  %4 = load %"class.std::vector.12"*, %"class.std::vector.12"** %__x.addr, align 8, !dbg !5398
  %call3 = call %class.KoState* @_ZNKSt6vectorI7KoStateSaIS0_EE5beginEv(%"class.std::vector.12"* %4) #11, !dbg !5400
  %coerce.dive = getelementptr inbounds %"class.__gnu_cxx::__normal_iterator.29", %"class.__gnu_cxx::__normal_iterator.29"* %agg.tmp, i32 0, i32 0, !dbg !5400
  store %class.KoState* %call3, %class.KoState** %coerce.dive, align 8, !dbg !5400
  %5 = load %"class.std::vector.12"*, %"class.std::vector.12"** %__x.addr, align 8, !dbg !5401
  %call5 = call %class.KoState* @_ZNKSt6vectorI7KoStateSaIS0_EE3endEv(%"class.std::vector.12"* %5) #11, !dbg !5402
  %coerce.dive6 = getelementptr inbounds %"class.__gnu_cxx::__normal_iterator.29", %"class.__gnu_cxx::__normal_iterator.29"* %agg.tmp4, i32 0, i32 0, !dbg !5402
  store %class.KoState* %call5, %class.KoState** %coerce.dive6, align 8, !dbg !5402
  %6 = bitcast %"class.std::vector.12"* %this1 to %"struct.std::_Vector_base.13"*, !dbg !5403
  %_M_impl = getelementptr inbounds %"struct.std::_Vector_base.13", %"struct.std::_Vector_base.13"* %6, i32 0, i32 0, !dbg !5403
  %7 = bitcast %"struct.std::_Vector_base<KoState, std::allocator<KoState> >::_Vector_impl"* %_M_impl to %"struct.std::_Vector_base<KoState, std::allocator<KoState> >::_Vector_impl_data"*, !dbg !5404
  %_M_start = getelementptr inbounds %"struct.std::_Vector_base<KoState, std::allocator<KoState> >::_Vector_impl_data", %"struct.std::_Vector_base<KoState, std::allocator<KoState> >::_Vector_impl_data"* %7, i32 0, i32 0, !dbg !5405
  %8 = load %class.KoState*, %class.KoState** %_M_start, align 8, !dbg !5405
  %9 = bitcast %"class.std::vector.12"* %this1 to %"struct.std::_Vector_base.13"*, !dbg !5406
  %call7 = call dereferenceable(1) %"class.std::allocator.14"* @_ZNSt12_Vector_baseI7KoStateSaIS0_EE19_M_get_Tp_allocatorEv(%"struct.std::_Vector_base.13"* %9) #11, !dbg !5406
  %coerce.dive8 = getelementptr inbounds %"class.__gnu_cxx::__normal_iterator.29", %"class.__gnu_cxx::__normal_iterator.29"* %agg.tmp, i32 0, i32 0, !dbg !5407
  %10 = load %class.KoState*, %class.KoState** %coerce.dive8, align 8, !dbg !5407
  %coerce.dive9 = getelementptr inbounds %"class.__gnu_cxx::__normal_iterator.29", %"class.__gnu_cxx::__normal_iterator.29"* %agg.tmp4, i32 0, i32 0, !dbg !5407
  %11 = load %class.KoState*, %class.KoState** %coerce.dive9, align 8, !dbg !5407
  %call12 = invoke %class.KoState* @_ZSt22__uninitialized_copy_aIN9__gnu_cxx17__normal_iteratorIPK7KoStateSt6vectorIS2_SaIS2_EEEEPS2_S2_ET0_T_SB_SA_RSaIT1_E(%class.KoState* %10, %class.KoState* %11, %class.KoState* %8, %"class.std::allocator.14"* dereferenceable(1) %call7)
          to label %invoke.cont11 unwind label %lpad10, !dbg !5407

invoke.cont11:                                    ; preds = %invoke.cont
  %12 = bitcast %"class.std::vector.12"* %this1 to %"struct.std::_Vector_base.13"*, !dbg !5408
  %_M_impl13 = getelementptr inbounds %"struct.std::_Vector_base.13", %"struct.std::_Vector_base.13"* %12, i32 0, i32 0, !dbg !5408
  %13 = bitcast %"struct.std::_Vector_base<KoState, std::allocator<KoState> >::_Vector_impl"* %_M_impl13 to %"struct.std::_Vector_base<KoState, std::allocator<KoState> >::_Vector_impl_data"*, !dbg !5409
  %_M_finish = getelementptr inbounds %"struct.std::_Vector_base<KoState, std::allocator<KoState> >::_Vector_impl_data", %"struct.std::_Vector_base<KoState, std::allocator<KoState> >::_Vector_impl_data"* %13, i32 0, i32 1, !dbg !5410
  store %class.KoState* %call12, %class.KoState** %_M_finish, align 8, !dbg !5411
  ret void, !dbg !5412

lpad:                                             ; preds = %entry
  %14 = landingpad { i8*, i32 }
          cleanup, !dbg !5412
  %15 = extractvalue { i8*, i32 } %14, 0, !dbg !5412
  store i8* %15, i8** %exn.slot, align 8, !dbg !5412
  %16 = extractvalue { i8*, i32 } %14, 1, !dbg !5412
  store i32 %16, i32* %ehselector.slot, align 4, !dbg !5412
  call void @_ZNSaI7KoStateED2Ev(%"class.std::allocator.14"* %ref.tmp) #11, !dbg !5397
  br label %eh.resume, !dbg !5397

lpad10:                                           ; preds = %invoke.cont
  %17 = landingpad { i8*, i32 }
          cleanup, !dbg !5413
  %18 = extractvalue { i8*, i32 } %17, 0, !dbg !5413
  store i8* %18, i8** %exn.slot, align 8, !dbg !5413
  %19 = extractvalue { i8*, i32 } %17, 1, !dbg !5413
  store i32 %19, i32* %ehselector.slot, align 4, !dbg !5413
  %20 = bitcast %"class.std::vector.12"* %this1 to %"struct.std::_Vector_base.13"*, !dbg !5413
  call void @_ZNSt12_Vector_baseI7KoStateSaIS0_EED2Ev(%"struct.std::_Vector_base.13"* %20) #11, !dbg !5413
  br label %eh.resume, !dbg !5413

eh.resume:                                        ; preds = %lpad10, %lpad
  %exn = load i8*, i8** %exn.slot, align 8, !dbg !5397
  %sel = load i32, i32* %ehselector.slot, align 4, !dbg !5397
  %lpad.val = insertvalue { i8*, i32 } undef, i8* %exn, 0, !dbg !5397
  %lpad.val14 = insertvalue { i8*, i32 } %lpad.val, i32 %sel, 1, !dbg !5397
  resume { i8*, i32 } %lpad.val14, !dbg !5397
}

; Function Attrs: noinline uwtable
define linkonce_odr dso_local void @_ZN9FastStateC2ERKS_(%class.FastState* %this, %class.FastState* dereferenceable(8392) %0) unnamed_addr #0 comdat align 2 !dbg !5414 {
entry:
  %this.addr = alloca %class.FastState*, align 8
  %.addr = alloca %class.FastState*, align 8
  store %class.FastState* %this, %class.FastState** %this.addr, align 8
  call void @llvm.dbg.declare(metadata %class.FastState** %this.addr, metadata !5420, metadata !DIExpression()), !dbg !5422
  store %class.FastState* %0, %class.FastState** %.addr, align 8
  call void @llvm.dbg.declare(metadata %class.FastState** %.addr, metadata !5423, metadata !DIExpression()), !dbg !5422
  %this1 = load %class.FastState*, %class.FastState** %this.addr, align 8
  %board = getelementptr inbounds %class.FastState, %class.FastState* %this1, i32 0, i32 0, !dbg !5424
  %1 = load %class.FastState*, %class.FastState** %.addr, align 8, !dbg !5424
  %board2 = getelementptr inbounds %class.FastState, %class.FastState* %1, i32 0, i32 0, !dbg !5424
  call void @_ZN9FullBoardC2ERKS_(%class.FullBoard* %board, %class.FullBoard* dereferenceable(8072) %board2), !dbg !5424
  %m_komi = getelementptr inbounds %class.FastState, %class.FastState* %this1, i32 0, i32 1, !dbg !5424
  %2 = load %class.FastState*, %class.FastState** %.addr, align 8, !dbg !5424
  %m_komi3 = getelementptr inbounds %class.FastState, %class.FastState* %2, i32 0, i32 1, !dbg !5424
  %3 = bitcast float* %m_komi to i8*, !dbg !5424
  %4 = bitcast float* %m_komi3 to i8*, !dbg !5424
  call void @llvm.memcpy.p0i8.p0i8.i64(i8* align 8 %3, i8* align 8 %4, i64 316, i1 false), !dbg !5424
  ret void, !dbg !5424
}

; Function Attrs: noinline uwtable
define linkonce_odr dso_local void @_ZNSt6vectorIySaIyEEC2ERKS1_(%"class.std::vector.7"* %this, %"class.std::vector.7"* dereferenceable(24) %__x) unnamed_addr #0 comdat align 2 personality i8* bitcast (i32 (...)* @__gxx_personality_v0 to i8*) !dbg !5425 {
entry:
  %this.addr = alloca %"class.std::vector.7"*, align 8
  %__x.addr = alloca %"class.std::vector.7"*, align 8
  %ref.tmp = alloca %"class.std::allocator.9", align 1
  %exn.slot = alloca i8*
  %ehselector.slot = alloca i32
  %agg.tmp = alloca %"class.__gnu_cxx::__normal_iterator.28", align 8
  %agg.tmp4 = alloca %"class.__gnu_cxx::__normal_iterator.28", align 8
  store %"class.std::vector.7"* %this, %"class.std::vector.7"** %this.addr, align 8
  call void @llvm.dbg.declare(metadata %"class.std::vector.7"** %this.addr, metadata !5426, metadata !DIExpression()), !dbg !5428
  store %"class.std::vector.7"* %__x, %"class.std::vector.7"** %__x.addr, align 8
  call void @llvm.dbg.declare(metadata %"class.std::vector.7"** %__x.addr, metadata !5429, metadata !DIExpression()), !dbg !5430
  %this1 = load %"class.std::vector.7"*, %"class.std::vector.7"** %this.addr, align 8
  %0 = bitcast %"class.std::vector.7"* %this1 to %"struct.std::_Vector_base.8"*, !dbg !5431
  %1 = load %"class.std::vector.7"*, %"class.std::vector.7"** %__x.addr, align 8, !dbg !5432
  %call = call i64 @_ZNKSt6vectorIySaIyEE4sizeEv(%"class.std::vector.7"* %1) #11, !dbg !5433
  %2 = load %"class.std::vector.7"*, %"class.std::vector.7"** %__x.addr, align 8, !dbg !5434
  %3 = bitcast %"class.std::vector.7"* %2 to %"struct.std::_Vector_base.8"*, !dbg !5434
  %call2 = call dereferenceable(1) %"class.std::allocator.9"* @_ZNKSt12_Vector_baseIySaIyEE19_M_get_Tp_allocatorEv(%"struct.std::_Vector_base.8"* %3) #11, !dbg !5435
  call void @_ZN9__gnu_cxx14__alloc_traitsISaIyEyE17_S_select_on_copyERKS1_(%"class.std::allocator.9"* sret %ref.tmp, %"class.std::allocator.9"* dereferenceable(1) %call2), !dbg !5436
  invoke void @_ZNSt12_Vector_baseIySaIyEEC2EmRKS0_(%"struct.std::_Vector_base.8"* %0, i64 %call, %"class.std::allocator.9"* dereferenceable(1) %ref.tmp)
          to label %invoke.cont unwind label %lpad, !dbg !5437

invoke.cont:                                      ; preds = %entry
  call void @_ZNSaIyED2Ev(%"class.std::allocator.9"* %ref.tmp) #11, !dbg !5437
  %4 = load %"class.std::vector.7"*, %"class.std::vector.7"** %__x.addr, align 8, !dbg !5438
  %call3 = call i64* @_ZNKSt6vectorIySaIyEE5beginEv(%"class.std::vector.7"* %4) #11, !dbg !5440
  %coerce.dive = getelementptr inbounds %"class.__gnu_cxx::__normal_iterator.28", %"class.__gnu_cxx::__normal_iterator.28"* %agg.tmp, i32 0, i32 0, !dbg !5440
  store i64* %call3, i64** %coerce.dive, align 8, !dbg !5440
  %5 = load %"class.std::vector.7"*, %"class.std::vector.7"** %__x.addr, align 8, !dbg !5441
  %call5 = call i64* @_ZNKSt6vectorIySaIyEE3endEv(%"class.std::vector.7"* %5) #11, !dbg !5442
  %coerce.dive6 = getelementptr inbounds %"class.__gnu_cxx::__normal_iterator.28", %"class.__gnu_cxx::__normal_iterator.28"* %agg.tmp4, i32 0, i32 0, !dbg !5442
  store i64* %call5, i64** %coerce.dive6, align 8, !dbg !5442
  %6 = bitcast %"class.std::vector.7"* %this1 to %"struct.std::_Vector_base.8"*, !dbg !5443
  %_M_impl = getelementptr inbounds %"struct.std::_Vector_base.8", %"struct.std::_Vector_base.8"* %6, i32 0, i32 0, !dbg !5443
  %7 = bitcast %"struct.std::_Vector_base<unsigned long long, std::allocator<unsigned long long> >::_Vector_impl"* %_M_impl to %"struct.std::_Vector_base<unsigned long long, std::allocator<unsigned long long> >::_Vector_impl_data"*, !dbg !5444
  %_M_start = getelementptr inbounds %"struct.std::_Vector_base<unsigned long long, std::allocator<unsigned long long> >::_Vector_impl_data", %"struct.std::_Vector_base<unsigned long long, std::allocator<unsigned long long> >::_Vector_impl_data"* %7, i32 0, i32 0, !dbg !5445
  %8 = load i64*, i64** %_M_start, align 8, !dbg !5445
  %9 = bitcast %"class.std::vector.7"* %this1 to %"struct.std::_Vector_base.8"*, !dbg !5446
  %call7 = call dereferenceable(1) %"class.std::allocator.9"* @_ZNSt12_Vector_baseIySaIyEE19_M_get_Tp_allocatorEv(%"struct.std::_Vector_base.8"* %9) #11, !dbg !5446
  %coerce.dive8 = getelementptr inbounds %"class.__gnu_cxx::__normal_iterator.28", %"class.__gnu_cxx::__normal_iterator.28"* %agg.tmp, i32 0, i32 0, !dbg !5447
  %10 = load i64*, i64** %coerce.dive8, align 8, !dbg !5447
  %coerce.dive9 = getelementptr inbounds %"class.__gnu_cxx::__normal_iterator.28", %"class.__gnu_cxx::__normal_iterator.28"* %agg.tmp4, i32 0, i32 0, !dbg !5447
  %11 = load i64*, i64** %coerce.dive9, align 8, !dbg !5447
  %call12 = invoke i64* @_ZSt22__uninitialized_copy_aIN9__gnu_cxx17__normal_iteratorIPKySt6vectorIySaIyEEEEPyyET0_T_SA_S9_RSaIT1_E(i64* %10, i64* %11, i64* %8, %"class.std::allocator.9"* dereferenceable(1) %call7)
          to label %invoke.cont11 unwind label %lpad10, !dbg !5447

invoke.cont11:                                    ; preds = %invoke.cont
  %12 = bitcast %"class.std::vector.7"* %this1 to %"struct.std::_Vector_base.8"*, !dbg !5448
  %_M_impl13 = getelementptr inbounds %"struct.std::_Vector_base.8", %"struct.std::_Vector_base.8"* %12, i32 0, i32 0, !dbg !5448
  %13 = bitcast %"struct.std::_Vector_base<unsigned long long, std::allocator<unsigned long long> >::_Vector_impl"* %_M_impl13 to %"struct.std::_Vector_base<unsigned long long, std::allocator<unsigned long long> >::_Vector_impl_data"*, !dbg !5449
  %_M_finish = getelementptr inbounds %"struct.std::_Vector_base<unsigned long long, std::allocator<unsigned long long> >::_Vector_impl_data", %"struct.std::_Vector_base<unsigned long long, std::allocator<unsigned long long> >::_Vector_impl_data"* %13, i32 0, i32 1, !dbg !5450
  store i64* %call12, i64** %_M_finish, align 8, !dbg !5451
  ret void, !dbg !5452

lpad:                                             ; preds = %entry
  %14 = landingpad { i8*, i32 }
          cleanup, !dbg !5452
  %15 = extractvalue { i8*, i32 } %14, 0, !dbg !5452
  store i8* %15, i8** %exn.slot, align 8, !dbg !5452
  %16 = extractvalue { i8*, i32 } %14, 1, !dbg !5452
  store i32 %16, i32* %ehselector.slot, align 4, !dbg !5452
  call void @_ZNSaIyED2Ev(%"class.std::allocator.9"* %ref.tmp) #11, !dbg !5437
  br label %eh.resume, !dbg !5437

lpad10:                                           ; preds = %invoke.cont
  %17 = landingpad { i8*, i32 }
          cleanup, !dbg !5453
  %18 = extractvalue { i8*, i32 } %17, 0, !dbg !5453
  store i8* %18, i8** %exn.slot, align 8, !dbg !5453
  %19 = extractvalue { i8*, i32 } %17, 1, !dbg !5453
  store i32 %19, i32* %ehselector.slot, align 4, !dbg !5453
  %20 = bitcast %"class.std::vector.7"* %this1 to %"struct.std::_Vector_base.8"*, !dbg !5453
  call void @_ZNSt12_Vector_baseIySaIyEED2Ev(%"struct.std::_Vector_base.8"* %20) #11, !dbg !5453
  br label %eh.resume, !dbg !5453

eh.resume:                                        ; preds = %lpad10, %lpad
  %exn = load i8*, i8** %exn.slot, align 8, !dbg !5437
  %sel = load i32, i32* %ehselector.slot, align 4, !dbg !5437
  %lpad.val = insertvalue { i8*, i32 } undef, i8* %exn, 0, !dbg !5437
  %lpad.val14 = insertvalue { i8*, i32 } %lpad.val, i32 %sel, 1, !dbg !5437
  resume { i8*, i32 } %lpad.val14, !dbg !5437
}

; Function Attrs: noinline nounwind uwtable
define linkonce_odr dso_local void @_ZNSt6vectorIySaIyEED2Ev(%"class.std::vector.7"* %this) unnamed_addr #3 comdat align 2 personality i8* bitcast (i32 (...)* @__gxx_personality_v0 to i8*) !dbg !5454 {
entry:
  %this.addr = alloca %"class.std::vector.7"*, align 8
  %exn.slot = alloca i8*
  %ehselector.slot = alloca i32
  store %"class.std::vector.7"* %this, %"class.std::vector.7"** %this.addr, align 8
  call void @llvm.dbg.declare(metadata %"class.std::vector.7"** %this.addr, metadata !5455, metadata !DIExpression()), !dbg !5456
  %this1 = load %"class.std::vector.7"*, %"class.std::vector.7"** %this.addr, align 8
  %0 = bitcast %"class.std::vector.7"* %this1 to %"struct.std::_Vector_base.8"*, !dbg !5457
  %_M_impl = getelementptr inbounds %"struct.std::_Vector_base.8", %"struct.std::_Vector_base.8"* %0, i32 0, i32 0, !dbg !5457
  %1 = bitcast %"struct.std::_Vector_base<unsigned long long, std::allocator<unsigned long long> >::_Vector_impl"* %_M_impl to %"struct.std::_Vector_base<unsigned long long, std::allocator<unsigned long long> >::_Vector_impl_data"*, !dbg !5459
  %_M_start = getelementptr inbounds %"struct.std::_Vector_base<unsigned long long, std::allocator<unsigned long long> >::_Vector_impl_data", %"struct.std::_Vector_base<unsigned long long, std::allocator<unsigned long long> >::_Vector_impl_data"* %1, i32 0, i32 0, !dbg !5460
  %2 = load i64*, i64** %_M_start, align 8, !dbg !5460
  %3 = bitcast %"class.std::vector.7"* %this1 to %"struct.std::_Vector_base.8"*, !dbg !5461
  %_M_impl2 = getelementptr inbounds %"struct.std::_Vector_base.8", %"struct.std::_Vector_base.8"* %3, i32 0, i32 0, !dbg !5461
  %4 = bitcast %"struct.std::_Vector_base<unsigned long long, std::allocator<unsigned long long> >::_Vector_impl"* %_M_impl2 to %"struct.std::_Vector_base<unsigned long long, std::allocator<unsigned long long> >::_Vector_impl_data"*, !dbg !5462
  %_M_finish = getelementptr inbounds %"struct.std::_Vector_base<unsigned long long, std::allocator<unsigned long long> >::_Vector_impl_data", %"struct.std::_Vector_base<unsigned long long, std::allocator<unsigned long long> >::_Vector_impl_data"* %4, i32 0, i32 1, !dbg !5463
  %5 = load i64*, i64** %_M_finish, align 8, !dbg !5463
  %6 = bitcast %"class.std::vector.7"* %this1 to %"struct.std::_Vector_base.8"*, !dbg !5464
  %call = call dereferenceable(1) %"class.std::allocator.9"* @_ZNSt12_Vector_baseIySaIyEE19_M_get_Tp_allocatorEv(%"struct.std::_Vector_base.8"* %6) #11, !dbg !5464
  invoke void @_ZSt8_DestroyIPyyEvT_S1_RSaIT0_E(i64* %2, i64* %5, %"class.std::allocator.9"* dereferenceable(1) %call)
          to label %invoke.cont unwind label %lpad, !dbg !5465

invoke.cont:                                      ; preds = %entry
  %7 = bitcast %"class.std::vector.7"* %this1 to %"struct.std::_Vector_base.8"*, !dbg !5466
  call void @_ZNSt12_Vector_baseIySaIyEED2Ev(%"struct.std::_Vector_base.8"* %7) #11, !dbg !5466
  ret void, !dbg !5467

lpad:                                             ; preds = %entry
  %8 = landingpad { i8*, i32 }
          catch i8* null, !dbg !5466
  %9 = extractvalue { i8*, i32 } %8, 0, !dbg !5466
  store i8* %9, i8** %exn.slot, align 8, !dbg !5466
  %10 = extractvalue { i8*, i32 } %8, 1, !dbg !5466
  store i32 %10, i32* %ehselector.slot, align 4, !dbg !5466
  %11 = bitcast %"class.std::vector.7"* %this1 to %"struct.std::_Vector_base.8"*, !dbg !5466
  call void @_ZNSt12_Vector_baseIySaIyEED2Ev(%"struct.std::_Vector_base.8"* %11) #11, !dbg !5466
  br label %terminate.handler, !dbg !5466

terminate.handler:                                ; preds = %lpad
  %exn = load i8*, i8** %exn.slot, align 8, !dbg !5466
  call void @__clang_call_terminate(i8* %exn) #12, !dbg !5466
  unreachable, !dbg !5466
}

; Function Attrs: noinline nounwind uwtable
define linkonce_odr dso_local void @_ZN9FastStateD2Ev(%class.FastState* %this) unnamed_addr #3 comdat align 2 !dbg !5468 {
entry:
  %this.addr = alloca %class.FastState*, align 8
  store %class.FastState* %this, %class.FastState** %this.addr, align 8
  call void @llvm.dbg.declare(metadata %class.FastState** %this.addr, metadata !5470, metadata !DIExpression()), !dbg !5471
  %this1 = load %class.FastState*, %class.FastState** %this.addr, align 8
  %board = getelementptr inbounds %class.FastState, %class.FastState* %this1, i32 0, i32 0, !dbg !5472
  call void @_ZN9FullBoardD2Ev(%class.FullBoard* %board) #11, !dbg !5472
  ret void, !dbg !5474
}

; Function Attrs: noinline uwtable
define linkonce_odr dso_local void @_ZN9FullBoardC2ERKS_(%class.FullBoard* %this, %class.FullBoard* dereferenceable(8072) %0) unnamed_addr #0 comdat align 2 !dbg !5475 {
entry:
  %this.addr = alloca %class.FullBoard*, align 8
  %.addr = alloca %class.FullBoard*, align 8
  store %class.FullBoard* %this, %class.FullBoard** %this.addr, align 8
  call void @llvm.dbg.declare(metadata %class.FullBoard** %this.addr, metadata !5481, metadata !DIExpression()), !dbg !5483
  store %class.FullBoard* %0, %class.FullBoard** %.addr, align 8
  call void @llvm.dbg.declare(metadata %class.FullBoard** %.addr, metadata !5484, metadata !DIExpression()), !dbg !5483
  %this1 = load %class.FullBoard*, %class.FullBoard** %this.addr, align 8
  %1 = bitcast %class.FullBoard* %this1 to %class.FastBoard*, !dbg !5485
  %2 = load %class.FullBoard*, %class.FullBoard** %.addr, align 8, !dbg !5485
  %3 = bitcast %class.FullBoard* %2 to %class.FastBoard*, !dbg !5485
  call void @_ZN9FastBoardC2ERKS_(%class.FastBoard* %1, %class.FastBoard* dereferenceable(8056) %3), !dbg !5485
  %hash = getelementptr inbounds %class.FullBoard, %class.FullBoard* %this1, i32 0, i32 1, !dbg !5485
  %4 = load %class.FullBoard*, %class.FullBoard** %.addr, align 8, !dbg !5485
  %hash2 = getelementptr inbounds %class.FullBoard, %class.FullBoard* %4, i32 0, i32 1, !dbg !5485
  %5 = bitcast i64* %hash to i8*, !dbg !5485
  %6 = bitcast i64* %hash2 to i8*, !dbg !5485
  call void @llvm.memcpy.p0i8.p0i8.i64(i8* align 8 %5, i8* align 8 %6, i64 16, i1 false), !dbg !5485
  ret void, !dbg !5485
}

; Function Attrs: noinline uwtable
define linkonce_odr dso_local void @_ZN9FastBoardC2ERKS_(%class.FastBoard* %this, %class.FastBoard* dereferenceable(8056) %0) unnamed_addr #0 comdat align 2 !dbg !5486 {
entry:
  %this.addr = alloca %class.FastBoard*, align 8
  %.addr = alloca %class.FastBoard*, align 8
  store %class.FastBoard* %this, %class.FastBoard** %this.addr, align 8
  call void @llvm.dbg.declare(metadata %class.FastBoard** %this.addr, metadata !5492, metadata !DIExpression()), !dbg !5494
  store %class.FastBoard* %0, %class.FastBoard** %.addr, align 8
  call void @llvm.dbg.declare(metadata %class.FastBoard** %.addr, metadata !5495, metadata !DIExpression()), !dbg !5494
  %this1 = load %class.FastBoard*, %class.FastBoard** %this.addr, align 8
  %m_empty = getelementptr inbounds %class.FastBoard, %class.FastBoard* %this1, i32 0, i32 0, !dbg !5496
  %1 = load %class.FastBoard*, %class.FastBoard** %.addr, align 8, !dbg !5496
  %m_empty2 = getelementptr inbounds %class.FastBoard, %class.FastBoard* %1, i32 0, i32 0, !dbg !5496
  %2 = bitcast %"class.boost::array"* %m_empty to i8*, !dbg !5496
  %3 = bitcast %"class.boost::array"* %m_empty2 to i8*, !dbg !5496
  call void @llvm.memcpy.p0i8.p0i8.i64(i8* align 8 %2, i8* align 8 %3, i64 8024, i1 false), !dbg !5496
  %m_critical = getelementptr inbounds %class.FastBoard, %class.FastBoard* %this1, i32 0, i32 16, !dbg !5496
  %4 = load %class.FastBoard*, %class.FastBoard** %.addr, align 8, !dbg !5496
  %m_critical3 = getelementptr inbounds %class.FastBoard, %class.FastBoard* %4, i32 0, i32 16, !dbg !5496
  call void @_ZNSt6vectorIiSaIiEEC2ERKS1_(%"class.std::vector"* %m_critical, %"class.std::vector"* dereferenceable(24) %m_critical3), !dbg !5496
  %m_boardsize = getelementptr inbounds %class.FastBoard, %class.FastBoard* %this1, i32 0, i32 17, !dbg !5496
  %5 = load %class.FastBoard*, %class.FastBoard** %.addr, align 8, !dbg !5496
  %m_boardsize4 = getelementptr inbounds %class.FastBoard, %class.FastBoard* %5, i32 0, i32 17, !dbg !5496
  %6 = load i32, i32* %m_boardsize4, align 8, !dbg !5496
  store i32 %6, i32* %m_boardsize, align 8, !dbg !5496
  ret void, !dbg !5496
}

; Function Attrs: noinline uwtable
define linkonce_odr dso_local void @_ZNSt6vectorIiSaIiEEC2ERKS1_(%"class.std::vector"* %this, %"class.std::vector"* dereferenceable(24) %__x) unnamed_addr #0 comdat align 2 personality i8* bitcast (i32 (...)* @__gxx_personality_v0 to i8*) !dbg !5497 {
entry:
  %this.addr = alloca %"class.std::vector"*, align 8
  %__x.addr = alloca %"class.std::vector"*, align 8
  %ref.tmp = alloca %"class.std::allocator", align 1
  %exn.slot = alloca i8*
  %ehselector.slot = alloca i32
  %agg.tmp = alloca %"class.__gnu_cxx::__normal_iterator", align 8
  %agg.tmp4 = alloca %"class.__gnu_cxx::__normal_iterator", align 8
  store %"class.std::vector"* %this, %"class.std::vector"** %this.addr, align 8
  call void @llvm.dbg.declare(metadata %"class.std::vector"** %this.addr, metadata !5498, metadata !DIExpression()), !dbg !5500
  store %"class.std::vector"* %__x, %"class.std::vector"** %__x.addr, align 8
  call void @llvm.dbg.declare(metadata %"class.std::vector"** %__x.addr, metadata !5501, metadata !DIExpression()), !dbg !5502
  %this1 = load %"class.std::vector"*, %"class.std::vector"** %this.addr, align 8
  %0 = bitcast %"class.std::vector"* %this1 to %"struct.std::_Vector_base"*, !dbg !5503
  %1 = load %"class.std::vector"*, %"class.std::vector"** %__x.addr, align 8, !dbg !5504
  %call = call i64 @_ZNKSt6vectorIiSaIiEE4sizeEv(%"class.std::vector"* %1) #11, !dbg !5505
  %2 = load %"class.std::vector"*, %"class.std::vector"** %__x.addr, align 8, !dbg !5506
  %3 = bitcast %"class.std::vector"* %2 to %"struct.std::_Vector_base"*, !dbg !5506
  %call2 = call dereferenceable(1) %"class.std::allocator"* @_ZNKSt12_Vector_baseIiSaIiEE19_M_get_Tp_allocatorEv(%"struct.std::_Vector_base"* %3) #11, !dbg !5507
  call void @_ZN9__gnu_cxx14__alloc_traitsISaIiEiE17_S_select_on_copyERKS1_(%"class.std::allocator"* sret %ref.tmp, %"class.std::allocator"* dereferenceable(1) %call2), !dbg !5508
  invoke void @_ZNSt12_Vector_baseIiSaIiEEC2EmRKS0_(%"struct.std::_Vector_base"* %0, i64 %call, %"class.std::allocator"* dereferenceable(1) %ref.tmp)
          to label %invoke.cont unwind label %lpad, !dbg !5509

invoke.cont:                                      ; preds = %entry
  call void @_ZNSaIiED2Ev(%"class.std::allocator"* %ref.tmp) #11, !dbg !5509
  %4 = load %"class.std::vector"*, %"class.std::vector"** %__x.addr, align 8, !dbg !5510
  %call3 = call i32* @_ZNKSt6vectorIiSaIiEE5beginEv(%"class.std::vector"* %4) #11, !dbg !5512
  %coerce.dive = getelementptr inbounds %"class.__gnu_cxx::__normal_iterator", %"class.__gnu_cxx::__normal_iterator"* %agg.tmp, i32 0, i32 0, !dbg !5512
  store i32* %call3, i32** %coerce.dive, align 8, !dbg !5512
  %5 = load %"class.std::vector"*, %"class.std::vector"** %__x.addr, align 8, !dbg !5513
  %call5 = call i32* @_ZNKSt6vectorIiSaIiEE3endEv(%"class.std::vector"* %5) #11, !dbg !5514
  %coerce.dive6 = getelementptr inbounds %"class.__gnu_cxx::__normal_iterator", %"class.__gnu_cxx::__normal_iterator"* %agg.tmp4, i32 0, i32 0, !dbg !5514
  store i32* %call5, i32** %coerce.dive6, align 8, !dbg !5514
  %6 = bitcast %"class.std::vector"* %this1 to %"struct.std::_Vector_base"*, !dbg !5515
  %_M_impl = getelementptr inbounds %"struct.std::_Vector_base", %"struct.std::_Vector_base"* %6, i32 0, i32 0, !dbg !5515
  %7 = bitcast %"struct.std::_Vector_base<int, std::allocator<int> >::_Vector_impl"* %_M_impl to %"struct.std::_Vector_base<int, std::allocator<int> >::_Vector_impl_data"*, !dbg !5516
  %_M_start = getelementptr inbounds %"struct.std::_Vector_base<int, std::allocator<int> >::_Vector_impl_data", %"struct.std::_Vector_base<int, std::allocator<int> >::_Vector_impl_data"* %7, i32 0, i32 0, !dbg !5517
  %8 = load i32*, i32** %_M_start, align 8, !dbg !5517
  %9 = bitcast %"class.std::vector"* %this1 to %"struct.std::_Vector_base"*, !dbg !5518
  %call7 = call dereferenceable(1) %"class.std::allocator"* @_ZNSt12_Vector_baseIiSaIiEE19_M_get_Tp_allocatorEv(%"struct.std::_Vector_base"* %9) #11, !dbg !5518
  %coerce.dive8 = getelementptr inbounds %"class.__gnu_cxx::__normal_iterator", %"class.__gnu_cxx::__normal_iterator"* %agg.tmp, i32 0, i32 0, !dbg !5519
  %10 = load i32*, i32** %coerce.dive8, align 8, !dbg !5519
  %coerce.dive9 = getelementptr inbounds %"class.__gnu_cxx::__normal_iterator", %"class.__gnu_cxx::__normal_iterator"* %agg.tmp4, i32 0, i32 0, !dbg !5519
  %11 = load i32*, i32** %coerce.dive9, align 8, !dbg !5519
  %call12 = invoke i32* @_ZSt22__uninitialized_copy_aIN9__gnu_cxx17__normal_iteratorIPKiSt6vectorIiSaIiEEEEPiiET0_T_SA_S9_RSaIT1_E(i32* %10, i32* %11, i32* %8, %"class.std::allocator"* dereferenceable(1) %call7)
          to label %invoke.cont11 unwind label %lpad10, !dbg !5519

invoke.cont11:                                    ; preds = %invoke.cont
  %12 = bitcast %"class.std::vector"* %this1 to %"struct.std::_Vector_base"*, !dbg !5520
  %_M_impl13 = getelementptr inbounds %"struct.std::_Vector_base", %"struct.std::_Vector_base"* %12, i32 0, i32 0, !dbg !5520
  %13 = bitcast %"struct.std::_Vector_base<int, std::allocator<int> >::_Vector_impl"* %_M_impl13 to %"struct.std::_Vector_base<int, std::allocator<int> >::_Vector_impl_data"*, !dbg !5521
  %_M_finish = getelementptr inbounds %"struct.std::_Vector_base<int, std::allocator<int> >::_Vector_impl_data", %"struct.std::_Vector_base<int, std::allocator<int> >::_Vector_impl_data"* %13, i32 0, i32 1, !dbg !5522
  store i32* %call12, i32** %_M_finish, align 8, !dbg !5523
  ret void, !dbg !5524

lpad:                                             ; preds = %entry
  %14 = landingpad { i8*, i32 }
          cleanup, !dbg !5524
  %15 = extractvalue { i8*, i32 } %14, 0, !dbg !5524
  store i8* %15, i8** %exn.slot, align 8, !dbg !5524
  %16 = extractvalue { i8*, i32 } %14, 1, !dbg !5524
  store i32 %16, i32* %ehselector.slot, align 4, !dbg !5524
  call void @_ZNSaIiED2Ev(%"class.std::allocator"* %ref.tmp) #11, !dbg !5509
  br label %eh.resume, !dbg !5509

lpad10:                                           ; preds = %invoke.cont
  %17 = landingpad { i8*, i32 }
          cleanup, !dbg !5525
  %18 = extractvalue { i8*, i32 } %17, 0, !dbg !5525
  store i8* %18, i8** %exn.slot, align 8, !dbg !5525
  %19 = extractvalue { i8*, i32 } %17, 1, !dbg !5525
  store i32 %19, i32* %ehselector.slot, align 4, !dbg !5525
  %20 = bitcast %"class.std::vector"* %this1 to %"struct.std::_Vector_base"*, !dbg !5525
  call void @_ZNSt12_Vector_baseIiSaIiEED2Ev(%"struct.std::_Vector_base"* %20) #11, !dbg !5525
  br label %eh.resume, !dbg !5525

eh.resume:                                        ; preds = %lpad10, %lpad
  %exn = load i8*, i8** %exn.slot, align 8, !dbg !5509
  %sel = load i32, i32* %ehselector.slot, align 4, !dbg !5509
  %lpad.val = insertvalue { i8*, i32 } undef, i8* %exn, 0, !dbg !5509
  %lpad.val14 = insertvalue { i8*, i32 } %lpad.val, i32 %sel, 1, !dbg !5509
  resume { i8*, i32 } %lpad.val14, !dbg !5509
}

; Function Attrs: noinline nounwind uwtable
define linkonce_odr dso_local i64 @_ZNKSt6vectorIiSaIiEE4sizeEv(%"class.std::vector"* %this) #3 comdat align 2 !dbg !5526 {
entry:
  %this.addr = alloca %"class.std::vector"*, align 8
  store %"class.std::vector"* %this, %"class.std::vector"** %this.addr, align 8
  call void @llvm.dbg.declare(metadata %"class.std::vector"** %this.addr, metadata !5527, metadata !DIExpression()), !dbg !5529
  %this1 = load %"class.std::vector"*, %"class.std::vector"** %this.addr, align 8
  %0 = bitcast %"class.std::vector"* %this1 to %"struct.std::_Vector_base"*, !dbg !5530
  %_M_impl = getelementptr inbounds %"struct.std::_Vector_base", %"struct.std::_Vector_base"* %0, i32 0, i32 0, !dbg !5530
  %1 = bitcast %"struct.std::_Vector_base<int, std::allocator<int> >::_Vector_impl"* %_M_impl to %"struct.std::_Vector_base<int, std::allocator<int> >::_Vector_impl_data"*, !dbg !5531
  %_M_finish = getelementptr inbounds %"struct.std::_Vector_base<int, std::allocator<int> >::_Vector_impl_data", %"struct.std::_Vector_base<int, std::allocator<int> >::_Vector_impl_data"* %1, i32 0, i32 1, !dbg !5532
  %2 = load i32*, i32** %_M_finish, align 8, !dbg !5532
  %3 = bitcast %"class.std::vector"* %this1 to %"struct.std::_Vector_base"*, !dbg !5533
  %_M_impl2 = getelementptr inbounds %"struct.std::_Vector_base", %"struct.std::_Vector_base"* %3, i32 0, i32 0, !dbg !5533
  %4 = bitcast %"struct.std::_Vector_base<int, std::allocator<int> >::_Vector_impl"* %_M_impl2 to %"struct.std::_Vector_base<int, std::allocator<int> >::_Vector_impl_data"*, !dbg !5534
  %_M_start = getelementptr inbounds %"struct.std::_Vector_base<int, std::allocator<int> >::_Vector_impl_data", %"struct.std::_Vector_base<int, std::allocator<int> >::_Vector_impl_data"* %4, i32 0, i32 0, !dbg !5535
  %5 = load i32*, i32** %_M_start, align 8, !dbg !5535
  %sub.ptr.lhs.cast = ptrtoint i32* %2 to i64, !dbg !5536
  %sub.ptr.rhs.cast = ptrtoint i32* %5 to i64, !dbg !5536
  %sub.ptr.sub = sub i64 %sub.ptr.lhs.cast, %sub.ptr.rhs.cast, !dbg !5536
  %sub.ptr.div = sdiv exact i64 %sub.ptr.sub, 4, !dbg !5536
  ret i64 %sub.ptr.div, !dbg !5537
}

; Function Attrs: noinline uwtable
define linkonce_odr dso_local void @_ZN9__gnu_cxx14__alloc_traitsISaIiEiE17_S_select_on_copyERKS1_(%"class.std::allocator"* noalias sret %agg.result, %"class.std::allocator"* dereferenceable(1) %__a) #0 comdat align 2 !dbg !5538 {
entry:
  %result.ptr = alloca i8*, align 8
  %__a.addr = alloca %"class.std::allocator"*, align 8
  %0 = bitcast %"class.std::allocator"* %agg.result to i8*
  store i8* %0, i8** %result.ptr, align 8
  store %"class.std::allocator"* %__a, %"class.std::allocator"** %__a.addr, align 8
  call void @llvm.dbg.declare(metadata %"class.std::allocator"** %__a.addr, metadata !5539, metadata !DIExpression()), !dbg !5540
  %1 = load %"class.std::allocator"*, %"class.std::allocator"** %__a.addr, align 8, !dbg !5541
  call void @_ZNSt16allocator_traitsISaIiEE37select_on_container_copy_constructionERKS0_(%"class.std::allocator"* sret %agg.result, %"class.std::allocator"* dereferenceable(1) %1), !dbg !5542
  ret void, !dbg !5543
}

; Function Attrs: noinline nounwind uwtable
define linkonce_odr dso_local dereferenceable(1) %"class.std::allocator"* @_ZNKSt12_Vector_baseIiSaIiEE19_M_get_Tp_allocatorEv(%"struct.std::_Vector_base"* %this) #3 comdat align 2 !dbg !5544 {
entry:
  %this.addr = alloca %"struct.std::_Vector_base"*, align 8
  store %"struct.std::_Vector_base"* %this, %"struct.std::_Vector_base"** %this.addr, align 8
  call void @llvm.dbg.declare(metadata %"struct.std::_Vector_base"** %this.addr, metadata !5545, metadata !DIExpression()), !dbg !5547
  %this1 = load %"struct.std::_Vector_base"*, %"struct.std::_Vector_base"** %this.addr, align 8
  %_M_impl = getelementptr inbounds %"struct.std::_Vector_base", %"struct.std::_Vector_base"* %this1, i32 0, i32 0, !dbg !5548
  %0 = bitcast %"struct.std::_Vector_base<int, std::allocator<int> >::_Vector_impl"* %_M_impl to %"class.std::allocator"*, !dbg !5549
  ret %"class.std::allocator"* %0, !dbg !5550
}

; Function Attrs: noinline uwtable
define linkonce_odr dso_local void @_ZNSt12_Vector_baseIiSaIiEEC2EmRKS0_(%"struct.std::_Vector_base"* %this, i64 %__n, %"class.std::allocator"* dereferenceable(1) %__a) unnamed_addr #0 comdat align 2 personality i8* bitcast (i32 (...)* @__gxx_personality_v0 to i8*) !dbg !5551 {
entry:
  %this.addr = alloca %"struct.std::_Vector_base"*, align 8
  %__n.addr = alloca i64, align 8
  %__a.addr = alloca %"class.std::allocator"*, align 8
  %exn.slot = alloca i8*
  %ehselector.slot = alloca i32
  store %"struct.std::_Vector_base"* %this, %"struct.std::_Vector_base"** %this.addr, align 8
  call void @llvm.dbg.declare(metadata %"struct.std::_Vector_base"** %this.addr, metadata !5552, metadata !DIExpression()), !dbg !5554
  store i64 %__n, i64* %__n.addr, align 8
  call void @llvm.dbg.declare(metadata i64* %__n.addr, metadata !5555, metadata !DIExpression()), !dbg !5556
  store %"class.std::allocator"* %__a, %"class.std::allocator"** %__a.addr, align 8
  call void @llvm.dbg.declare(metadata %"class.std::allocator"** %__a.addr, metadata !5557, metadata !DIExpression()), !dbg !5558
  %this1 = load %"struct.std::_Vector_base"*, %"struct.std::_Vector_base"** %this.addr, align 8
  %_M_impl = getelementptr inbounds %"struct.std::_Vector_base", %"struct.std::_Vector_base"* %this1, i32 0, i32 0, !dbg !5559
  %0 = load %"class.std::allocator"*, %"class.std::allocator"** %__a.addr, align 8, !dbg !5560
  call void @_ZNSt12_Vector_baseIiSaIiEE12_Vector_implC2ERKS0_(%"struct.std::_Vector_base<int, std::allocator<int> >::_Vector_impl"* %_M_impl, %"class.std::allocator"* dereferenceable(1) %0) #11, !dbg !5559
  %1 = load i64, i64* %__n.addr, align 8, !dbg !5561
  invoke void @_ZNSt12_Vector_baseIiSaIiEE17_M_create_storageEm(%"struct.std::_Vector_base"* %this1, i64 %1)
          to label %invoke.cont unwind label %lpad, !dbg !5563

invoke.cont:                                      ; preds = %entry
  ret void, !dbg !5564

lpad:                                             ; preds = %entry
  %2 = landingpad { i8*, i32 }
          cleanup, !dbg !5565
  %3 = extractvalue { i8*, i32 } %2, 0, !dbg !5565
  store i8* %3, i8** %exn.slot, align 8, !dbg !5565
  %4 = extractvalue { i8*, i32 } %2, 1, !dbg !5565
  store i32 %4, i32* %ehselector.slot, align 4, !dbg !5565
  call void @_ZNSt12_Vector_baseIiSaIiEE12_Vector_implD2Ev(%"struct.std::_Vector_base<int, std::allocator<int> >::_Vector_impl"* %_M_impl) #11, !dbg !5565
  br label %eh.resume, !dbg !5565

eh.resume:                                        ; preds = %lpad
  %exn = load i8*, i8** %exn.slot, align 8, !dbg !5565
  %sel = load i32, i32* %ehselector.slot, align 4, !dbg !5565
  %lpad.val = insertvalue { i8*, i32 } undef, i8* %exn, 0, !dbg !5565
  %lpad.val2 = insertvalue { i8*, i32 } %lpad.val, i32 %sel, 1, !dbg !5565
  resume { i8*, i32 } %lpad.val2, !dbg !5565
}

; Function Attrs: noinline nounwind uwtable
define linkonce_odr dso_local void @_ZNSaIiED2Ev(%"class.std::allocator"* %this) unnamed_addr #3 comdat align 2 !dbg !5566 {
entry:
  %this.addr = alloca %"class.std::allocator"*, align 8
  store %"class.std::allocator"* %this, %"class.std::allocator"** %this.addr, align 8
  call void @llvm.dbg.declare(metadata %"class.std::allocator"** %this.addr, metadata !5567, metadata !DIExpression()), !dbg !5569
  %this1 = load %"class.std::allocator"*, %"class.std::allocator"** %this.addr, align 8
  %0 = bitcast %"class.std::allocator"* %this1 to %"class.__gnu_cxx::new_allocator"*, !dbg !5570
  call void @_ZN9__gnu_cxx13new_allocatorIiED2Ev(%"class.__gnu_cxx::new_allocator"* %0) #11, !dbg !5570
  ret void, !dbg !5572
}

; Function Attrs: noinline uwtable
define linkonce_odr dso_local i32* @_ZSt22__uninitialized_copy_aIN9__gnu_cxx17__normal_iteratorIPKiSt6vectorIiSaIiEEEEPiiET0_T_SA_S9_RSaIT1_E(i32* %__first.coerce, i32* %__last.coerce, i32* %__result, %"class.std::allocator"* dereferenceable(1) %0) #0 comdat !dbg !5573 {
entry:
  %__first = alloca %"class.__gnu_cxx::__normal_iterator", align 8
  %__last = alloca %"class.__gnu_cxx::__normal_iterator", align 8
  %__result.addr = alloca i32*, align 8
  %.addr = alloca %"class.std::allocator"*, align 8
  %agg.tmp = alloca %"class.__gnu_cxx::__normal_iterator", align 8
  %agg.tmp2 = alloca %"class.__gnu_cxx::__normal_iterator", align 8
  %coerce.dive = getelementptr inbounds %"class.__gnu_cxx::__normal_iterator", %"class.__gnu_cxx::__normal_iterator"* %__first, i32 0, i32 0
  store i32* %__first.coerce, i32** %coerce.dive, align 8
  %coerce.dive1 = getelementptr inbounds %"class.__gnu_cxx::__normal_iterator", %"class.__gnu_cxx::__normal_iterator"* %__last, i32 0, i32 0
  store i32* %__last.coerce, i32** %coerce.dive1, align 8
  call void @llvm.dbg.declare(metadata %"class.__gnu_cxx::__normal_iterator"* %__first, metadata !5580, metadata !DIExpression()), !dbg !5581
  call void @llvm.dbg.declare(metadata %"class.__gnu_cxx::__normal_iterator"* %__last, metadata !5582, metadata !DIExpression()), !dbg !5583
  store i32* %__result, i32** %__result.addr, align 8
  call void @llvm.dbg.declare(metadata i32** %__result.addr, metadata !5584, metadata !DIExpression()), !dbg !5585
  store %"class.std::allocator"* %0, %"class.std::allocator"** %.addr, align 8
  call void @llvm.dbg.declare(metadata %"class.std::allocator"** %.addr, metadata !5586, metadata !DIExpression()), !dbg !5587
  %1 = bitcast %"class.__gnu_cxx::__normal_iterator"* %agg.tmp to i8*, !dbg !5588
  %2 = bitcast %"class.__gnu_cxx::__normal_iterator"* %__first to i8*, !dbg !5588
  call void @llvm.memcpy.p0i8.p0i8.i64(i8* align 8 %1, i8* align 8 %2, i64 8, i1 false), !dbg !5588
  %3 = bitcast %"class.__gnu_cxx::__normal_iterator"* %agg.tmp2 to i8*, !dbg !5589
  %4 = bitcast %"class.__gnu_cxx::__normal_iterator"* %__last to i8*, !dbg !5589
  call void @llvm.memcpy.p0i8.p0i8.i64(i8* align 8 %3, i8* align 8 %4, i64 8, i1 false), !dbg !5589
  %5 = load i32*, i32** %__result.addr, align 8, !dbg !5590
  %coerce.dive3 = getelementptr inbounds %"class.__gnu_cxx::__normal_iterator", %"class.__gnu_cxx::__normal_iterator"* %agg.tmp, i32 0, i32 0, !dbg !5591
  %6 = load i32*, i32** %coerce.dive3, align 8, !dbg !5591
  %coerce.dive4 = getelementptr inbounds %"class.__gnu_cxx::__normal_iterator", %"class.__gnu_cxx::__normal_iterator"* %agg.tmp2, i32 0, i32 0, !dbg !5591
  %7 = load i32*, i32** %coerce.dive4, align 8, !dbg !5591
  %call = call i32* @_ZSt18uninitialized_copyIN9__gnu_cxx17__normal_iteratorIPKiSt6vectorIiSaIiEEEEPiET0_T_SA_S9_(i32* %6, i32* %7, i32* %5), !dbg !5591
  ret i32* %call, !dbg !5592
}

; Function Attrs: noinline nounwind uwtable
define linkonce_odr dso_local i32* @_ZNKSt6vectorIiSaIiEE5beginEv(%"class.std::vector"* %this) #3 comdat align 2 !dbg !5593 {
entry:
  %retval = alloca %"class.__gnu_cxx::__normal_iterator", align 8
  %this.addr = alloca %"class.std::vector"*, align 8
  store %"class.std::vector"* %this, %"class.std::vector"** %this.addr, align 8
  call void @llvm.dbg.declare(metadata %"class.std::vector"** %this.addr, metadata !5594, metadata !DIExpression()), !dbg !5595
  %this1 = load %"class.std::vector"*, %"class.std::vector"** %this.addr, align 8
  %0 = bitcast %"class.std::vector"* %this1 to %"struct.std::_Vector_base"*, !dbg !5596
  %_M_impl = getelementptr inbounds %"struct.std::_Vector_base", %"struct.std::_Vector_base"* %0, i32 0, i32 0, !dbg !5596
  %1 = bitcast %"struct.std::_Vector_base<int, std::allocator<int> >::_Vector_impl"* %_M_impl to %"struct.std::_Vector_base<int, std::allocator<int> >::_Vector_impl_data"*, !dbg !5597
  %_M_start = getelementptr inbounds %"struct.std::_Vector_base<int, std::allocator<int> >::_Vector_impl_data", %"struct.std::_Vector_base<int, std::allocator<int> >::_Vector_impl_data"* %1, i32 0, i32 0, !dbg !5598
  call void @_ZN9__gnu_cxx17__normal_iteratorIPKiSt6vectorIiSaIiEEEC2ERKS2_(%"class.__gnu_cxx::__normal_iterator"* %retval, i32** dereferenceable(8) %_M_start) #11, !dbg !5599
  %coerce.dive = getelementptr inbounds %"class.__gnu_cxx::__normal_iterator", %"class.__gnu_cxx::__normal_iterator"* %retval, i32 0, i32 0, !dbg !5600
  %2 = load i32*, i32** %coerce.dive, align 8, !dbg !5600
  ret i32* %2, !dbg !5600
}

; Function Attrs: noinline nounwind uwtable
define linkonce_odr dso_local i32* @_ZNKSt6vectorIiSaIiEE3endEv(%"class.std::vector"* %this) #3 comdat align 2 !dbg !5601 {
entry:
  %retval = alloca %"class.__gnu_cxx::__normal_iterator", align 8
  %this.addr = alloca %"class.std::vector"*, align 8
  store %"class.std::vector"* %this, %"class.std::vector"** %this.addr, align 8
  call void @llvm.dbg.declare(metadata %"class.std::vector"** %this.addr, metadata !5602, metadata !DIExpression()), !dbg !5603
  %this1 = load %"class.std::vector"*, %"class.std::vector"** %this.addr, align 8
  %0 = bitcast %"class.std::vector"* %this1 to %"struct.std::_Vector_base"*, !dbg !5604
  %_M_impl = getelementptr inbounds %"struct.std::_Vector_base", %"struct.std::_Vector_base"* %0, i32 0, i32 0, !dbg !5604
  %1 = bitcast %"struct.std::_Vector_base<int, std::allocator<int> >::_Vector_impl"* %_M_impl to %"struct.std::_Vector_base<int, std::allocator<int> >::_Vector_impl_data"*, !dbg !5605
  %_M_finish = getelementptr inbounds %"struct.std::_Vector_base<int, std::allocator<int> >::_Vector_impl_data", %"struct.std::_Vector_base<int, std::allocator<int> >::_Vector_impl_data"* %1, i32 0, i32 1, !dbg !5606
  call void @_ZN9__gnu_cxx17__normal_iteratorIPKiSt6vectorIiSaIiEEEC2ERKS2_(%"class.__gnu_cxx::__normal_iterator"* %retval, i32** dereferenceable(8) %_M_finish) #11, !dbg !5607
  %coerce.dive = getelementptr inbounds %"class.__gnu_cxx::__normal_iterator", %"class.__gnu_cxx::__normal_iterator"* %retval, i32 0, i32 0, !dbg !5608
  %2 = load i32*, i32** %coerce.dive, align 8, !dbg !5608
  ret i32* %2, !dbg !5608
}

; Function Attrs: noinline nounwind uwtable
define linkonce_odr dso_local dereferenceable(1) %"class.std::allocator"* @_ZNSt12_Vector_baseIiSaIiEE19_M_get_Tp_allocatorEv(%"struct.std::_Vector_base"* %this) #3 comdat align 2 !dbg !5609 {
entry:
  %this.addr = alloca %"struct.std::_Vector_base"*, align 8
  store %"struct.std::_Vector_base"* %this, %"struct.std::_Vector_base"** %this.addr, align 8
  call void @llvm.dbg.declare(metadata %"struct.std::_Vector_base"** %this.addr, metadata !5610, metadata !DIExpression()), !dbg !5611
  %this1 = load %"struct.std::_Vector_base"*, %"struct.std::_Vector_base"** %this.addr, align 8
  %_M_impl = getelementptr inbounds %"struct.std::_Vector_base", %"struct.std::_Vector_base"* %this1, i32 0, i32 0, !dbg !5612
  %0 = bitcast %"struct.std::_Vector_base<int, std::allocator<int> >::_Vector_impl"* %_M_impl to %"class.std::allocator"*, !dbg !5613
  ret %"class.std::allocator"* %0, !dbg !5614
}

; Function Attrs: noinline nounwind uwtable
define linkonce_odr dso_local void @_ZNSt12_Vector_baseIiSaIiEED2Ev(%"struct.std::_Vector_base"* %this) unnamed_addr #3 comdat align 2 personality i8* bitcast (i32 (...)* @__gxx_personality_v0 to i8*) !dbg !5615 {
entry:
  %this.addr = alloca %"struct.std::_Vector_base"*, align 8
  %exn.slot = alloca i8*
  %ehselector.slot = alloca i32
  store %"struct.std::_Vector_base"* %this, %"struct.std::_Vector_base"** %this.addr, align 8
  call void @llvm.dbg.declare(metadata %"struct.std::_Vector_base"** %this.addr, metadata !5616, metadata !DIExpression()), !dbg !5617
  %this1 = load %"struct.std::_Vector_base"*, %"struct.std::_Vector_base"** %this.addr, align 8
  %_M_impl = getelementptr inbounds %"struct.std::_Vector_base", %"struct.std::_Vector_base"* %this1, i32 0, i32 0, !dbg !5618
  %0 = bitcast %"struct.std::_Vector_base<int, std::allocator<int> >::_Vector_impl"* %_M_impl to %"struct.std::_Vector_base<int, std::allocator<int> >::_Vector_impl_data"*, !dbg !5618
  %_M_start = getelementptr inbounds %"struct.std::_Vector_base<int, std::allocator<int> >::_Vector_impl_data", %"struct.std::_Vector_base<int, std::allocator<int> >::_Vector_impl_data"* %0, i32 0, i32 0, !dbg !5620
  %1 = load i32*, i32** %_M_start, align 8, !dbg !5620
  %_M_impl2 = getelementptr inbounds %"struct.std::_Vector_base", %"struct.std::_Vector_base"* %this1, i32 0, i32 0, !dbg !5621
  %2 = bitcast %"struct.std::_Vector_base<int, std::allocator<int> >::_Vector_impl"* %_M_impl2 to %"struct.std::_Vector_base<int, std::allocator<int> >::_Vector_impl_data"*, !dbg !5621
  %_M_end_of_storage = getelementptr inbounds %"struct.std::_Vector_base<int, std::allocator<int> >::_Vector_impl_data", %"struct.std::_Vector_base<int, std::allocator<int> >::_Vector_impl_data"* %2, i32 0, i32 2, !dbg !5622
  %3 = load i32*, i32** %_M_end_of_storage, align 8, !dbg !5622
  %_M_impl3 = getelementptr inbounds %"struct.std::_Vector_base", %"struct.std::_Vector_base"* %this1, i32 0, i32 0, !dbg !5623
  %4 = bitcast %"struct.std::_Vector_base<int, std::allocator<int> >::_Vector_impl"* %_M_impl3 to %"struct.std::_Vector_base<int, std::allocator<int> >::_Vector_impl_data"*, !dbg !5623
  %_M_start4 = getelementptr inbounds %"struct.std::_Vector_base<int, std::allocator<int> >::_Vector_impl_data", %"struct.std::_Vector_base<int, std::allocator<int> >::_Vector_impl_data"* %4, i32 0, i32 0, !dbg !5624
  %5 = load i32*, i32** %_M_start4, align 8, !dbg !5624
  %sub.ptr.lhs.cast = ptrtoint i32* %3 to i64, !dbg !5625
  %sub.ptr.rhs.cast = ptrtoint i32* %5 to i64, !dbg !5625
  %sub.ptr.sub = sub i64 %sub.ptr.lhs.cast, %sub.ptr.rhs.cast, !dbg !5625
  %sub.ptr.div = sdiv exact i64 %sub.ptr.sub, 4, !dbg !5625
  invoke void @_ZNSt12_Vector_baseIiSaIiEE13_M_deallocateEPim(%"struct.std::_Vector_base"* %this1, i32* %1, i64 %sub.ptr.div)
          to label %invoke.cont unwind label %lpad, !dbg !5626

invoke.cont:                                      ; preds = %entry
  %_M_impl5 = getelementptr inbounds %"struct.std::_Vector_base", %"struct.std::_Vector_base"* %this1, i32 0, i32 0, !dbg !5627
  call void @_ZNSt12_Vector_baseIiSaIiEE12_Vector_implD2Ev(%"struct.std::_Vector_base<int, std::allocator<int> >::_Vector_impl"* %_M_impl5) #11, !dbg !5627
  ret void, !dbg !5628

lpad:                                             ; preds = %entry
  %6 = landingpad { i8*, i32 }
          catch i8* null, !dbg !5627
  %7 = extractvalue { i8*, i32 } %6, 0, !dbg !5627
  store i8* %7, i8** %exn.slot, align 8, !dbg !5627
  %8 = extractvalue { i8*, i32 } %6, 1, !dbg !5627
  store i32 %8, i32* %ehselector.slot, align 4, !dbg !5627
  %_M_impl6 = getelementptr inbounds %"struct.std::_Vector_base", %"struct.std::_Vector_base"* %this1, i32 0, i32 0, !dbg !5627
  call void @_ZNSt12_Vector_baseIiSaIiEE12_Vector_implD2Ev(%"struct.std::_Vector_base<int, std::allocator<int> >::_Vector_impl"* %_M_impl6) #11, !dbg !5627
  br label %terminate.handler, !dbg !5627

terminate.handler:                                ; preds = %lpad
  %exn = load i8*, i8** %exn.slot, align 8, !dbg !5627
  call void @__clang_call_terminate(i8* %exn) #12, !dbg !5627
  unreachable, !dbg !5627
}

; Function Attrs: noinline nounwind uwtable
define linkonce_odr dso_local void @_ZNSt16allocator_traitsISaIiEE37select_on_container_copy_constructionERKS0_(%"class.std::allocator"* noalias sret %agg.result, %"class.std::allocator"* dereferenceable(1) %__rhs) #3 comdat align 2 !dbg !5629 {
entry:
  %result.ptr = alloca i8*, align 8
  %__rhs.addr = alloca %"class.std::allocator"*, align 8
  %0 = bitcast %"class.std::allocator"* %agg.result to i8*
  store i8* %0, i8** %result.ptr, align 8
  store %"class.std::allocator"* %__rhs, %"class.std::allocator"** %__rhs.addr, align 8
  call void @llvm.dbg.declare(metadata %"class.std::allocator"** %__rhs.addr, metadata !5630, metadata !DIExpression()), !dbg !5631
  %1 = load %"class.std::allocator"*, %"class.std::allocator"** %__rhs.addr, align 8, !dbg !5632
  call void @_ZNSaIiEC2ERKS_(%"class.std::allocator"* %agg.result, %"class.std::allocator"* dereferenceable(1) %1) #11, !dbg !5632
  ret void, !dbg !5633
}

; Function Attrs: noinline nounwind uwtable
define linkonce_odr dso_local void @_ZNSaIiEC2ERKS_(%"class.std::allocator"* %this, %"class.std::allocator"* dereferenceable(1) %__a) unnamed_addr #3 comdat align 2 !dbg !5634 {
entry:
  %this.addr = alloca %"class.std::allocator"*, align 8
  %__a.addr = alloca %"class.std::allocator"*, align 8
  store %"class.std::allocator"* %this, %"class.std::allocator"** %this.addr, align 8
  call void @llvm.dbg.declare(metadata %"class.std::allocator"** %this.addr, metadata !5635, metadata !DIExpression()), !dbg !5636
  store %"class.std::allocator"* %__a, %"class.std::allocator"** %__a.addr, align 8
  call void @llvm.dbg.declare(metadata %"class.std::allocator"** %__a.addr, metadata !5637, metadata !DIExpression()), !dbg !5638
  %this1 = load %"class.std::allocator"*, %"class.std::allocator"** %this.addr, align 8
  %0 = bitcast %"class.std::allocator"* %this1 to %"class.__gnu_cxx::new_allocator"*, !dbg !5639
  %1 = load %"class.std::allocator"*, %"class.std::allocator"** %__a.addr, align 8, !dbg !5640
  %2 = bitcast %"class.std::allocator"* %1 to %"class.__gnu_cxx::new_allocator"*, !dbg !5640
  call void @_ZN9__gnu_cxx13new_allocatorIiEC2ERKS1_(%"class.__gnu_cxx::new_allocator"* %0, %"class.__gnu_cxx::new_allocator"* dereferenceable(1) %2) #11, !dbg !5641
  ret void, !dbg !5642
}

; Function Attrs: noinline nounwind uwtable
define linkonce_odr dso_local void @_ZN9__gnu_cxx13new_allocatorIiEC2ERKS1_(%"class.__gnu_cxx::new_allocator"* %this, %"class.__gnu_cxx::new_allocator"* dereferenceable(1) %0) unnamed_addr #3 comdat align 2 !dbg !5643 {
entry:
  %this.addr = alloca %"class.__gnu_cxx::new_allocator"*, align 8
  %.addr = alloca %"class.__gnu_cxx::new_allocator"*, align 8
  store %"class.__gnu_cxx::new_allocator"* %this, %"class.__gnu_cxx::new_allocator"** %this.addr, align 8
  call void @llvm.dbg.declare(metadata %"class.__gnu_cxx::new_allocator"** %this.addr, metadata !5644, metadata !DIExpression()), !dbg !5646
  store %"class.__gnu_cxx::new_allocator"* %0, %"class.__gnu_cxx::new_allocator"** %.addr, align 8
  call void @llvm.dbg.declare(metadata %"class.__gnu_cxx::new_allocator"** %.addr, metadata !5647, metadata !DIExpression()), !dbg !5648
  %this1 = load %"class.__gnu_cxx::new_allocator"*, %"class.__gnu_cxx::new_allocator"** %this.addr, align 8
  ret void, !dbg !5649
}

; Function Attrs: noinline nounwind uwtable
define linkonce_odr dso_local void @_ZNSt12_Vector_baseIiSaIiEE12_Vector_implC2ERKS0_(%"struct.std::_Vector_base<int, std::allocator<int> >::_Vector_impl"* %this, %"class.std::allocator"* dereferenceable(1) %__a) unnamed_addr #3 comdat align 2 !dbg !5650 {
entry:
  %this.addr = alloca %"struct.std::_Vector_base<int, std::allocator<int> >::_Vector_impl"*, align 8
  %__a.addr = alloca %"class.std::allocator"*, align 8
  store %"struct.std::_Vector_base<int, std::allocator<int> >::_Vector_impl"* %this, %"struct.std::_Vector_base<int, std::allocator<int> >::_Vector_impl"** %this.addr, align 8
  call void @llvm.dbg.declare(metadata %"struct.std::_Vector_base<int, std::allocator<int> >::_Vector_impl"** %this.addr, metadata !5651, metadata !DIExpression()), !dbg !5653
  store %"class.std::allocator"* %__a, %"class.std::allocator"** %__a.addr, align 8
  call void @llvm.dbg.declare(metadata %"class.std::allocator"** %__a.addr, metadata !5654, metadata !DIExpression()), !dbg !5655
  %this1 = load %"struct.std::_Vector_base<int, std::allocator<int> >::_Vector_impl"*, %"struct.std::_Vector_base<int, std::allocator<int> >::_Vector_impl"** %this.addr, align 8
  %0 = bitcast %"struct.std::_Vector_base<int, std::allocator<int> >::_Vector_impl"* %this1 to %"class.std::allocator"*, !dbg !5656
  %1 = load %"class.std::allocator"*, %"class.std::allocator"** %__a.addr, align 8, !dbg !5657
  call void @_ZNSaIiEC2ERKS_(%"class.std::allocator"* %0, %"class.std::allocator"* dereferenceable(1) %1) #11, !dbg !5658
  %2 = bitcast %"struct.std::_Vector_base<int, std::allocator<int> >::_Vector_impl"* %this1 to %"struct.std::_Vector_base<int, std::allocator<int> >::_Vector_impl_data"*, !dbg !5656
  call void @_ZNSt12_Vector_baseIiSaIiEE17_Vector_impl_dataC2Ev(%"struct.std::_Vector_base<int, std::allocator<int> >::_Vector_impl_data"* %2) #11, !dbg !5659
  ret void, !dbg !5660
}

; Function Attrs: noinline uwtable
define linkonce_odr dso_local void @_ZNSt12_Vector_baseIiSaIiEE17_M_create_storageEm(%"struct.std::_Vector_base"* %this, i64 %__n) #0 comdat align 2 !dbg !5661 {
entry:
  %this.addr = alloca %"struct.std::_Vector_base"*, align 8
  %__n.addr = alloca i64, align 8
  store %"struct.std::_Vector_base"* %this, %"struct.std::_Vector_base"** %this.addr, align 8
  call void @llvm.dbg.declare(metadata %"struct.std::_Vector_base"** %this.addr, metadata !5662, metadata !DIExpression()), !dbg !5663
  store i64 %__n, i64* %__n.addr, align 8
  call void @llvm.dbg.declare(metadata i64* %__n.addr, metadata !5664, metadata !DIExpression()), !dbg !5665
  %this1 = load %"struct.std::_Vector_base"*, %"struct.std::_Vector_base"** %this.addr, align 8
  %0 = load i64, i64* %__n.addr, align 8, !dbg !5666
  %call = call i32* @_ZNSt12_Vector_baseIiSaIiEE11_M_allocateEm(%"struct.std::_Vector_base"* %this1, i64 %0), !dbg !5667
  %_M_impl = getelementptr inbounds %"struct.std::_Vector_base", %"struct.std::_Vector_base"* %this1, i32 0, i32 0, !dbg !5668
  %1 = bitcast %"struct.std::_Vector_base<int, std::allocator<int> >::_Vector_impl"* %_M_impl to %"struct.std::_Vector_base<int, std::allocator<int> >::_Vector_impl_data"*, !dbg !5669
  %_M_start = getelementptr inbounds %"struct.std::_Vector_base<int, std::allocator<int> >::_Vector_impl_data", %"struct.std::_Vector_base<int, std::allocator<int> >::_Vector_impl_data"* %1, i32 0, i32 0, !dbg !5670
  store i32* %call, i32** %_M_start, align 8, !dbg !5671
  %_M_impl2 = getelementptr inbounds %"struct.std::_Vector_base", %"struct.std::_Vector_base"* %this1, i32 0, i32 0, !dbg !5672
  %2 = bitcast %"struct.std::_Vector_base<int, std::allocator<int> >::_Vector_impl"* %_M_impl2 to %"struct.std::_Vector_base<int, std::allocator<int> >::_Vector_impl_data"*, !dbg !5673
  %_M_start3 = getelementptr inbounds %"struct.std::_Vector_base<int, std::allocator<int> >::_Vector_impl_data", %"struct.std::_Vector_base<int, std::allocator<int> >::_Vector_impl_data"* %2, i32 0, i32 0, !dbg !5674
  %3 = load i32*, i32** %_M_start3, align 8, !dbg !5674
  %_M_impl4 = getelementptr inbounds %"struct.std::_Vector_base", %"struct.std::_Vector_base"* %this1, i32 0, i32 0, !dbg !5675
  %4 = bitcast %"struct.std::_Vector_base<int, std::allocator<int> >::_Vector_impl"* %_M_impl4 to %"struct.std::_Vector_base<int, std::allocator<int> >::_Vector_impl_data"*, !dbg !5676
  %_M_finish = getelementptr inbounds %"struct.std::_Vector_base<int, std::allocator<int> >::_Vector_impl_data", %"struct.std::_Vector_base<int, std::allocator<int> >::_Vector_impl_data"* %4, i32 0, i32 1, !dbg !5677
  store i32* %3, i32** %_M_finish, align 8, !dbg !5678
  %_M_impl5 = getelementptr inbounds %"struct.std::_Vector_base", %"struct.std::_Vector_base"* %this1, i32 0, i32 0, !dbg !5679
  %5 = bitcast %"struct.std::_Vector_base<int, std::allocator<int> >::_Vector_impl"* %_M_impl5 to %"struct.std::_Vector_base<int, std::allocator<int> >::_Vector_impl_data"*, !dbg !5680
  %_M_start6 = getelementptr inbounds %"struct.std::_Vector_base<int, std::allocator<int> >::_Vector_impl_data", %"struct.std::_Vector_base<int, std::allocator<int> >::_Vector_impl_data"* %5, i32 0, i32 0, !dbg !5681
  %6 = load i32*, i32** %_M_start6, align 8, !dbg !5681
  %7 = load i64, i64* %__n.addr, align 8, !dbg !5682
  %add.ptr = getelementptr inbounds i32, i32* %6, i64 %7, !dbg !5683
  %_M_impl7 = getelementptr inbounds %"struct.std::_Vector_base", %"struct.std::_Vector_base"* %this1, i32 0, i32 0, !dbg !5684
  %8 = bitcast %"struct.std::_Vector_base<int, std::allocator<int> >::_Vector_impl"* %_M_impl7 to %"struct.std::_Vector_base<int, std::allocator<int> >::_Vector_impl_data"*, !dbg !5685
  %_M_end_of_storage = getelementptr inbounds %"struct.std::_Vector_base<int, std::allocator<int> >::_Vector_impl_data", %"struct.std::_Vector_base<int, std::allocator<int> >::_Vector_impl_data"* %8, i32 0, i32 2, !dbg !5686
  store i32* %add.ptr, i32** %_M_end_of_storage, align 8, !dbg !5687
  ret void, !dbg !5688
}

; Function Attrs: noinline nounwind uwtable
define linkonce_odr dso_local void @_ZNSt12_Vector_baseIiSaIiEE12_Vector_implD2Ev(%"struct.std::_Vector_base<int, std::allocator<int> >::_Vector_impl"* %this) unnamed_addr #3 comdat align 2 !dbg !5689 {
entry:
  %this.addr = alloca %"struct.std::_Vector_base<int, std::allocator<int> >::_Vector_impl"*, align 8
  store %"struct.std::_Vector_base<int, std::allocator<int> >::_Vector_impl"* %this, %"struct.std::_Vector_base<int, std::allocator<int> >::_Vector_impl"** %this.addr, align 8
  call void @llvm.dbg.declare(metadata %"struct.std::_Vector_base<int, std::allocator<int> >::_Vector_impl"** %this.addr, metadata !5691, metadata !DIExpression()), !dbg !5692
  %this1 = load %"struct.std::_Vector_base<int, std::allocator<int> >::_Vector_impl"*, %"struct.std::_Vector_base<int, std::allocator<int> >::_Vector_impl"** %this.addr, align 8
  %0 = bitcast %"struct.std::_Vector_base<int, std::allocator<int> >::_Vector_impl"* %this1 to %"class.std::allocator"*, !dbg !5693
  call void @_ZNSaIiED2Ev(%"class.std::allocator"* %0) #11, !dbg !5693
  ret void, !dbg !5695
}

; Function Attrs: noinline nounwind uwtable
define linkonce_odr dso_local void @_ZNSt12_Vector_baseIiSaIiEE17_Vector_impl_dataC2Ev(%"struct.std::_Vector_base<int, std::allocator<int> >::_Vector_impl_data"* %this) unnamed_addr #3 comdat align 2 !dbg !5696 {
entry:
  %this.addr = alloca %"struct.std::_Vector_base<int, std::allocator<int> >::_Vector_impl_data"*, align 8
  store %"struct.std::_Vector_base<int, std::allocator<int> >::_Vector_impl_data"* %this, %"struct.std::_Vector_base<int, std::allocator<int> >::_Vector_impl_data"** %this.addr, align 8
  call void @llvm.dbg.declare(metadata %"struct.std::_Vector_base<int, std::allocator<int> >::_Vector_impl_data"** %this.addr, metadata !5697, metadata !DIExpression()), !dbg !5699
  %this1 = load %"struct.std::_Vector_base<int, std::allocator<int> >::_Vector_impl_data"*, %"struct.std::_Vector_base<int, std::allocator<int> >::_Vector_impl_data"** %this.addr, align 8
  %_M_start = getelementptr inbounds %"struct.std::_Vector_base<int, std::allocator<int> >::_Vector_impl_data", %"struct.std::_Vector_base<int, std::allocator<int> >::_Vector_impl_data"* %this1, i32 0, i32 0, !dbg !5700
  store i32* null, i32** %_M_start, align 8, !dbg !5700
  %_M_finish = getelementptr inbounds %"struct.std::_Vector_base<int, std::allocator<int> >::_Vector_impl_data", %"struct.std::_Vector_base<int, std::allocator<int> >::_Vector_impl_data"* %this1, i32 0, i32 1, !dbg !5701
  store i32* null, i32** %_M_finish, align 8, !dbg !5701
  %_M_end_of_storage = getelementptr inbounds %"struct.std::_Vector_base<int, std::allocator<int> >::_Vector_impl_data", %"struct.std::_Vector_base<int, std::allocator<int> >::_Vector_impl_data"* %this1, i32 0, i32 2, !dbg !5702
  store i32* null, i32** %_M_end_of_storage, align 8, !dbg !5702
  ret void, !dbg !5703
}

; Function Attrs: noinline uwtable
define linkonce_odr dso_local i32* @_ZNSt12_Vector_baseIiSaIiEE11_M_allocateEm(%"struct.std::_Vector_base"* %this, i64 %__n) #0 comdat align 2 !dbg !5704 {
entry:
  %this.addr = alloca %"struct.std::_Vector_base"*, align 8
  %__n.addr = alloca i64, align 8
  store %"struct.std::_Vector_base"* %this, %"struct.std::_Vector_base"** %this.addr, align 8
  call void @llvm.dbg.declare(metadata %"struct.std::_Vector_base"** %this.addr, metadata !5705, metadata !DIExpression()), !dbg !5706
  store i64 %__n, i64* %__n.addr, align 8
  call void @llvm.dbg.declare(metadata i64* %__n.addr, metadata !5707, metadata !DIExpression()), !dbg !5708
  %this1 = load %"struct.std::_Vector_base"*, %"struct.std::_Vector_base"** %this.addr, align 8
  %0 = load i64, i64* %__n.addr, align 8, !dbg !5709
  %cmp = icmp ne i64 %0, 0, !dbg !5710
  br i1 %cmp, label %cond.true, label %cond.false, !dbg !5709

cond.true:                                        ; preds = %entry
  %_M_impl = getelementptr inbounds %"struct.std::_Vector_base", %"struct.std::_Vector_base"* %this1, i32 0, i32 0, !dbg !5711
  %1 = bitcast %"struct.std::_Vector_base<int, std::allocator<int> >::_Vector_impl"* %_M_impl to %"class.std::allocator"*, !dbg !5711
  %2 = load i64, i64* %__n.addr, align 8, !dbg !5712
  %call = call i32* @_ZNSt16allocator_traitsISaIiEE8allocateERS0_m(%"class.std::allocator"* dereferenceable(1) %1, i64 %2), !dbg !5713
  br label %cond.end, !dbg !5709

cond.false:                                       ; preds = %entry
  br label %cond.end, !dbg !5709

cond.end:                                         ; preds = %cond.false, %cond.true
  %cond = phi i32* [ %call, %cond.true ], [ null, %cond.false ], !dbg !5709
  ret i32* %cond, !dbg !5714
}

; Function Attrs: noinline uwtable
define linkonce_odr dso_local i32* @_ZNSt16allocator_traitsISaIiEE8allocateERS0_m(%"class.std::allocator"* dereferenceable(1) %__a, i64 %__n) #0 comdat align 2 !dbg !5715 {
entry:
  %__a.addr = alloca %"class.std::allocator"*, align 8
  %__n.addr = alloca i64, align 8
  store %"class.std::allocator"* %__a, %"class.std::allocator"** %__a.addr, align 8
  call void @llvm.dbg.declare(metadata %"class.std::allocator"** %__a.addr, metadata !5716, metadata !DIExpression()), !dbg !5717
  store i64 %__n, i64* %__n.addr, align 8
  call void @llvm.dbg.declare(metadata i64* %__n.addr, metadata !5718, metadata !DIExpression()), !dbg !5719
  %0 = load %"class.std::allocator"*, %"class.std::allocator"** %__a.addr, align 8, !dbg !5720
  %1 = bitcast %"class.std::allocator"* %0 to %"class.__gnu_cxx::new_allocator"*, !dbg !5720
  %2 = load i64, i64* %__n.addr, align 8, !dbg !5721
  %call = call i32* @_ZN9__gnu_cxx13new_allocatorIiE8allocateEmPKv(%"class.__gnu_cxx::new_allocator"* %1, i64 %2, i8* null), !dbg !5722
  ret i32* %call, !dbg !5723
}

; Function Attrs: noinline uwtable
define linkonce_odr dso_local i32* @_ZN9__gnu_cxx13new_allocatorIiE8allocateEmPKv(%"class.__gnu_cxx::new_allocator"* %this, i64 %__n, i8* %0) #0 comdat align 2 !dbg !5724 {
entry:
  %this.addr = alloca %"class.__gnu_cxx::new_allocator"*, align 8
  %__n.addr = alloca i64, align 8
  %.addr = alloca i8*, align 8
  store %"class.__gnu_cxx::new_allocator"* %this, %"class.__gnu_cxx::new_allocator"** %this.addr, align 8
  call void @llvm.dbg.declare(metadata %"class.__gnu_cxx::new_allocator"** %this.addr, metadata !5725, metadata !DIExpression()), !dbg !5726
  store i64 %__n, i64* %__n.addr, align 8
  call void @llvm.dbg.declare(metadata i64* %__n.addr, metadata !5727, metadata !DIExpression()), !dbg !5728
  store i8* %0, i8** %.addr, align 8
  call void @llvm.dbg.declare(metadata i8** %.addr, metadata !5729, metadata !DIExpression()), !dbg !5730
  %this1 = load %"class.__gnu_cxx::new_allocator"*, %"class.__gnu_cxx::new_allocator"** %this.addr, align 8
  %1 = load i64, i64* %__n.addr, align 8, !dbg !5731
  %call = call i64 @_ZNK9__gnu_cxx13new_allocatorIiE11_M_max_sizeEv(%"class.__gnu_cxx::new_allocator"* %this1) #11, !dbg !5733
  %cmp = icmp ugt i64 %1, %call, !dbg !5734
  br i1 %cmp, label %if.then, label %if.end, !dbg !5735

if.then:                                          ; preds = %entry
  call void @_ZSt17__throw_bad_allocv() #13, !dbg !5736
  unreachable, !dbg !5736

if.end:                                           ; preds = %entry
  %2 = load i64, i64* %__n.addr, align 8, !dbg !5737
  %mul = mul i64 %2, 4, !dbg !5738
  %call2 = call i8* @_Znwm(i64 %mul), !dbg !5739
  %3 = bitcast i8* %call2 to i32*, !dbg !5740
  ret i32* %3, !dbg !5741
}

; Function Attrs: noinline nounwind uwtable
define linkonce_odr dso_local i64 @_ZNK9__gnu_cxx13new_allocatorIiE11_M_max_sizeEv(%"class.__gnu_cxx::new_allocator"* %this) #3 comdat align 2 !dbg !5742 {
entry:
  %this.addr = alloca %"class.__gnu_cxx::new_allocator"*, align 8
  store %"class.__gnu_cxx::new_allocator"* %this, %"class.__gnu_cxx::new_allocator"** %this.addr, align 8
  call void @llvm.dbg.declare(metadata %"class.__gnu_cxx::new_allocator"** %this.addr, metadata !5743, metadata !DIExpression()), !dbg !5745
  %this1 = load %"class.__gnu_cxx::new_allocator"*, %"class.__gnu_cxx::new_allocator"** %this.addr, align 8
  ret i64 2305843009213693951, !dbg !5746
}

; Function Attrs: noreturn
declare dso_local void @_ZSt17__throw_bad_allocv() #6

; Function Attrs: nobuiltin
declare dso_local noalias i8* @_Znwm(i64) #7

; Function Attrs: noinline nounwind uwtable
define linkonce_odr dso_local void @_ZN9__gnu_cxx13new_allocatorIiED2Ev(%"class.__gnu_cxx::new_allocator"* %this) unnamed_addr #3 comdat align 2 !dbg !5747 {
entry:
  %this.addr = alloca %"class.__gnu_cxx::new_allocator"*, align 8
  store %"class.__gnu_cxx::new_allocator"* %this, %"class.__gnu_cxx::new_allocator"** %this.addr, align 8
  call void @llvm.dbg.declare(metadata %"class.__gnu_cxx::new_allocator"** %this.addr, metadata !5748, metadata !DIExpression()), !dbg !5749
  %this1 = load %"class.__gnu_cxx::new_allocator"*, %"class.__gnu_cxx::new_allocator"** %this.addr, align 8
  ret void, !dbg !5750
}

; Function Attrs: noinline uwtable
define linkonce_odr dso_local i32* @_ZSt18uninitialized_copyIN9__gnu_cxx17__normal_iteratorIPKiSt6vectorIiSaIiEEEEPiET0_T_SA_S9_(i32* %__first.coerce, i32* %__last.coerce, i32* %__result) #0 comdat !dbg !5751 {
entry:
  %__first = alloca %"class.__gnu_cxx::__normal_iterator", align 8
  %__last = alloca %"class.__gnu_cxx::__normal_iterator", align 8
  %__result.addr = alloca i32*, align 8
  %__assignable = alloca i8, align 1
  %agg.tmp = alloca %"class.__gnu_cxx::__normal_iterator", align 8
  %agg.tmp2 = alloca %"class.__gnu_cxx::__normal_iterator", align 8
  %coerce.dive = getelementptr inbounds %"class.__gnu_cxx::__normal_iterator", %"class.__gnu_cxx::__normal_iterator"* %__first, i32 0, i32 0
  store i32* %__first.coerce, i32** %coerce.dive, align 8
  %coerce.dive1 = getelementptr inbounds %"class.__gnu_cxx::__normal_iterator", %"class.__gnu_cxx::__normal_iterator"* %__last, i32 0, i32 0
  store i32* %__last.coerce, i32** %coerce.dive1, align 8
  call void @llvm.dbg.declare(metadata %"class.__gnu_cxx::__normal_iterator"* %__first, metadata !5755, metadata !DIExpression()), !dbg !5756
  call void @llvm.dbg.declare(metadata %"class.__gnu_cxx::__normal_iterator"* %__last, metadata !5757, metadata !DIExpression()), !dbg !5758
  store i32* %__result, i32** %__result.addr, align 8
  call void @llvm.dbg.declare(metadata i32** %__result.addr, metadata !5759, metadata !DIExpression()), !dbg !5760
  call void @llvm.dbg.declare(metadata i8* %__assignable, metadata !5761, metadata !DIExpression()), !dbg !5762
  store i8 1, i8* %__assignable, align 1, !dbg !5762
  %0 = bitcast %"class.__gnu_cxx::__normal_iterator"* %agg.tmp to i8*, !dbg !5763
  %1 = bitcast %"class.__gnu_cxx::__normal_iterator"* %__first to i8*, !dbg !5763
  call void @llvm.memcpy.p0i8.p0i8.i64(i8* align 8 %0, i8* align 8 %1, i64 8, i1 false), !dbg !5763
  %2 = bitcast %"class.__gnu_cxx::__normal_iterator"* %agg.tmp2 to i8*, !dbg !5764
  %3 = bitcast %"class.__gnu_cxx::__normal_iterator"* %__last to i8*, !dbg !5764
  call void @llvm.memcpy.p0i8.p0i8.i64(i8* align 8 %2, i8* align 8 %3, i64 8, i1 false), !dbg !5764
  %4 = load i32*, i32** %__result.addr, align 8, !dbg !5765
  %coerce.dive3 = getelementptr inbounds %"class.__gnu_cxx::__normal_iterator", %"class.__gnu_cxx::__normal_iterator"* %agg.tmp, i32 0, i32 0, !dbg !5766
  %5 = load i32*, i32** %coerce.dive3, align 8, !dbg !5766
  %coerce.dive4 = getelementptr inbounds %"class.__gnu_cxx::__normal_iterator", %"class.__gnu_cxx::__normal_iterator"* %agg.tmp2, i32 0, i32 0, !dbg !5766
  %6 = load i32*, i32** %coerce.dive4, align 8, !dbg !5766
  %call = call i32* @_ZNSt20__uninitialized_copyILb1EE13__uninit_copyIN9__gnu_cxx17__normal_iteratorIPKiSt6vectorIiSaIiEEEEPiEET0_T_SC_SB_(i32* %5, i32* %6, i32* %4), !dbg !5766
  ret i32* %call, !dbg !5767
}

; Function Attrs: noinline uwtable
define linkonce_odr dso_local i32* @_ZNSt20__uninitialized_copyILb1EE13__uninit_copyIN9__gnu_cxx17__normal_iteratorIPKiSt6vectorIiSaIiEEEEPiEET0_T_SC_SB_(i32* %__first.coerce, i32* %__last.coerce, i32* %__result) #0 comdat align 2 !dbg !5768 {
entry:
  %__first = alloca %"class.__gnu_cxx::__normal_iterator", align 8
  %__last = alloca %"class.__gnu_cxx::__normal_iterator", align 8
  %__result.addr = alloca i32*, align 8
  %agg.tmp = alloca %"class.__gnu_cxx::__normal_iterator", align 8
  %agg.tmp2 = alloca %"class.__gnu_cxx::__normal_iterator", align 8
  %coerce.dive = getelementptr inbounds %"class.__gnu_cxx::__normal_iterator", %"class.__gnu_cxx::__normal_iterator"* %__first, i32 0, i32 0
  store i32* %__first.coerce, i32** %coerce.dive, align 8
  %coerce.dive1 = getelementptr inbounds %"class.__gnu_cxx::__normal_iterator", %"class.__gnu_cxx::__normal_iterator"* %__last, i32 0, i32 0
  store i32* %__last.coerce, i32** %coerce.dive1, align 8
  call void @llvm.dbg.declare(metadata %"class.__gnu_cxx::__normal_iterator"* %__first, metadata !5773, metadata !DIExpression()), !dbg !5774
  call void @llvm.dbg.declare(metadata %"class.__gnu_cxx::__normal_iterator"* %__last, metadata !5775, metadata !DIExpression()), !dbg !5776
  store i32* %__result, i32** %__result.addr, align 8
  call void @llvm.dbg.declare(metadata i32** %__result.addr, metadata !5777, metadata !DIExpression()), !dbg !5778
  %0 = bitcast %"class.__gnu_cxx::__normal_iterator"* %agg.tmp to i8*, !dbg !5779
  %1 = bitcast %"class.__gnu_cxx::__normal_iterator"* %__first to i8*, !dbg !5779
  call void @llvm.memcpy.p0i8.p0i8.i64(i8* align 8 %0, i8* align 8 %1, i64 8, i1 false), !dbg !5779
  %2 = bitcast %"class.__gnu_cxx::__normal_iterator"* %agg.tmp2 to i8*, !dbg !5780
  %3 = bitcast %"class.__gnu_cxx::__normal_iterator"* %__last to i8*, !dbg !5780
  call void @llvm.memcpy.p0i8.p0i8.i64(i8* align 8 %2, i8* align 8 %3, i64 8, i1 false), !dbg !5780
  %4 = load i32*, i32** %__result.addr, align 8, !dbg !5781
  %coerce.dive3 = getelementptr inbounds %"class.__gnu_cxx::__normal_iterator", %"class.__gnu_cxx::__normal_iterator"* %agg.tmp, i32 0, i32 0, !dbg !5782
  %5 = load i32*, i32** %coerce.dive3, align 8, !dbg !5782
  %coerce.dive4 = getelementptr inbounds %"class.__gnu_cxx::__normal_iterator", %"class.__gnu_cxx::__normal_iterator"* %agg.tmp2, i32 0, i32 0, !dbg !5782
  %6 = load i32*, i32** %coerce.dive4, align 8, !dbg !5782
  %call = call i32* @_ZSt4copyIN9__gnu_cxx17__normal_iteratorIPKiSt6vectorIiSaIiEEEEPiET0_T_SA_S9_(i32* %5, i32* %6, i32* %4), !dbg !5782
  ret i32* %call, !dbg !5783
}

; Function Attrs: noinline uwtable
define linkonce_odr dso_local i32* @_ZSt4copyIN9__gnu_cxx17__normal_iteratorIPKiSt6vectorIiSaIiEEEEPiET0_T_SA_S9_(i32* %__first.coerce, i32* %__last.coerce, i32* %__result) #0 comdat !dbg !5784 {
entry:
  %__first = alloca %"class.__gnu_cxx::__normal_iterator", align 8
  %__last = alloca %"class.__gnu_cxx::__normal_iterator", align 8
  %__result.addr = alloca i32*, align 8
  %agg.tmp = alloca %"class.__gnu_cxx::__normal_iterator", align 8
  %agg.tmp2 = alloca %"class.__gnu_cxx::__normal_iterator", align 8
  %agg.tmp5 = alloca %"class.__gnu_cxx::__normal_iterator", align 8
  %agg.tmp6 = alloca %"class.__gnu_cxx::__normal_iterator", align 8
  %coerce.dive = getelementptr inbounds %"class.__gnu_cxx::__normal_iterator", %"class.__gnu_cxx::__normal_iterator"* %__first, i32 0, i32 0
  store i32* %__first.coerce, i32** %coerce.dive, align 8
  %coerce.dive1 = getelementptr inbounds %"class.__gnu_cxx::__normal_iterator", %"class.__gnu_cxx::__normal_iterator"* %__last, i32 0, i32 0
  store i32* %__last.coerce, i32** %coerce.dive1, align 8
  call void @llvm.dbg.declare(metadata %"class.__gnu_cxx::__normal_iterator"* %__first, metadata !5788, metadata !DIExpression()), !dbg !5789
  call void @llvm.dbg.declare(metadata %"class.__gnu_cxx::__normal_iterator"* %__last, metadata !5790, metadata !DIExpression()), !dbg !5791
  store i32* %__result, i32** %__result.addr, align 8
  call void @llvm.dbg.declare(metadata i32** %__result.addr, metadata !5792, metadata !DIExpression()), !dbg !5793
  %0 = bitcast %"class.__gnu_cxx::__normal_iterator"* %agg.tmp2 to i8*, !dbg !5794
  %1 = bitcast %"class.__gnu_cxx::__normal_iterator"* %__first to i8*, !dbg !5794
  call void @llvm.memcpy.p0i8.p0i8.i64(i8* align 8 %0, i8* align 8 %1, i64 8, i1 false), !dbg !5794
  %coerce.dive3 = getelementptr inbounds %"class.__gnu_cxx::__normal_iterator", %"class.__gnu_cxx::__normal_iterator"* %agg.tmp2, i32 0, i32 0, !dbg !5795
  %2 = load i32*, i32** %coerce.dive3, align 8, !dbg !5795
  %call = call i32* @_ZSt12__miter_baseIN9__gnu_cxx17__normal_iteratorIPKiSt6vectorIiSaIiEEEEET_S8_(i32* %2), !dbg !5795
  %coerce.dive4 = getelementptr inbounds %"class.__gnu_cxx::__normal_iterator", %"class.__gnu_cxx::__normal_iterator"* %agg.tmp, i32 0, i32 0, !dbg !5795
  store i32* %call, i32** %coerce.dive4, align 8, !dbg !5795
  %3 = bitcast %"class.__gnu_cxx::__normal_iterator"* %agg.tmp6 to i8*, !dbg !5796
  %4 = bitcast %"class.__gnu_cxx::__normal_iterator"* %__last to i8*, !dbg !5796
  call void @llvm.memcpy.p0i8.p0i8.i64(i8* align 8 %3, i8* align 8 %4, i64 8, i1 false), !dbg !5796
  %coerce.dive7 = getelementptr inbounds %"class.__gnu_cxx::__normal_iterator", %"class.__gnu_cxx::__normal_iterator"* %agg.tmp6, i32 0, i32 0, !dbg !5797
  %5 = load i32*, i32** %coerce.dive7, align 8, !dbg !5797
  %call8 = call i32* @_ZSt12__miter_baseIN9__gnu_cxx17__normal_iteratorIPKiSt6vectorIiSaIiEEEEET_S8_(i32* %5), !dbg !5797
  %coerce.dive9 = getelementptr inbounds %"class.__gnu_cxx::__normal_iterator", %"class.__gnu_cxx::__normal_iterator"* %agg.tmp5, i32 0, i32 0, !dbg !5797
  store i32* %call8, i32** %coerce.dive9, align 8, !dbg !5797
  %6 = load i32*, i32** %__result.addr, align 8, !dbg !5798
  %coerce.dive10 = getelementptr inbounds %"class.__gnu_cxx::__normal_iterator", %"class.__gnu_cxx::__normal_iterator"* %agg.tmp, i32 0, i32 0, !dbg !5799
  %7 = load i32*, i32** %coerce.dive10, align 8, !dbg !5799
  %coerce.dive11 = getelementptr inbounds %"class.__gnu_cxx::__normal_iterator", %"class.__gnu_cxx::__normal_iterator"* %agg.tmp5, i32 0, i32 0, !dbg !5799
  %8 = load i32*, i32** %coerce.dive11, align 8, !dbg !5799
  %call12 = call i32* @_ZSt13__copy_move_aILb0EN9__gnu_cxx17__normal_iteratorIPKiSt6vectorIiSaIiEEEEPiET1_T0_SA_S9_(i32* %7, i32* %8, i32* %6), !dbg !5799
  ret i32* %call12, !dbg !5800
}

; Function Attrs: noinline uwtable
define linkonce_odr dso_local i32* @_ZSt13__copy_move_aILb0EN9__gnu_cxx17__normal_iteratorIPKiSt6vectorIiSaIiEEEEPiET1_T0_SA_S9_(i32* %__first.coerce, i32* %__last.coerce, i32* %__result) #0 comdat !dbg !5801 {
entry:
  %__first = alloca %"class.__gnu_cxx::__normal_iterator", align 8
  %__last = alloca %"class.__gnu_cxx::__normal_iterator", align 8
  %__result.addr = alloca i32*, align 8
  %agg.tmp = alloca %"class.__gnu_cxx::__normal_iterator", align 8
  %agg.tmp3 = alloca %"class.__gnu_cxx::__normal_iterator", align 8
  %coerce.dive = getelementptr inbounds %"class.__gnu_cxx::__normal_iterator", %"class.__gnu_cxx::__normal_iterator"* %__first, i32 0, i32 0
  store i32* %__first.coerce, i32** %coerce.dive, align 8
  %coerce.dive1 = getelementptr inbounds %"class.__gnu_cxx::__normal_iterator", %"class.__gnu_cxx::__normal_iterator"* %__last, i32 0, i32 0
  store i32* %__last.coerce, i32** %coerce.dive1, align 8
  call void @llvm.dbg.declare(metadata %"class.__gnu_cxx::__normal_iterator"* %__first, metadata !5804, metadata !DIExpression()), !dbg !5805
  call void @llvm.dbg.declare(metadata %"class.__gnu_cxx::__normal_iterator"* %__last, metadata !5806, metadata !DIExpression()), !dbg !5807
  store i32* %__result, i32** %__result.addr, align 8
  call void @llvm.dbg.declare(metadata i32** %__result.addr, metadata !5808, metadata !DIExpression()), !dbg !5809
  %0 = bitcast %"class.__gnu_cxx::__normal_iterator"* %agg.tmp to i8*, !dbg !5810
  %1 = bitcast %"class.__gnu_cxx::__normal_iterator"* %__first to i8*, !dbg !5810
  call void @llvm.memcpy.p0i8.p0i8.i64(i8* align 8 %0, i8* align 8 %1, i64 8, i1 false), !dbg !5810
  %coerce.dive2 = getelementptr inbounds %"class.__gnu_cxx::__normal_iterator", %"class.__gnu_cxx::__normal_iterator"* %agg.tmp, i32 0, i32 0, !dbg !5811
  %2 = load i32*, i32** %coerce.dive2, align 8, !dbg !5811
  %call = call i32* @_ZSt12__niter_baseIPKiSt6vectorIiSaIiEEET_N9__gnu_cxx17__normal_iteratorIS5_T0_EE(i32* %2) #11, !dbg !5811
  %3 = bitcast %"class.__gnu_cxx::__normal_iterator"* %agg.tmp3 to i8*, !dbg !5812
  %4 = bitcast %"class.__gnu_cxx::__normal_iterator"* %__last to i8*, !dbg !5812
  call void @llvm.memcpy.p0i8.p0i8.i64(i8* align 8 %3, i8* align 8 %4, i64 8, i1 false), !dbg !5812
  %coerce.dive4 = getelementptr inbounds %"class.__gnu_cxx::__normal_iterator", %"class.__gnu_cxx::__normal_iterator"* %agg.tmp3, i32 0, i32 0, !dbg !5813
  %5 = load i32*, i32** %coerce.dive4, align 8, !dbg !5813
  %call5 = call i32* @_ZSt12__niter_baseIPKiSt6vectorIiSaIiEEET_N9__gnu_cxx17__normal_iteratorIS5_T0_EE(i32* %5) #11, !dbg !5813
  %6 = load i32*, i32** %__result.addr, align 8, !dbg !5814
  %call6 = call i32* @_ZSt12__niter_baseIPiET_S1_(i32* %6) #11, !dbg !5815
  %call7 = call i32* @_ZSt14__copy_move_a1ILb0EPKiPiET1_T0_S4_S3_(i32* %call, i32* %call5, i32* %call6), !dbg !5816
  %call8 = call i32* @_ZSt12__niter_wrapIPiET_RKS1_S1_(i32** dereferenceable(8) %__result.addr, i32* %call7), !dbg !5817
  ret i32* %call8, !dbg !5818
}

; Function Attrs: noinline nounwind uwtable
define linkonce_odr dso_local i32* @_ZSt12__miter_baseIN9__gnu_cxx17__normal_iteratorIPKiSt6vectorIiSaIiEEEEET_S8_(i32* %__it.coerce) #3 comdat !dbg !5819 {
entry:
  %retval = alloca %"class.__gnu_cxx::__normal_iterator", align 8
  %__it = alloca %"class.__gnu_cxx::__normal_iterator", align 8
  %coerce.dive = getelementptr inbounds %"class.__gnu_cxx::__normal_iterator", %"class.__gnu_cxx::__normal_iterator"* %__it, i32 0, i32 0
  store i32* %__it.coerce, i32** %coerce.dive, align 8
  call void @llvm.dbg.declare(metadata %"class.__gnu_cxx::__normal_iterator"* %__it, metadata !5825, metadata !DIExpression()), !dbg !5826
  %0 = bitcast %"class.__gnu_cxx::__normal_iterator"* %retval to i8*, !dbg !5827
  %1 = bitcast %"class.__gnu_cxx::__normal_iterator"* %__it to i8*, !dbg !5827
  call void @llvm.memcpy.p0i8.p0i8.i64(i8* align 8 %0, i8* align 8 %1, i64 8, i1 false), !dbg !5827
  %coerce.dive1 = getelementptr inbounds %"class.__gnu_cxx::__normal_iterator", %"class.__gnu_cxx::__normal_iterator"* %retval, i32 0, i32 0, !dbg !5828
  %2 = load i32*, i32** %coerce.dive1, align 8, !dbg !5828
  ret i32* %2, !dbg !5828
}

; Function Attrs: noinline nounwind uwtable
define linkonce_odr dso_local i32* @_ZSt12__niter_wrapIPiET_RKS1_S1_(i32** dereferenceable(8) %0, i32* %__res) #3 comdat !dbg !5829 {
entry:
  %.addr = alloca i32**, align 8
  %__res.addr = alloca i32*, align 8
  store i32** %0, i32*** %.addr, align 8
  call void @llvm.dbg.declare(metadata i32*** %.addr, metadata !5836, metadata !DIExpression()), !dbg !5837
  store i32* %__res, i32** %__res.addr, align 8
  call void @llvm.dbg.declare(metadata i32** %__res.addr, metadata !5838, metadata !DIExpression()), !dbg !5839
  %1 = load i32*, i32** %__res.addr, align 8, !dbg !5840
  ret i32* %1, !dbg !5841
}

; Function Attrs: noinline uwtable
define linkonce_odr dso_local i32* @_ZSt14__copy_move_a1ILb0EPKiPiET1_T0_S4_S3_(i32* %__first, i32* %__last, i32* %__result) #0 comdat !dbg !5842 {
entry:
  %__first.addr = alloca i32*, align 8
  %__last.addr = alloca i32*, align 8
  %__result.addr = alloca i32*, align 8
  store i32* %__first, i32** %__first.addr, align 8
  call void @llvm.dbg.declare(metadata i32** %__first.addr, metadata !5847, metadata !DIExpression()), !dbg !5848
  store i32* %__last, i32** %__last.addr, align 8
  call void @llvm.dbg.declare(metadata i32** %__last.addr, metadata !5849, metadata !DIExpression()), !dbg !5850
  store i32* %__result, i32** %__result.addr, align 8
  call void @llvm.dbg.declare(metadata i32** %__result.addr, metadata !5851, metadata !DIExpression()), !dbg !5852
  %0 = load i32*, i32** %__first.addr, align 8, !dbg !5853
  %1 = load i32*, i32** %__last.addr, align 8, !dbg !5854
  %2 = load i32*, i32** %__result.addr, align 8, !dbg !5855
  %call = call i32* @_ZSt14__copy_move_a2ILb0EPKiPiET1_T0_S4_S3_(i32* %0, i32* %1, i32* %2), !dbg !5856
  ret i32* %call, !dbg !5857
}

; Function Attrs: noinline nounwind uwtable
define linkonce_odr dso_local i32* @_ZSt12__niter_baseIPKiSt6vectorIiSaIiEEET_N9__gnu_cxx17__normal_iteratorIS5_T0_EE(i32* %__it.coerce) #3 comdat !dbg !5858 {
entry:
  %__it = alloca %"class.__gnu_cxx::__normal_iterator", align 8
  %coerce.dive = getelementptr inbounds %"class.__gnu_cxx::__normal_iterator", %"class.__gnu_cxx::__normal_iterator"* %__it, i32 0, i32 0
  store i32* %__it.coerce, i32** %coerce.dive, align 8
  call void @llvm.dbg.declare(metadata %"class.__gnu_cxx::__normal_iterator"* %__it, metadata !5861, metadata !DIExpression()), !dbg !5862
  %call = call dereferenceable(8) i32** @_ZNK9__gnu_cxx17__normal_iteratorIPKiSt6vectorIiSaIiEEE4baseEv(%"class.__gnu_cxx::__normal_iterator"* %__it) #11, !dbg !5863
  %0 = load i32*, i32** %call, align 8, !dbg !5863
  ret i32* %0, !dbg !5864
}

; Function Attrs: noinline nounwind uwtable
define linkonce_odr dso_local i32* @_ZSt12__niter_baseIPiET_S1_(i32* %__it) #3 comdat !dbg !5865 {
entry:
  %__it.addr = alloca i32*, align 8
  store i32* %__it, i32** %__it.addr, align 8
  call void @llvm.dbg.declare(metadata i32** %__it.addr, metadata !5868, metadata !DIExpression()), !dbg !5869
  %0 = load i32*, i32** %__it.addr, align 8, !dbg !5870
  ret i32* %0, !dbg !5871
}

; Function Attrs: noinline uwtable
define linkonce_odr dso_local i32* @_ZSt14__copy_move_a2ILb0EPKiPiET1_T0_S4_S3_(i32* %__first, i32* %__last, i32* %__result) #0 comdat !dbg !5872 {
entry:
  %__first.addr = alloca i32*, align 8
  %__last.addr = alloca i32*, align 8
  %__result.addr = alloca i32*, align 8
  store i32* %__first, i32** %__first.addr, align 8
  call void @llvm.dbg.declare(metadata i32** %__first.addr, metadata !5873, metadata !DIExpression()), !dbg !5874
  store i32* %__last, i32** %__last.addr, align 8
  call void @llvm.dbg.declare(metadata i32** %__last.addr, metadata !5875, metadata !DIExpression()), !dbg !5876
  store i32* %__result, i32** %__result.addr, align 8
  call void @llvm.dbg.declare(metadata i32** %__result.addr, metadata !5877, metadata !DIExpression()), !dbg !5878
  %0 = load i32*, i32** %__first.addr, align 8, !dbg !5879
  %1 = load i32*, i32** %__last.addr, align 8, !dbg !5880
  %2 = load i32*, i32** %__result.addr, align 8, !dbg !5881
  %call = call i32* @_ZNSt11__copy_moveILb0ELb1ESt26random_access_iterator_tagE8__copy_mIiEEPT_PKS3_S6_S4_(i32* %0, i32* %1, i32* %2), !dbg !5882
  ret i32* %call, !dbg !5883
}

; Function Attrs: noinline nounwind uwtable
define linkonce_odr dso_local i32* @_ZNSt11__copy_moveILb0ELb1ESt26random_access_iterator_tagE8__copy_mIiEEPT_PKS3_S6_S4_(i32* %__first, i32* %__last, i32* %__result) #3 comdat align 2 !dbg !5884 {
entry:
  %__first.addr = alloca i32*, align 8
  %__last.addr = alloca i32*, align 8
  %__result.addr = alloca i32*, align 8
  %_Num = alloca i64, align 8
  store i32* %__first, i32** %__first.addr, align 8
  call void @llvm.dbg.declare(metadata i32** %__first.addr, metadata !5900, metadata !DIExpression()), !dbg !5901
  store i32* %__last, i32** %__last.addr, align 8
  call void @llvm.dbg.declare(metadata i32** %__last.addr, metadata !5902, metadata !DIExpression()), !dbg !5903
  store i32* %__result, i32** %__result.addr, align 8
  call void @llvm.dbg.declare(metadata i32** %__result.addr, metadata !5904, metadata !DIExpression()), !dbg !5905
  call void @llvm.dbg.declare(metadata i64* %_Num, metadata !5906, metadata !DIExpression()), !dbg !5908
  %0 = load i32*, i32** %__last.addr, align 8, !dbg !5909
  %1 = load i32*, i32** %__first.addr, align 8, !dbg !5910
  %sub.ptr.lhs.cast = ptrtoint i32* %0 to i64, !dbg !5911
  %sub.ptr.rhs.cast = ptrtoint i32* %1 to i64, !dbg !5911
  %sub.ptr.sub = sub i64 %sub.ptr.lhs.cast, %sub.ptr.rhs.cast, !dbg !5911
  %sub.ptr.div = sdiv exact i64 %sub.ptr.sub, 4, !dbg !5911
  store i64 %sub.ptr.div, i64* %_Num, align 8, !dbg !5908
  %2 = load i64, i64* %_Num, align 8, !dbg !5912
  %tobool = icmp ne i64 %2, 0, !dbg !5912
  br i1 %tobool, label %if.then, label %if.end, !dbg !5914

if.then:                                          ; preds = %entry
  %3 = load i32*, i32** %__result.addr, align 8, !dbg !5915
  %4 = bitcast i32* %3 to i8*, !dbg !5916
  %5 = load i32*, i32** %__first.addr, align 8, !dbg !5917
  %6 = bitcast i32* %5 to i8*, !dbg !5916
  %7 = load i64, i64* %_Num, align 8, !dbg !5918
  %mul = mul i64 4, %7, !dbg !5919
  call void @llvm.memmove.p0i8.p0i8.i64(i8* align 4 %4, i8* align 4 %6, i64 %mul, i1 false), !dbg !5916
  br label %if.end, !dbg !5916

if.end:                                           ; preds = %if.then, %entry
  %8 = load i32*, i32** %__result.addr, align 8, !dbg !5920
  %9 = load i64, i64* %_Num, align 8, !dbg !5921
  %add.ptr = getelementptr inbounds i32, i32* %8, i64 %9, !dbg !5922
  ret i32* %add.ptr, !dbg !5923
}

; Function Attrs: argmemonly nounwind willreturn
declare void @llvm.memmove.p0i8.p0i8.i64(i8* nocapture, i8* nocapture readonly, i64, i1 immarg) #4

; Function Attrs: noinline nounwind uwtable
define linkonce_odr dso_local dereferenceable(8) i32** @_ZNK9__gnu_cxx17__normal_iteratorIPKiSt6vectorIiSaIiEEE4baseEv(%"class.__gnu_cxx::__normal_iterator"* %this) #3 comdat align 2 !dbg !5924 {
entry:
  %this.addr = alloca %"class.__gnu_cxx::__normal_iterator"*, align 8
  store %"class.__gnu_cxx::__normal_iterator"* %this, %"class.__gnu_cxx::__normal_iterator"** %this.addr, align 8
  call void @llvm.dbg.declare(metadata %"class.__gnu_cxx::__normal_iterator"** %this.addr, metadata !5925, metadata !DIExpression()), !dbg !5927
  %this1 = load %"class.__gnu_cxx::__normal_iterator"*, %"class.__gnu_cxx::__normal_iterator"** %this.addr, align 8
  %_M_current = getelementptr inbounds %"class.__gnu_cxx::__normal_iterator", %"class.__gnu_cxx::__normal_iterator"* %this1, i32 0, i32 0, !dbg !5928
  ret i32** %_M_current, !dbg !5929
}

; Function Attrs: noinline nounwind uwtable
define linkonce_odr dso_local void @_ZN9__gnu_cxx17__normal_iteratorIPKiSt6vectorIiSaIiEEEC2ERKS2_(%"class.__gnu_cxx::__normal_iterator"* %this, i32** dereferenceable(8) %__i) unnamed_addr #3 comdat align 2 !dbg !5930 {
entry:
  %this.addr = alloca %"class.__gnu_cxx::__normal_iterator"*, align 8
  %__i.addr = alloca i32**, align 8
  store %"class.__gnu_cxx::__normal_iterator"* %this, %"class.__gnu_cxx::__normal_iterator"** %this.addr, align 8
  call void @llvm.dbg.declare(metadata %"class.__gnu_cxx::__normal_iterator"** %this.addr, metadata !5931, metadata !DIExpression()), !dbg !5933
  store i32** %__i, i32*** %__i.addr, align 8
  call void @llvm.dbg.declare(metadata i32*** %__i.addr, metadata !5934, metadata !DIExpression()), !dbg !5935
  %this1 = load %"class.__gnu_cxx::__normal_iterator"*, %"class.__gnu_cxx::__normal_iterator"** %this.addr, align 8
  %_M_current = getelementptr inbounds %"class.__gnu_cxx::__normal_iterator", %"class.__gnu_cxx::__normal_iterator"* %this1, i32 0, i32 0, !dbg !5936
  %0 = load i32**, i32*** %__i.addr, align 8, !dbg !5937
  %1 = load i32*, i32** %0, align 8, !dbg !5937
  store i32* %1, i32** %_M_current, align 8, !dbg !5936
  ret void, !dbg !5938
}

; Function Attrs: noinline uwtable
define linkonce_odr dso_local void @_ZNSt12_Vector_baseIiSaIiEE13_M_deallocateEPim(%"struct.std::_Vector_base"* %this, i32* %__p, i64 %__n) #0 comdat align 2 !dbg !5939 {
entry:
  %this.addr = alloca %"struct.std::_Vector_base"*, align 8
  %__p.addr = alloca i32*, align 8
  %__n.addr = alloca i64, align 8
  store %"struct.std::_Vector_base"* %this, %"struct.std::_Vector_base"** %this.addr, align 8
  call void @llvm.dbg.declare(metadata %"struct.std::_Vector_base"** %this.addr, metadata !5940, metadata !DIExpression()), !dbg !5941
  store i32* %__p, i32** %__p.addr, align 8
  call void @llvm.dbg.declare(metadata i32** %__p.addr, metadata !5942, metadata !DIExpression()), !dbg !5943
  store i64 %__n, i64* %__n.addr, align 8
  call void @llvm.dbg.declare(metadata i64* %__n.addr, metadata !5944, metadata !DIExpression()), !dbg !5945
  %this1 = load %"struct.std::_Vector_base"*, %"struct.std::_Vector_base"** %this.addr, align 8
  %0 = load i32*, i32** %__p.addr, align 8, !dbg !5946
  %tobool = icmp ne i32* %0, null, !dbg !5946
  br i1 %tobool, label %if.then, label %if.end, !dbg !5948

if.then:                                          ; preds = %entry
  %_M_impl = getelementptr inbounds %"struct.std::_Vector_base", %"struct.std::_Vector_base"* %this1, i32 0, i32 0, !dbg !5949
  %1 = bitcast %"struct.std::_Vector_base<int, std::allocator<int> >::_Vector_impl"* %_M_impl to %"class.std::allocator"*, !dbg !5949
  %2 = load i32*, i32** %__p.addr, align 8, !dbg !5950
  %3 = load i64, i64* %__n.addr, align 8, !dbg !5951
  call void @_ZNSt16allocator_traitsISaIiEE10deallocateERS0_Pim(%"class.std::allocator"* dereferenceable(1) %1, i32* %2, i64 %3), !dbg !5952
  br label %if.end, !dbg !5952

if.end:                                           ; preds = %if.then, %entry
  ret void, !dbg !5953
}

; Function Attrs: noinline noreturn nounwind
define linkonce_odr hidden void @__clang_call_terminate(i8* %0) #8 comdat {
  %2 = call i8* @__cxa_begin_catch(i8* %0) #11
  call void @_ZSt9terminatev() #12
  unreachable
}

declare dso_local i8* @__cxa_begin_catch(i8*)

declare dso_local void @_ZSt9terminatev()

; Function Attrs: noinline uwtable
define linkonce_odr dso_local void @_ZNSt16allocator_traitsISaIiEE10deallocateERS0_Pim(%"class.std::allocator"* dereferenceable(1) %__a, i32* %__p, i64 %__n) #0 comdat align 2 !dbg !5954 {
entry:
  %__a.addr = alloca %"class.std::allocator"*, align 8
  %__p.addr = alloca i32*, align 8
  %__n.addr = alloca i64, align 8
  store %"class.std::allocator"* %__a, %"class.std::allocator"** %__a.addr, align 8
  call void @llvm.dbg.declare(metadata %"class.std::allocator"** %__a.addr, metadata !5955, metadata !DIExpression()), !dbg !5956
  store i32* %__p, i32** %__p.addr, align 8
  call void @llvm.dbg.declare(metadata i32** %__p.addr, metadata !5957, metadata !DIExpression()), !dbg !5958
  store i64 %__n, i64* %__n.addr, align 8
  call void @llvm.dbg.declare(metadata i64* %__n.addr, metadata !5959, metadata !DIExpression()), !dbg !5960
  %0 = load %"class.std::allocator"*, %"class.std::allocator"** %__a.addr, align 8, !dbg !5961
  %1 = bitcast %"class.std::allocator"* %0 to %"class.__gnu_cxx::new_allocator"*, !dbg !5961
  %2 = load i32*, i32** %__p.addr, align 8, !dbg !5962
  %3 = load i64, i64* %__n.addr, align 8, !dbg !5963
  call void @_ZN9__gnu_cxx13new_allocatorIiE10deallocateEPim(%"class.__gnu_cxx::new_allocator"* %1, i32* %2, i64 %3), !dbg !5964
  ret void, !dbg !5965
}

; Function Attrs: noinline nounwind uwtable
define linkonce_odr dso_local void @_ZN9__gnu_cxx13new_allocatorIiE10deallocateEPim(%"class.__gnu_cxx::new_allocator"* %this, i32* %__p, i64 %__t) #3 comdat align 2 !dbg !5966 {
entry:
  %this.addr = alloca %"class.__gnu_cxx::new_allocator"*, align 8
  %__p.addr = alloca i32*, align 8
  %__t.addr = alloca i64, align 8
  store %"class.__gnu_cxx::new_allocator"* %this, %"class.__gnu_cxx::new_allocator"** %this.addr, align 8
  call void @llvm.dbg.declare(metadata %"class.__gnu_cxx::new_allocator"** %this.addr, metadata !5967, metadata !DIExpression()), !dbg !5968
  store i32* %__p, i32** %__p.addr, align 8
  call void @llvm.dbg.declare(metadata i32** %__p.addr, metadata !5969, metadata !DIExpression()), !dbg !5970
  store i64 %__t, i64* %__t.addr, align 8
  call void @llvm.dbg.declare(metadata i64* %__t.addr, metadata !5971, metadata !DIExpression()), !dbg !5972
  %this1 = load %"class.__gnu_cxx::new_allocator"*, %"class.__gnu_cxx::new_allocator"** %this.addr, align 8
  %0 = load i32*, i32** %__p.addr, align 8, !dbg !5973
  %1 = bitcast i32* %0 to i8*, !dbg !5973
  call void @_ZdlPv(i8* %1) #11, !dbg !5974
  ret void, !dbg !5975
}

; Function Attrs: nobuiltin nounwind
declare dso_local void @_ZdlPv(i8*) #9

; Function Attrs: noinline nounwind uwtable
define linkonce_odr dso_local i64 @_ZNKSt6vectorIySaIyEE4sizeEv(%"class.std::vector.7"* %this) #3 comdat align 2 !dbg !5976 {
entry:
  %this.addr = alloca %"class.std::vector.7"*, align 8
  store %"class.std::vector.7"* %this, %"class.std::vector.7"** %this.addr, align 8
  call void @llvm.dbg.declare(metadata %"class.std::vector.7"** %this.addr, metadata !5977, metadata !DIExpression()), !dbg !5979
  %this1 = load %"class.std::vector.7"*, %"class.std::vector.7"** %this.addr, align 8
  %0 = bitcast %"class.std::vector.7"* %this1 to %"struct.std::_Vector_base.8"*, !dbg !5980
  %_M_impl = getelementptr inbounds %"struct.std::_Vector_base.8", %"struct.std::_Vector_base.8"* %0, i32 0, i32 0, !dbg !5980
  %1 = bitcast %"struct.std::_Vector_base<unsigned long long, std::allocator<unsigned long long> >::_Vector_impl"* %_M_impl to %"struct.std::_Vector_base<unsigned long long, std::allocator<unsigned long long> >::_Vector_impl_data"*, !dbg !5981
  %_M_finish = getelementptr inbounds %"struct.std::_Vector_base<unsigned long long, std::allocator<unsigned long long> >::_Vector_impl_data", %"struct.std::_Vector_base<unsigned long long, std::allocator<unsigned long long> >::_Vector_impl_data"* %1, i32 0, i32 1, !dbg !5982
  %2 = load i64*, i64** %_M_finish, align 8, !dbg !5982
  %3 = bitcast %"class.std::vector.7"* %this1 to %"struct.std::_Vector_base.8"*, !dbg !5983
  %_M_impl2 = getelementptr inbounds %"struct.std::_Vector_base.8", %"struct.std::_Vector_base.8"* %3, i32 0, i32 0, !dbg !5983
  %4 = bitcast %"struct.std::_Vector_base<unsigned long long, std::allocator<unsigned long long> >::_Vector_impl"* %_M_impl2 to %"struct.std::_Vector_base<unsigned long long, std::allocator<unsigned long long> >::_Vector_impl_data"*, !dbg !5984
  %_M_start = getelementptr inbounds %"struct.std::_Vector_base<unsigned long long, std::allocator<unsigned long long> >::_Vector_impl_data", %"struct.std::_Vector_base<unsigned long long, std::allocator<unsigned long long> >::_Vector_impl_data"* %4, i32 0, i32 0, !dbg !5985
  %5 = load i64*, i64** %_M_start, align 8, !dbg !5985
  %sub.ptr.lhs.cast = ptrtoint i64* %2 to i64, !dbg !5986
  %sub.ptr.rhs.cast = ptrtoint i64* %5 to i64, !dbg !5986
  %sub.ptr.sub = sub i64 %sub.ptr.lhs.cast, %sub.ptr.rhs.cast, !dbg !5986
  %sub.ptr.div = sdiv exact i64 %sub.ptr.sub, 8, !dbg !5986
  ret i64 %sub.ptr.div, !dbg !5987
}

; Function Attrs: noinline uwtable
define linkonce_odr dso_local void @_ZN9__gnu_cxx14__alloc_traitsISaIyEyE17_S_select_on_copyERKS1_(%"class.std::allocator.9"* noalias sret %agg.result, %"class.std::allocator.9"* dereferenceable(1) %__a) #0 comdat align 2 !dbg !5988 {
entry:
  %result.ptr = alloca i8*, align 8
  %__a.addr = alloca %"class.std::allocator.9"*, align 8
  %0 = bitcast %"class.std::allocator.9"* %agg.result to i8*
  store i8* %0, i8** %result.ptr, align 8
  store %"class.std::allocator.9"* %__a, %"class.std::allocator.9"** %__a.addr, align 8
  call void @llvm.dbg.declare(metadata %"class.std::allocator.9"** %__a.addr, metadata !5989, metadata !DIExpression()), !dbg !5990
  %1 = load %"class.std::allocator.9"*, %"class.std::allocator.9"** %__a.addr, align 8, !dbg !5991
  call void @_ZNSt16allocator_traitsISaIyEE37select_on_container_copy_constructionERKS0_(%"class.std::allocator.9"* sret %agg.result, %"class.std::allocator.9"* dereferenceable(1) %1), !dbg !5992
  ret void, !dbg !5993
}

; Function Attrs: noinline nounwind uwtable
define linkonce_odr dso_local dereferenceable(1) %"class.std::allocator.9"* @_ZNKSt12_Vector_baseIySaIyEE19_M_get_Tp_allocatorEv(%"struct.std::_Vector_base.8"* %this) #3 comdat align 2 !dbg !5994 {
entry:
  %this.addr = alloca %"struct.std::_Vector_base.8"*, align 8
  store %"struct.std::_Vector_base.8"* %this, %"struct.std::_Vector_base.8"** %this.addr, align 8
  call void @llvm.dbg.declare(metadata %"struct.std::_Vector_base.8"** %this.addr, metadata !5995, metadata !DIExpression()), !dbg !5997
  %this1 = load %"struct.std::_Vector_base.8"*, %"struct.std::_Vector_base.8"** %this.addr, align 8
  %_M_impl = getelementptr inbounds %"struct.std::_Vector_base.8", %"struct.std::_Vector_base.8"* %this1, i32 0, i32 0, !dbg !5998
  %0 = bitcast %"struct.std::_Vector_base<unsigned long long, std::allocator<unsigned long long> >::_Vector_impl"* %_M_impl to %"class.std::allocator.9"*, !dbg !5999
  ret %"class.std::allocator.9"* %0, !dbg !6000
}

; Function Attrs: noinline uwtable
define linkonce_odr dso_local void @_ZNSt12_Vector_baseIySaIyEEC2EmRKS0_(%"struct.std::_Vector_base.8"* %this, i64 %__n, %"class.std::allocator.9"* dereferenceable(1) %__a) unnamed_addr #0 comdat align 2 personality i8* bitcast (i32 (...)* @__gxx_personality_v0 to i8*) !dbg !6001 {
entry:
  %this.addr = alloca %"struct.std::_Vector_base.8"*, align 8
  %__n.addr = alloca i64, align 8
  %__a.addr = alloca %"class.std::allocator.9"*, align 8
  %exn.slot = alloca i8*
  %ehselector.slot = alloca i32
  store %"struct.std::_Vector_base.8"* %this, %"struct.std::_Vector_base.8"** %this.addr, align 8
  call void @llvm.dbg.declare(metadata %"struct.std::_Vector_base.8"** %this.addr, metadata !6002, metadata !DIExpression()), !dbg !6004
  store i64 %__n, i64* %__n.addr, align 8
  call void @llvm.dbg.declare(metadata i64* %__n.addr, metadata !6005, metadata !DIExpression()), !dbg !6006
  store %"class.std::allocator.9"* %__a, %"class.std::allocator.9"** %__a.addr, align 8
  call void @llvm.dbg.declare(metadata %"class.std::allocator.9"** %__a.addr, metadata !6007, metadata !DIExpression()), !dbg !6008
  %this1 = load %"struct.std::_Vector_base.8"*, %"struct.std::_Vector_base.8"** %this.addr, align 8
  %_M_impl = getelementptr inbounds %"struct.std::_Vector_base.8", %"struct.std::_Vector_base.8"* %this1, i32 0, i32 0, !dbg !6009
  %0 = load %"class.std::allocator.9"*, %"class.std::allocator.9"** %__a.addr, align 8, !dbg !6010
