; ModuleID = 'FastState.cpp'
source_filename = "FastState.cpp"
target datalayout = "e-m:e-p270:32:32-p271:32:32-p272:64:64-i64:64-f80:128-n8:16:32:64-S128"
target triple = "x86_64-unknown-linux-gnu"

%"class.boost::array.13" = type { [9 x i32] }
%"class.boost::array.14" = type { [5 x i64] }
%class.FastState = type <{ %class.FullBoard, float, i32, i32, i32, i32, i32, i32, %"class.boost::array.5", %"class.boost::array.6", [4 x i8] }>
%class.FullBoard = type { %class.FastBoard.base, i64, i64 }
%class.FastBoard.base = type <{ %"class.boost::array", %"class.boost::array", i32, i32, i32, %"class.boost::array.0", %"class.boost::array.1", %"class.boost::array.1", %"class.boost::array.1", %"class.boost::array.1", %"class.boost::array", [2 x i8], %"class.boost::array.2", %"class.boost::array.3", %"class.boost::array.4", %"class.boost::array.4", %"class.std::vector", i32 }>
%"class.boost::array.0" = type { [441 x i32] }
%"class.boost::array.1" = type { [442 x i16] }
%"class.boost::array" = type { [441 x i16] }
%"class.boost::array.2" = type { [4 x i32] }
%"class.boost::array.3" = type { [8 x i32] }
%"class.boost::array.4" = type { [2 x i32] }
%"class.std::vector" = type { %"struct.std::_Vector_base" }
%"struct.std::_Vector_base" = type { %"struct.std::_Vector_base<int, std::allocator<int> >::_Vector_impl" }
%"struct.std::_Vector_base<int, std::allocator<int> >::_Vector_impl" = type { %"struct.std::_Vector_base<int, std::allocator<int> >::_Vector_impl_data" }
%"struct.std::_Vector_base<int, std::allocator<int> >::_Vector_impl_data" = type { i32*, i32*, i32* }
%"class.boost::array.5" = type { [24 x i32] }
%"class.boost::array.6" = type { [24 x %"struct.std::pair"] }
%"struct.std::pair" = type { i32, i32 }
%class.FastBoard = type <{ %"class.boost::array", %"class.boost::array", i32, i32, i32, %"class.boost::array.0", %"class.boost::array.1", %"class.boost::array.1", %"class.boost::array.1", %"class.boost::array.1", %"class.boost::array", [2 x i8], %"class.boost::array.2", %"class.boost::array.3", %"class.boost::array.4", %"class.boost::array.4", %"class.std::vector", i32, [4 x i8] }>
%class.Matcher = type { %"class.boost::array.7" }
%"class.boost::array.7" = type { [2 x %"class.std::vector.8"] }
%"class.std::vector.8" = type { %"struct.std::_Vector_base.9" }
%"struct.std::_Vector_base.9" = type { %"struct.std::_Vector_base<unsigned char, std::allocator<unsigned char> >::_Vector_impl" }
%"struct.std::_Vector_base<unsigned char, std::allocator<unsigned char> >::_Vector_impl" = type { %"struct.std::_Vector_base<unsigned char, std::allocator<unsigned char> >::_Vector_impl_data" }
%"struct.std::_Vector_base<unsigned char, std::allocator<unsigned char> >::_Vector_impl_data" = type { i8*, i8*, i8* }
%class.Random = type { i32, i32, i32 }
%"class.std::allocator" = type { i8 }
%"class.__gnu_cxx::__normal_iterator" = type { i32* }
%"class.std::__cxx11::basic_string" = type { %"struct.std::__cxx11::basic_string<char, std::char_traits<char>, std::allocator<char> >::_Alloc_hider", i64, %union.anon }
%"struct.std::__cxx11::basic_string<char, std::char_traits<char>, std::allocator<char> >::_Alloc_hider" = type { i8* }
%union.anon = type { i64, [8 x i8] }
%"class.std::vector.18" = type { %"struct.std::_Bvector_base" }
%"struct.std::_Bvector_base" = type { %"struct.std::_Bvector_base<std::allocator<bool> >::_Bvector_impl" }
%"struct.std::_Bvector_base<std::allocator<bool> >::_Bvector_impl" = type { %"struct.std::_Bvector_base<std::allocator<bool> >::_Bvector_impl_data" }
%"struct.std::_Bvector_base<std::allocator<bool> >::_Bvector_impl_data" = type { %"struct.std::_Bit_iterator", %"struct.std::_Bit_iterator", i64* }
%"struct.std::_Bit_iterator" = type { %"struct.std::_Bit_iterator_base.base", [4 x i8] }
%"struct.std::_Bit_iterator_base.base" = type <{ i64*, i32 }>
%"class.std::allocator.22" = type { i8 }
%class.Playout = type { i8, float, %"class.boost::array.25" }
%"class.boost::array.25" = type { [2 x %"class.std::bitset"] }
%"class.std::bitset" = type { %"struct.std::_Base_bitset" }
%"struct.std::_Base_bitset" = type { [7 x i64] }
%"struct.std::_Bit_reference" = type { i64*, i64 }
%"class.__gnu_cxx::new_allocator" = type { i8 }
%"class.__gnu_cxx::new_allocator.23" = type { i8 }
%"struct.std::_Bit_iterator_base" = type <{ i64*, i32, [4 x i8] }>
%"class.std::__pair_base" = type { i8 }
%"class.__gnu_cxx::__normal_iterator.26" = type { i32* }
%"struct.std::integral_constant" = type { i8 }
%"struct.std::random_access_iterator_tag" = type { i8 }
%"class.std::allocator.19" = type { i8 }
%"class.__gnu_cxx::new_allocator.20" = type { i8 }
%"struct.std::iterator" = type { i8 }

$_ZNSt6vectorIiSaIiEEC2Ev = comdat any

$_ZNSt6vectorIiSaIiEE7reserveEm = comdat any

$_ZN5boost5arrayItLm441EEixEm = comdat any

$_ZNSt6vectorIiSaIiEE9push_backERKi = comdat any

$_ZNSt6vectorIiSaIiEE9push_backEOi = comdat any

$_ZNSt6vectorIiSaIiEED2Ev = comdat any

$_ZN5boost5arrayIiLm24EEixEm = comdat any

$_ZNK5boost5arrayIiLm9EEixEm = comdat any

$_ZSt9make_pairIRiS0_ESt4pairINSt25__strip_reference_wrapperINSt5decayIT_E4typeEE6__typeENS2_INS3_IT0_E4typeEE6__typeEEOS4_OS9_ = comdat any

$_ZN5boost5arrayISt4pairIiiELm24EEixEm = comdat any

$_ZNSt4pairIiiEaSEOS0_ = comdat any

$_ZN5boost5arrayIyLm5EEixEm = comdat any

$_ZNSaIiEC2Ev = comdat any

$_ZNSt6vectorIiSaIiEEC2EmRKS0_ = comdat any

$_ZNSaIiED2Ev = comdat any

$_ZNSaIbEC2Ev = comdat any

$_ZNSt6vectorIbSaIbEEC2EmRKS0_ = comdat any

$_ZNSaIbED2Ev = comdat any

$_ZSt4fillIN9__gnu_cxx17__normal_iteratorIPiSt6vectorIiSaIiEEEEiEvT_S7_RKT0_ = comdat any

$_ZNSt6vectorIiSaIiEE5beginEv = comdat any

$_ZNSt6vectorIiSaIiEE3endEv = comdat any

$_ZSt4fillSt13_Bit_iteratorS_RKb = comdat any

$_ZNSt6vectorIbSaIbEE5beginEv = comdat any

$_ZNSt6vectorIbSaIbEE3endEv = comdat any

$_ZN9FastStateC2ERKS_ = comdat any

$_ZNSt6vectorIiSaIiEEixEm = comdat any

$_ZN9FastStateD2Ev = comdat any

$_ZNSt6vectorIbSaIbEEixEm = comdat any

$_ZNSt14_Bit_referenceaSEb = comdat any

$_ZNSt6vectorIbSaIbEED2Ev = comdat any

$_ZNKSt14_Bit_referencecvbEv = comdat any

$_ZNSt6vectorIiSaIiEE6resizeEm = comdat any

$_ZSt4fillIN9__gnu_cxx17__normal_iteratorIPiSt6vectorIiSaIiEEEEN9FastBoard8square_tEEvT_S9_RKT0_ = comdat any

$_ZNSt12_Vector_baseIiSaIiEEC2Ev = comdat any

$_ZNSt12_Vector_baseIiSaIiEE12_Vector_implC2Ev = comdat any

$_ZNSt12_Vector_baseIiSaIiEE17_Vector_impl_dataC2Ev = comdat any

$_ZN9__gnu_cxx13new_allocatorIiEC2Ev = comdat any

$_ZSt7forwardIRiEOT_RNSt16remove_referenceIS1_E4typeE = comdat any

$_ZNSt4pairIiiEC2IRiS2_Lb1EEEOT_OT0_ = comdat any

$_ZSt14__fill_bvectorPmjjb = comdat any

$_ZN9FullBoardC2ERKS_ = comdat any

$_ZN9FastBoardC2ERKS_ = comdat any

$_ZNSt6vectorIiSaIiEEC2ERKS1_ = comdat any

$_ZNKSt6vectorIiSaIiEE4sizeEv = comdat any

$_ZN9__gnu_cxx14__alloc_traitsISaIiEiE17_S_select_on_copyERKS1_ = comdat any

$_ZNKSt12_Vector_baseIiSaIiEE19_M_get_Tp_allocatorEv = comdat any

$_ZNSt12_Vector_baseIiSaIiEEC2EmRKS0_ = comdat any

$_ZSt22__uninitialized_copy_aIN9__gnu_cxx17__normal_iteratorIPKiSt6vectorIiSaIiEEEEPiiET0_T_SA_S9_RSaIT1_E = comdat any

$_ZNKSt6vectorIiSaIiEE5beginEv = comdat any

$_ZNKSt6vectorIiSaIiEE3endEv = comdat any

$_ZNSt12_Vector_baseIiSaIiEE19_M_get_Tp_allocatorEv = comdat any

$_ZNSt12_Vector_baseIiSaIiEED2Ev = comdat any

$_ZNSt16allocator_traitsISaIiEE37select_on_container_copy_constructionERKS0_ = comdat any

$_ZNSaIiEC2ERKS_ = comdat any

$_ZN9__gnu_cxx13new_allocatorIiEC2ERKS1_ = comdat any

$_ZNSt12_Vector_baseIiSaIiEE12_Vector_implC2ERKS0_ = comdat any

$_ZNSt12_Vector_baseIiSaIiEE17_M_create_storageEm = comdat any

$_ZNSt12_Vector_baseIiSaIiEE12_Vector_implD2Ev = comdat any

$_ZNSt12_Vector_baseIiSaIiEE11_M_allocateEm = comdat any

$_ZNSt16allocator_traitsISaIiEE8allocateERS0_m = comdat any

$_ZN9__gnu_cxx13new_allocatorIiE8allocateEmPKv = comdat any

$_ZNK9__gnu_cxx13new_allocatorIiE11_M_max_sizeEv = comdat any

$_ZN9__gnu_cxx13new_allocatorIiED2Ev = comdat any

$_ZSt18uninitialized_copyIN9__gnu_cxx17__normal_iteratorIPKiSt6vectorIiSaIiEEEEPiET0_T_SA_S9_ = comdat any

$_ZNSt20__uninitialized_copyILb1EE13__uninit_copyIN9__gnu_cxx17__normal_iteratorIPKiSt6vectorIiSaIiEEEEPiEET0_T_SC_SB_ = comdat any

$_ZSt4copyIN9__gnu_cxx17__normal_iteratorIPKiSt6vectorIiSaIiEEEEPiET0_T_SA_S9_ = comdat any

$_ZSt13__copy_move_aILb0EN9__gnu_cxx17__normal_iteratorIPKiSt6vectorIiSaIiEEEEPiET1_T0_SA_S9_ = comdat any

$_ZSt12__miter_baseIN9__gnu_cxx17__normal_iteratorIPKiSt6vectorIiSaIiEEEEET_S8_ = comdat any

$_ZSt12__niter_wrapIPiET_RKS1_S1_ = comdat any

$_ZSt14__copy_move_a1ILb0EPKiPiET1_T0_S4_S3_ = comdat any

$_ZSt12__niter_baseIPKiSt6vectorIiSaIiEEET_N9__gnu_cxx17__normal_iteratorIS5_T0_EE = comdat any

$_ZSt12__niter_baseIPiET_S1_ = comdat any

$_ZSt14__copy_move_a2ILb0EPKiPiET1_T0_S4_S3_ = comdat any

$_ZNSt11__copy_moveILb0ELb1ESt26random_access_iterator_tagE8__copy_mIiEEPT_PKS3_S6_S4_ = comdat any

$_ZNK9__gnu_cxx17__normal_iteratorIPKiSt6vectorIiSaIiEEE4baseEv = comdat any

$_ZN9__gnu_cxx17__normal_iteratorIPKiSt6vectorIiSaIiEEEC2ERKS2_ = comdat any

$_ZNSt12_Vector_baseIiSaIiEE13_M_deallocateEPim = comdat any

$__clang_call_terminate = comdat any

$_ZNSt16allocator_traitsISaIiEE10deallocateERS0_Pim = comdat any

$_ZN9__gnu_cxx13new_allocatorIiE10deallocateEPim = comdat any

$_ZN9FullBoardD2Ev = comdat any

$_ZN9FastBoardD2Ev = comdat any

$_ZSt8_DestroyIPiiEvT_S1_RSaIT0_E = comdat any

$_ZSt8_DestroyIPiEvT_S1_ = comdat any

$_ZNSt12_Destroy_auxILb1EE9__destroyIPiEEvT_S3_ = comdat any

$_ZNKSt6vectorIiSaIiEE8max_sizeEv = comdat any

$_ZNKSt6vectorIiSaIiEE8capacityEv = comdat any

$_ZNSt6vectorIiSaIiEE11_S_relocateEPiS2_S2_RS0_ = comdat any

$_ZNSt6vectorIiSaIiEE11_S_max_sizeERKS0_ = comdat any

$_ZNSt16allocator_traitsISaIiEE8max_sizeERKS0_ = comdat any

$_ZSt3minImERKT_S2_S2_ = comdat any

$_ZNK9__gnu_cxx13new_allocatorIiE8max_sizeEv = comdat any

$_ZNSt6vectorIiSaIiEE14_S_do_relocateEPiS2_S2_RS0_St17integral_constantIbLb1EE = comdat any

$_ZSt12__relocate_aIPiS0_SaIiEET0_T_S3_S2_RT1_ = comdat any

$_ZSt14__relocate_a_1IiiENSt9enable_ifIXsr3std24__is_bitwise_relocatableIT_EE5valueEPS1_E4typeES2_S2_S2_RSaIT0_E = comdat any

$_ZNSt16allocator_traitsISaIiEE9constructIiJRKiEEEvRS0_PT_DpOT0_ = comdat any

$_ZNSt6vectorIiSaIiEE17_M_realloc_insertIJRKiEEEvN9__gnu_cxx17__normal_iteratorIPiS1_EEDpOT_ = comdat any

$_ZN9__gnu_cxx13new_allocatorIiE9constructIiJRKiEEEvPT_DpOT0_ = comdat any

$_ZSt7forwardIRKiEOT_RNSt16remove_referenceIS2_E4typeE = comdat any

$_ZNKSt6vectorIiSaIiEE12_M_check_lenEmPKc = comdat any

$_ZN9__gnu_cxxmiIPiSt6vectorIiSaIiEEEENS_17__normal_iteratorIT_T0_E15difference_typeERKS8_SB_ = comdat any

$_ZNK9__gnu_cxx17__normal_iteratorIPiSt6vectorIiSaIiEEE4baseEv = comdat any

$_ZSt3maxImERKT_S2_S2_ = comdat any

$_ZNSt6vectorIiSaIiEE12emplace_backIJiEEEvDpOT_ = comdat any

$_ZSt4moveIRiEONSt16remove_referenceIT_E4typeEOS2_ = comdat any

$_ZNSt16allocator_traitsISaIiEE9constructIiJiEEEvRS0_PT_DpOT0_ = comdat any

$_ZSt7forwardIiEOT_RNSt16remove_referenceIS0_E4typeE = comdat any

$_ZNSt6vectorIiSaIiEE17_M_realloc_insertIJiEEEvN9__gnu_cxx17__normal_iteratorIPiS1_EEDpOT_ = comdat any

$_ZN9__gnu_cxx13new_allocatorIiE9constructIiJiEEEvPT_DpOT0_ = comdat any

$_ZNSt6vectorIiSaIiEE17_S_check_init_lenEmRKS0_ = comdat any

$_ZNSt6vectorIiSaIiEE21_M_default_initializeEm = comdat any

$_ZSt27__uninitialized_default_n_aIPimiET_S1_T0_RSaIT1_E = comdat any

$_ZSt25__uninitialized_default_nIPimET_S1_T0_ = comdat any

$_ZNSt27__uninitialized_default_n_1ILb1EE18__uninit_default_nIPimEET_S3_T0_ = comdat any

$_ZSt6fill_nIPimiET_S1_T0_RKT1_ = comdat any

$_ZSt10__fill_n_aIPimiET_S1_T0_RKT1_St26random_access_iterator_tag = comdat any

$_ZSt17__size_to_integerm = comdat any

$_ZSt19__iterator_categoryIPiENSt15iterator_traitsIT_E17iterator_categoryERKS2_ = comdat any

$_ZSt8__fill_aIPiiEvT_S1_RKT0_ = comdat any

$_ZSt9__fill_a1IPiiEN9__gnu_cxx11__enable_ifIXsr11__is_scalarIT0_EE7__valueEvE6__typeET_S6_RKS3_ = comdat any

$_ZN9__gnu_cxx13new_allocatorIbEC2Ev = comdat any

$_ZN9__gnu_cxx13new_allocatorIbED2Ev = comdat any

$_ZNSt6vectorIbSaIbEEC2EmRKbRKS0_ = comdat any

$_ZNSt13_Bvector_baseISaIbEEC2ERKS0_ = comdat any

$_ZNSt6vectorIbSaIbEE13_M_initializeEm = comdat any

$_ZNSt6vectorIbSaIbEE19_M_initialize_valueEb = comdat any

$_ZNSt13_Bvector_baseISaIbEED2Ev = comdat any

$_ZNSaImEC2IbEERKSaIT_E = comdat any

$_ZNSt13_Bvector_baseISaIbEE13_Bvector_implC2ERKSaImE = comdat any

$_ZNSaImED2Ev = comdat any

$_ZN9__gnu_cxx13new_allocatorImEC2Ev = comdat any

$_ZNSaImEC2ERKS_ = comdat any

$_ZNSt13_Bvector_baseISaIbEE18_Bvector_impl_dataC2Ev = comdat any

$_ZN9__gnu_cxx13new_allocatorImEC2ERKS1_ = comdat any

$_ZNSt13_Bit_iteratorC2Ev = comdat any

$_ZNSt18_Bit_iterator_baseC2EPmj = comdat any

$_ZN9__gnu_cxx13new_allocatorImED2Ev = comdat any

$_ZNSt13_Bvector_baseISaIbEE11_M_allocateEm = comdat any

$_ZNSt13_Bvector_baseISaIbEE8_S_nwordEm = comdat any

$_ZSt11__addressofImEPT_RS0_ = comdat any

$_ZNSt13_Bit_iteratorC2EPmj = comdat any

$_ZStplRKSt13_Bit_iteratorl = comdat any

$_ZNSt16allocator_traitsISaImEE8allocateERS0_m = comdat any

$_ZN9__gnu_cxx13new_allocatorImE8allocateEmPKv = comdat any

$_ZNK9__gnu_cxx13new_allocatorImE11_M_max_sizeEv = comdat any

$_ZNSt13_Bit_iteratorpLEl = comdat any

$_ZNSt18_Bit_iterator_base7_M_incrEl = comdat any

$_ZNKSt13_Bvector_baseISaIbEE13_Bvector_impl11_M_end_addrEv = comdat any

$_ZNSt13_Bvector_baseISaIbEE13_M_deallocateEv = comdat any

$_ZNSt13_Bvector_baseISaIbEE13_Bvector_implD2Ev = comdat any

$_ZNSt16allocator_traitsISaImEE10deallocateERS0_Pmm = comdat any

$_ZNSt13_Bvector_baseISaIbEE18_Bvector_impl_data8_M_resetEv = comdat any

$_ZN9__gnu_cxx13new_allocatorImE10deallocateEPmm = comdat any

$_ZN9__gnu_cxx17__normal_iteratorIPiSt6vectorIiSaIiEEEC2ERKS1_ = comdat any

$_ZSt8__fill_aIN9__gnu_cxx17__normal_iteratorIPiSt6vectorIiSaIiEEEEiEvT_S7_RKT0_ = comdat any

$_ZSt9__fill_a1IPiSt6vectorIiSaIiEEiEvN9__gnu_cxx17__normal_iteratorIT_T0_EES8_RKT1_ = comdat any

$_ZNKSt13_Bit_iteratordeEv = comdat any

$_ZNSt14_Bit_referenceC2EPmm = comdat any

$_ZNSt6vectorIiSaIiEE17_M_default_appendEm = comdat any

$_ZNSt6vectorIiSaIiEE15_M_erase_at_endEPi = comdat any

$_ZSt8__fill_aIN9__gnu_cxx17__normal_iteratorIPiSt6vectorIiSaIiEEEEN9FastBoard8square_tEEvT_S9_RKT0_ = comdat any

$_ZSt9__fill_a1IPiSt6vectorIiSaIiEEN9FastBoard8square_tEEvN9__gnu_cxx17__normal_iteratorIT_T0_EESA_RKT1_ = comdat any

$_ZSt9__fill_a1IPiN9FastBoard8square_tEEN9__gnu_cxx11__enable_ifIXntsr11__is_scalarIT0_EE7__valueEvE6__typeET_S8_RKS5_ = comdat any

@_ZZN9FastState16play_random_moveEiE9crit_mine = internal constant %"class.boost::array.13" { [9 x i32] [i32 1, i32 4, i32 1, i32 1, i32 1, i32 1, i32 1, i32 1, i32 1] }, align 4, !dbg !0
@_ZZN9FastState16play_random_moveEiE10crit_enemy = internal constant %"class.boost::array.13" { [9 x i32] [i32 1, i32 15, i32 12, i32 1, i32 1, i32 1, i32 1, i32 1, i32 1] }, align 4, !dbg !2310
@_ZN7Zobrist12zobrist_passE = external dso_local global %"class.boost::array.14", align 8
@.str = private unnamed_addr constant [48 x i8] c"\0APasses: %d            Black (X) Prisoners: %d\0A\00", align 1
@.str.1 = private unnamed_addr constant [18 x i8] c"Black (X) to move\00", align 1
@.str.2 = private unnamed_addr constant [18 x i8] c"White (O) to move\00", align 1
@.str.3 = private unnamed_addr constant [29 x i8] c"    White (O) Prisoners: %d\0A\00", align 1
@_ZZN9FastState9mark_deadEvE12MARKING_RUNS = internal constant i32 256, align 4, !dbg !2379
@.str.4 = private unnamed_addr constant [16 x i8] c"vector::reserve\00", align 1
@.str.5 = private unnamed_addr constant [26 x i8] c"vector::_M_realloc_insert\00", align 1
@.str.6 = private unnamed_addr constant [49 x i8] c"cannot create std::vector larger than max_size()\00", align 1
@.str.7 = private unnamed_addr constant [26 x i8] c"vector::_M_default_append\00", align 1

; Function Attrs: noinline uwtable
define dso_local void @_ZN9FastState9init_gameEif(%class.FastState* %this, i32 %size, float %komi) #0 align 2 !dbg !3584 {
entry:
  %this.addr = alloca %class.FastState*, align 8
  %size.addr = alloca i32, align 4
  %komi.addr = alloca float, align 4
  store %class.FastState* %this, %class.FastState** %this.addr, align 8
  call void @llvm.dbg.declare(metadata %class.FastState** %this.addr, metadata !3585, metadata !DIExpression()), !dbg !3587
  store i32 %size, i32* %size.addr, align 4
  call void @llvm.dbg.declare(metadata i32* %size.addr, metadata !3588, metadata !DIExpression()), !dbg !3589
  store float %komi, float* %komi.addr, align 4
  call void @llvm.dbg.declare(metadata float* %komi.addr, metadata !3590, metadata !DIExpression()), !dbg !3591
  %this1 = load %class.FastState*, %class.FastState** %this.addr, align 8
  %board = getelementptr inbounds %class.FastState, %class.FastState* %this1, i32 0, i32 0, !dbg !3592
  %0 = load i32, i32* %size.addr, align 4, !dbg !3593
  call void @_ZN9FullBoard11reset_boardEi(%class.FullBoard* %board, i32 %0), !dbg !3594
  %movenum = getelementptr inbounds %class.FastState, %class.FastState* %this1, i32 0, i32 5, !dbg !3595
  store i32 0, i32* %movenum, align 8, !dbg !3596
  %komove = getelementptr inbounds %class.FastState, %class.FastState* %this1, i32 0, i32 4, !dbg !3597
  store i32 0, i32* %komove, align 4, !dbg !3598
  %lastmove = getelementptr inbounds %class.FastState, %class.FastState* %this1, i32 0, i32 6, !dbg !3599
  store i32 0, i32* %lastmove, align 4, !dbg !3600
  %lastmove2 = getelementptr inbounds %class.FastState, %class.FastState* %this1, i32 0, i32 6, !dbg !3601
  %1 = load i32, i32* %lastmove2, align 4, !dbg !3601
  %onebutlastmove = getelementptr inbounds %class.FastState, %class.FastState* %this1, i32 0, i32 7, !dbg !3602
  store i32 %1, i32* %onebutlastmove, align 8, !dbg !3603
  %2 = load float, float* %komi.addr, align 4, !dbg !3604
  %m_komi = getelementptr inbounds %class.FastState, %class.FastState* %this1, i32 0, i32 1, !dbg !3605
  store float %2, float* %m_komi, align 8, !dbg !3606
  %m_handicap = getelementptr inbounds %class.FastState, %class.FastState* %this1, i32 0, i32 2, !dbg !3607
  store i32 0, i32* %m_handicap, align 4, !dbg !3608
  %m_passes = getelementptr inbounds %class.FastState, %class.FastState* %this1, i32 0, i32 3, !dbg !3609
  store i32 0, i32* %m_passes, align 8, !dbg !3610
  ret void, !dbg !3611
}

; Function Attrs: nounwind readnone speculatable willreturn
declare void @llvm.dbg.declare(metadata, metadata, metadata) #1

declare dso_local void @_ZN9FullBoard11reset_boardEi(%class.FullBoard*, i32) #2

; Function Attrs: noinline nounwind uwtable
define dso_local void @_ZN9FastState8set_komiEf(%class.FastState* %this, float %komi) #3 align 2 !dbg !3612 {
entry:
  %this.addr = alloca %class.FastState*, align 8
  %komi.addr = alloca float, align 4
  store %class.FastState* %this, %class.FastState** %this.addr, align 8
  call void @llvm.dbg.declare(metadata %class.FastState** %this.addr, metadata !3613, metadata !DIExpression()), !dbg !3614
  store float %komi, float* %komi.addr, align 4
  call void @llvm.dbg.declare(metadata float* %komi.addr, metadata !3615, metadata !DIExpression()), !dbg !3616
  %this1 = load %class.FastState*, %class.FastState** %this.addr, align 8
  %0 = load float, float* %komi.addr, align 4, !dbg !3617
  %m_komi = getelementptr inbounds %class.FastState, %class.FastState* %this1, i32 0, i32 1, !dbg !3618
  store float %0, float* %m_komi, align 8, !dbg !3619
  ret void, !dbg !3620
}

; Function Attrs: noinline uwtable
define dso_local void @_ZN9FastState10reset_gameEv(%class.FastState* %this) #0 align 2 !dbg !3621 {
entry:
  %this.addr = alloca %class.FastState*, align 8
  store %class.FastState* %this, %class.FastState** %this.addr, align 8
  call void @llvm.dbg.declare(metadata %class.FastState** %this.addr, metadata !3622, metadata !DIExpression()), !dbg !3623
  %this1 = load %class.FastState*, %class.FastState** %this.addr, align 8
  call void @_ZN9FastState11reset_boardEv(%class.FastState* %this1), !dbg !3624
  %movenum = getelementptr inbounds %class.FastState, %class.FastState* %this1, i32 0, i32 5, !dbg !3625
  store i32 0, i32* %movenum, align 8, !dbg !3626
  %m_passes = getelementptr inbounds %class.FastState, %class.FastState* %this1, i32 0, i32 3, !dbg !3627
  store i32 0, i32* %m_passes, align 8, !dbg !3628
  %m_handicap = getelementptr inbounds %class.FastState, %class.FastState* %this1, i32 0, i32 2, !dbg !3629
  store i32 0, i32* %m_handicap, align 4, !dbg !3630
  %komove = getelementptr inbounds %class.FastState, %class.FastState* %this1, i32 0, i32 4, !dbg !3631
  store i32 0, i32* %komove, align 4, !dbg !3632
  %lastmove = getelementptr inbounds %class.FastState, %class.FastState* %this1, i32 0, i32 6, !dbg !3633
  store i32 441, i32* %lastmove, align 4, !dbg !3634
  %lastmove2 = getelementptr inbounds %class.FastState, %class.FastState* %this1, i32 0, i32 6, !dbg !3635
  %0 = load i32, i32* %lastmove2, align 4, !dbg !3635
  %onebutlastmove = getelementptr inbounds %class.FastState, %class.FastState* %this1, i32 0, i32 7, !dbg !3636
  store i32 %0, i32* %onebutlastmove, align 8, !dbg !3637
  ret void, !dbg !3638
}

; Function Attrs: noinline uwtable
define dso_local void @_ZN9FastState11reset_boardEv(%class.FastState* %this) #0 align 2 !dbg !3639 {
entry:
  %this.addr = alloca %class.FastState*, align 8
  store %class.FastState* %this, %class.FastState** %this.addr, align 8
  call void @llvm.dbg.declare(metadata %class.FastState** %this.addr, metadata !3640, metadata !DIExpression()), !dbg !3641
  %this1 = load %class.FastState*, %class.FastState** %this.addr, align 8
  %board = getelementptr inbounds %class.FastState, %class.FastState* %this1, i32 0, i32 0, !dbg !3642
  %board2 = getelementptr inbounds %class.FastState, %class.FastState* %this1, i32 0, i32 0, !dbg !3643
  %0 = bitcast %class.FullBoard* %board2 to %class.FastBoard*, !dbg !3643
  %call = call i32 @_ZN9FastBoard13get_boardsizeEv(%class.FastBoard* %0), !dbg !3644
  call void @_ZN9FullBoard11reset_boardEi(%class.FullBoard* %board, i32 %call), !dbg !3645
  ret void, !dbg !3646
}

declare dso_local i32 @_ZN9FastBoard13get_boardsizeEv(%class.FastBoard*) #2

; Function Attrs: noinline uwtable
define dso_local i32 @_ZN9FastState16play_random_moveEv(%class.FastState* %this) #0 align 2 !dbg !3647 {
entry:
  %this.addr = alloca %class.FastState*, align 8
  store %class.FastState* %this, %class.FastState** %this.addr, align 8
  call void @llvm.dbg.declare(metadata %class.FastState** %this.addr, metadata !3648, metadata !DIExpression()), !dbg !3649
  %this1 = load %class.FastState*, %class.FastState** %this.addr, align 8
  %board = getelementptr inbounds %class.FastState, %class.FastState* %this1, i32 0, i32 0, !dbg !3650
  %0 = bitcast %class.FullBoard* %board to %class.FastBoard*, !dbg !3650
  %m_tomove = getelementptr inbounds %class.FastBoard, %class.FastBoard* %0, i32 0, i32 3, !dbg !3651
  %1 = load i32, i32* %m_tomove, align 8, !dbg !3651
  %call = call i32 @_ZN9FastState16play_random_moveEi(%class.FastState* %this1, i32 %1), !dbg !3652
  ret i32 %call, !dbg !3653
}

; Function Attrs: noinline uwtable
define dso_local i32 @_ZN9FastState16play_random_moveEi(%class.FastState* %this, i32 %color) #0 align 2 !dbg !2 {
entry:
  %retval = alloca i32, align 4
  %this.addr = alloca %class.FastState*, align 8
  %color.addr = alloca i32, align 4
  %movecnt = alloca i32, align 4
  %newcnt = alloca i32, align 4
  %scoredcnt = alloca i32, align 4
  %i = alloca i32, align 4
  %matcher = alloca %class.Matcher*, align 8
  %cumul = alloca i32, align 4
  %i27 = alloca i32, align 4
  %sq = alloca i32, align 4
  %pattern = alloca i32, align 4
  %score = alloca i32, align 4
  %nbr_crit = alloca %"struct.std::pair", align 4
  %nearby = alloca i8, align 1
  %i48 = alloca i32, align 4
  %ai = alloca i32, align 4
  %ref.tmp = alloca %"struct.std::pair", align 4
  %index = alloca i32, align 4
  %i80 = alloca i32, align 4
  %point = alloca i32, align 4
  %loops = alloca i32, align 4
  %cumul100 = alloca i32, align 4
  %vidx = alloca i32, align 4
  %vtx = alloca i32, align 4
  %pattern112 = alloca i32, align 4
  %score115 = alloca i32, align 4
  %ref.tmp123 = alloca %"struct.std::pair", align 4
  %index132 = alloca i32, align 4
  %i136 = alloca i32, align 4
  %point140 = alloca i32, align 4
  store %class.FastState* %this, %class.FastState** %this.addr, align 8
  call void @llvm.dbg.declare(metadata %class.FastState** %this.addr, metadata !3654, metadata !DIExpression()), !dbg !3655
  store i32 %color, i32* %color.addr, align 4
  call void @llvm.dbg.declare(metadata i32* %color.addr, metadata !3656, metadata !DIExpression()), !dbg !3657
  %this1 = load %class.FastState*, %class.FastState** %this.addr, align 8
  %0 = load i32, i32* %color.addr, align 4, !dbg !3658
  %board = getelementptr inbounds %class.FastState, %class.FastState* %this1, i32 0, i32 0, !dbg !3659
  %1 = bitcast %class.FullBoard* %board to %class.FastBoard*, !dbg !3659
  %m_tomove = getelementptr inbounds %class.FastBoard, %class.FastBoard* %1, i32 0, i32 3, !dbg !3660
  store i32 %0, i32* %m_tomove, align 8, !dbg !3661
  call void @llvm.dbg.declare(metadata i32* %movecnt, metadata !3662, metadata !DIExpression()), !dbg !3663
  store i32 0, i32* %movecnt, align 4, !dbg !3663
  call void @llvm.dbg.declare(metadata i32* %newcnt, metadata !3664, metadata !DIExpression()), !dbg !3665
  store i32 0, i32* %newcnt, align 4, !dbg !3665
  call void @llvm.dbg.declare(metadata i32* %scoredcnt, metadata !3666, metadata !DIExpression()), !dbg !3667
  store i32 0, i32* %scoredcnt, align 4, !dbg !3667
  %lastmove = getelementptr inbounds %class.FastState, %class.FastState* %this1, i32 0, i32 6, !dbg !3668
  %2 = load i32, i32* %lastmove, align 4, !dbg !3668
  %cmp = icmp sgt i32 %2, 0, !dbg !3670
  br i1 %cmp, label %land.lhs.true, label %if.end23, !dbg !3671

land.lhs.true:                                    ; preds = %entry
  %lastmove2 = getelementptr inbounds %class.FastState, %class.FastState* %this1, i32 0, i32 6, !dbg !3672
  %3 = load i32, i32* %lastmove2, align 4, !dbg !3672
  %board3 = getelementptr inbounds %class.FastState, %class.FastState* %this1, i32 0, i32 0, !dbg !3673
  %4 = bitcast %class.FullBoard* %board3 to %class.FastBoard*, !dbg !3673
  %m_maxsq = getelementptr inbounds %class.FastBoard, %class.FastBoard* %4, i32 0, i32 4, !dbg !3674
  %5 = load i32, i32* %m_maxsq, align 4, !dbg !3674
  %cmp4 = icmp slt i32 %3, %5, !dbg !3675
  br i1 %cmp4, label %if.then, label %if.end23, !dbg !3676

if.then:                                          ; preds = %land.lhs.true
  %board5 = getelementptr inbounds %class.FastState, %class.FastState* %this1, i32 0, i32 0, !dbg !3677
  %6 = bitcast %class.FullBoard* %board5 to %class.FastBoard*, !dbg !3677
  %lastmove6 = getelementptr inbounds %class.FastState, %class.FastState* %this1, i32 0, i32 6, !dbg !3680
  %7 = load i32, i32* %lastmove6, align 4, !dbg !3680
  %call = call i32 @_ZN9FastBoard10get_squareEi(%class.FastBoard* %6, i32 %7), !dbg !3681
  %8 = load i32, i32* %color.addr, align 4, !dbg !3682
  %tobool = icmp ne i32 %8, 0, !dbg !3682
  %lnot = xor i1 %tobool, true, !dbg !3683
  %conv = zext i1 %lnot to i32, !dbg !3683
  %cmp7 = icmp eq i32 %call, %conv, !dbg !3684
  br i1 %cmp7, label %if.then8, label %if.end22, !dbg !3685

if.then8:                                         ; preds = %if.then
  %board9 = getelementptr inbounds %class.FastState, %class.FastState* %this1, i32 0, i32 0, !dbg !3686
  %9 = bitcast %class.FullBoard* %board9 to %class.FastBoard*, !dbg !3686
  %10 = load i32, i32* %color.addr, align 4, !dbg !3688
  %moves = getelementptr inbounds %class.FastState, %class.FastState* %this1, i32 0, i32 8, !dbg !3689
  call void @_ZN9FastBoard19add_global_capturesEiRN5boost5arrayIiLm24EEERi(%class.FastBoard* %9, i32 %10, %"class.boost::array.5"* dereferenceable(96) %moves, i32* dereferenceable(4) %movecnt), !dbg !3690
  %board10 = getelementptr inbounds %class.FastState, %class.FastState* %this1, i32 0, i32 0, !dbg !3691
  %11 = bitcast %class.FullBoard* %board10 to %class.FastBoard*, !dbg !3691
  %12 = load i32, i32* %color.addr, align 4, !dbg !3692
  %lastmove11 = getelementptr inbounds %class.FastState, %class.FastState* %this1, i32 0, i32 6, !dbg !3693
  %13 = load i32, i32* %lastmove11, align 4, !dbg !3693
  %moves12 = getelementptr inbounds %class.FastState, %class.FastState* %this1, i32 0, i32 8, !dbg !3694
  call void @_ZN9FastBoard24save_critical_neighboursEiiRN5boost5arrayIiLm24EEERi(%class.FastBoard* %11, i32 %12, i32 %13, %"class.boost::array.5"* dereferenceable(96) %moves12, i32* dereferenceable(4) %movecnt), !dbg !3695
  %board13 = getelementptr inbounds %class.FastState, %class.FastState* %this1, i32 0, i32 0, !dbg !3696
  %14 = bitcast %class.FullBoard* %board13 to %class.FastBoard*, !dbg !3696
  %15 = load i32, i32* %color.addr, align 4, !dbg !3697
  %lastmove14 = getelementptr inbounds %class.FastState, %class.FastState* %this1, i32 0, i32 6, !dbg !3698
  %16 = load i32, i32* %lastmove14, align 4, !dbg !3698
  %moves15 = getelementptr inbounds %class.FastState, %class.FastState* %this1, i32 0, i32 8, !dbg !3699
  call void @_ZN9FastBoard17add_pattern_movesEiiRN5boost5arrayIiLm24EEERi(%class.FastBoard* %14, i32 %15, i32 %16, %"class.boost::array.5"* dereferenceable(96) %moves15, i32* dereferenceable(4) %movecnt), !dbg !3700
  %17 = load i32, i32* %movecnt, align 4, !dbg !3701
  store i32 %17, i32* %newcnt, align 4, !dbg !3702
  call void @llvm.dbg.declare(metadata i32* %i, metadata !3703, metadata !DIExpression()), !dbg !3705
  store i32 0, i32* %i, align 4, !dbg !3705
  br label %for.cond, !dbg !3706

for.cond:                                         ; preds = %for.inc, %if.then8
  %18 = load i32, i32* %i, align 4, !dbg !3707
  %19 = load i32, i32* %movecnt, align 4, !dbg !3709
  %cmp16 = icmp slt i32 %18, %19, !dbg !3710
  br i1 %cmp16, label %for.body, label %for.end, !dbg !3711

for.body:                                         ; preds = %for.cond
  %moves17 = getelementptr inbounds %class.FastState, %class.FastState* %this1, i32 0, i32 8, !dbg !3712
  %20 = load i32, i32* %i, align 4, !dbg !3715
  %conv18 = sext i32 %20 to i64, !dbg !3715
  %call19 = call dereferenceable(4) i32* @_ZN5boost5arrayIiLm24EEixEm(%"class.boost::array.5"* %moves17, i64 %conv18), !dbg !3712
  %21 = load i32, i32* %call19, align 4, !dbg !3712
  %komove = getelementptr inbounds %class.FastState, %class.FastState* %this1, i32 0, i32 4, !dbg !3716
  %22 = load i32, i32* %komove, align 4, !dbg !3716
  %cmp20 = icmp eq i32 %21, %22, !dbg !3717
  br i1 %cmp20, label %if.then21, label %if.end, !dbg !3718

if.then21:                                        ; preds = %for.body
  %23 = load i32, i32* %newcnt, align 4, !dbg !3719
  %dec = add nsw i32 %23, -1, !dbg !3719
  store i32 %dec, i32* %newcnt, align 4, !dbg !3719
  br label %if.end, !dbg !3721

if.end:                                           ; preds = %if.then21, %for.body
  br label %for.inc, !dbg !3722

for.inc:                                          ; preds = %if.end
  %24 = load i32, i32* %i, align 4, !dbg !3723
  %inc = add nsw i32 %24, 1, !dbg !3723
  store i32 %inc, i32* %i, align 4, !dbg !3723
  br label %for.cond, !dbg !3724, !llvm.loop !3725

for.end:                                          ; preds = %for.cond
  br label %if.end22, !dbg !3727

if.end22:                                         ; preds = %for.end, %if.then
  br label %if.end23, !dbg !3728

if.end23:                                         ; preds = %if.end22, %land.lhs.true, %entry
  call void @llvm.dbg.declare(metadata %class.Matcher** %matcher, metadata !3729, metadata !DIExpression()), !dbg !4250
  %call24 = call %class.Matcher* @_ZN7Matcher11get_MatcherEv(), !dbg !4251
  store %class.Matcher* %call24, %class.Matcher** %matcher, align 8, !dbg !4250
  %25 = load i32, i32* %newcnt, align 4, !dbg !4252
  %cmp25 = icmp sgt i32 %25, 0, !dbg !4254
  br i1 %cmp25, label %if.then26, label %if.end99, !dbg !4255

if.then26:                                        ; preds = %if.end23
  call void @llvm.dbg.declare(metadata i32* %cumul, metadata !4256, metadata !DIExpression()), !dbg !4258
  store i32 0, i32* %cumul, align 4, !dbg !4258
  call void @llvm.dbg.declare(metadata i32* %i27, metadata !4259, metadata !DIExpression()), !dbg !4261
  store i32 0, i32* %i27, align 4, !dbg !4261
  br label %for.cond28, !dbg !4262

for.cond28:                                       ; preds = %for.inc74, %if.then26
  %26 = load i32, i32* %i27, align 4, !dbg !4263
  %27 = load i32, i32* %movecnt, align 4, !dbg !4265
  %cmp29 = icmp slt i32 %26, %27, !dbg !4266
  br i1 %cmp29, label %for.body30, label %for.end76, !dbg !4267

for.body30:                                       ; preds = %for.cond28
  call void @llvm.dbg.declare(metadata i32* %sq, metadata !4268, metadata !DIExpression()), !dbg !4270
  %moves31 = getelementptr inbounds %class.FastState, %class.FastState* %this1, i32 0, i32 8, !dbg !4271
  %28 = load i32, i32* %i27, align 4, !dbg !4272
  %conv32 = sext i32 %28 to i64, !dbg !4272
  %call33 = call dereferenceable(4) i32* @_ZN5boost5arrayIiLm24EEixEm(%"class.boost::array.5"* %moves31, i64 %conv32), !dbg !4271
  %29 = load i32, i32* %call33, align 4, !dbg !4271
  store i32 %29, i32* %sq, align 4, !dbg !4270
  %30 = load i32, i32* %sq, align 4, !dbg !4273
  %komove34 = getelementptr inbounds %class.FastState, %class.FastState* %this1, i32 0, i32 4, !dbg !4275
  %31 = load i32, i32* %komove34, align 4, !dbg !4275
  %cmp35 = icmp eq i32 %30, %31, !dbg !4276
  br i1 %cmp35, label %if.then36, label %if.end37, !dbg !4277

if.then36:                                        ; preds = %for.body30
  br label %for.inc74, !dbg !4278

if.end37:                                         ; preds = %for.body30
  call void @llvm.dbg.declare(metadata i32* %pattern, metadata !4279, metadata !DIExpression()), !dbg !4280
  %board38 = getelementptr inbounds %class.FastState, %class.FastState* %this1, i32 0, i32 0, !dbg !4281
  %32 = bitcast %class.FullBoard* %board38 to %class.FastBoard*, !dbg !4281
  %33 = load i32, i32* %sq, align 4, !dbg !4282
  %call39 = call i32 @_ZN9FastBoard24get_pattern_fast_augmentEi(%class.FastBoard* %32, i32 %33), !dbg !4283
  store i32 %call39, i32* %pattern, align 4, !dbg !4280
  call void @llvm.dbg.declare(metadata i32* %score, metadata !4284, metadata !DIExpression()), !dbg !4285
  %34 = load %class.Matcher*, %class.Matcher** %matcher, align 8, !dbg !4286
  %35 = load i32, i32* %color.addr, align 4, !dbg !4287
  %36 = load i32, i32* %pattern, align 4, !dbg !4288
  %call40 = call i32 @_ZN7Matcher7matchesEii(%class.Matcher* %34, i32 %35, i32 %36), !dbg !4289
  store i32 %call40, i32* %score, align 4, !dbg !4285
  call void @llvm.dbg.declare(metadata %"struct.std::pair"* %nbr_crit, metadata !4290, metadata !DIExpression()), !dbg !4291
  %board41 = getelementptr inbounds %class.FastState, %class.FastState* %this1, i32 0, i32 0, !dbg !4292
  %37 = bitcast %class.FullBoard* %board41 to %class.FastBoard*, !dbg !4292
  %38 = load i32, i32* %color.addr, align 4, !dbg !4293
  %39 = load i32, i32* %sq, align 4, !dbg !4294
  %call42 = call i64 @_ZN9FastBoard15nbr_criticalityEii(%class.FastBoard* %37, i32 %38, i32 %39), !dbg !4295
  %40 = bitcast %"struct.std::pair"* %nbr_crit to i64*, !dbg !4295
  store i64 %call42, i64* %40, align 4, !dbg !4295
  %first = getelementptr inbounds %"struct.std::pair", %"struct.std::pair"* %nbr_crit, i32 0, i32 0, !dbg !4296
  %41 = load i32, i32* %first, align 4, !dbg !4296
  %conv43 = sext i32 %41 to i64, !dbg !4297
  %call44 = call dereferenceable(4) i32* @_ZNK5boost5arrayIiLm9EEixEm(%"class.boost::array.13"* @_ZZN9FastState16play_random_moveEiE9crit_mine, i64 %conv43), !dbg !4298
  %42 = load i32, i32* %call44, align 4, !dbg !4298
  %43 = load i32, i32* %score, align 4, !dbg !4299
  %mul = mul nsw i32 %43, %42, !dbg !4299
  store i32 %mul, i32* %score, align 4, !dbg !4299
  %second = getelementptr inbounds %"struct.std::pair", %"struct.std::pair"* %nbr_crit, i32 0, i32 1, !dbg !4300
  %44 = load i32, i32* %second, align 4, !dbg !4300
  %conv45 = sext i32 %44 to i64, !dbg !4301
  %call46 = call dereferenceable(4) i32* @_ZNK5boost5arrayIiLm9EEixEm(%"class.boost::array.13"* @_ZZN9FastState16play_random_moveEiE10crit_enemy, i64 %conv45), !dbg !4302
  %45 = load i32, i32* %call46, align 4, !dbg !4302
  %46 = load i32, i32* %score, align 4, !dbg !4303
  %mul47 = mul nsw i32 %46, %45, !dbg !4303
  store i32 %mul47, i32* %score, align 4, !dbg !4303
  call void @llvm.dbg.declare(metadata i8* %nearby, metadata !4304, metadata !DIExpression()), !dbg !4305
  store i8 0, i8* %nearby, align 1, !dbg !4305
  call void @llvm.dbg.declare(metadata i32* %i48, metadata !4306, metadata !DIExpression()), !dbg !4308
  store i32 0, i32* %i48, align 4, !dbg !4308
  br label %for.cond49, !dbg !4309

for.cond49:                                       ; preds = %for.inc58, %if.end37
  %47 = load i32, i32* %i48, align 4, !dbg !4310
  %cmp50 = icmp slt i32 %47, 8, !dbg !4312
  br i1 %cmp50, label %for.body51, label %for.end60, !dbg !4313

for.body51:                                       ; preds = %for.cond49
  call void @llvm.dbg.declare(metadata i32* %ai, metadata !4314, metadata !DIExpression()), !dbg !4316
  %lastmove52 = getelementptr inbounds %class.FastState, %class.FastState* %this1, i32 0, i32 6, !dbg !4317
  %48 = load i32, i32* %lastmove52, align 4, !dbg !4317
  %board53 = getelementptr inbounds %class.FastState, %class.FastState* %this1, i32 0, i32 0, !dbg !4318
  %49 = bitcast %class.FullBoard* %board53 to %class.FastBoard*, !dbg !4318
  %50 = load i32, i32* %i48, align 4, !dbg !4319
  %call54 = call i32 @_ZN9FastBoard13get_extra_dirEi(%class.FastBoard* %49, i32 %50), !dbg !4320
  %add = add nsw i32 %48, %call54, !dbg !4321
  store i32 %add, i32* %ai, align 4, !dbg !4316
  %51 = load i32, i32* %ai, align 4, !dbg !4322
  %52 = load i32, i32* %sq, align 4, !dbg !4324
  %cmp55 = icmp eq i32 %51, %52, !dbg !4325
  br i1 %cmp55, label %if.then56, label %if.end57, !dbg !4326

if.then56:                                        ; preds = %for.body51
  store i8 1, i8* %nearby, align 1, !dbg !4327
  br label %for.end60, !dbg !4329

if.end57:                                         ; preds = %for.body51
  br label %for.inc58, !dbg !4330

for.inc58:                                        ; preds = %if.end57
  %53 = load i32, i32* %i48, align 4, !dbg !4331
  %inc59 = add nsw i32 %53, 1, !dbg !4331
  store i32 %inc59, i32* %i48, align 4, !dbg !4331
  br label %for.cond49, !dbg !4332, !llvm.loop !4333

for.end60:                                        ; preds = %if.then56, %for.cond49
  %54 = load i8, i8* %nearby, align 1, !dbg !4335
  %tobool61 = trunc i8 %54 to i1, !dbg !4335
  br i1 %tobool61, label %if.end64, label %if.then62, !dbg !4337

if.then62:                                        ; preds = %for.end60
  %55 = load i32, i32* %score, align 4, !dbg !4338
  %mul63 = mul nsw i32 %55, 20, !dbg !4338
  store i32 %mul63, i32* %score, align 4, !dbg !4338
  br label %if.end64, !dbg !4340

if.end64:                                         ; preds = %if.then62, %for.end60
  %56 = load i32, i32* %score, align 4, !dbg !4341
  %cmp65 = icmp sge i32 %56, 40, !dbg !4343
  br i1 %cmp65, label %if.then66, label %if.end73, !dbg !4344

if.then66:                                        ; preds = %if.end64
  %57 = load i32, i32* %score, align 4, !dbg !4345
  %58 = load i32, i32* %cumul, align 4, !dbg !4347
  %add67 = add nsw i32 %58, %57, !dbg !4347
  store i32 %add67, i32* %cumul, align 4, !dbg !4347
  %call68 = call i64 @_ZSt9make_pairIRiS0_ESt4pairINSt25__strip_reference_wrapperINSt5decayIT_E4typeEE6__typeENS2_INS3_IT0_E4typeEE6__typeEEOS4_OS9_(i32* dereferenceable(4) %sq, i32* dereferenceable(4) %cumul), !dbg !4348
  %59 = bitcast %"struct.std::pair"* %ref.tmp to i64*, !dbg !4348
  store i64 %call68, i64* %59, align 4, !dbg !4348
  %scoredmoves = getelementptr inbounds %class.FastState, %class.FastState* %this1, i32 0, i32 9, !dbg !4349
  %60 = load i32, i32* %scoredcnt, align 4, !dbg !4350
  %inc69 = add nsw i32 %60, 1, !dbg !4350
  store i32 %inc69, i32* %scoredcnt, align 4, !dbg !4350
  %conv70 = sext i32 %60 to i64, !dbg !4351
  %call71 = call dereferenceable(8) %"struct.std::pair"* @_ZN5boost5arrayISt4pairIiiELm24EEixEm(%"class.boost::array.6"* %scoredmoves, i64 %conv70), !dbg !4349
  %call72 = call dereferenceable(8) %"struct.std::pair"* @_ZNSt4pairIiiEaSEOS0_(%"struct.std::pair"* %call71, %"struct.std::pair"* dereferenceable(8) %ref.tmp) #9, !dbg !4352
  br label %if.end73, !dbg !4353

if.end73:                                         ; preds = %if.then66, %if.end64
  br label %for.inc74, !dbg !4354

for.inc74:                                        ; preds = %if.end73, %if.then36
  %61 = load i32, i32* %i27, align 4, !dbg !4355
  %inc75 = add nsw i32 %61, 1, !dbg !4355
  store i32 %inc75, i32* %i27, align 4, !dbg !4355
  br label %for.cond28, !dbg !4356, !llvm.loop !4357

for.end76:                                        ; preds = %for.cond28
  call void @llvm.dbg.declare(metadata i32* %index, metadata !4359, metadata !DIExpression()), !dbg !4360
  %call77 = call %class.Random* @_ZN6Random7get_RngEv(), !dbg !4361
  %62 = load i32, i32* %cumul, align 4, !dbg !4362
  %conv78 = trunc i32 %62 to i16, !dbg !4362
  %call79 = call i32 @_ZN6Random7randintEt(%class.Random* %call77, i16 zeroext %conv78), !dbg !4363
  store i32 %call79, i32* %index, align 4, !dbg !4360
  call void @llvm.dbg.declare(metadata i32* %i80, metadata !4364, metadata !DIExpression()), !dbg !4366
  store i32 0, i32* %i80, align 4, !dbg !4366
  br label %for.cond81, !dbg !4367

for.cond81:                                       ; preds = %for.inc96, %for.end76
  %63 = load i32, i32* %i80, align 4, !dbg !4368
  %64 = load i32, i32* %scoredcnt, align 4, !dbg !4370
  %cmp82 = icmp slt i32 %63, %64, !dbg !4371
  br i1 %cmp82, label %for.body83, label %for.end98, !dbg !4372

for.body83:                                       ; preds = %for.cond81
  call void @llvm.dbg.declare(metadata i32* %point, metadata !4373, metadata !DIExpression()), !dbg !4375
  %scoredmoves84 = getelementptr inbounds %class.FastState, %class.FastState* %this1, i32 0, i32 9, !dbg !4376
  %65 = load i32, i32* %i80, align 4, !dbg !4377
  %conv85 = sext i32 %65 to i64, !dbg !4377
  %call86 = call dereferenceable(8) %"struct.std::pair"* @_ZN5boost5arrayISt4pairIiiELm24EEixEm(%"class.boost::array.6"* %scoredmoves84, i64 %conv85), !dbg !4376
  %second87 = getelementptr inbounds %"struct.std::pair", %"struct.std::pair"* %call86, i32 0, i32 1, !dbg !4378
  %66 = load i32, i32* %second87, align 4, !dbg !4378
  store i32 %66, i32* %point, align 4, !dbg !4375
  %67 = load i32, i32* %index, align 4, !dbg !4379
  %68 = load i32, i32* %point, align 4, !dbg !4381
  %cmp88 = icmp slt i32 %67, %68, !dbg !4382
  br i1 %cmp88, label %if.then89, label %if.end95, !dbg !4383

if.then89:                                        ; preds = %for.body83
  %scoredmoves90 = getelementptr inbounds %class.FastState, %class.FastState* %this1, i32 0, i32 9, !dbg !4384
  %69 = load i32, i32* %i80, align 4, !dbg !4386
  %conv91 = sext i32 %69 to i64, !dbg !4386
  %call92 = call dereferenceable(8) %"struct.std::pair"* @_ZN5boost5arrayISt4pairIiiELm24EEixEm(%"class.boost::array.6"* %scoredmoves90, i64 %conv91), !dbg !4384
  %first93 = getelementptr inbounds %"struct.std::pair", %"struct.std::pair"* %call92, i32 0, i32 0, !dbg !4387
  %70 = load i32, i32* %first93, align 4, !dbg !4387
  %call94 = call i32 @_ZN9FastState14play_move_fastEi(%class.FastState* %this1, i32 %70), !dbg !4388
  store i32 %call94, i32* %retval, align 4, !dbg !4389
  br label %return, !dbg !4389

if.end95:                                         ; preds = %for.body83
  br label %for.inc96, !dbg !4390

for.inc96:                                        ; preds = %if.end95
  %71 = load i32, i32* %i80, align 4, !dbg !4391
  %inc97 = add nsw i32 %71, 1, !dbg !4391
  store i32 %inc97, i32* %i80, align 4, !dbg !4391
  br label %for.cond81, !dbg !4392, !llvm.loop !4393

for.end98:                                        ; preds = %for.cond81
  br label %if.end99, !dbg !4395

if.end99:                                         ; preds = %for.end98, %if.end23
  call void @llvm.dbg.declare(metadata i32* %loops, metadata !4396, metadata !DIExpression()), !dbg !4397
  store i32 4, i32* %loops, align 4, !dbg !4397
  call void @llvm.dbg.declare(metadata i32* %cumul100, metadata !4398, metadata !DIExpression()), !dbg !4399
  store i32 0, i32* %cumul100, align 4, !dbg !4399
  br label %do.body, !dbg !4400

do.body:                                          ; preds = %do.cond, %if.end99
  call void @llvm.dbg.declare(metadata i32* %vidx, metadata !4401, metadata !DIExpression()), !dbg !4403
  %call101 = call %class.Random* @_ZN6Random7get_RngEv(), !dbg !4404
  %board102 = getelementptr inbounds %class.FastState, %class.FastState* %this1, i32 0, i32 0, !dbg !4405
  %72 = bitcast %class.FullBoard* %board102 to %class.FastBoard*, !dbg !4405
  %m_empty_cnt = getelementptr inbounds %class.FastBoard, %class.FastBoard* %72, i32 0, i32 2, !dbg !4406
  %73 = load i32, i32* %m_empty_cnt, align 4, !dbg !4406
  %conv103 = trunc i32 %73 to i16, !dbg !4405
  %call104 = call i32 @_ZN6Random7randintEt(%class.Random* %call101, i16 zeroext %conv103), !dbg !4407
  store i32 %call104, i32* %vidx, align 4, !dbg !4403
  call void @llvm.dbg.declare(metadata i32* %vtx, metadata !4408, metadata !DIExpression()), !dbg !4409
  %board105 = getelementptr inbounds %class.FastState, %class.FastState* %this1, i32 0, i32 0, !dbg !4410
  %74 = bitcast %class.FullBoard* %board105 to %class.FastBoard*, !dbg !4410
  %m_tomove106 = getelementptr inbounds %class.FastBoard, %class.FastBoard* %74, i32 0, i32 3, !dbg !4411
  %75 = load i32, i32* %m_tomove106, align 8, !dbg !4411
  %76 = load i32, i32* %vidx, align 4, !dbg !4412
  %call107 = call i32 @_ZN9FastState15walk_empty_listEiib(%class.FastState* %this1, i32 %75, i32 %76, i1 zeroext true), !dbg !4413
  store i32 %call107, i32* %vtx, align 4, !dbg !4409
  %77 = load i32, i32* %vtx, align 4, !dbg !4414
  %cmp108 = icmp eq i32 %77, -1, !dbg !4416
  br i1 %cmp108, label %if.then109, label %if.end111, !dbg !4417

if.then109:                                       ; preds = %do.body
  %call110 = call i32 @_ZN9FastState14play_move_fastEi(%class.FastState* %this1, i32 -1), !dbg !4418
  store i32 %call110, i32* %retval, align 4, !dbg !4420
  br label %return, !dbg !4420

if.end111:                                        ; preds = %do.body
  call void @llvm.dbg.declare(metadata i32* %pattern112, metadata !4421, metadata !DIExpression()), !dbg !4422
  %board113 = getelementptr inbounds %class.FastState, %class.FastState* %this1, i32 0, i32 0, !dbg !4423
  %78 = bitcast %class.FullBoard* %board113 to %class.FastBoard*, !dbg !4423
  %79 = load i32, i32* %vtx, align 4, !dbg !4424
  %call114 = call i32 @_ZN9FastBoard24get_pattern_fast_augmentEi(%class.FastBoard* %78, i32 %79), !dbg !4425
  store i32 %call114, i32* %pattern112, align 4, !dbg !4422
  call void @llvm.dbg.declare(metadata i32* %score115, metadata !4426, metadata !DIExpression()), !dbg !4427
  %80 = load %class.Matcher*, %class.Matcher** %matcher, align 8, !dbg !4428
  %81 = load i32, i32* %color.addr, align 4, !dbg !4429
  %82 = load i32, i32* %pattern112, align 4, !dbg !4430
  %call116 = call i32 @_ZN7Matcher7matchesEii(%class.Matcher* %80, i32 %81, i32 %82), !dbg !4431
  store i32 %call116, i32* %score115, align 4, !dbg !4427
  %board117 = getelementptr inbounds %class.FastState, %class.FastState* %this1, i32 0, i32 0, !dbg !4432
  %83 = bitcast %class.FullBoard* %board117 to %class.FastBoard*, !dbg !4432
  %84 = load i32, i32* %color.addr, align 4, !dbg !4434
  %85 = load i32, i32* %vtx, align 4, !dbg !4435
  %call118 = call zeroext i1 @_ZN9FastBoard10self_atariEii(%class.FastBoard* %83, i32 %84, i32 %85), !dbg !4436
  br i1 %call118, label %if.end121, label %if.then119, !dbg !4437

if.then119:                                       ; preds = %if.end111
  %86 = load i32, i32* %score115, align 4, !dbg !4438
  %mul120 = mul nsw i32 %86, 64, !dbg !4438
  store i32 %mul120, i32* %score115, align 4, !dbg !4438
  br label %if.end121, !dbg !4440

if.end121:                                        ; preds = %if.then119, %if.end111
  %87 = load i32, i32* %score115, align 4, !dbg !4441
  %88 = load i32, i32* %cumul100, align 4, !dbg !4442
  %add122 = add nsw i32 %88, %87, !dbg !4442
  store i32 %add122, i32* %cumul100, align 4, !dbg !4442
  %call124 = call i64 @_ZSt9make_pairIRiS0_ESt4pairINSt25__strip_reference_wrapperINSt5decayIT_E4typeEE6__typeENS2_INS3_IT0_E4typeEE6__typeEEOS4_OS9_(i32* dereferenceable(4) %vtx, i32* dereferenceable(4) %cumul100), !dbg !4443
  %89 = bitcast %"struct.std::pair"* %ref.tmp123 to i64*, !dbg !4443
  store i64 %call124, i64* %89, align 4, !dbg !4443
  %scoredmoves125 = getelementptr inbounds %class.FastState, %class.FastState* %this1, i32 0, i32 9, !dbg !4444
  %90 = load i32, i32* %scoredcnt, align 4, !dbg !4445
  %inc126 = add nsw i32 %90, 1, !dbg !4445
  store i32 %inc126, i32* %scoredcnt, align 4, !dbg !4445
  %conv127 = sext i32 %90 to i64, !dbg !4446
  %call128 = call dereferenceable(8) %"struct.std::pair"* @_ZN5boost5arrayISt4pairIiiELm24EEixEm(%"class.boost::array.6"* %scoredmoves125, i64 %conv127), !dbg !4444
  %call129 = call dereferenceable(8) %"struct.std::pair"* @_ZNSt4pairIiiEaSEOS0_(%"struct.std::pair"* %call128, %"struct.std::pair"* dereferenceable(8) %ref.tmp123) #9, !dbg !4447
  br label %do.cond, !dbg !4448

do.cond:                                          ; preds = %if.end121
  %91 = load i32, i32* %loops, align 4, !dbg !4449
  %dec130 = add nsw i32 %91, -1, !dbg !4449
  store i32 %dec130, i32* %loops, align 4, !dbg !4449
  %cmp131 = icmp sgt i32 %dec130, 0, !dbg !4450
  br i1 %cmp131, label %do.body, label %do.end, !dbg !4448, !llvm.loop !4451

do.end:                                           ; preds = %do.cond
  call void @llvm.dbg.declare(metadata i32* %index132, metadata !4453, metadata !DIExpression()), !dbg !4454
  %call133 = call %class.Random* @_ZN6Random7get_RngEv(), !dbg !4455
  %92 = load i32, i32* %cumul100, align 4, !dbg !4456
  %conv134 = trunc i32 %92 to i16, !dbg !4456
  %call135 = call i32 @_ZN6Random7randintEt(%class.Random* %call133, i16 zeroext %conv134), !dbg !4457
  store i32 %call135, i32* %index132, align 4, !dbg !4454
  call void @llvm.dbg.declare(metadata i32* %i136, metadata !4458, metadata !DIExpression()), !dbg !4460
  store i32 0, i32* %i136, align 4, !dbg !4460
  br label %for.cond137, !dbg !4461

for.cond137:                                      ; preds = %for.inc153, %do.end
  %93 = load i32, i32* %i136, align 4, !dbg !4462
  %94 = load i32, i32* %scoredcnt, align 4, !dbg !4464
  %cmp138 = icmp slt i32 %93, %94, !dbg !4465
  br i1 %cmp138, label %for.body139, label %for.end155, !dbg !4466

for.body139:                                      ; preds = %for.cond137
  call void @llvm.dbg.declare(metadata i32* %point140, metadata !4467, metadata !DIExpression()), !dbg !4469
  %scoredmoves141 = getelementptr inbounds %class.FastState, %class.FastState* %this1, i32 0, i32 9, !dbg !4470
  %95 = load i32, i32* %i136, align 4, !dbg !4471
  %conv142 = sext i32 %95 to i64, !dbg !4471
  %call143 = call dereferenceable(8) %"struct.std::pair"* @_ZN5boost5arrayISt4pairIiiELm24EEixEm(%"class.boost::array.6"* %scoredmoves141, i64 %conv142), !dbg !4470
  %second144 = getelementptr inbounds %"struct.std::pair", %"struct.std::pair"* %call143, i32 0, i32 1, !dbg !4472
  %96 = load i32, i32* %second144, align 4, !dbg !4472
  store i32 %96, i32* %point140, align 4, !dbg !4469
  %97 = load i32, i32* %index132, align 4, !dbg !4473
  %98 = load i32, i32* %point140, align 4, !dbg !4475
  %cmp145 = icmp slt i32 %97, %98, !dbg !4476
  br i1 %cmp145, label %if.then146, label %if.end152, !dbg !4477

if.then146:                                       ; preds = %for.body139
  %scoredmoves147 = getelementptr inbounds %class.FastState, %class.FastState* %this1, i32 0, i32 9, !dbg !4478
  %99 = load i32, i32* %i136, align 4, !dbg !4480
  %conv148 = sext i32 %99 to i64, !dbg !4480
  %call149 = call dereferenceable(8) %"struct.std::pair"* @_ZN5boost5arrayISt4pairIiiELm24EEixEm(%"class.boost::array.6"* %scoredmoves147, i64 %conv148), !dbg !4478
  %first150 = getelementptr inbounds %"struct.std::pair", %"struct.std::pair"* %call149, i32 0, i32 0, !dbg !4481
  %100 = load i32, i32* %first150, align 4, !dbg !4481
  %call151 = call i32 @_ZN9FastState14play_move_fastEi(%class.FastState* %this1, i32 %100), !dbg !4482
  store i32 %call151, i32* %retval, align 4, !dbg !4483
  br label %return, !dbg !4483

if.end152:                                        ; preds = %for.body139
  br label %for.inc153, !dbg !4484

for.inc153:                                       ; preds = %if.end152
  %101 = load i32, i32* %i136, align 4, !dbg !4485
  %inc154 = add nsw i32 %101, 1, !dbg !4485
  store i32 %inc154, i32* %i136, align 4, !dbg !4485
  br label %for.cond137, !dbg !4486, !llvm.loop !4487

for.end155:                                       ; preds = %for.cond137
  %call156 = call i32 @_ZN9FastState14play_move_fastEi(%class.FastState* %this1, i32 -1), !dbg !4489
  store i32 %call156, i32* %retval, align 4, !dbg !4490
  br label %return, !dbg !4490

return:                                           ; preds = %for.end155, %if.then146, %if.then109, %if.then89
  %102 = load i32, i32* %retval, align 4, !dbg !4491
  ret i32 %102, !dbg !4491
}

; Function Attrs: noinline uwtable
define dso_local void @_ZN9FastState14generate_movesEi(%"class.std::vector"* noalias sret %agg.result, %class.FastState* %this, i32 %color) #0 align 2 personality i8* bitcast (i32 (...)* @__gxx_personality_v0 to i8*) !dbg !4492 {
entry:
  %result.ptr = alloca i8*, align 8
  %this.addr = alloca %class.FastState*, align 8
  %color.addr = alloca i32, align 4
  %nrvo = alloca i1, align 1
  %exn.slot = alloca i8*
  %ehselector.slot = alloca i32
  %i = alloca i32, align 4
  %vertex = alloca i32, align 4
  %ref.tmp = alloca i32, align 4
  %0 = bitcast %"class.std::vector"* %agg.result to i8*
  store i8* %0, i8** %result.ptr, align 8
  store %class.FastState* %this, %class.FastState** %this.addr, align 8
  call void @llvm.dbg.declare(metadata %class.FastState** %this.addr, metadata !4493, metadata !DIExpression()), !dbg !4494
  store i32 %color, i32* %color.addr, align 4
  call void @llvm.dbg.declare(metadata i32* %color.addr, metadata !4495, metadata !DIExpression()), !dbg !4496
  %this1 = load %class.FastState*, %class.FastState** %this.addr, align 8
  store i1 false, i1* %nrvo, align 1, !dbg !4497
  call void @llvm.dbg.declare(metadata i8** %result.ptr, metadata !4498, metadata !DIExpression(DW_OP_deref)), !dbg !4499
  call void @_ZNSt6vectorIiSaIiEEC2Ev(%"class.std::vector"* %agg.result) #9, !dbg !4499
  %board = getelementptr inbounds %class.FastState, %class.FastState* %this1, i32 0, i32 0, !dbg !4500
  %1 = bitcast %class.FullBoard* %board to %class.FastBoard*, !dbg !4500
  %m_empty_cnt = getelementptr inbounds %class.FastBoard, %class.FastBoard* %1, i32 0, i32 2, !dbg !4501
  %2 = load i32, i32* %m_empty_cnt, align 4, !dbg !4501
  %conv = sext i32 %2 to i64, !dbg !4500
  invoke void @_ZNSt6vectorIiSaIiEE7reserveEm(%"class.std::vector"* %agg.result, i64 %conv)
          to label %invoke.cont unwind label %lpad, !dbg !4502

invoke.cont:                                      ; preds = %entry
  call void @llvm.dbg.declare(metadata i32* %i, metadata !4503, metadata !DIExpression()), !dbg !4505
  store i32 0, i32* %i, align 4, !dbg !4505
  br label %for.cond, !dbg !4506

for.cond:                                         ; preds = %for.inc, %invoke.cont
  %3 = load i32, i32* %i, align 4, !dbg !4507
  %board2 = getelementptr inbounds %class.FastState, %class.FastState* %this1, i32 0, i32 0, !dbg !4509
  %4 = bitcast %class.FullBoard* %board2 to %class.FastBoard*, !dbg !4509
  %m_empty_cnt3 = getelementptr inbounds %class.FastBoard, %class.FastBoard* %4, i32 0, i32 2, !dbg !4510
  %5 = load i32, i32* %m_empty_cnt3, align 4, !dbg !4510
  %cmp = icmp slt i32 %3, %5, !dbg !4511
  br i1 %cmp, label %for.body, label %for.end, !dbg !4512

for.body:                                         ; preds = %for.cond
  call void @llvm.dbg.declare(metadata i32* %vertex, metadata !4513, metadata !DIExpression()), !dbg !4515
  %board4 = getelementptr inbounds %class.FastState, %class.FastState* %this1, i32 0, i32 0, !dbg !4516
  %6 = bitcast %class.FullBoard* %board4 to %class.FastBoard*, !dbg !4516
  %m_empty = getelementptr inbounds %class.FastBoard, %class.FastBoard* %6, i32 0, i32 0, !dbg !4517
  %7 = load i32, i32* %i, align 4, !dbg !4518
  %conv5 = sext i32 %7 to i64, !dbg !4518
  %call = invoke dereferenceable(2) i16* @_ZN5boost5arrayItLm441EEixEm(%"class.boost::array"* %m_empty, i64 %conv5)
          to label %invoke.cont6 unwind label %lpad, !dbg !4516

invoke.cont6:                                     ; preds = %for.body
  %8 = load i16, i16* %call, align 2, !dbg !4516
  %conv7 = zext i16 %8 to i32, !dbg !4516
  store i32 %conv7, i32* %vertex, align 4, !dbg !4515
  %9 = load i32, i32* %vertex, align 4, !dbg !4519
  %komove = getelementptr inbounds %class.FastState, %class.FastState* %this1, i32 0, i32 4, !dbg !4521
  %10 = load i32, i32* %komove, align 4, !dbg !4521
  %cmp8 = icmp ne i32 %9, %10, !dbg !4522
  br i1 %cmp8, label %land.lhs.true, label %if.end, !dbg !4523

land.lhs.true:                                    ; preds = %invoke.cont6
  %board9 = getelementptr inbounds %class.FastState, %class.FastState* %this1, i32 0, i32 0, !dbg !4524
  %11 = bitcast %class.FullBoard* %board9 to %class.FastBoard*, !dbg !4524
  %12 = load i32, i32* %vertex, align 4, !dbg !4525
  %13 = load i32, i32* %color.addr, align 4, !dbg !4526
  %call11 = invoke zeroext i1 @_ZN9FastBoard10is_suicideEii(%class.FastBoard* %11, i32 %12, i32 %13)
          to label %invoke.cont10 unwind label %lpad, !dbg !4527

invoke.cont10:                                    ; preds = %land.lhs.true
  br i1 %call11, label %if.end, label %if.then, !dbg !4528

if.then:                                          ; preds = %invoke.cont10
  invoke void @_ZNSt6vectorIiSaIiEE9push_backERKi(%"class.std::vector"* %agg.result, i32* dereferenceable(4) %vertex)
          to label %invoke.cont12 unwind label %lpad, !dbg !4529

invoke.cont12:                                    ; preds = %if.then
  br label %if.end, !dbg !4531

lpad:                                             ; preds = %for.end, %if.then, %land.lhs.true, %for.body, %entry
  %14 = landingpad { i8*, i32 }
          cleanup, !dbg !4532
  %15 = extractvalue { i8*, i32 } %14, 0, !dbg !4532
  store i8* %15, i8** %exn.slot, align 8, !dbg !4532
  %16 = extractvalue { i8*, i32 } %14, 1, !dbg !4532
  store i32 %16, i32* %ehselector.slot, align 4, !dbg !4532
  call void @_ZNSt6vectorIiSaIiEED2Ev(%"class.std::vector"* %agg.result) #9, !dbg !4532
  br label %eh.resume, !dbg !4532

if.end:                                           ; preds = %invoke.cont12, %invoke.cont10, %invoke.cont6
  br label %for.inc, !dbg !4533

for.inc:                                          ; preds = %if.end
  %17 = load i32, i32* %i, align 4, !dbg !4534
  %inc = add nsw i32 %17, 1, !dbg !4534
  store i32 %inc, i32* %i, align 4, !dbg !4534
  br label %for.cond, !dbg !4535, !llvm.loop !4536

for.end:                                          ; preds = %for.cond
  store i32 -1, i32* %ref.tmp, align 4, !dbg !4538
  invoke void @_ZNSt6vectorIiSaIiEE9push_backEOi(%"class.std::vector"* %agg.result, i32* dereferenceable(4) %ref.tmp)
          to label %invoke.cont13 unwind label %lpad, !dbg !4539

invoke.cont13:                                    ; preds = %for.end
  store i1 true, i1* %nrvo, align 1, !dbg !4540
  %nrvo.val = load i1, i1* %nrvo, align 1, !dbg !4532
  br i1 %nrvo.val, label %nrvo.skipdtor, label %nrvo.unused, !dbg !4532

nrvo.unused:                                      ; preds = %invoke.cont13
  call void @_ZNSt6vectorIiSaIiEED2Ev(%"class.std::vector"* %agg.result) #9, !dbg !4532
  br label %nrvo.skipdtor, !dbg !4532

nrvo.skipdtor:                                    ; preds = %nrvo.unused, %invoke.cont13
  ret void, !dbg !4532

eh.resume:                                        ; preds = %lpad
  %exn = load i8*, i8** %exn.slot, align 8, !dbg !4532
  %sel = load i32, i32* %ehselector.slot, align 4, !dbg !4532
  %lpad.val = insertvalue { i8*, i32 } undef, i8* %exn, 0, !dbg !4532
  %lpad.val14 = insertvalue { i8*, i32 } %lpad.val, i32 %sel, 1, !dbg !4532
  resume { i8*, i32 } %lpad.val14, !dbg !4532
}

; Function Attrs: noinline nounwind uwtable
define linkonce_odr dso_local void @_ZNSt6vectorIiSaIiEEC2Ev(%"class.std::vector"* %this) unnamed_addr #3 comdat align 2 !dbg !4541 {
entry:
  %this.addr = alloca %"class.std::vector"*, align 8
  store %"class.std::vector"* %this, %"class.std::vector"** %this.addr, align 8
  call void @llvm.dbg.declare(metadata %"class.std::vector"** %this.addr, metadata !4542, metadata !DIExpression()), !dbg !4544
  %this1 = load %"class.std::vector"*, %"class.std::vector"** %this.addr, align 8
  %0 = bitcast %"class.std::vector"* %this1 to %"struct.std::_Vector_base"*, !dbg !4545
  call void @_ZNSt12_Vector_baseIiSaIiEEC2Ev(%"struct.std::_Vector_base"* %0) #9, !dbg !4546
  ret void, !dbg !4545
}

; Function Attrs: noinline uwtable
define linkonce_odr dso_local void @_ZNSt6vectorIiSaIiEE7reserveEm(%"class.std::vector"* %this, i64 %__n) #0 comdat align 2 !dbg !4547 {
entry:
  %this.addr = alloca %"class.std::vector"*, align 8
  %__n.addr = alloca i64, align 8
  %__old_size = alloca i64, align 8
  %__tmp = alloca i32*, align 8
  store %"class.std::vector"* %this, %"class.std::vector"** %this.addr, align 8
  call void @llvm.dbg.declare(metadata %"class.std::vector"** %this.addr, metadata !4549, metadata !DIExpression()), !dbg !4550
  store i64 %__n, i64* %__n.addr, align 8
  call void @llvm.dbg.declare(metadata i64* %__n.addr, metadata !4551, metadata !DIExpression()), !dbg !4552
  %this1 = load %"class.std::vector"*, %"class.std::vector"** %this.addr, align 8
  %0 = load i64, i64* %__n.addr, align 8, !dbg !4553
  %call = call i64 @_ZNKSt6vectorIiSaIiEE8max_sizeEv(%"class.std::vector"* %this1) #9, !dbg !4555
  %cmp = icmp ugt i64 %0, %call, !dbg !4556
  br i1 %cmp, label %if.then, label %if.end, !dbg !4557

if.then:                                          ; preds = %entry
  call void @_ZSt20__throw_length_errorPKc(i8* getelementptr inbounds ([16 x i8], [16 x i8]* @.str.4, i64 0, i64 0)) #10, !dbg !4558
  unreachable, !dbg !4558

if.end:                                           ; preds = %entry
  %call2 = call i64 @_ZNKSt6vectorIiSaIiEE8capacityEv(%"class.std::vector"* %this1) #9, !dbg !4559
  %1 = load i64, i64* %__n.addr, align 8, !dbg !4561
  %cmp3 = icmp ult i64 %call2, %1, !dbg !4562
  br i1 %cmp3, label %if.then4, label %if.end24, !dbg !4563

if.then4:                                         ; preds = %if.end
  call void @llvm.dbg.declare(metadata i64* %__old_size, metadata !4564, metadata !DIExpression()), !dbg !4567
  %call5 = call i64 @_ZNKSt6vectorIiSaIiEE4sizeEv(%"class.std::vector"* %this1) #9, !dbg !4568
  store i64 %call5, i64* %__old_size, align 8, !dbg !4567
  call void @llvm.dbg.declare(metadata i32** %__tmp, metadata !4569, metadata !DIExpression()), !dbg !4570
  %2 = bitcast %"class.std::vector"* %this1 to %"struct.std::_Vector_base"*, !dbg !4571
  %3 = load i64, i64* %__n.addr, align 8, !dbg !4574
  %call6 = call i32* @_ZNSt12_Vector_baseIiSaIiEE11_M_allocateEm(%"struct.std::_Vector_base"* %2, i64 %3), !dbg !4571
  store i32* %call6, i32** %__tmp, align 8, !dbg !4575
  %4 = bitcast %"class.std::vector"* %this1 to %"struct.std::_Vector_base"*, !dbg !4576
  %_M_impl = getelementptr inbounds %"struct.std::_Vector_base", %"struct.std::_Vector_base"* %4, i32 0, i32 0, !dbg !4576
  %5 = bitcast %"struct.std::_Vector_base<int, std::allocator<int> >::_Vector_impl"* %_M_impl to %"struct.std::_Vector_base<int, std::allocator<int> >::_Vector_impl_data"*, !dbg !4577
  %_M_start = getelementptr inbounds %"struct.std::_Vector_base<int, std::allocator<int> >::_Vector_impl_data", %"struct.std::_Vector_base<int, std::allocator<int> >::_Vector_impl_data"* %5, i32 0, i32 0, !dbg !4578
  %6 = load i32*, i32** %_M_start, align 8, !dbg !4578
  %7 = bitcast %"class.std::vector"* %this1 to %"struct.std::_Vector_base"*, !dbg !4579
  %_M_impl7 = getelementptr inbounds %"struct.std::_Vector_base", %"struct.std::_Vector_base"* %7, i32 0, i32 0, !dbg !4579
  %8 = bitcast %"struct.std::_Vector_base<int, std::allocator<int> >::_Vector_impl"* %_M_impl7 to %"struct.std::_Vector_base<int, std::allocator<int> >::_Vector_impl_data"*, !dbg !4580
  %_M_finish = getelementptr inbounds %"struct.std::_Vector_base<int, std::allocator<int> >::_Vector_impl_data", %"struct.std::_Vector_base<int, std::allocator<int> >::_Vector_impl_data"* %8, i32 0, i32 1, !dbg !4581
  %9 = load i32*, i32** %_M_finish, align 8, !dbg !4581
  %10 = load i32*, i32** %__tmp, align 8, !dbg !4582
  %11 = bitcast %"class.std::vector"* %this1 to %"struct.std::_Vector_base"*, !dbg !4583
  %call8 = call dereferenceable(1) %"class.std::allocator"* @_ZNSt12_Vector_baseIiSaIiEE19_M_get_Tp_allocatorEv(%"struct.std::_Vector_base"* %11) #9, !dbg !4583
  %call9 = call i32* @_ZNSt6vectorIiSaIiEE11_S_relocateEPiS2_S2_RS0_(i32* %6, i32* %9, i32* %10, %"class.std::allocator"* dereferenceable(1) %call8) #9, !dbg !4584
  %12 = bitcast %"class.std::vector"* %this1 to %"struct.std::_Vector_base"*, !dbg !4585
  %13 = bitcast %"class.std::vector"* %this1 to %"struct.std::_Vector_base"*, !dbg !4586
  %_M_impl10 = getelementptr inbounds %"struct.std::_Vector_base", %"struct.std::_Vector_base"* %13, i32 0, i32 0, !dbg !4586
  %14 = bitcast %"struct.std::_Vector_base<int, std::allocator<int> >::_Vector_impl"* %_M_impl10 to %"struct.std::_Vector_base<int, std::allocator<int> >::_Vector_impl_data"*, !dbg !4587
  %_M_start11 = getelementptr inbounds %"struct.std::_Vector_base<int, std::allocator<int> >::_Vector_impl_data", %"struct.std::_Vector_base<int, std::allocator<int> >::_Vector_impl_data"* %14, i32 0, i32 0, !dbg !4588
  %15 = load i32*, i32** %_M_start11, align 8, !dbg !4588
  %16 = bitcast %"class.std::vector"* %this1 to %"struct.std::_Vector_base"*, !dbg !4589
  %_M_impl12 = getelementptr inbounds %"struct.std::_Vector_base", %"struct.std::_Vector_base"* %16, i32 0, i32 0, !dbg !4589
  %17 = bitcast %"struct.std::_Vector_base<int, std::allocator<int> >::_Vector_impl"* %_M_impl12 to %"struct.std::_Vector_base<int, std::allocator<int> >::_Vector_impl_data"*, !dbg !4590
  %_M_end_of_storage = getelementptr inbounds %"struct.std::_Vector_base<int, std::allocator<int> >::_Vector_impl_data", %"struct.std::_Vector_base<int, std::allocator<int> >::_Vector_impl_data"* %17, i32 0, i32 2, !dbg !4591
  %18 = load i32*, i32** %_M_end_of_storage, align 8, !dbg !4591
  %19 = bitcast %"class.std::vector"* %this1 to %"struct.std::_Vector_base"*, !dbg !4592
  %_M_impl13 = getelementptr inbounds %"struct.std::_Vector_base", %"struct.std::_Vector_base"* %19, i32 0, i32 0, !dbg !4592
  %20 = bitcast %"struct.std::_Vector_base<int, std::allocator<int> >::_Vector_impl"* %_M_impl13 to %"struct.std::_Vector_base<int, std::allocator<int> >::_Vector_impl_data"*, !dbg !4593
  %_M_start14 = getelementptr inbounds %"struct.std::_Vector_base<int, std::allocator<int> >::_Vector_impl_data", %"struct.std::_Vector_base<int, std::allocator<int> >::_Vector_impl_data"* %20, i32 0, i32 0, !dbg !4594
  %21 = load i32*, i32** %_M_start14, align 8, !dbg !4594
  %sub.ptr.lhs.cast = ptrtoint i32* %18 to i64, !dbg !4595
  %sub.ptr.rhs.cast = ptrtoint i32* %21 to i64, !dbg !4595
  %sub.ptr.sub = sub i64 %sub.ptr.lhs.cast, %sub.ptr.rhs.cast, !dbg !4595
  %sub.ptr.div = sdiv exact i64 %sub.ptr.sub, 4, !dbg !4595
  call void @_ZNSt12_Vector_baseIiSaIiEE13_M_deallocateEPim(%"struct.std::_Vector_base"* %12, i32* %15, i64 %sub.ptr.div), !dbg !4585
  %22 = load i32*, i32** %__tmp, align 8, !dbg !4596
  %23 = bitcast %"class.std::vector"* %this1 to %"struct.std::_Vector_base"*, !dbg !4597
  %_M_impl15 = getelementptr inbounds %"struct.std::_Vector_base", %"struct.std::_Vector_base"* %23, i32 0, i32 0, !dbg !4597
  %24 = bitcast %"struct.std::_Vector_base<int, std::allocator<int> >::_Vector_impl"* %_M_impl15 to %"struct.std::_Vector_base<int, std::allocator<int> >::_Vector_impl_data"*, !dbg !4598
  %_M_start16 = getelementptr inbounds %"struct.std::_Vector_base<int, std::allocator<int> >::_Vector_impl_data", %"struct.std::_Vector_base<int, std::allocator<int> >::_Vector_impl_data"* %24, i32 0, i32 0, !dbg !4599
  store i32* %22, i32** %_M_start16, align 8, !dbg !4600
  %25 = load i32*, i32** %__tmp, align 8, !dbg !4601
  %26 = load i64, i64* %__old_size, align 8, !dbg !4602
  %add.ptr = getelementptr inbounds i32, i32* %25, i64 %26, !dbg !4603
  %27 = bitcast %"class.std::vector"* %this1 to %"struct.std::_Vector_base"*, !dbg !4604
  %_M_impl17 = getelementptr inbounds %"struct.std::_Vector_base", %"struct.std::_Vector_base"* %27, i32 0, i32 0, !dbg !4604
  %28 = bitcast %"struct.std::_Vector_base<int, std::allocator<int> >::_Vector_impl"* %_M_impl17 to %"struct.std::_Vector_base<int, std::allocator<int> >::_Vector_impl_data"*, !dbg !4605
  %_M_finish18 = getelementptr inbounds %"struct.std::_Vector_base<int, std::allocator<int> >::_Vector_impl_data", %"struct.std::_Vector_base<int, std::allocator<int> >::_Vector_impl_data"* %28, i32 0, i32 1, !dbg !4606
  store i32* %add.ptr, i32** %_M_finish18, align 8, !dbg !4607
  %29 = bitcast %"class.std::vector"* %this1 to %"struct.std::_Vector_base"*, !dbg !4608
  %_M_impl19 = getelementptr inbounds %"struct.std::_Vector_base", %"struct.std::_Vector_base"* %29, i32 0, i32 0, !dbg !4608
  %30 = bitcast %"struct.std::_Vector_base<int, std::allocator<int> >::_Vector_impl"* %_M_impl19 to %"struct.std::_Vector_base<int, std::allocator<int> >::_Vector_impl_data"*, !dbg !4609
  %_M_start20 = getelementptr inbounds %"struct.std::_Vector_base<int, std::allocator<int> >::_Vector_impl_data", %"struct.std::_Vector_base<int, std::allocator<int> >::_Vector_impl_data"* %30, i32 0, i32 0, !dbg !4610
  %31 = load i32*, i32** %_M_start20, align 8, !dbg !4610
  %32 = load i64, i64* %__n.addr, align 8, !dbg !4611
  %add.ptr21 = getelementptr inbounds i32, i32* %31, i64 %32, !dbg !4612
  %33 = bitcast %"class.std::vector"* %this1 to %"struct.std::_Vector_base"*, !dbg !4613
  %_M_impl22 = getelementptr inbounds %"struct.std::_Vector_base", %"struct.std::_Vector_base"* %33, i32 0, i32 0, !dbg !4613
  %34 = bitcast %"struct.std::_Vector_base<int, std::allocator<int> >::_Vector_impl"* %_M_impl22 to %"struct.std::_Vector_base<int, std::allocator<int> >::_Vector_impl_data"*, !dbg !4614
  %_M_end_of_storage23 = getelementptr inbounds %"struct.std::_Vector_base<int, std::allocator<int> >::_Vector_impl_data", %"struct.std::_Vector_base<int, std::allocator<int> >::_Vector_impl_data"* %34, i32 0, i32 2, !dbg !4615
  store i32* %add.ptr21, i32** %_M_end_of_storage23, align 8, !dbg !4616
  br label %if.end24, !dbg !4617

if.end24:                                         ; preds = %if.then4, %if.end
  ret void, !dbg !4618
}

declare dso_local i32 @__gxx_personality_v0(...)

; Function Attrs: noinline nounwind uwtable
define linkonce_odr dso_local dereferenceable(2) i16* @_ZN5boost5arrayItLm441EEixEm(%"class.boost::array"* %this, i64 %i) #3 comdat align 2 !dbg !4619 {
entry:
  %this.addr = alloca %"class.boost::array"*, align 8
  %i.addr = alloca i64, align 8
  store %"class.boost::array"* %this, %"class.boost::array"** %this.addr, align 8
  call void @llvm.dbg.declare(metadata %"class.boost::array"** %this.addr, metadata !4620, metadata !DIExpression()), !dbg !4622
  store i64 %i, i64* %i.addr, align 8
  call void @llvm.dbg.declare(metadata i64* %i.addr, metadata !4623, metadata !DIExpression()), !dbg !4624
  %this1 = load %"class.boost::array"*, %"class.boost::array"** %this.addr, align 8
  %elems = getelementptr inbounds %"class.boost::array", %"class.boost::array"* %this1, i32 0, i32 0, !dbg !4625
  %0 = load i64, i64* %i.addr, align 8, !dbg !4626
  %arrayidx = getelementptr inbounds [441 x i16], [441 x i16]* %elems, i64 0, i64 %0, !dbg !4625
  ret i16* %arrayidx, !dbg !4627
}

declare dso_local zeroext i1 @_ZN9FastBoard10is_suicideEii(%class.FastBoard*, i32, i32) #2

; Function Attrs: noinline uwtable
define linkonce_odr dso_local void @_ZNSt6vectorIiSaIiEE9push_backERKi(%"class.std::vector"* %this, i32* dereferenceable(4) %__x) #0 comdat align 2 !dbg !4628 {
entry:
  %this.addr = alloca %"class.std::vector"*, align 8
  %__x.addr = alloca i32*, align 8
  %agg.tmp = alloca %"class.__gnu_cxx::__normal_iterator", align 8
  store %"class.std::vector"* %this, %"class.std::vector"** %this.addr, align 8
  call void @llvm.dbg.declare(metadata %"class.std::vector"** %this.addr, metadata !4629, metadata !DIExpression()), !dbg !4630
  store i32* %__x, i32** %__x.addr, align 8
  call void @llvm.dbg.declare(metadata i32** %__x.addr, metadata !4631, metadata !DIExpression()), !dbg !4632
  %this1 = load %"class.std::vector"*, %"class.std::vector"** %this.addr, align 8
  %0 = bitcast %"class.std::vector"* %this1 to %"struct.std::_Vector_base"*, !dbg !4633
  %_M_impl = getelementptr inbounds %"struct.std::_Vector_base", %"struct.std::_Vector_base"* %0, i32 0, i32 0, !dbg !4633
  %1 = bitcast %"struct.std::_Vector_base<int, std::allocator<int> >::_Vector_impl"* %_M_impl to %"struct.std::_Vector_base<int, std::allocator<int> >::_Vector_impl_data"*, !dbg !4635
  %_M_finish = getelementptr inbounds %"struct.std::_Vector_base<int, std::allocator<int> >::_Vector_impl_data", %"struct.std::_Vector_base<int, std::allocator<int> >::_Vector_impl_data"* %1, i32 0, i32 1, !dbg !4636
  %2 = load i32*, i32** %_M_finish, align 8, !dbg !4636
  %3 = bitcast %"class.std::vector"* %this1 to %"struct.std::_Vector_base"*, !dbg !4637
  %_M_impl2 = getelementptr inbounds %"struct.std::_Vector_base", %"struct.std::_Vector_base"* %3, i32 0, i32 0, !dbg !4637
  %4 = bitcast %"struct.std::_Vector_base<int, std::allocator<int> >::_Vector_impl"* %_M_impl2 to %"struct.std::_Vector_base<int, std::allocator<int> >::_Vector_impl_data"*, !dbg !4638
  %_M_end_of_storage = getelementptr inbounds %"struct.std::_Vector_base<int, std::allocator<int> >::_Vector_impl_data", %"struct.std::_Vector_base<int, std::allocator<int> >::_Vector_impl_data"* %4, i32 0, i32 2, !dbg !4639
  %5 = load i32*, i32** %_M_end_of_storage, align 8, !dbg !4639
  %cmp = icmp ne i32* %2, %5, !dbg !4640
  br i1 %cmp, label %if.then, label %if.else, !dbg !4641

if.then:                                          ; preds = %entry
  %6 = bitcast %"class.std::vector"* %this1 to %"struct.std::_Vector_base"*, !dbg !4642
  %_M_impl3 = getelementptr inbounds %"struct.std::_Vector_base", %"struct.std::_Vector_base"* %6, i32 0, i32 0, !dbg !4642
  %7 = bitcast %"struct.std::_Vector_base<int, std::allocator<int> >::_Vector_impl"* %_M_impl3 to %"class.std::allocator"*, !dbg !4644
  %8 = bitcast %"class.std::vector"* %this1 to %"struct.std::_Vector_base"*, !dbg !4645
  %_M_impl4 = getelementptr inbounds %"struct.std::_Vector_base", %"struct.std::_Vector_base"* %8, i32 0, i32 0, !dbg !4645
  %9 = bitcast %"struct.std::_Vector_base<int, std::allocator<int> >::_Vector_impl"* %_M_impl4 to %"struct.std::_Vector_base<int, std::allocator<int> >::_Vector_impl_data"*, !dbg !4646
  %_M_finish5 = getelementptr inbounds %"struct.std::_Vector_base<int, std::allocator<int> >::_Vector_impl_data", %"struct.std::_Vector_base<int, std::allocator<int> >::_Vector_impl_data"* %9, i32 0, i32 1, !dbg !4647
  %10 = load i32*, i32** %_M_finish5, align 8, !dbg !4647
  %11 = load i32*, i32** %__x.addr, align 8, !dbg !4648
  call void @_ZNSt16allocator_traitsISaIiEE9constructIiJRKiEEEvRS0_PT_DpOT0_(%"class.std::allocator"* dereferenceable(1) %7, i32* %10, i32* dereferenceable(4) %11) #9, !dbg !4649
  %12 = bitcast %"class.std::vector"* %this1 to %"struct.std::_Vector_base"*, !dbg !4650
  %_M_impl6 = getelementptr inbounds %"struct.std::_Vector_base", %"struct.std::_Vector_base"* %12, i32 0, i32 0, !dbg !4650
  %13 = bitcast %"struct.std::_Vector_base<int, std::allocator<int> >::_Vector_impl"* %_M_impl6 to %"struct.std::_Vector_base<int, std::allocator<int> >::_Vector_impl_data"*, !dbg !4651
  %_M_finish7 = getelementptr inbounds %"struct.std::_Vector_base<int, std::allocator<int> >::_Vector_impl_data", %"struct.std::_Vector_base<int, std::allocator<int> >::_Vector_impl_data"* %13, i32 0, i32 1, !dbg !4652
  %14 = load i32*, i32** %_M_finish7, align 8, !dbg !4653
  %incdec.ptr = getelementptr inbounds i32, i32* %14, i32 1, !dbg !4653
  store i32* %incdec.ptr, i32** %_M_finish7, align 8, !dbg !4653
  br label %if.end, !dbg !4654

if.else:                                          ; preds = %entry
  %call = call i32* @_ZNSt6vectorIiSaIiEE3endEv(%"class.std::vector"* %this1) #9, !dbg !4655
  %coerce.dive = getelementptr inbounds %"class.__gnu_cxx::__normal_iterator", %"class.__gnu_cxx::__normal_iterator"* %agg.tmp, i32 0, i32 0, !dbg !4655
  store i32* %call, i32** %coerce.dive, align 8, !dbg !4655
  %15 = load i32*, i32** %__x.addr, align 8, !dbg !4656
  %coerce.dive8 = getelementptr inbounds %"class.__gnu_cxx::__normal_iterator", %"class.__gnu_cxx::__normal_iterator"* %agg.tmp, i32 0, i32 0, !dbg !4657
  %16 = load i32*, i32** %coerce.dive8, align 8, !dbg !4657
  call void @_ZNSt6vectorIiSaIiEE17_M_realloc_insertIJRKiEEEvN9__gnu_cxx17__normal_iteratorIPiS1_EEDpOT_(%"class.std::vector"* %this1, i32* %16, i32* dereferenceable(4) %15), !dbg !4657
  br label %if.end

if.end:                                           ; preds = %if.else, %if.then
  ret void, !dbg !4658
}

; Function Attrs: noinline uwtable
define linkonce_odr dso_local void @_ZNSt6vectorIiSaIiEE9push_backEOi(%"class.std::vector"* %this, i32* dereferenceable(4) %__x) #0 comdat align 2 !dbg !4659 {
entry:
  %this.addr = alloca %"class.std::vector"*, align 8
  %__x.addr = alloca i32*, align 8
  store %"class.std::vector"* %this, %"class.std::vector"** %this.addr, align 8
  call void @llvm.dbg.declare(metadata %"class.std::vector"** %this.addr, metadata !4660, metadata !DIExpression()), !dbg !4661
  store i32* %__x, i32** %__x.addr, align 8
  call void @llvm.dbg.declare(metadata i32** %__x.addr, metadata !4662, metadata !DIExpression()), !dbg !4663
  %this1 = load %"class.std::vector"*, %"class.std::vector"** %this.addr, align 8
  %0 = load i32*, i32** %__x.addr, align 8, !dbg !4664
  %call = call dereferenceable(4) i32* @_ZSt4moveIRiEONSt16remove_referenceIT_E4typeEOS2_(i32* dereferenceable(4) %0) #9, !dbg !4665
  call void @_ZNSt6vectorIiSaIiEE12emplace_backIJiEEEvDpOT_(%"class.std::vector"* %this1, i32* dereferenceable(4) %call), !dbg !4666
  ret void, !dbg !4667
}

; Function Attrs: noinline nounwind uwtable
define linkonce_odr dso_local void @_ZNSt6vectorIiSaIiEED2Ev(%"class.std::vector"* %this) unnamed_addr #3 comdat align 2 personality i8* bitcast (i32 (...)* @__gxx_personality_v0 to i8*) !dbg !4668 {
entry:
  %this.addr = alloca %"class.std::vector"*, align 8
  %exn.slot = alloca i8*
  %ehselector.slot = alloca i32
  store %"class.std::vector"* %this, %"class.std::vector"** %this.addr, align 8
  call void @llvm.dbg.declare(metadata %"class.std::vector"** %this.addr, metadata !4669, metadata !DIExpression()), !dbg !4670
  %this1 = load %"class.std::vector"*, %"class.std::vector"** %this.addr, align 8
  %0 = bitcast %"class.std::vector"* %this1 to %"struct.std::_Vector_base"*, !dbg !4671
  %_M_impl = getelementptr inbounds %"struct.std::_Vector_base", %"struct.std::_Vector_base"* %0, i32 0, i32 0, !dbg !4671
  %1 = bitcast %"struct.std::_Vector_base<int, std::allocator<int> >::_Vector_impl"* %_M_impl to %"struct.std::_Vector_base<int, std::allocator<int> >::_Vector_impl_data"*, !dbg !4673
  %_M_start = getelementptr inbounds %"struct.std::_Vector_base<int, std::allocator<int> >::_Vector_impl_data", %"struct.std::_Vector_base<int, std::allocator<int> >::_Vector_impl_data"* %1, i32 0, i32 0, !dbg !4674
  %2 = load i32*, i32** %_M_start, align 8, !dbg !4674
  %3 = bitcast %"class.std::vector"* %this1 to %"struct.std::_Vector_base"*, !dbg !4675
  %_M_impl2 = getelementptr inbounds %"struct.std::_Vector_base", %"struct.std::_Vector_base"* %3, i32 0, i32 0, !dbg !4675
  %4 = bitcast %"struct.std::_Vector_base<int, std::allocator<int> >::_Vector_impl"* %_M_impl2 to %"struct.std::_Vector_base<int, std::allocator<int> >::_Vector_impl_data"*, !dbg !4676
  %_M_finish = getelementptr inbounds %"struct.std::_Vector_base<int, std::allocator<int> >::_Vector_impl_data", %"struct.std::_Vector_base<int, std::allocator<int> >::_Vector_impl_data"* %4, i32 0, i32 1, !dbg !4677
  %5 = load i32*, i32** %_M_finish, align 8, !dbg !4677
  %6 = bitcast %"class.std::vector"* %this1 to %"struct.std::_Vector_base"*, !dbg !4678
  %call = call dereferenceable(1) %"class.std::allocator"* @_ZNSt12_Vector_baseIiSaIiEE19_M_get_Tp_allocatorEv(%"struct.std::_Vector_base"* %6) #9, !dbg !4678
  invoke void @_ZSt8_DestroyIPiiEvT_S1_RSaIT0_E(i32* %2, i32* %5, %"class.std::allocator"* dereferenceable(1) %call)
          to label %invoke.cont unwind label %lpad, !dbg !4679

invoke.cont:                                      ; preds = %entry
  %7 = bitcast %"class.std::vector"* %this1 to %"struct.std::_Vector_base"*, !dbg !4680
  call void @_ZNSt12_Vector_baseIiSaIiEED2Ev(%"struct.std::_Vector_base"* %7) #9, !dbg !4680
  ret void, !dbg !4681

lpad:                                             ; preds = %entry
  %8 = landingpad { i8*, i32 }
          catch i8* null, !dbg !4680
  %9 = extractvalue { i8*, i32 } %8, 0, !dbg !4680
  store i8* %9, i8** %exn.slot, align 8, !dbg !4680
  %10 = extractvalue { i8*, i32 } %8, 1, !dbg !4680
  store i32 %10, i32* %ehselector.slot, align 4, !dbg !4680
  %11 = bitcast %"class.std::vector"* %this1 to %"struct.std::_Vector_base"*, !dbg !4680
  call void @_ZNSt12_Vector_baseIiSaIiEED2Ev(%"struct.std::_Vector_base"* %11) #9, !dbg !4680
  br label %terminate.handler, !dbg !4680

terminate.handler:                                ; preds = %lpad
  %exn = load i8*, i8** %exn.slot, align 8, !dbg !4680
  call void @__clang_call_terminate(i8* %exn) #11, !dbg !4680
  unreachable, !dbg !4680
}

; Function Attrs: noinline uwtable
define dso_local zeroext i1 @_ZN9FastState8try_moveEiib(%class.FastState* %this, i32 %color, i32 %vertex, i1 zeroext %allow_sa) #0 align 2 !dbg !4682 {
entry:
  %retval = alloca i1, align 1
  %this.addr = alloca %class.FastState*, align 8
  %color.addr = alloca i32, align 4
  %vertex.addr = alloca i32, align 4
  %allow_sa.addr = alloca i8, align 1
  store %class.FastState* %this, %class.FastState** %this.addr, align 8
  call void @llvm.dbg.declare(metadata %class.FastState** %this.addr, metadata !4683, metadata !DIExpression()), !dbg !4684
  store i32 %color, i32* %color.addr, align 4
  call void @llvm.dbg.declare(metadata i32* %color.addr, metadata !4685, metadata !DIExpression()), !dbg !4686
  store i32 %vertex, i32* %vertex.addr, align 4
  call void @llvm.dbg.declare(metadata i32* %vertex.addr, metadata !4687, metadata !DIExpression()), !dbg !4688
  %frombool = zext i1 %allow_sa to i8
  store i8 %frombool, i8* %allow_sa.addr, align 1
  call void @llvm.dbg.declare(metadata i8* %allow_sa.addr, metadata !4689, metadata !DIExpression()), !dbg !4690
  %this1 = load %class.FastState*, %class.FastState** %this.addr, align 8
  %0 = load i32, i32* %vertex.addr, align 4, !dbg !4691
  %komove = getelementptr inbounds %class.FastState, %class.FastState* %this1, i32 0, i32 4, !dbg !4693
  %1 = load i32, i32* %komove, align 4, !dbg !4693
  %cmp = icmp ne i32 %0, %1, !dbg !4694
  br i1 %cmp, label %land.lhs.true, label %if.end10, !dbg !4695

land.lhs.true:                                    ; preds = %entry
  %board = getelementptr inbounds %class.FastState, %class.FastState* %this1, i32 0, i32 0, !dbg !4696
  %2 = bitcast %class.FullBoard* %board to %class.FastBoard*, !dbg !4696
  %3 = load i32, i32* %vertex.addr, align 4, !dbg !4697
  %call = call zeroext i1 @_ZN9FastBoard11no_eye_fillEi(%class.FastBoard* %2, i32 %3), !dbg !4698
  br i1 %call, label %if.then, label %if.end10, !dbg !4699

if.then:                                          ; preds = %land.lhs.true
  %board2 = getelementptr inbounds %class.FastState, %class.FastState* %this1, i32 0, i32 0, !dbg !4700
  %4 = bitcast %class.FullBoard* %board2 to %class.FastBoard*, !dbg !4700
  %5 = load i32, i32* %color.addr, align 4, !dbg !4703
  %6 = load i32, i32* %vertex.addr, align 4, !dbg !4704
  %call3 = call i32 @_ZN9FastBoard15fast_ss_suicideEii(%class.FastBoard* %4, i32 %5, i32 %6), !dbg !4705
  %tobool = icmp ne i32 %call3, 0, !dbg !4700
  br i1 %tobool, label %if.end9, label %if.then4, !dbg !4706

if.then4:                                         ; preds = %if.then
  %7 = load i8, i8* %allow_sa.addr, align 1, !dbg !4707
  %tobool5 = trunc i8 %7 to i1, !dbg !4707
  br i1 %tobool5, label %if.then8, label %lor.lhs.false, !dbg !4710

lor.lhs.false:                                    ; preds = %if.then4
  %board6 = getelementptr inbounds %class.FastState, %class.FastState* %this1, i32 0, i32 0, !dbg !4711
  %8 = bitcast %class.FullBoard* %board6 to %class.FastBoard*, !dbg !4711
  %9 = load i32, i32* %color.addr, align 4, !dbg !4712
  %10 = load i32, i32* %vertex.addr, align 4, !dbg !4713
  %call7 = call zeroext i1 @_ZN9FastBoard10self_atariEii(%class.FastBoard* %8, i32 %9, i32 %10), !dbg !4714
  br i1 %call7, label %if.end, label %if.then8, !dbg !4715

if.then8:                                         ; preds = %lor.lhs.false, %if.then4
  store i1 true, i1* %retval, align 1, !dbg !4716
  br label %return, !dbg !4716

if.end:                                           ; preds = %lor.lhs.false
  br label %if.end9, !dbg !4718

if.end9:                                          ; preds = %if.end, %if.then
  br label %if.end10, !dbg !4719

if.end10:                                         ; preds = %if.end9, %land.lhs.true, %entry
  store i1 false, i1* %retval, align 1, !dbg !4720
  br label %return, !dbg !4720

return:                                           ; preds = %if.end10, %if.then8
  %11 = load i1, i1* %retval, align 1, !dbg !4721
  ret i1 %11, !dbg !4721
}

declare dso_local zeroext i1 @_ZN9FastBoard11no_eye_fillEi(%class.FastBoard*, i32) #2

declare dso_local i32 @_ZN9FastBoard15fast_ss_suicideEii(%class.FastBoard*, i32, i32) #2

declare dso_local zeroext i1 @_ZN9FastBoard10self_atariEii(%class.FastBoard*, i32, i32) #2

; Function Attrs: noinline uwtable
define dso_local i32 @_ZN9FastState15walk_empty_listEiib(%class.FastState* %this, i32 %color, i32 %vidx, i1 zeroext %allow_sa) #0 align 2 !dbg !4722 {
entry:
  %retval = alloca i32, align 4
  %this.addr = alloca %class.FastState*, align 8
  %color.addr = alloca i32, align 4
  %vidx.addr = alloca i32, align 4
  %allow_sa.addr = alloca i8, align 1
  %dir = alloca i32, align 4
  %i = alloca i32, align 4
  %e = alloca i32, align 4
  %i9 = alloca i32, align 4
  %e13 = alloca i32, align 4
  %i26 = alloca i32, align 4
  %e30 = alloca i32, align 4
  %i42 = alloca i32, align 4
  %e48 = alloca i32, align 4
  store %class.FastState* %this, %class.FastState** %this.addr, align 8
  call void @llvm.dbg.declare(metadata %class.FastState** %this.addr, metadata !4723, metadata !DIExpression()), !dbg !4724
  store i32 %color, i32* %color.addr, align 4
  call void @llvm.dbg.declare(metadata i32* %color.addr, metadata !4725, metadata !DIExpression()), !dbg !4726
  store i32 %vidx, i32* %vidx.addr, align 4
  call void @llvm.dbg.declare(metadata i32* %vidx.addr, metadata !4727, metadata !DIExpression()), !dbg !4728
  %frombool = zext i1 %allow_sa to i8
  store i8 %frombool, i8* %allow_sa.addr, align 1
  call void @llvm.dbg.declare(metadata i8* %allow_sa.addr, metadata !4729, metadata !DIExpression()), !dbg !4730
  %this1 = load %class.FastState*, %class.FastState** %this.addr, align 8
  call void @llvm.dbg.declare(metadata i32* %dir, metadata !4731, metadata !DIExpression()), !dbg !4732
  %call = call %class.Random* @_ZN6Random7get_RngEv(), !dbg !4733
  %call2 = call i32 @_ZN6Random7randintEt(%class.Random* %call, i16 zeroext 2), !dbg !4734
  store i32 %call2, i32* %dir, align 4, !dbg !4732
  %0 = load i32, i32* %dir, align 4, !dbg !4735
  %cmp = icmp eq i32 %0, 0, !dbg !4737
  br i1 %cmp, label %if.then, label %if.else, !dbg !4738

if.then:                                          ; preds = %entry
  call void @llvm.dbg.declare(metadata i32* %i, metadata !4739, metadata !DIExpression()), !dbg !4742
  %1 = load i32, i32* %vidx.addr, align 4, !dbg !4743
  store i32 %1, i32* %i, align 4, !dbg !4742
  br label %for.cond, !dbg !4744

for.cond:                                         ; preds = %for.inc, %if.then
  %2 = load i32, i32* %i, align 4, !dbg !4745
  %board = getelementptr inbounds %class.FastState, %class.FastState* %this1, i32 0, i32 0, !dbg !4747
  %3 = bitcast %class.FullBoard* %board to %class.FastBoard*, !dbg !4747
  %m_empty_cnt = getelementptr inbounds %class.FastBoard, %class.FastBoard* %3, i32 0, i32 2, !dbg !4748
  %4 = load i32, i32* %m_empty_cnt, align 4, !dbg !4748
  %cmp3 = icmp slt i32 %2, %4, !dbg !4749
  br i1 %cmp3, label %for.body, label %for.end, !dbg !4750

for.body:                                         ; preds = %for.cond
  call void @llvm.dbg.declare(metadata i32* %e, metadata !4751, metadata !DIExpression()), !dbg !4753
  %board4 = getelementptr inbounds %class.FastState, %class.FastState* %this1, i32 0, i32 0, !dbg !4754
  %5 = bitcast %class.FullBoard* %board4 to %class.FastBoard*, !dbg !4754
  %m_empty = getelementptr inbounds %class.FastBoard, %class.FastBoard* %5, i32 0, i32 0, !dbg !4755
  %6 = load i32, i32* %i, align 4, !dbg !4756
  %conv = sext i32 %6 to i64, !dbg !4756
  %call5 = call dereferenceable(2) i16* @_ZN5boost5arrayItLm441EEixEm(%"class.boost::array"* %m_empty, i64 %conv), !dbg !4754
  %7 = load i16, i16* %call5, align 2, !dbg !4754
  %conv6 = zext i16 %7 to i32, !dbg !4754
  store i32 %conv6, i32* %e, align 4, !dbg !4753
  %8 = load i32, i32* %color.addr, align 4, !dbg !4757
  %9 = load i32, i32* %e, align 4, !dbg !4759
  %10 = load i8, i8* %allow_sa.addr, align 1, !dbg !4760
  %tobool = trunc i8 %10 to i1, !dbg !4760
  %call7 = call zeroext i1 @_ZN9FastState8try_moveEiib(%class.FastState* %this1, i32 %8, i32 %9, i1 zeroext %tobool), !dbg !4761
  br i1 %call7, label %if.then8, label %if.end, !dbg !4762

if.then8:                                         ; preds = %for.body
  %11 = load i32, i32* %e, align 4, !dbg !4763
  store i32 %11, i32* %retval, align 4, !dbg !4765
  br label %return, !dbg !4765

if.end:                                           ; preds = %for.body
  br label %for.inc, !dbg !4766

for.inc:                                          ; preds = %if.end
  %12 = load i32, i32* %i, align 4, !dbg !4767
  %inc = add nsw i32 %12, 1, !dbg !4767
  store i32 %inc, i32* %i, align 4, !dbg !4767
  br label %for.cond, !dbg !4768, !llvm.loop !4769

for.end:                                          ; preds = %for.cond
  call void @llvm.dbg.declare(metadata i32* %i9, metadata !4771, metadata !DIExpression()), !dbg !4773
  store i32 0, i32* %i9, align 4, !dbg !4773
  br label %for.cond10, !dbg !4774

for.cond10:                                       ; preds = %for.inc23, %for.end
  %13 = load i32, i32* %i9, align 4, !dbg !4775
  %14 = load i32, i32* %vidx.addr, align 4, !dbg !4777
  %cmp11 = icmp slt i32 %13, %14, !dbg !4778
  br i1 %cmp11, label %for.body12, label %for.end25, !dbg !4779

for.body12:                                       ; preds = %for.cond10
  call void @llvm.dbg.declare(metadata i32* %e13, metadata !4780, metadata !DIExpression()), !dbg !4782
  %board14 = getelementptr inbounds %class.FastState, %class.FastState* %this1, i32 0, i32 0, !dbg !4783
  %15 = bitcast %class.FullBoard* %board14 to %class.FastBoard*, !dbg !4783
  %m_empty15 = getelementptr inbounds %class.FastBoard, %class.FastBoard* %15, i32 0, i32 0, !dbg !4784
  %16 = load i32, i32* %i9, align 4, !dbg !4785
  %conv16 = sext i32 %16 to i64, !dbg !4785
  %call17 = call dereferenceable(2) i16* @_ZN5boost5arrayItLm441EEixEm(%"class.boost::array"* %m_empty15, i64 %conv16), !dbg !4783
  %17 = load i16, i16* %call17, align 2, !dbg !4783
  %conv18 = zext i16 %17 to i32, !dbg !4783
  store i32 %conv18, i32* %e13, align 4, !dbg !4782
  %18 = load i32, i32* %color.addr, align 4, !dbg !4786
  %19 = load i32, i32* %e13, align 4, !dbg !4788
  %20 = load i8, i8* %allow_sa.addr, align 1, !dbg !4789
  %tobool19 = trunc i8 %20 to i1, !dbg !4789
  %call20 = call zeroext i1 @_ZN9FastState8try_moveEiib(%class.FastState* %this1, i32 %18, i32 %19, i1 zeroext %tobool19), !dbg !4790
  br i1 %call20, label %if.then21, label %if.end22, !dbg !4791

if.then21:                                        ; preds = %for.body12
  %21 = load i32, i32* %e13, align 4, !dbg !4792
  store i32 %21, i32* %retval, align 4, !dbg !4794
  br label %return, !dbg !4794

if.end22:                                         ; preds = %for.body12
  br label %for.inc23, !dbg !4795

for.inc23:                                        ; preds = %if.end22
  %22 = load i32, i32* %i9, align 4, !dbg !4796
  %inc24 = add nsw i32 %22, 1, !dbg !4796
  store i32 %inc24, i32* %i9, align 4, !dbg !4796
  br label %for.cond10, !dbg !4797, !llvm.loop !4798

for.end25:                                        ; preds = %for.cond10
  br label %if.end61, !dbg !4800

if.else:                                          ; preds = %entry
  call void @llvm.dbg.declare(metadata i32* %i26, metadata !4801, metadata !DIExpression()), !dbg !4804
  %23 = load i32, i32* %vidx.addr, align 4, !dbg !4805
  store i32 %23, i32* %i26, align 4, !dbg !4804
  br label %for.cond27, !dbg !4806

for.cond27:                                       ; preds = %for.inc40, %if.else
  %24 = load i32, i32* %i26, align 4, !dbg !4807
  %cmp28 = icmp sge i32 %24, 0, !dbg !4809
  br i1 %cmp28, label %for.body29, label %for.end41, !dbg !4810

for.body29:                                       ; preds = %for.cond27
  call void @llvm.dbg.declare(metadata i32* %e30, metadata !4811, metadata !DIExpression()), !dbg !4813
  %board31 = getelementptr inbounds %class.FastState, %class.FastState* %this1, i32 0, i32 0, !dbg !4814
  %25 = bitcast %class.FullBoard* %board31 to %class.FastBoard*, !dbg !4814
  %m_empty32 = getelementptr inbounds %class.FastBoard, %class.FastBoard* %25, i32 0, i32 0, !dbg !4815
  %26 = load i32, i32* %i26, align 4, !dbg !4816
  %conv33 = sext i32 %26 to i64, !dbg !4816
  %call34 = call dereferenceable(2) i16* @_ZN5boost5arrayItLm441EEixEm(%"class.boost::array"* %m_empty32, i64 %conv33), !dbg !4814
  %27 = load i16, i16* %call34, align 2, !dbg !4814
  %conv35 = zext i16 %27 to i32, !dbg !4814
  store i32 %conv35, i32* %e30, align 4, !dbg !4813
  %28 = load i32, i32* %color.addr, align 4, !dbg !4817
  %29 = load i32, i32* %e30, align 4, !dbg !4819
  %30 = load i8, i8* %allow_sa.addr, align 1, !dbg !4820
  %tobool36 = trunc i8 %30 to i1, !dbg !4820
  %call37 = call zeroext i1 @_ZN9FastState8try_moveEiib(%class.FastState* %this1, i32 %28, i32 %29, i1 zeroext %tobool36), !dbg !4821
  br i1 %call37, label %if.then38, label %if.end39, !dbg !4822

if.then38:                                        ; preds = %for.body29
  %31 = load i32, i32* %e30, align 4, !dbg !4823
  store i32 %31, i32* %retval, align 4, !dbg !4825
  br label %return, !dbg !4825

if.end39:                                         ; preds = %for.body29
  br label %for.inc40, !dbg !4826

for.inc40:                                        ; preds = %if.end39
  %32 = load i32, i32* %i26, align 4, !dbg !4827
  %dec = add nsw i32 %32, -1, !dbg !4827
  store i32 %dec, i32* %i26, align 4, !dbg !4827
  br label %for.cond27, !dbg !4828, !llvm.loop !4829

for.end41:                                        ; preds = %for.cond27
  call void @llvm.dbg.declare(metadata i32* %i42, metadata !4831, metadata !DIExpression()), !dbg !4833
  %board43 = getelementptr inbounds %class.FastState, %class.FastState* %this1, i32 0, i32 0, !dbg !4834
  %33 = bitcast %class.FullBoard* %board43 to %class.FastBoard*, !dbg !4834
  %m_empty_cnt44 = getelementptr inbounds %class.FastBoard, %class.FastBoard* %33, i32 0, i32 2, !dbg !4835
  %34 = load i32, i32* %m_empty_cnt44, align 4, !dbg !4835
  %sub = sub nsw i32 %34, 1, !dbg !4836
  store i32 %sub, i32* %i42, align 4, !dbg !4833
  br label %for.cond45, !dbg !4837

for.cond45:                                       ; preds = %for.inc58, %for.end41
  %35 = load i32, i32* %i42, align 4, !dbg !4838
  %36 = load i32, i32* %vidx.addr, align 4, !dbg !4840
  %cmp46 = icmp sgt i32 %35, %36, !dbg !4841
  br i1 %cmp46, label %for.body47, label %for.end60, !dbg !4842

for.body47:                                       ; preds = %for.cond45
  call void @llvm.dbg.declare(metadata i32* %e48, metadata !4843, metadata !DIExpression()), !dbg !4845
  %board49 = getelementptr inbounds %class.FastState, %class.FastState* %this1, i32 0, i32 0, !dbg !4846
  %37 = bitcast %class.FullBoard* %board49 to %class.FastBoard*, !dbg !4846
  %m_empty50 = getelementptr inbounds %class.FastBoard, %class.FastBoard* %37, i32 0, i32 0, !dbg !4847
  %38 = load i32, i32* %i42, align 4, !dbg !4848
  %conv51 = sext i32 %38 to i64, !dbg !4848
  %call52 = call dereferenceable(2) i16* @_ZN5boost5arrayItLm441EEixEm(%"class.boost::array"* %m_empty50, i64 %conv51), !dbg !4846
  %39 = load i16, i16* %call52, align 2, !dbg !4846
  %conv53 = zext i16 %39 to i32, !dbg !4846
  store i32 %conv53, i32* %e48, align 4, !dbg !4845
  %40 = load i32, i32* %color.addr, align 4, !dbg !4849
  %41 = load i32, i32* %e48, align 4, !dbg !4851
  %42 = load i8, i8* %allow_sa.addr, align 1, !dbg !4852
  %tobool54 = trunc i8 %42 to i1, !dbg !4852
  %call55 = call zeroext i1 @_ZN9FastState8try_moveEiib(%class.FastState* %this1, i32 %40, i32 %41, i1 zeroext %tobool54), !dbg !4853
  br i1 %call55, label %if.then56, label %if.end57, !dbg !4854

if.then56:                                        ; preds = %for.body47
  %43 = load i32, i32* %e48, align 4, !dbg !4855
  store i32 %43, i32* %retval, align 4, !dbg !4857
  br label %return, !dbg !4857

if.end57:                                         ; preds = %for.body47
  br label %for.inc58, !dbg !4858

for.inc58:                                        ; preds = %if.end57
  %44 = load i32, i32* %i42, align 4, !dbg !4859
  %dec59 = add nsw i32 %44, -1, !dbg !4859
  store i32 %dec59, i32* %i42, align 4, !dbg !4859
  br label %for.cond45, !dbg !4860, !llvm.loop !4861

for.end60:                                        ; preds = %for.cond45
  br label %if.end61

if.end61:                                         ; preds = %for.end60, %for.end25
  store i32 -1, i32* %retval, align 4, !dbg !4863
  br label %return, !dbg !4863

return:                                           ; preds = %if.end61, %if.then56, %if.then38, %if.then21, %if.then8
  %45 = load i32, i32* %retval, align 4, !dbg !4864
  ret i32 %45, !dbg !4864
}

declare dso_local %class.Random* @_ZN6Random7get_RngEv() #2

declare dso_local i32 @_ZN6Random7randintEt(%class.Random*, i16 zeroext) #2

declare dso_local i32 @_ZN9FastBoard10get_squareEi(%class.FastBoard*, i32) #2

declare dso_local void @_ZN9FastBoard19add_global_capturesEiRN5boost5arrayIiLm24EEERi(%class.FastBoard*, i32, %"class.boost::array.5"* dereferenceable(96), i32* dereferenceable(4)) #2

declare dso_local void @_ZN9FastBoard24save_critical_neighboursEiiRN5boost5arrayIiLm24EEERi(%class.FastBoard*, i32, i32, %"class.boost::array.5"* dereferenceable(96), i32* dereferenceable(4)) #2

declare dso_local void @_ZN9FastBoard17add_pattern_movesEiiRN5boost5arrayIiLm24EEERi(%class.FastBoard*, i32, i32, %"class.boost::array.5"* dereferenceable(96), i32* dereferenceable(4)) #2

; Function Attrs: noinline nounwind uwtable
define linkonce_odr dso_local dereferenceable(4) i32* @_ZN5boost5arrayIiLm24EEixEm(%"class.boost::array.5"* %this, i64 %i) #3 comdat align 2 !dbg !4865 {
entry:
  %this.addr = alloca %"class.boost::array.5"*, align 8
  %i.addr = alloca i64, align 8
  store %"class.boost::array.5"* %this, %"class.boost::array.5"** %this.addr, align 8
  call void @llvm.dbg.declare(metadata %"class.boost::array.5"** %this.addr, metadata !4866, metadata !DIExpression()), !dbg !4868
  store i64 %i, i64* %i.addr, align 8
  call void @llvm.dbg.declare(metadata i64* %i.addr, metadata !4869, metadata !DIExpression()), !dbg !4870
  %this1 = load %"class.boost::array.5"*, %"class.boost::array.5"** %this.addr, align 8
  %elems = getelementptr inbounds %"class.boost::array.5", %"class.boost::array.5"* %this1, i32 0, i32 0, !dbg !4871
  %0 = load i64, i64* %i.addr, align 8, !dbg !4872
  %arrayidx = getelementptr inbounds [24 x i32], [24 x i32]* %elems, i64 0, i64 %0, !dbg !4871
  ret i32* %arrayidx, !dbg !4873
}

declare dso_local %class.Matcher* @_ZN7Matcher11get_MatcherEv() #2

declare dso_local i32 @_ZN9FastBoard24get_pattern_fast_augmentEi(%class.FastBoard*, i32) #2

declare dso_local i32 @_ZN7Matcher7matchesEii(%class.Matcher*, i32, i32) #2

declare dso_local i64 @_ZN9FastBoard15nbr_criticalityEii(%class.FastBoard*, i32, i32) #2

; Function Attrs: noinline nounwind uwtable
define linkonce_odr dso_local dereferenceable(4) i32* @_ZNK5boost5arrayIiLm9EEixEm(%"class.boost::array.13"* %this, i64 %i) #3 comdat align 2 !dbg !4874 {
entry:
  %this.addr = alloca %"class.boost::array.13"*, align 8
  %i.addr = alloca i64, align 8
  store %"class.boost::array.13"* %this, %"class.boost::array.13"** %this.addr, align 8
  call void @llvm.dbg.declare(metadata %"class.boost::array.13"** %this.addr, metadata !4875, metadata !DIExpression()), !dbg !4877
  store i64 %i, i64* %i.addr, align 8
  call void @llvm.dbg.declare(metadata i64* %i.addr, metadata !4878, metadata !DIExpression()), !dbg !4879
  %this1 = load %"class.boost::array.13"*, %"class.boost::array.13"** %this.addr, align 8
  %elems = getelementptr inbounds %"class.boost::array.13", %"class.boost::array.13"* %this1, i32 0, i32 0, !dbg !4880
  %0 = load i64, i64* %i.addr, align 8, !dbg !4881
  %arrayidx = getelementptr inbounds [9 x i32], [9 x i32]* %elems, i64 0, i64 %0, !dbg !4880
  ret i32* %arrayidx, !dbg !4882
}

declare dso_local i32 @_ZN9FastBoard13get_extra_dirEi(%class.FastBoard*, i32) #2

; Function Attrs: noinline uwtable
define linkonce_odr dso_local i64 @_ZSt9make_pairIRiS0_ESt4pairINSt25__strip_reference_wrapperINSt5decayIT_E4typeEE6__typeENS2_INS3_IT0_E4typeEE6__typeEEOS4_OS9_(i32* dereferenceable(4) %__x, i32* dereferenceable(4) %__y) #0 comdat !dbg !4883 {
entry:
  %retval = alloca %"struct.std::pair", align 4
  %__x.addr = alloca i32*, align 8
  %__y.addr = alloca i32*, align 8
  store i32* %__x, i32** %__x.addr, align 8
  call void @llvm.dbg.declare(metadata i32** %__x.addr, metadata !4889, metadata !DIExpression()), !dbg !4890
  store i32* %__y, i32** %__y.addr, align 8
  call void @llvm.dbg.declare(metadata i32** %__y.addr, metadata !4891, metadata !DIExpression()), !dbg !4892
  %0 = load i32*, i32** %__x.addr, align 8, !dbg !4893
  %call = call dereferenceable(4) i32* @_ZSt7forwardIRiEOT_RNSt16remove_referenceIS1_E4typeE(i32* dereferenceable(4) %0) #9, !dbg !4894
  %1 = load i32*, i32** %__y.addr, align 8, !dbg !4895
  %call1 = call dereferenceable(4) i32* @_ZSt7forwardIRiEOT_RNSt16remove_referenceIS1_E4typeE(i32* dereferenceable(4) %1) #9, !dbg !4896
  call void @_ZNSt4pairIiiEC2IRiS2_Lb1EEEOT_OT0_(%"struct.std::pair"* %retval, i32* dereferenceable(4) %call, i32* dereferenceable(4) %call1), !dbg !4897
  %2 = bitcast %"struct.std::pair"* %retval to i64*, !dbg !4898
  %3 = load i64, i64* %2, align 4, !dbg !4898
  ret i64 %3, !dbg !4898
}

; Function Attrs: noinline nounwind uwtable
define linkonce_odr dso_local dereferenceable(8) %"struct.std::pair"* @_ZN5boost5arrayISt4pairIiiELm24EEixEm(%"class.boost::array.6"* %this, i64 %i) #3 comdat align 2 !dbg !4899 {
entry:
  %this.addr = alloca %"class.boost::array.6"*, align 8
  %i.addr = alloca i64, align 8
  store %"class.boost::array.6"* %this, %"class.boost::array.6"** %this.addr, align 8
  call void @llvm.dbg.declare(metadata %"class.boost::array.6"** %this.addr, metadata !4900, metadata !DIExpression()), !dbg !4902
  store i64 %i, i64* %i.addr, align 8
  call void @llvm.dbg.declare(metadata i64* %i.addr, metadata !4903, metadata !DIExpression()), !dbg !4904
  %this1 = load %"class.boost::array.6"*, %"class.boost::array.6"** %this.addr, align 8
  %elems = getelementptr inbounds %"class.boost::array.6", %"class.boost::array.6"* %this1, i32 0, i32 0, !dbg !4905
  %0 = load i64, i64* %i.addr, align 8, !dbg !4906
  %arrayidx = getelementptr inbounds [24 x %"struct.std::pair"], [24 x %"struct.std::pair"]* %elems, i64 0, i64 %0, !dbg !4905
  ret %"struct.std::pair"* %arrayidx, !dbg !4907
}

; Function Attrs: noinline nounwind uwtable
define linkonce_odr dso_local dereferenceable(8) %"struct.std::pair"* @_ZNSt4pairIiiEaSEOS0_(%"struct.std::pair"* %this, %"struct.std::pair"* dereferenceable(8) %__p) #3 comdat align 2 !dbg !4908 {
entry:
  %this.addr = alloca %"struct.std::pair"*, align 8
  %__p.addr = alloca %"struct.std::pair"*, align 8
  store %"struct.std::pair"* %this, %"struct.std::pair"** %this.addr, align 8
  call void @llvm.dbg.declare(metadata %"struct.std::pair"** %this.addr, metadata !4909, metadata !DIExpression()), !dbg !4910
  store %"struct.std::pair"* %__p, %"struct.std::pair"** %__p.addr, align 8
  call void @llvm.dbg.declare(metadata %"struct.std::pair"** %__p.addr, metadata !4911, metadata !DIExpression()), !dbg !4912
  %this1 = load %"struct.std::pair"*, %"struct.std::pair"** %this.addr, align 8
  %0 = load %"struct.std::pair"*, %"struct.std::pair"** %__p.addr, align 8, !dbg !4913
  %first = getelementptr inbounds %"struct.std::pair", %"struct.std::pair"* %0, i32 0, i32 0, !dbg !4914
  %call = call dereferenceable(4) i32* @_ZSt7forwardIiEOT_RNSt16remove_referenceIS0_E4typeE(i32* dereferenceable(4) %first) #9, !dbg !4915
  %1 = load i32, i32* %call, align 4, !dbg !4915
  %first2 = getelementptr inbounds %"struct.std::pair", %"struct.std::pair"* %this1, i32 0, i32 0, !dbg !4916
  store i32 %1, i32* %first2, align 4, !dbg !4917
  %2 = load %"struct.std::pair"*, %"struct.std::pair"** %__p.addr, align 8, !dbg !4918
  %second = getelementptr inbounds %"struct.std::pair", %"struct.std::pair"* %2, i32 0, i32 1, !dbg !4919
  %call3 = call dereferenceable(4) i32* @_ZSt7forwardIiEOT_RNSt16remove_referenceIS0_E4typeE(i32* dereferenceable(4) %second) #9, !dbg !4920
  %3 = load i32, i32* %call3, align 4, !dbg !4920
  %second4 = getelementptr inbounds %"struct.std::pair", %"struct.std::pair"* %this1, i32 0, i32 1, !dbg !4921
  store i32 %3, i32* %second4, align 4, !dbg !4922
  ret %"struct.std::pair"* %this1, !dbg !4923
}

; Function Attrs: noinline uwtable
define dso_local i32 @_ZN9FastState14play_move_fastEi(%class.FastState* %this, i32 %vertex) #0 align 2 !dbg !4924 {
entry:
  %this.addr = alloca %class.FastState*, align 8
  %vertex.addr = alloca i32, align 4
  store %class.FastState* %this, %class.FastState** %this.addr, align 8
  call void @llvm.dbg.declare(metadata %class.FastState** %this.addr, metadata !4925, metadata !DIExpression()), !dbg !4926
  store i32 %vertex, i32* %vertex.addr, align 4
  call void @llvm.dbg.declare(metadata i32* %vertex.addr, metadata !4927, metadata !DIExpression()), !dbg !4928
  %this1 = load %class.FastState*, %class.FastState** %this.addr, align 8
  %0 = load i32, i32* %vertex.addr, align 4, !dbg !4929
  %cmp = icmp eq i32 %0, -1, !dbg !4931
  br i1 %cmp, label %if.then, label %if.else, !dbg !4932

if.then:                                          ; preds = %entry
  call void @_ZN9FastState16increment_passesEv(%class.FastState* %this1), !dbg !4933
  br label %if.end, !dbg !4935

if.else:                                          ; preds = %entry
  %board = getelementptr inbounds %class.FastState, %class.FastState* %this1, i32 0, i32 0, !dbg !4936
  %1 = bitcast %class.FullBoard* %board to %class.FastBoard*, !dbg !4936
  %board2 = getelementptr inbounds %class.FastState, %class.FastState* %this1, i32 0, i32 0, !dbg !4938
  %2 = bitcast %class.FullBoard* %board2 to %class.FastBoard*, !dbg !4938
  %m_tomove = getelementptr inbounds %class.FastBoard, %class.FastBoard* %2, i32 0, i32 3, !dbg !4939
  %3 = load i32, i32* %m_tomove, align 8, !dbg !4939
  %4 = load i32, i32* %vertex.addr, align 4, !dbg !4940
  %call = call i32 @_ZN9FastBoard17update_board_fastEii(%class.FastBoard* %1, i32 %3, i32 %4), !dbg !4941
  %komove = getelementptr inbounds %class.FastState, %class.FastState* %this1, i32 0, i32 4, !dbg !4942
  store i32 %call, i32* %komove, align 4, !dbg !4943
  call void @_ZN9FastState10set_passesEi(%class.FastState* %this1, i32 0), !dbg !4944
  br label %if.end

if.end:                                           ; preds = %if.else, %if.then
  %lastmove = getelementptr inbounds %class.FastState, %class.FastState* %this1, i32 0, i32 6, !dbg !4945
  %5 = load i32, i32* %lastmove, align 4, !dbg !4945
  %onebutlastmove = getelementptr inbounds %class.FastState, %class.FastState* %this1, i32 0, i32 7, !dbg !4946
  store i32 %5, i32* %onebutlastmove, align 8, !dbg !4947
  %6 = load i32, i32* %vertex.addr, align 4, !dbg !4948
  %lastmove3 = getelementptr inbounds %class.FastState, %class.FastState* %this1, i32 0, i32 6, !dbg !4949
  store i32 %6, i32* %lastmove3, align 4, !dbg !4950
  %board4 = getelementptr inbounds %class.FastState, %class.FastState* %this1, i32 0, i32 0, !dbg !4951
  %7 = bitcast %class.FullBoard* %board4 to %class.FastBoard*, !dbg !4951
  %m_tomove5 = getelementptr inbounds %class.FastBoard, %class.FastBoard* %7, i32 0, i32 3, !dbg !4952
  %8 = load i32, i32* %m_tomove5, align 8, !dbg !4952
  %tobool = icmp ne i32 %8, 0, !dbg !4951
  %lnot = xor i1 %tobool, true, !dbg !4953
  %conv = zext i1 %lnot to i32, !dbg !4953
  %board6 = getelementptr inbounds %class.FastState, %class.FastState* %this1, i32 0, i32 0, !dbg !4954
  %9 = bitcast %class.FullBoard* %board6 to %class.FastBoard*, !dbg !4954
  %m_tomove7 = getelementptr inbounds %class.FastBoard, %class.FastBoard* %9, i32 0, i32 3, !dbg !4955
  store i32 %conv, i32* %m_tomove7, align 8, !dbg !4956
  %movenum = getelementptr inbounds %class.FastState, %class.FastState* %this1, i32 0, i32 5, !dbg !4957
  %10 = load i32, i32* %movenum, align 8, !dbg !4958
  %inc = add nsw i32 %10, 1, !dbg !4958
  store i32 %inc, i32* %movenum, align 8, !dbg !4958
  %11 = load i32, i32* %vertex.addr, align 4, !dbg !4959
  ret i32 %11, !dbg !4960
}

; Function Attrs: noinline nounwind uwtable
define dso_local void @_ZN9FastState16increment_passesEv(%class.FastState* %this) #3 align 2 !dbg !4961 {
entry:
  %this.addr = alloca %class.FastState*, align 8
  store %class.FastState* %this, %class.FastState** %this.addr, align 8
  call void @llvm.dbg.declare(metadata %class.FastState** %this.addr, metadata !4962, metadata !DIExpression()), !dbg !4963
  %this1 = load %class.FastState*, %class.FastState** %this.addr, align 8
  %m_passes = getelementptr inbounds %class.FastState, %class.FastState* %this1, i32 0, i32 3, !dbg !4964
  %0 = load i32, i32* %m_passes, align 8, !dbg !4965
  %inc = add nsw i32 %0, 1, !dbg !4965
  store i32 %inc, i32* %m_passes, align 8, !dbg !4965
  %m_passes2 = getelementptr inbounds %class.FastState, %class.FastState* %this1, i32 0, i32 3, !dbg !4966
  %1 = load i32, i32* %m_passes2, align 8, !dbg !4966
  %cmp = icmp sgt i32 %1, 4, !dbg !4968
  br i1 %cmp, label %if.then, label %if.end, !dbg !4969

if.then:                                          ; preds = %entry
  %m_passes3 = getelementptr inbounds %class.FastState, %class.FastState* %this1, i32 0, i32 3, !dbg !4970
  store i32 4, i32* %m_passes3, align 8, !dbg !4971
  br label %if.end, !dbg !4970

if.end:                                           ; preds = %if.then, %entry
  ret void, !dbg !4972
}

declare dso_local i32 @_ZN9FastBoard17update_board_fastEii(%class.FastBoard*, i32, i32) #2

; Function Attrs: noinline nounwind uwtable
define dso_local void @_ZN9FastState10set_passesEi(%class.FastState* %this, i32 %val) #3 align 2 !dbg !4973 {
entry:
  %this.addr = alloca %class.FastState*, align 8
  %val.addr = alloca i32, align 4
  store %class.FastState* %this, %class.FastState** %this.addr, align 8
  call void @llvm.dbg.declare(metadata %class.FastState** %this.addr, metadata !4974, metadata !DIExpression()), !dbg !4975
  store i32 %val, i32* %val.addr, align 4
  call void @llvm.dbg.declare(metadata i32* %val.addr, metadata !4976, metadata !DIExpression()), !dbg !4977
  %this1 = load %class.FastState*, %class.FastState** %this.addr, align 8
  %0 = load i32, i32* %val.addr, align 4, !dbg !4978
  %m_passes = getelementptr inbounds %class.FastState, %class.FastState* %this1, i32 0, i32 3, !dbg !4979
  store i32 %0, i32* %m_passes, align 8, !dbg !4980
  ret void, !dbg !4981
}

; Function Attrs: noinline uwtable
define dso_local void @_ZN9FastState9play_passEv(%class.FastState* %this) #0 align 2 !dbg !4982 {
entry:
  %this.addr = alloca %class.FastState*, align 8
  store %class.FastState* %this, %class.FastState** %this.addr, align 8
  call void @llvm.dbg.declare(metadata %class.FastState** %this.addr, metadata !4983, metadata !DIExpression()), !dbg !4984
  %this1 = load %class.FastState*, %class.FastState** %this.addr, align 8
  %movenum = getelementptr inbounds %class.FastState, %class.FastState* %this1, i32 0, i32 5, !dbg !4985
  %0 = load i32, i32* %movenum, align 8, !dbg !4986
  %inc = add nsw i32 %0, 1, !dbg !4986
  store i32 %inc, i32* %movenum, align 8, !dbg !4986
  %lastmove = getelementptr inbounds %class.FastState, %class.FastState* %this1, i32 0, i32 6, !dbg !4987
  %1 = load i32, i32* %lastmove, align 4, !dbg !4987
  %onebutlastmove = getelementptr inbounds %class.FastState, %class.FastState* %this1, i32 0, i32 7, !dbg !4988
  store i32 %1, i32* %onebutlastmove, align 8, !dbg !4989
  %lastmove2 = getelementptr inbounds %class.FastState, %class.FastState* %this1, i32 0, i32 6, !dbg !4990
  store i32 -1, i32* %lastmove2, align 4, !dbg !4991
  %board = getelementptr inbounds %class.FastState, %class.FastState* %this1, i32 0, i32 0, !dbg !4992
  %hash = getelementptr inbounds %class.FullBoard, %class.FullBoard* %board, i32 0, i32 1, !dbg !4993
  %2 = load i64, i64* %hash, align 8, !dbg !4994
  %xor = xor i64 %2, -6067004223159161907, !dbg !4994
  store i64 %xor, i64* %hash, align 8, !dbg !4994
  %board3 = getelementptr inbounds %class.FastState, %class.FastState* %this1, i32 0, i32 0, !dbg !4995
  %3 = bitcast %class.FullBoard* %board3 to %class.FastBoard*, !dbg !4995
  %m_tomove = getelementptr inbounds %class.FastBoard, %class.FastBoard* %3, i32 0, i32 3, !dbg !4996
  %4 = load i32, i32* %m_tomove, align 8, !dbg !4996
  %tobool = icmp ne i32 %4, 0, !dbg !4995
  %lnot = xor i1 %tobool, true, !dbg !4997
  %conv = zext i1 %lnot to i32, !dbg !4997
  %board4 = getelementptr inbounds %class.FastState, %class.FastState* %this1, i32 0, i32 0, !dbg !4998
  %5 = bitcast %class.FullBoard* %board4 to %class.FastBoard*, !dbg !4998
  %m_tomove5 = getelementptr inbounds %class.FastBoard, %class.FastBoard* %5, i32 0, i32 3, !dbg !4999
  store i32 %conv, i32* %m_tomove5, align 8, !dbg !5000
  %call = call i32 @_ZN9FastState10get_passesEv(%class.FastState* %this1), !dbg !5001
  %conv6 = sext i32 %call to i64, !dbg !5001
  %call7 = call dereferenceable(8) i64* @_ZN5boost5arrayIyLm5EEixEm(%"class.boost::array.14"* @_ZN7Zobrist12zobrist_passE, i64 %conv6), !dbg !5002
  %6 = load i64, i64* %call7, align 8, !dbg !5002
  %board8 = getelementptr inbounds %class.FastState, %class.FastState* %this1, i32 0, i32 0, !dbg !5003
  %hash9 = getelementptr inbounds %class.FullBoard, %class.FullBoard* %board8, i32 0, i32 1, !dbg !5004
  %7 = load i64, i64* %hash9, align 8, !dbg !5005
  %xor10 = xor i64 %7, %6, !dbg !5005
  store i64 %xor10, i64* %hash9, align 8, !dbg !5005
  call void @_ZN9FastState16increment_passesEv(%class.FastState* %this1), !dbg !5006
  %call11 = call i32 @_ZN9FastState10get_passesEv(%class.FastState* %this1), !dbg !5007
  %conv12 = sext i32 %call11 to i64, !dbg !5007
  %call13 = call dereferenceable(8) i64* @_ZN5boost5arrayIyLm5EEixEm(%"class.boost::array.14"* @_ZN7Zobrist12zobrist_passE, i64 %conv12), !dbg !5008
  %8 = load i64, i64* %call13, align 8, !dbg !5008
  %board14 = getelementptr inbounds %class.FastState, %class.FastState* %this1, i32 0, i32 0, !dbg !5009
  %hash15 = getelementptr inbounds %class.FullBoard, %class.FullBoard* %board14, i32 0, i32 1, !dbg !5010
  %9 = load i64, i64* %hash15, align 8, !dbg !5011
  %xor16 = xor i64 %9, %8, !dbg !5011
  store i64 %xor16, i64* %hash15, align 8, !dbg !5011
  ret void, !dbg !5012
}

; Function Attrs: noinline nounwind uwtable
define linkonce_odr dso_local dereferenceable(8) i64* @_ZN5boost5arrayIyLm5EEixEm(%"class.boost::array.14"* %this, i64 %i) #3 comdat align 2 !dbg !5013 {
entry:
  %this.addr = alloca %"class.boost::array.14"*, align 8
  %i.addr = alloca i64, align 8
  store %"class.boost::array.14"* %this, %"class.boost::array.14"** %this.addr, align 8
  call void @llvm.dbg.declare(metadata %"class.boost::array.14"** %this.addr, metadata !5089, metadata !DIExpression()), !dbg !5091
  store i64 %i, i64* %i.addr, align 8
  call void @llvm.dbg.declare(metadata i64* %i.addr, metadata !5092, metadata !DIExpression()), !dbg !5093
  %this1 = load %"class.boost::array.14"*, %"class.boost::array.14"** %this.addr, align 8
  %elems = getelementptr inbounds %"class.boost::array.14", %"class.boost::array.14"* %this1, i32 0, i32 0, !dbg !5094
  %0 = load i64, i64* %i.addr, align 8, !dbg !5095
  %arrayidx = getelementptr inbounds [5 x i64], [5 x i64]* %elems, i64 0, i64 %0, !dbg !5094
  ret i64* %arrayidx, !dbg !5096
}

; Function Attrs: noinline nounwind uwtable
define dso_local i32 @_ZN9FastState10get_passesEv(%class.FastState* %this) #3 align 2 !dbg !5097 {
entry:
  %this.addr = alloca %class.FastState*, align 8
  store %class.FastState* %this, %class.FastState** %this.addr, align 8
  call void @llvm.dbg.declare(metadata %class.FastState** %this.addr, metadata !5098, metadata !DIExpression()), !dbg !5099
  %this1 = load %class.FastState*, %class.FastState** %this.addr, align 8
  %m_passes = getelementptr inbounds %class.FastState, %class.FastState* %this1, i32 0, i32 3, !dbg !5100
  %0 = load i32, i32* %m_passes, align 8, !dbg !5100
  ret i32 %0, !dbg !5101
}

; Function Attrs: noinline uwtable
define dso_local void @_ZN9FastState9play_moveEi(%class.FastState* %this, i32 %vertex) #0 align 2 !dbg !5102 {
entry:
  %this.addr = alloca %class.FastState*, align 8
  %vertex.addr = alloca i32, align 4
  store %class.FastState* %this, %class.FastState** %this.addr, align 8
  call void @llvm.dbg.declare(metadata %class.FastState** %this.addr, metadata !5103, metadata !DIExpression()), !dbg !5104
  store i32 %vertex, i32* %vertex.addr, align 4
  call void @llvm.dbg.declare(metadata i32* %vertex.addr, metadata !5105, metadata !DIExpression()), !dbg !5106
  %this1 = load %class.FastState*, %class.FastState** %this.addr, align 8
  %board = getelementptr inbounds %class.FastState, %class.FastState* %this1, i32 0, i32 0, !dbg !5107
  %0 = bitcast %class.FullBoard* %board to %class.FastBoard*, !dbg !5107
  %m_tomove = getelementptr inbounds %class.FastBoard, %class.FastBoard* %0, i32 0, i32 3, !dbg !5108
  %1 = load i32, i32* %m_tomove, align 8, !dbg !5108
  %2 = load i32, i32* %vertex.addr, align 4, !dbg !5109
  call void @_ZN9FastState9play_moveEii(%class.FastState* %this1, i32 %1, i32 %2), !dbg !5110
  ret void, !dbg !5111
}

; Function Attrs: noinline uwtable
define dso_local void @_ZN9FastState9play_moveEii(%class.FastState* %this, i32 %color, i32 %vertex) #0 align 2 !dbg !5112 {
entry:
  %this.addr = alloca %class.FastState*, align 8
  %color.addr = alloca i32, align 4
  %vertex.addr = alloca i32, align 4
  %kosq = alloca i32, align 4
  store %class.FastState* %this, %class.FastState** %this.addr, align 8
  call void @llvm.dbg.declare(metadata %class.FastState** %this.addr, metadata !5113, metadata !DIExpression()), !dbg !5114
  store i32 %color, i32* %color.addr, align 4
  call void @llvm.dbg.declare(metadata i32* %color.addr, metadata !5115, metadata !DIExpression()), !dbg !5116
  store i32 %vertex, i32* %vertex.addr, align 4
  call void @llvm.dbg.declare(metadata i32* %vertex.addr, metadata !5117, metadata !DIExpression()), !dbg !5118
  %this1 = load %class.FastState*, %class.FastState** %this.addr, align 8
  %0 = load i32, i32* %vertex.addr, align 4, !dbg !5119
  %cmp = icmp ne i32 %0, -1, !dbg !5121
  br i1 %cmp, label %land.lhs.true, label %if.else, !dbg !5122

land.lhs.true:                                    ; preds = %entry
  %1 = load i32, i32* %vertex.addr, align 4, !dbg !5123
  %cmp2 = icmp ne i32 %1, -2, !dbg !5124
  br i1 %cmp2, label %if.then, label %if.else, !dbg !5125

if.then:                                          ; preds = %land.lhs.true
  call void @llvm.dbg.declare(metadata i32* %kosq, metadata !5126, metadata !DIExpression()), !dbg !5128
  %board = getelementptr inbounds %class.FastState, %class.FastState* %this1, i32 0, i32 0, !dbg !5129
  %2 = load i32, i32* %color.addr, align 4, !dbg !5130
  %3 = load i32, i32* %vertex.addr, align 4, !dbg !5131
  %call = call i32 @_ZN9FullBoard12update_boardEii(%class.FullBoard* %board, i32 %2, i32 %3), !dbg !5132
  store i32 %call, i32* %kosq, align 4, !dbg !5128
  %4 = load i32, i32* %kosq, align 4, !dbg !5133
  %komove = getelementptr inbounds %class.FastState, %class.FastState* %this1, i32 0, i32 4, !dbg !5134
  store i32 %4, i32* %komove, align 4, !dbg !5135
  %lastmove = getelementptr inbounds %class.FastState, %class.FastState* %this1, i32 0, i32 6, !dbg !5136
  %5 = load i32, i32* %lastmove, align 4, !dbg !5136
  %onebutlastmove = getelementptr inbounds %class.FastState, %class.FastState* %this1, i32 0, i32 7, !dbg !5137
  store i32 %5, i32* %onebutlastmove, align 8, !dbg !5138
  %6 = load i32, i32* %vertex.addr, align 4, !dbg !5139
  %lastmove3 = getelementptr inbounds %class.FastState, %class.FastState* %this1, i32 0, i32 6, !dbg !5140
  store i32 %6, i32* %lastmove3, align 4, !dbg !5141
  %movenum = getelementptr inbounds %class.FastState, %class.FastState* %this1, i32 0, i32 5, !dbg !5142
  %7 = load i32, i32* %movenum, align 8, !dbg !5143
  %inc = add nsw i32 %7, 1, !dbg !5143
  store i32 %inc, i32* %movenum, align 8, !dbg !5143
  %board4 = getelementptr inbounds %class.FastState, %class.FastState* %this1, i32 0, i32 0, !dbg !5144
  %8 = bitcast %class.FullBoard* %board4 to %class.FastBoard*, !dbg !5144
  %m_tomove = getelementptr inbounds %class.FastBoard, %class.FastBoard* %8, i32 0, i32 3, !dbg !5146
  %9 = load i32, i32* %m_tomove, align 8, !dbg !5146
  %10 = load i32, i32* %color.addr, align 4, !dbg !5147
  %cmp5 = icmp eq i32 %9, %10, !dbg !5148
  br i1 %cmp5, label %if.then6, label %if.end, !dbg !5149

if.then6:                                         ; preds = %if.then
  %board7 = getelementptr inbounds %class.FastState, %class.FastState* %this1, i32 0, i32 0, !dbg !5150
  %hash = getelementptr inbounds %class.FullBoard, %class.FullBoard* %board7, i32 0, i32 1, !dbg !5152
  %11 = load i64, i64* %hash, align 8, !dbg !5153
  %xor = xor i64 %11, -6067004223159161907, !dbg !5153
  store i64 %xor, i64* %hash, align 8, !dbg !5153
  br label %if.end, !dbg !5154

if.end:                                           ; preds = %if.then6, %if.then
  %12 = load i32, i32* %color.addr, align 4, !dbg !5155
  %tobool = icmp ne i32 %12, 0, !dbg !5155
  %lnot = xor i1 %tobool, true, !dbg !5156
  %conv = zext i1 %lnot to i32, !dbg !5156
  %board8 = getelementptr inbounds %class.FastState, %class.FastState* %this1, i32 0, i32 0, !dbg !5157
  %13 = bitcast %class.FullBoard* %board8 to %class.FastBoard*, !dbg !5157
  %m_tomove9 = getelementptr inbounds %class.FastBoard, %class.FastBoard* %13, i32 0, i32 3, !dbg !5158
  store i32 %conv, i32* %m_tomove9, align 8, !dbg !5159
  %call10 = call i32 @_ZN9FastState10get_passesEv(%class.FastState* %this1), !dbg !5160
  %cmp11 = icmp sgt i32 %call10, 0, !dbg !5162
  br i1 %cmp11, label %if.then12, label %if.end23, !dbg !5163

if.then12:                                        ; preds = %if.end
  %call13 = call i32 @_ZN9FastState10get_passesEv(%class.FastState* %this1), !dbg !5164
  %conv14 = sext i32 %call13 to i64, !dbg !5164
  %call15 = call dereferenceable(8) i64* @_ZN5boost5arrayIyLm5EEixEm(%"class.boost::array.14"* @_ZN7Zobrist12zobrist_passE, i64 %conv14), !dbg !5166
  %14 = load i64, i64* %call15, align 8, !dbg !5166
  %board16 = getelementptr inbounds %class.FastState, %class.FastState* %this1, i32 0, i32 0, !dbg !5167
  %hash17 = getelementptr inbounds %class.FullBoard, %class.FullBoard* %board16, i32 0, i32 1, !dbg !5168
  %15 = load i64, i64* %hash17, align 8, !dbg !5169
  %xor18 = xor i64 %15, %14, !dbg !5169
  store i64 %xor18, i64* %hash17, align 8, !dbg !5169
  call void @_ZN9FastState10set_passesEi(%class.FastState* %this1, i32 0), !dbg !5170
  %call19 = call dereferenceable(8) i64* @_ZN5boost5arrayIyLm5EEixEm(%"class.boost::array.14"* @_ZN7Zobrist12zobrist_passE, i64 0), !dbg !5171
  %16 = load i64, i64* %call19, align 8, !dbg !5171
  %board20 = getelementptr inbounds %class.FastState, %class.FastState* %this1, i32 0, i32 0, !dbg !5172
  %hash21 = getelementptr inbounds %class.FullBoard, %class.FullBoard* %board20, i32 0, i32 1, !dbg !5173
  %17 = load i64, i64* %hash21, align 8, !dbg !5174
  %xor22 = xor i64 %17, %16, !dbg !5174
  store i64 %xor22, i64* %hash21, align 8, !dbg !5174
  br label %if.end23, !dbg !5175

if.end23:                                         ; preds = %if.then12, %if.end
  br label %if.end24, !dbg !5176

if.else:                                          ; preds = %land.lhs.true, %entry
  call void @_ZN9FastState9play_passEv(%class.FastState* %this1), !dbg !5177
  br label %if.end24

if.end24:                                         ; preds = %if.else, %if.end23
  ret void, !dbg !5179
}

declare dso_local i32 @_ZN9FullBoard12update_boardEii(%class.FullBoard*, i32, i32) #2

; Function Attrs: noinline nounwind uwtable
define dso_local i32 @_ZN9FastState11get_movenumEv(%class.FastState* %this) #3 align 2 !dbg !5180 {
entry:
  %this.addr = alloca %class.FastState*, align 8
  store %class.FastState* %this, %class.FastState** %this.addr, align 8
  call void @llvm.dbg.declare(metadata %class.FastState** %this.addr, metadata !5181, metadata !DIExpression()), !dbg !5182
  %this1 = load %class.FastState*, %class.FastState** %this.addr, align 8
  %movenum = getelementptr inbounds %class.FastState, %class.FastState* %this1, i32 0, i32 5, !dbg !5183
  %0 = load i32, i32* %movenum, align 8, !dbg !5183
  ret i32 %0, !dbg !5184
}

; Function Attrs: noinline uwtable
define dso_local i32 @_ZN9FastState17estimate_mc_scoreEv(%class.FastState* %this) #0 align 2 !dbg !5185 {
entry:
  %this.addr = alloca %class.FastState*, align 8
  store %class.FastState* %this, %class.FastState** %this.addr, align 8
  call void @llvm.dbg.declare(metadata %class.FastState** %this.addr, metadata !5186, metadata !DIExpression()), !dbg !5187
  %this1 = load %class.FastState*, %class.FastState** %this.addr, align 8
  %board = getelementptr inbounds %class.FastState, %class.FastState* %this1, i32 0, i32 0, !dbg !5188
  %0 = bitcast %class.FullBoard* %board to %class.FastBoard*, !dbg !5188
  %m_komi = getelementptr inbounds %class.FastState, %class.FastState* %this1, i32 0, i32 1, !dbg !5189
  %1 = load float, float* %m_komi, align 8, !dbg !5189
  %m_handicap = getelementptr inbounds %class.FastState, %class.FastState* %this1, i32 0, i32 2, !dbg !5190
  %2 = load i32, i32* %m_handicap, align 4, !dbg !5190
  %conv = sitofp i32 %2 to float, !dbg !5190
  %add = fadd float %1, %conv, !dbg !5191
  %call = call i32 @_ZN9FastBoard17estimate_mc_scoreEf(%class.FastBoard* %0, float %add), !dbg !5192
  ret i32 %call, !dbg !5193
}

declare dso_local i32 @_ZN9FastBoard17estimate_mc_scoreEf(%class.FastBoard*, float) #2

; Function Attrs: noinline uwtable
define dso_local float @_ZN9FastState18calculate_mc_scoreEv(%class.FastState* %this) #0 align 2 !dbg !5194 {
entry:
  %this.addr = alloca %class.FastState*, align 8
  store %class.FastState* %this, %class.FastState** %this.addr, align 8
  call void @llvm.dbg.declare(metadata %class.FastState** %this.addr, metadata !5195, metadata !DIExpression()), !dbg !5196
  %this1 = load %class.FastState*, %class.FastState** %this.addr, align 8
  %board = getelementptr inbounds %class.FastState, %class.FastState* %this1, i32 0, i32 0, !dbg !5197
  %0 = bitcast %class.FullBoard* %board to %class.FastBoard*, !dbg !5197
  %m_komi = getelementptr inbounds %class.FastState, %class.FastState* %this1, i32 0, i32 1, !dbg !5198
  %1 = load float, float* %m_komi, align 8, !dbg !5198
  %m_handicap = getelementptr inbounds %class.FastState, %class.FastState* %this1, i32 0, i32 2, !dbg !5199
  %2 = load i32, i32* %m_handicap, align 4, !dbg !5199
  %conv = sitofp i32 %2 to float, !dbg !5199
  %add = fadd float %1, %conv, !dbg !5200
  %call = call float @_ZN9FastBoard14final_mc_scoreEf(%class.FastBoard* %0, float %add), !dbg !5201
  ret float %call, !dbg !5202
}

declare dso_local float @_ZN9FastBoard14final_mc_scoreEf(%class.FastBoard*, float) #2

; Function Attrs: noinline uwtable
define dso_local float @_ZN9FastState21percentual_area_scoreEv(%class.FastState* %this) #0 align 2 !dbg !5203 {
entry:
  %this.addr = alloca %class.FastState*, align 8
  store %class.FastState* %this, %class.FastState** %this.addr, align 8
  call void @llvm.dbg.declare(metadata %class.FastState** %this.addr, metadata !5204, metadata !DIExpression()), !dbg !5205
  %this1 = load %class.FastState*, %class.FastState** %this.addr, align 8
  %board = getelementptr inbounds %class.FastState, %class.FastState* %this1, i32 0, i32 0, !dbg !5206
  %0 = bitcast %class.FullBoard* %board to %class.FastBoard*, !dbg !5206
  %m_komi = getelementptr inbounds %class.FastState, %class.FastState* %this1, i32 0, i32 1, !dbg !5207
  %1 = load float, float* %m_komi, align 8, !dbg !5207
  %m_handicap = getelementptr inbounds %class.FastState, %class.FastState* %this1, i32 0, i32 2, !dbg !5208
  %2 = load i32, i32* %m_handicap, align 4, !dbg !5208
  %conv = sitofp i32 %2 to float, !dbg !5208
  %add = fadd float %1, %conv, !dbg !5209
  %call = call float @_ZN9FastBoard21percentual_area_scoreEf(%class.FastBoard* %0, float %add), !dbg !5210
  ret float %call, !dbg !5211
}

declare dso_local float @_ZN9FastBoard21percentual_area_scoreEf(%class.FastBoard*, float) #2

; Function Attrs: noinline nounwind uwtable
define dso_local i32 @_ZN9FastState13get_last_moveEv(%class.FastState* %this) #3 align 2 !dbg !5212 {
entry:
  %this.addr = alloca %class.FastState*, align 8
  store %class.FastState* %this, %class.FastState** %this.addr, align 8
  call void @llvm.dbg.declare(metadata %class.FastState** %this.addr, metadata !5213, metadata !DIExpression()), !dbg !5214
  %this1 = load %class.FastState*, %class.FastState** %this.addr, align 8
  %lastmove = getelementptr inbounds %class.FastState, %class.FastState* %this1, i32 0, i32 6, !dbg !5215
  %0 = load i32, i32* %lastmove, align 4, !dbg !5215
  ret i32 %0, !dbg !5216
}

; Function Attrs: noinline nounwind uwtable
define dso_local i32 @_ZN9FastState17get_prevlast_moveEv(%class.FastState* %this) #3 align 2 !dbg !5217 {
entry:
  %this.addr = alloca %class.FastState*, align 8
  store %class.FastState* %this, %class.FastState** %this.addr, align 8
  call void @llvm.dbg.declare(metadata %class.FastState** %this.addr, metadata !5218, metadata !DIExpression()), !dbg !5219
  %this1 = load %class.FastState*, %class.FastState** %this.addr, align 8
  %onebutlastmove = getelementptr inbounds %class.FastState, %class.FastState* %this1, i32 0, i32 7, !dbg !5220
  %0 = load i32, i32* %onebutlastmove, align 8, !dbg !5220
  ret i32 %0, !dbg !5221
}

; Function Attrs: noinline nounwind uwtable
define dso_local i32 @_ZN9FastState11get_to_moveEv(%class.FastState* %this) #3 align 2 !dbg !5222 {
entry:
  %this.addr = alloca %class.FastState*, align 8
  store %class.FastState* %this, %class.FastState** %this.addr, align 8
  call void @llvm.dbg.declare(metadata %class.FastState** %this.addr, metadata !5223, metadata !DIExpression()), !dbg !5224
  %this1 = load %class.FastState*, %class.FastState** %this.addr, align 8
  %board = getelementptr inbounds %class.FastState, %class.FastState* %this1, i32 0, i32 0, !dbg !5225
  %0 = bitcast %class.FullBoard* %board to %class.FastBoard*, !dbg !5225
  %m_tomove = getelementptr inbounds %class.FastBoard, %class.FastBoard* %0, i32 0, i32 3, !dbg !5226
  %1 = load i32, i32* %m_tomove, align 8, !dbg !5226
  ret i32 %1, !dbg !5227
}

; Function Attrs: noinline nounwind uwtable
define dso_local void @_ZN9FastState11set_to_moveEi(%class.FastState* %this, i32 %tom) #3 align 2 !dbg !5228 {
entry:
  %this.addr = alloca %class.FastState*, align 8
  %tom.addr = alloca i32, align 4
  store %class.FastState* %this, %class.FastState** %this.addr, align 8
  call void @llvm.dbg.declare(metadata %class.FastState** %this.addr, metadata !5229, metadata !DIExpression()), !dbg !5230
  store i32 %tom, i32* %tom.addr, align 4
  call void @llvm.dbg.declare(metadata i32* %tom.addr, metadata !5231, metadata !DIExpression()), !dbg !5232
  %this1 = load %class.FastState*, %class.FastState** %this.addr, align 8
  %0 = load i32, i32* %tom.addr, align 4, !dbg !5233
  %board = getelementptr inbounds %class.FastState, %class.FastState* %this1, i32 0, i32 0, !dbg !5234
  %1 = bitcast %class.FullBoard* %board to %class.FastBoard*, !dbg !5234
  %m_tomove = getelementptr inbounds %class.FastBoard, %class.FastBoard* %1, i32 0, i32 3, !dbg !5235
  store i32 %0, i32* %m_tomove, align 8, !dbg !5236
  ret void, !dbg !5237
}

; Function Attrs: noinline uwtable
define dso_local void @_ZN9FastState13display_stateEv(%class.FastState* %this) #0 align 2 !dbg !5238 {
entry:
  %this.addr = alloca %class.FastState*, align 8
  store %class.FastState* %this, %class.FastState** %this.addr, align 8
  call void @llvm.dbg.declare(metadata %class.FastState** %this.addr, metadata !5239, metadata !DIExpression()), !dbg !5240
  %this1 = load %class.FastState*, %class.FastState** %this.addr, align 8
  %m_passes = getelementptr inbounds %class.FastState, %class.FastState* %this1, i32 0, i32 3, !dbg !5241
  %0 = load i32, i32* %m_passes, align 8, !dbg !5241
  %board = getelementptr inbounds %class.FastState, %class.FastState* %this1, i32 0, i32 0, !dbg !5242
  %1 = bitcast %class.FullBoard* %board to %class.FastBoard*, !dbg !5242
  %call = call i32 @_ZN9FastBoard13get_prisonersEi(%class.FastBoard* %1, i32 0), !dbg !5243
  call void (i8*, ...) @_ZN5Utils8myprintfEPKcz(i8* getelementptr inbounds ([48 x i8], [48 x i8]* @.str, i64 0, i64 0), i32 %0, i32 %call), !dbg !5244
  %board2 = getelementptr inbounds %class.FastState, %class.FastState* %this1, i32 0, i32 0, !dbg !5245
  %2 = bitcast %class.FullBoard* %board2 to %class.FastBoard*, !dbg !5245
  %call3 = call zeroext i1 @_ZN9FastBoard13black_to_moveEv(%class.FastBoard* %2), !dbg !5247
  br i1 %call3, label %if.then, label %if.else, !dbg !5248

if.then:                                          ; preds = %entry
  call void (i8*, ...) @_ZN5Utils8myprintfEPKcz(i8* getelementptr inbounds ([18 x i8], [18 x i8]* @.str.1, i64 0, i64 0)), !dbg !5249
  br label %if.end, !dbg !5251

if.else:                                          ; preds = %entry
  call void (i8*, ...) @_ZN5Utils8myprintfEPKcz(i8* getelementptr inbounds ([18 x i8], [18 x i8]* @.str.2, i64 0, i64 0)), !dbg !5252
  br label %if.end

if.end:                                           ; preds = %if.else, %if.then
  %board4 = getelementptr inbounds %class.FastState, %class.FastState* %this1, i32 0, i32 0, !dbg !5254
  %3 = bitcast %class.FullBoard* %board4 to %class.FastBoard*, !dbg !5254
  %call5 = call i32 @_ZN9FastBoard13get_prisonersEi(%class.FastBoard* %3, i32 1), !dbg !5255
  call void (i8*, ...) @_ZN5Utils8myprintfEPKcz(i8* getelementptr inbounds ([29 x i8], [29 x i8]* @.str.3, i64 0, i64 0), i32 %call5), !dbg !5256
  %board6 = getelementptr inbounds %class.FastState, %class.FastState* %this1, i32 0, i32 0, !dbg !5257
  %lastmove = getelementptr inbounds %class.FastState, %class.FastState* %this1, i32 0, i32 6, !dbg !5258
  %4 = load i32, i32* %lastmove, align 4, !dbg !5258
  call void @_ZN9FullBoard13display_boardEi(%class.FullBoard* %board6, i32 %4), !dbg !5259
  ret void, !dbg !5260
}

declare dso_local void @_ZN5Utils8myprintfEPKcz(i8*, ...) #2

declare dso_local i32 @_ZN9FastBoard13get_prisonersEi(%class.FastBoard*, i32) #2

declare dso_local zeroext i1 @_ZN9FastBoard13black_to_moveEv(%class.FastBoard*) #2

declare dso_local void @_ZN9FullBoard13display_boardEi(%class.FullBoard*, i32) #2

; Function Attrs: noinline uwtable
define dso_local void @_ZN9FastState12move_to_textB5cxx11Ei(%"class.std::__cxx11::basic_string"* noalias sret %agg.result, %class.FastState* %this, i32 %move) #0 align 2 !dbg !5261 {
entry:
  %result.ptr = alloca i8*, align 8
  %this.addr = alloca %class.FastState*, align 8
  %move.addr = alloca i32, align 4
  %0 = bitcast %"class.std::__cxx11::basic_string"* %agg.result to i8*
  store i8* %0, i8** %result.ptr, align 8
  store %class.FastState* %this, %class.FastState** %this.addr, align 8
  call void @llvm.dbg.declare(metadata %class.FastState** %this.addr, metadata !5262, metadata !DIExpression()), !dbg !5263
  store i32 %move, i32* %move.addr, align 4
  call void @llvm.dbg.declare(metadata i32* %move.addr, metadata !5264, metadata !DIExpression()), !dbg !5265
  %this1 = load %class.FastState*, %class.FastState** %this.addr, align 8
  %board = getelementptr inbounds %class.FastState, %class.FastState* %this1, i32 0, i32 0, !dbg !5266
  %1 = bitcast %class.FullBoard* %board to %class.FastBoard*, !dbg !5266
  %2 = load i32, i32* %move.addr, align 4, !dbg !5267
  call void @_ZN9FastBoard12move_to_textB5cxx11Ei(%"class.std::__cxx11::basic_string"* sret %agg.result, %class.FastBoard* %1, i32 %2), !dbg !5268
  ret void, !dbg !5269
}

declare dso_local void @_ZN9FastBoard12move_to_textB5cxx11Ei(%"class.std::__cxx11::basic_string"* sret, %class.FastBoard*, i32) #2

; Function Attrs: noinline uwtable
define dso_local void @_ZN9FastState9mark_deadEv(%"class.std::vector.18"* noalias sret %agg.result, %class.FastState* %this) #0 align 2 personality i8* bitcast (i32 (...)* @__gxx_personality_v0 to i8*) !dbg !2381 {
entry:
  %result.ptr = alloca i8*, align 8
  %this.addr = alloca %class.FastState*, align 8
  %survive_count = alloca %"class.std::vector", align 8
  %ref.tmp = alloca %"class.std::allocator", align 1
  %exn.slot = alloca i8*
  %ehselector.slot = alloca i32
  %nrvo = alloca i1, align 1
  %ref.tmp2 = alloca %"class.std::allocator.22", align 1
  %agg.tmp = alloca %"class.__gnu_cxx::__normal_iterator", align 8
  %agg.tmp5 = alloca %"class.__gnu_cxx::__normal_iterator", align 8
  %ref.tmp8 = alloca i32, align 4
  %agg.tmp13 = alloca %"struct.std::_Bit_iterator", align 8
  %agg.tmp15 = alloca %"struct.std::_Bit_iterator", align 8
  %ref.tmp17 = alloca i8, align 1
  %i = alloca i32, align 4
  %workstate = alloca %class.FastState, align 8
  %p = alloca %class.Playout, align 8
  %i23 = alloca i32, align 4
  %j = alloca i32, align 4
  %vertex = alloca i32, align 4
  %sq = alloca i32, align 4
  %mc_sq = alloca i32, align 4
  %LIVE_TRESHOLD = alloca i32, align 4
  %i53 = alloca i32, align 4
  %j60 = alloca i32, align 4
  %vertex67 = alloca i32, align 4
  %ref.tmp75 = alloca %"struct.std::_Bit_reference", align 8
  %0 = bitcast %"class.std::vector.18"* %agg.result to i8*
  store i8* %0, i8** %result.ptr, align 8
  store %class.FastState* %this, %class.FastState** %this.addr, align 8
  call void @llvm.dbg.declare(metadata %class.FastState** %this.addr, metadata !5270, metadata !DIExpression()), !dbg !5271
  %this1 = load %class.FastState*, %class.FastState** %this.addr, align 8
  call void @llvm.dbg.declare(metadata %"class.std::vector"* %survive_count, metadata !5272, metadata !DIExpression()), !dbg !5273
  call void @_ZNSaIiEC2Ev(%"class.std::allocator"* %ref.tmp) #9, !dbg !5273
  invoke void @_ZNSt6vectorIiSaIiEEC2EmRKS0_(%"class.std::vector"* %survive_count, i64 441, %"class.std::allocator"* dereferenceable(1) %ref.tmp)
          to label %invoke.cont unwind label %lpad, !dbg !5273

invoke.cont:                                      ; preds = %entry
  call void @_ZNSaIiED2Ev(%"class.std::allocator"* %ref.tmp) #9, !dbg !5273
  store i1 false, i1* %nrvo, align 1, !dbg !5274
  call void @llvm.dbg.declare(metadata i8** %result.ptr, metadata !5275, metadata !DIExpression(DW_OP_deref)), !dbg !5276
  call void @_ZNSaIbEC2Ev(%"class.std::allocator.22"* %ref.tmp2) #9, !dbg !5276
  invoke void @_ZNSt6vectorIbSaIbEEC2EmRKS0_(%"class.std::vector.18"* %agg.result, i64 441, %"class.std::allocator.22"* dereferenceable(1) %ref.tmp2)
          to label %invoke.cont4 unwind label %lpad3, !dbg !5276

invoke.cont4:                                     ; preds = %invoke.cont
  call void @_ZNSaIbED2Ev(%"class.std::allocator.22"* %ref.tmp2) #9, !dbg !5276
  %call = call i32* @_ZNSt6vectorIiSaIiEE5beginEv(%"class.std::vector"* %survive_count) #9, !dbg !5277
  %coerce.dive = getelementptr inbounds %"class.__gnu_cxx::__normal_iterator", %"class.__gnu_cxx::__normal_iterator"* %agg.tmp, i32 0, i32 0, !dbg !5277
  store i32* %call, i32** %coerce.dive, align 8, !dbg !5277
  %call6 = call i32* @_ZNSt6vectorIiSaIiEE3endEv(%"class.std::vector"* %survive_count) #9, !dbg !5278
  %coerce.dive7 = getelementptr inbounds %"class.__gnu_cxx::__normal_iterator", %"class.__gnu_cxx::__normal_iterator"* %agg.tmp5, i32 0, i32 0, !dbg !5278
  store i32* %call6, i32** %coerce.dive7, align 8, !dbg !5278
  store i32 0, i32* %ref.tmp8, align 4, !dbg !5279
  %coerce.dive9 = getelementptr inbounds %"class.__gnu_cxx::__normal_iterator", %"class.__gnu_cxx::__normal_iterator"* %agg.tmp, i32 0, i32 0, !dbg !5280
  %1 = load i32*, i32** %coerce.dive9, align 8, !dbg !5280
  %coerce.dive10 = getelementptr inbounds %"class.__gnu_cxx::__normal_iterator", %"class.__gnu_cxx::__normal_iterator"* %agg.tmp5, i32 0, i32 0, !dbg !5280
  %2 = load i32*, i32** %coerce.dive10, align 8, !dbg !5280
  invoke void @_ZSt4fillIN9__gnu_cxx17__normal_iteratorIPiSt6vectorIiSaIiEEEEiEvT_S7_RKT0_(i32* %1, i32* %2, i32* dereferenceable(4) %ref.tmp8)
          to label %invoke.cont12 unwind label %lpad11, !dbg !5280

invoke.cont12:                                    ; preds = %invoke.cont4
  %call14 = call { i64*, i32 } @_ZNSt6vectorIbSaIbEE5beginEv(%"class.std::vector.18"* %agg.result) #9, !dbg !5281
  %3 = bitcast %"struct.std::_Bit_iterator"* %agg.tmp13 to { i64*, i32 }*, !dbg !5281
  %4 = getelementptr inbounds { i64*, i32 }, { i64*, i32 }* %3, i32 0, i32 0, !dbg !5281
  %5 = extractvalue { i64*, i32 } %call14, 0, !dbg !5281
  store i64* %5, i64** %4, align 8, !dbg !5281
  %6 = getelementptr inbounds { i64*, i32 }, { i64*, i32 }* %3, i32 0, i32 1, !dbg !5281
  %7 = extractvalue { i64*, i32 } %call14, 1, !dbg !5281
  store i32 %7, i32* %6, align 8, !dbg !5281
  %call16 = call { i64*, i32 } @_ZNSt6vectorIbSaIbEE3endEv(%"class.std::vector.18"* %agg.result) #9, !dbg !5282
  %8 = bitcast %"struct.std::_Bit_iterator"* %agg.tmp15 to { i64*, i32 }*, !dbg !5282
  %9 = getelementptr inbounds { i64*, i32 }, { i64*, i32 }* %8, i32 0, i32 0, !dbg !5282
  %10 = extractvalue { i64*, i32 } %call16, 0, !dbg !5282
  store i64* %10, i64** %9, align 8, !dbg !5282
  %11 = getelementptr inbounds { i64*, i32 }, { i64*, i32 }* %8, i32 0, i32 1, !dbg !5282
  %12 = extractvalue { i64*, i32 } %call16, 1, !dbg !5282
  store i32 %12, i32* %11, align 8, !dbg !5282
  store i8 0, i8* %ref.tmp17, align 1, !dbg !5283
  %13 = bitcast %"struct.std::_Bit_iterator"* %agg.tmp13 to { i64*, i32 }*, !dbg !5284
  %14 = getelementptr inbounds { i64*, i32 }, { i64*, i32 }* %13, i32 0, i32 0, !dbg !5284
  %15 = load i64*, i64** %14, align 8, !dbg !5284
  %16 = getelementptr inbounds { i64*, i32 }, { i64*, i32 }* %13, i32 0, i32 1, !dbg !5284
  %17 = load i32, i32* %16, align 8, !dbg !5284
  %18 = bitcast %"struct.std::_Bit_iterator"* %agg.tmp15 to { i64*, i32 }*, !dbg !5284
  %19 = getelementptr inbounds { i64*, i32 }, { i64*, i32 }* %18, i32 0, i32 0, !dbg !5284
  %20 = load i64*, i64** %19, align 8, !dbg !5284
  %21 = getelementptr inbounds { i64*, i32 }, { i64*, i32 }* %18, i32 0, i32 1, !dbg !5284
  %22 = load i32, i32* %21, align 8, !dbg !5284
  invoke void @_ZSt4fillSt13_Bit_iteratorS_RKb(i64* %15, i32 %17, i64* %20, i32 %22, i8* dereferenceable(1) %ref.tmp17)
          to label %invoke.cont18 unwind label %lpad11, !dbg !5284

invoke.cont18:                                    ; preds = %invoke.cont12
  call void @llvm.dbg.declare(metadata i32* %i, metadata !5285, metadata !DIExpression()), !dbg !5287
  store i32 0, i32* %i, align 4, !dbg !5287
  br label %for.cond, !dbg !5288

for.cond:                                         ; preds = %for.inc50, %invoke.cont18
  %23 = load i32, i32* %i, align 4, !dbg !5289
  %cmp = icmp slt i32 %23, 256, !dbg !5291
  br i1 %cmp, label %for.body, label %for.end52, !dbg !5292

for.body:                                         ; preds = %for.cond
  call void @llvm.dbg.declare(metadata %class.FastState* %workstate, metadata !5293, metadata !DIExpression()), !dbg !5295
  invoke void @_ZN9FastStateC2ERKS_(%class.FastState* %workstate, %class.FastState* dereferenceable(8392) %this1)
          to label %invoke.cont19 unwind label %lpad11, !dbg !5295

invoke.cont19:                                    ; preds = %for.body
  call void @llvm.dbg.declare(metadata %class.Playout* %p, metadata !5296, metadata !DIExpression()), !dbg !5569
  invoke void @_ZN7PlayoutC1Ev(%class.Playout* %p)
          to label %invoke.cont21 unwind label %lpad20, !dbg !5569

invoke.cont21:                                    ; preds = %invoke.cont19
  invoke void @_ZN7Playout3runER9FastStateb(%class.Playout* %p, %class.FastState* dereferenceable(8392) %workstate, i1 zeroext false)
          to label %invoke.cont22 unwind label %lpad20, !dbg !5570

invoke.cont22:                                    ; preds = %invoke.cont21
  call void @llvm.dbg.declare(metadata i32* %i23, metadata !5571, metadata !DIExpression()), !dbg !5573
  store i32 0, i32* %i23, align 4, !dbg !5573
  br label %for.cond24, !dbg !5574

for.cond24:                                       ; preds = %for.inc47, %invoke.cont22
  %24 = load i32, i32* %i23, align 4, !dbg !5575
  %board = getelementptr inbounds %class.FastState, %class.FastState* %this1, i32 0, i32 0, !dbg !5577
  %25 = bitcast %class.FullBoard* %board to %class.FastBoard*, !dbg !5577
  %call26 = invoke i32 @_ZN9FastBoard13get_boardsizeEv(%class.FastBoard* %25)
          to label %invoke.cont25 unwind label %lpad20, !dbg !5578

invoke.cont25:                                    ; preds = %for.cond24
  %cmp27 = icmp slt i32 %24, %call26, !dbg !5579
  br i1 %cmp27, label %for.body28, label %for.end49, !dbg !5580

for.body28:                                       ; preds = %invoke.cont25
  call void @llvm.dbg.declare(metadata i32* %j, metadata !5581, metadata !DIExpression()), !dbg !5584
  store i32 0, i32* %j, align 4, !dbg !5584
  br label %for.cond29, !dbg !5585

for.cond29:                                       ; preds = %for.inc, %for.body28
  %26 = load i32, i32* %j, align 4, !dbg !5586
  %board30 = getelementptr inbounds %class.FastState, %class.FastState* %this1, i32 0, i32 0, !dbg !5588
  %27 = bitcast %class.FullBoard* %board30 to %class.FastBoard*, !dbg !5588
  %call32 = invoke i32 @_ZN9FastBoard13get_boardsizeEv(%class.FastBoard* %27)
          to label %invoke.cont31 unwind label %lpad20, !dbg !5589

invoke.cont31:                                    ; preds = %for.cond29
  %cmp33 = icmp slt i32 %26, %call32, !dbg !5590
  br i1 %cmp33, label %for.body34, label %for.end, !dbg !5591

for.body34:                                       ; preds = %invoke.cont31
  call void @llvm.dbg.declare(metadata i32* %vertex, metadata !5592, metadata !DIExpression()), !dbg !5594
  %board35 = getelementptr inbounds %class.FastState, %class.FastState* %this1, i32 0, i32 0, !dbg !5595
  %28 = bitcast %class.FullBoard* %board35 to %class.FastBoard*, !dbg !5595
  %29 = load i32, i32* %i23, align 4, !dbg !5596
  %30 = load i32, i32* %j, align 4, !dbg !5597
  %call37 = invoke i32 @_ZN9FastBoard10get_vertexEii(%class.FastBoard* %28, i32 %29, i32 %30)
          to label %invoke.cont36 unwind label %lpad20, !dbg !5598

invoke.cont36:                                    ; preds = %for.body34
  store i32 %call37, i32* %vertex, align 4, !dbg !5594
  call void @llvm.dbg.declare(metadata i32* %sq, metadata !5599, metadata !DIExpression()), !dbg !5600
  %board38 = getelementptr inbounds %class.FastState, %class.FastState* %this1, i32 0, i32 0, !dbg !5601
  %31 = bitcast %class.FullBoard* %board38 to %class.FastBoard*, !dbg !5601
  %32 = load i32, i32* %vertex, align 4, !dbg !5602
  %call40 = invoke i32 @_ZN9FastBoard10get_squareEi(%class.FastBoard* %31, i32 %32)
          to label %invoke.cont39 unwind label %lpad20, !dbg !5603

invoke.cont39:                                    ; preds = %invoke.cont36
  store i32 %call40, i32* %sq, align 4, !dbg !5600
  call void @llvm.dbg.declare(metadata i32* %mc_sq, metadata !5604, metadata !DIExpression()), !dbg !5605
  %board41 = getelementptr inbounds %class.FastState, %class.FastState* %workstate, i32 0, i32 0, !dbg !5606
  %33 = bitcast %class.FullBoard* %board41 to %class.FastBoard*, !dbg !5607
  %34 = load i32, i32* %vertex, align 4, !dbg !5608
  %call43 = invoke i32 @_ZN9FastBoard10get_squareEi(%class.FastBoard* %33, i32 %34)
          to label %invoke.cont42 unwind label %lpad20, !dbg !5609

invoke.cont42:                                    ; preds = %invoke.cont39
  store i32 %call43, i32* %mc_sq, align 4, !dbg !5605
  %35 = load i32, i32* %sq, align 4, !dbg !5610
  %36 = load i32, i32* %mc_sq, align 4, !dbg !5612
  %cmp44 = icmp eq i32 %35, %36, !dbg !5613
  br i1 %cmp44, label %if.then, label %if.end, !dbg !5614

if.then:                                          ; preds = %invoke.cont42
  %37 = load i32, i32* %vertex, align 4, !dbg !5615
  %conv = sext i32 %37 to i64, !dbg !5615
  %call45 = call dereferenceable(4) i32* @_ZNSt6vectorIiSaIiEEixEm(%"class.std::vector"* %survive_count, i64 %conv) #9, !dbg !5617
  %38 = load i32, i32* %call45, align 4, !dbg !5618
  %inc = add nsw i32 %38, 1, !dbg !5618
  store i32 %inc, i32* %call45, align 4, !dbg !5618
  br label %if.end, !dbg !5619

lpad:                                             ; preds = %entry
  %39 = landingpad { i8*, i32 }
          cleanup, !dbg !5620
  %40 = extractvalue { i8*, i32 } %39, 0, !dbg !5620
  store i8* %40, i8** %exn.slot, align 8, !dbg !5620
  %41 = extractvalue { i8*, i32 } %39, 1, !dbg !5620
  store i32 %41, i32* %ehselector.slot, align 4, !dbg !5620
  call void @_ZNSaIiED2Ev(%"class.std::allocator"* %ref.tmp) #9, !dbg !5273
  br label %eh.resume, !dbg !5273

lpad3:                                            ; preds = %invoke.cont
  %42 = landingpad { i8*, i32 }
          cleanup, !dbg !5620
  %43 = extractvalue { i8*, i32 } %42, 0, !dbg !5620
  store i8* %43, i8** %exn.slot, align 8, !dbg !5620
  %44 = extractvalue { i8*, i32 } %42, 1, !dbg !5620
  store i32 %44, i32* %ehselector.slot, align 4, !dbg !5620
  call void @_ZNSaIbED2Ev(%"class.std::allocator.22"* %ref.tmp2) #9, !dbg !5276
  br label %ehcleanup87, !dbg !5276

lpad11:                                           ; preds = %if.then74, %for.body66, %for.cond61, %for.cond54, %for.body, %invoke.cont12, %invoke.cont4
  %45 = landingpad { i8*, i32 }
          cleanup, !dbg !5620
  %46 = extractvalue { i8*, i32 } %45, 0, !dbg !5620
  store i8* %46, i8** %exn.slot, align 8, !dbg !5620
  %47 = extractvalue { i8*, i32 } %45, 1, !dbg !5620
  store i32 %47, i32* %ehselector.slot, align 4, !dbg !5620
  br label %ehcleanup, !dbg !5620

lpad20:                                           ; preds = %invoke.cont39, %invoke.cont36, %for.body34, %for.cond29, %for.cond24, %invoke.cont21, %invoke.cont19
  %48 = landingpad { i8*, i32 }
          cleanup, !dbg !5621
  %49 = extractvalue { i8*, i32 } %48, 0, !dbg !5621
  store i8* %49, i8** %exn.slot, align 8, !dbg !5621
  %50 = extractvalue { i8*, i32 } %48, 1, !dbg !5621
  store i32 %50, i32* %ehselector.slot, align 4, !dbg !5621
  call void @_ZN9FastStateD2Ev(%class.FastState* %workstate) #9, !dbg !5622
  br label %ehcleanup, !dbg !5622

if.end:                                           ; preds = %if.then, %invoke.cont42
  br label %for.inc, !dbg !5623

for.inc:                                          ; preds = %if.end
  %51 = load i32, i32* %j, align 4, !dbg !5624
  %inc46 = add nsw i32 %51, 1, !dbg !5624
  store i32 %inc46, i32* %j, align 4, !dbg !5624
  br label %for.cond29, !dbg !5625, !llvm.loop !5626

for.end:                                          ; preds = %invoke.cont31
  br label %for.inc47, !dbg !5628

for.inc47:                                        ; preds = %for.end
  %52 = load i32, i32* %i23, align 4, !dbg !5629
  %inc48 = add nsw i32 %52, 1, !dbg !5629
  store i32 %inc48, i32* %i23, align 4, !dbg !5629
  br label %for.cond24, !dbg !5630, !llvm.loop !5631

for.end49:                                        ; preds = %invoke.cont25
  call void @_ZN9FastStateD2Ev(%class.FastState* %workstate) #9, !dbg !5622
  br label %for.inc50, !dbg !5633

for.inc50:                                        ; preds = %for.end49
  %53 = load i32, i32* %i, align 4, !dbg !5634
  %inc51 = add nsw i32 %53, 1, !dbg !5634
  store i32 %inc51, i32* %i, align 4, !dbg !5634
  br label %for.cond, !dbg !5635, !llvm.loop !5636

for.end52:                                        ; preds = %for.cond
  call void @llvm.dbg.declare(metadata i32* %LIVE_TRESHOLD, metadata !5638, metadata !DIExpression()), !dbg !5639
  store i32 51, i32* %LIVE_TRESHOLD, align 4, !dbg !5639
  call void @llvm.dbg.declare(metadata i32* %i53, metadata !5640, metadata !DIExpression()), !dbg !5642
  store i32 0, i32* %i53, align 4, !dbg !5642
  br label %for.cond54, !dbg !5643

for.cond54:                                       ; preds = %for.inc84, %for.end52
  %54 = load i32, i32* %i53, align 4, !dbg !5644
  %board55 = getelementptr inbounds %class.FastState, %class.FastState* %this1, i32 0, i32 0, !dbg !5646
  %55 = bitcast %class.FullBoard* %board55 to %class.FastBoard*, !dbg !5646
  %call57 = invoke i32 @_ZN9FastBoard13get_boardsizeEv(%class.FastBoard* %55)
          to label %invoke.cont56 unwind label %lpad11, !dbg !5647

invoke.cont56:                                    ; preds = %for.cond54
  %cmp58 = icmp slt i32 %54, %call57, !dbg !5648
  br i1 %cmp58, label %for.body59, label %for.end86, !dbg !5649

for.body59:                                       ; preds = %invoke.cont56
  call void @llvm.dbg.declare(metadata i32* %j60, metadata !5650, metadata !DIExpression()), !dbg !5653
  store i32 0, i32* %j60, align 4, !dbg !5653
  br label %for.cond61, !dbg !5654

for.cond61:                                       ; preds = %for.inc81, %for.body59
  %56 = load i32, i32* %j60, align 4, !dbg !5655
  %board62 = getelementptr inbounds %class.FastState, %class.FastState* %this1, i32 0, i32 0, !dbg !5657
  %57 = bitcast %class.FullBoard* %board62 to %class.FastBoard*, !dbg !5657
  %call64 = invoke i32 @_ZN9FastBoard13get_boardsizeEv(%class.FastBoard* %57)
          to label %invoke.cont63 unwind label %lpad11, !dbg !5658

invoke.cont63:                                    ; preds = %for.cond61
  %cmp65 = icmp slt i32 %56, %call64, !dbg !5659
  br i1 %cmp65, label %for.body66, label %for.end83, !dbg !5660

for.body66:                                       ; preds = %invoke.cont63
  call void @llvm.dbg.declare(metadata i32* %vertex67, metadata !5661, metadata !DIExpression()), !dbg !5663
  %board68 = getelementptr inbounds %class.FastState, %class.FastState* %this1, i32 0, i32 0, !dbg !5664
  %58 = bitcast %class.FullBoard* %board68 to %class.FastBoard*, !dbg !5664
  %59 = load i32, i32* %i53, align 4, !dbg !5665
  %60 = load i32, i32* %j60, align 4, !dbg !5666
  %call70 = invoke i32 @_ZN9FastBoard10get_vertexEii(%class.FastBoard* %58, i32 %59, i32 %60)
          to label %invoke.cont69 unwind label %lpad11, !dbg !5667

invoke.cont69:                                    ; preds = %for.body66
  store i32 %call70, i32* %vertex67, align 4, !dbg !5663
  %61 = load i32, i32* %vertex67, align 4, !dbg !5668
  %conv71 = sext i32 %61 to i64, !dbg !5668
  %call72 = call dereferenceable(4) i32* @_ZNSt6vectorIiSaIiEEixEm(%"class.std::vector"* %survive_count, i64 %conv71) #9, !dbg !5670
  %62 = load i32, i32* %call72, align 4, !dbg !5670
  %cmp73 = icmp slt i32 %62, 51, !dbg !5671
  br i1 %cmp73, label %if.then74, label %if.end80, !dbg !5672

if.then74:                                        ; preds = %invoke.cont69
  %63 = load i32, i32* %vertex67, align 4, !dbg !5673
  %conv76 = sext i32 %63 to i64, !dbg !5673
  %call78 = invoke { i64*, i64 } @_ZNSt6vectorIbSaIbEEixEm(%"class.std::vector.18"* %agg.result, i64 %conv76)
          to label %invoke.cont77 unwind label %lpad11, !dbg !5675

invoke.cont77:                                    ; preds = %if.then74
  %64 = bitcast %"struct.std::_Bit_reference"* %ref.tmp75 to { i64*, i64 }*, !dbg !5675
  %65 = getelementptr inbounds { i64*, i64 }, { i64*, i64 }* %64, i32 0, i32 0, !dbg !5675
  %66 = extractvalue { i64*, i64 } %call78, 0, !dbg !5675
  store i64* %66, i64** %65, align 8, !dbg !5675
  %67 = getelementptr inbounds { i64*, i64 }, { i64*, i64 }* %64, i32 0, i32 1, !dbg !5675
  %68 = extractvalue { i64*, i64 } %call78, 1, !dbg !5675
  store i64 %68, i64* %67, align 8, !dbg !5675
  %call79 = call dereferenceable(16) %"struct.std::_Bit_reference"* @_ZNSt14_Bit_referenceaSEb(%"struct.std::_Bit_reference"* %ref.tmp75, i1 zeroext true) #9, !dbg !5676
  br label %if.end80, !dbg !5677

if.end80:                                         ; preds = %invoke.cont77, %invoke.cont69
  br label %for.inc81, !dbg !5678

for.inc81:                                        ; preds = %if.end80
  %69 = load i32, i32* %j60, align 4, !dbg !5679
  %inc82 = add nsw i32 %69, 1, !dbg !5679
  store i32 %inc82, i32* %j60, align 4, !dbg !5679
  br label %for.cond61, !dbg !5680, !llvm.loop !5681

for.end83:                                        ; preds = %invoke.cont63
  br label %for.inc84, !dbg !5683

for.inc84:                                        ; preds = %for.end83
  %70 = load i32, i32* %i53, align 4, !dbg !5684
  %inc85 = add nsw i32 %70, 1, !dbg !5684
  store i32 %inc85, i32* %i53, align 4, !dbg !5684
  br label %for.cond54, !dbg !5685, !llvm.loop !5686

for.end86:                                        ; preds = %invoke.cont56
  store i1 true, i1* %nrvo, align 1, !dbg !5688
  %nrvo.val = load i1, i1* %nrvo, align 1, !dbg !5620
  br i1 %nrvo.val, label %nrvo.skipdtor, label %nrvo.unused, !dbg !5620

nrvo.unused:                                      ; preds = %for.end86
  call void @_ZNSt6vectorIbSaIbEED2Ev(%"class.std::vector.18"* %agg.result) #9, !dbg !5620
  br label %nrvo.skipdtor, !dbg !5620

nrvo.skipdtor:                                    ; preds = %nrvo.unused, %for.end86
  call void @_ZNSt6vectorIiSaIiEED2Ev(%"class.std::vector"* %survive_count) #9, !dbg !5620
  ret void, !dbg !5620

ehcleanup:                                        ; preds = %lpad20, %lpad11
  call void @_ZNSt6vectorIbSaIbEED2Ev(%"class.std::vector.18"* %agg.result) #9, !dbg !5620
  br label %ehcleanup87, !dbg !5620

ehcleanup87:                                      ; preds = %ehcleanup, %lpad3
  call void @_ZNSt6vectorIiSaIiEED2Ev(%"class.std::vector"* %survive_count) #9, !dbg !5620
  br label %eh.resume, !dbg !5620

eh.resume:                                        ; preds = %ehcleanup87, %lpad
  %exn = load i8*, i8** %exn.slot, align 8, !dbg !5273
  %sel = load i32, i32* %ehselector.slot, align 4, !dbg !5273
  %lpad.val = insertvalue { i8*, i32 } undef, i8* %exn, 0, !dbg !5273
  %lpad.val88 = insertvalue { i8*, i32 } %lpad.val, i32 %sel, 1, !dbg !5273
  resume { i8*, i32 } %lpad.val88, !dbg !5273
}

; Function Attrs: noinline nounwind uwtable
define linkonce_odr dso_local void @_ZNSaIiEC2Ev(%"class.std::allocator"* %this) unnamed_addr #3 comdat align 2 !dbg !5689 {
entry:
  %this.addr = alloca %"class.std::allocator"*, align 8
  store %"class.std::allocator"* %this, %"class.std::allocator"** %this.addr, align 8
  call void @llvm.dbg.declare(metadata %"class.std::allocator"** %this.addr, metadata !5690, metadata !DIExpression()), !dbg !5692
  %this1 = load %"class.std::allocator"*, %"class.std::allocator"** %this.addr, align 8
  %0 = bitcast %"class.std::allocator"* %this1 to %"class.__gnu_cxx::new_allocator"*, !dbg !5693
  call void @_ZN9__gnu_cxx13new_allocatorIiEC2Ev(%"class.__gnu_cxx::new_allocator"* %0) #9, !dbg !5694
  ret void, !dbg !5695
}

; Function Attrs: noinline uwtable
define linkonce_odr dso_local void @_ZNSt6vectorIiSaIiEEC2EmRKS0_(%"class.std::vector"* %this, i64 %__n, %"class.std::allocator"* dereferenceable(1) %__a) unnamed_addr #0 comdat align 2 personality i8* bitcast (i32 (...)* @__gxx_personality_v0 to i8*) !dbg !5696 {
entry:
  %this.addr = alloca %"class.std::vector"*, align 8
  %__n.addr = alloca i64, align 8
  %__a.addr = alloca %"class.std::allocator"*, align 8
  %exn.slot = alloca i8*
  %ehselector.slot = alloca i32
  store %"class.std::vector"* %this, %"class.std::vector"** %this.addr, align 8
  call void @llvm.dbg.declare(metadata %"class.std::vector"** %this.addr, metadata !5697, metadata !DIExpression()), !dbg !5698
  store i64 %__n, i64* %__n.addr, align 8
  call void @llvm.dbg.declare(metadata i64* %__n.addr, metadata !5699, metadata !DIExpression()), !dbg !5700
  store %"class.std::allocator"* %__a, %"class.std::allocator"** %__a.addr, align 8
  call void @llvm.dbg.declare(metadata %"class.std::allocator"** %__a.addr, metadata !5701, metadata !DIExpression()), !dbg !5702
  %this1 = load %"class.std::vector"*, %"class.std::vector"** %this.addr, align 8
  %0 = bitcast %"class.std::vector"* %this1 to %"struct.std::_Vector_base"*, !dbg !5703
  %1 = load i64, i64* %__n.addr, align 8, !dbg !5704
  %2 = load %"class.std::allocator"*, %"class.std::allocator"** %__a.addr, align 8, !dbg !5705
  %call = call i64 @_ZNSt6vectorIiSaIiEE17_S_check_init_lenEmRKS0_(i64 %1, %"class.std::allocator"* dereferenceable(1) %2), !dbg !5706
  %3 = load %"class.std::allocator"*, %"class.std::allocator"** %__a.addr, align 8, !dbg !5707
  call void @_ZNSt12_Vector_baseIiSaIiEEC2EmRKS0_(%"struct.std::_Vector_base"* %0, i64 %call, %"class.std::allocator"* dereferenceable(1) %3), !dbg !5708
  %4 = load i64, i64* %__n.addr, align 8, !dbg !5709
  invoke void @_ZNSt6vectorIiSaIiEE21_M_default_initializeEm(%"class.std::vector"* %this1, i64 %4)
          to label %invoke.cont unwind label %lpad, !dbg !5711

invoke.cont:                                      ; preds = %entry
  ret void, !dbg !5712

lpad:                                             ; preds = %entry
  %5 = landingpad { i8*, i32 }
          cleanup, !dbg !5713
  %6 = extractvalue { i8*, i32 } %5, 0, !dbg !5713
  store i8* %6, i8** %exn.slot, align 8, !dbg !5713
  %7 = extractvalue { i8*, i32 } %5, 1, !dbg !5713
  store i32 %7, i32* %ehselector.slot, align 4, !dbg !5713
  %8 = bitcast %"class.std::vector"* %this1 to %"struct.std::_Vector_base"*, !dbg !5713
  call void @_ZNSt12_Vector_baseIiSaIiEED2Ev(%"struct.std::_Vector_base"* %8) #9, !dbg !5713
  br label %eh.resume, !dbg !5713

eh.resume:                                        ; preds = %lpad
  %exn = load i8*, i8** %exn.slot, align 8, !dbg !5713
  %sel = load i32, i32* %ehselector.slot, align 4, !dbg !5713
  %lpad.val = insertvalue { i8*, i32 } undef, i8* %exn, 0, !dbg !5713
  %lpad.val2 = insertvalue { i8*, i32 } %lpad.val, i32 %sel, 1, !dbg !5713
  resume { i8*, i32 } %lpad.val2, !dbg !5713
}

; Function Attrs: noinline nounwind uwtable
define linkonce_odr dso_local void @_ZNSaIiED2Ev(%"class.std::allocator"* %this) unnamed_addr #3 comdat align 2 !dbg !5714 {
entry:
  %this.addr = alloca %"class.std::allocator"*, align 8
  store %"class.std::allocator"* %this, %"class.std::allocator"** %this.addr, align 8
  call void @llvm.dbg.declare(metadata %"class.std::allocator"** %this.addr, metadata !5715, metadata !DIExpression()), !dbg !5716
  %this1 = load %"class.std::allocator"*, %"class.std::allocator"** %this.addr, align 8
  %0 = bitcast %"class.std::allocator"* %this1 to %"class.__gnu_cxx::new_allocator"*, !dbg !5717
  call void @_ZN9__gnu_cxx13new_allocatorIiED2Ev(%"class.__gnu_cxx::new_allocator"* %0) #9, !dbg !5717
  ret void, !dbg !5719
}

; Function Attrs: noinline nounwind uwtable
define linkonce_odr dso_local void @_ZNSaIbEC2Ev(%"class.std::allocator.22"* %this) unnamed_addr #3 comdat align 2 !dbg !5720 {
entry:
  %this.addr = alloca %"class.std::allocator.22"*, align 8
  store %"class.std::allocator.22"* %this, %"class.std::allocator.22"** %this.addr, align 8
  call void @llvm.dbg.declare(metadata %"class.std::allocator.22"** %this.addr, metadata !5721, metadata !DIExpression()), !dbg !5723
  %this1 = load %"class.std::allocator.22"*, %"class.std::allocator.22"** %this.addr, align 8
  %0 = bitcast %"class.std::allocator.22"* %this1 to %"class.__gnu_cxx::new_allocator.23"*, !dbg !5724
  call void @_ZN9__gnu_cxx13new_allocatorIbEC2Ev(%"class.__gnu_cxx::new_allocator.23"* %0) #9, !dbg !5725
  ret void, !dbg !5726
}

; Function Attrs: noinline uwtable
define linkonce_odr dso_local void @_ZNSt6vectorIbSaIbEEC2EmRKS0_(%"class.std::vector.18"* %this, i64 %__n, %"class.std::allocator.22"* dereferenceable(1) %__a) unnamed_addr #0 comdat align 2 !dbg !5727 {
entry:
  %this.addr = alloca %"class.std::vector.18"*, align 8
  %__n.addr = alloca i64, align 8
  %__a.addr = alloca %"class.std::allocator.22"*, align 8
  %ref.tmp = alloca i8, align 1
  store %"class.std::vector.18"* %this, %"class.std::vector.18"** %this.addr, align 8
  call void @llvm.dbg.declare(metadata %"class.std::vector.18"** %this.addr, metadata !5728, metadata !DIExpression()), !dbg !5730
  store i64 %__n, i64* %__n.addr, align 8
  call void @llvm.dbg.declare(metadata i64* %__n.addr, metadata !5731, metadata !DIExpression()), !dbg !5732
  store %"class.std::allocator.22"* %__a, %"class.std::allocator.22"** %__a.addr, align 8
  call void @llvm.dbg.declare(metadata %"class.std::allocator.22"** %__a.addr, metadata !5733, metadata !DIExpression()), !dbg !5734
  %this1 = load %"class.std::vector.18"*, %"class.std::vector.18"** %this.addr, align 8
  %0 = load i64, i64* %__n.addr, align 8, !dbg !5735
  store i8 0, i8* %ref.tmp, align 1, !dbg !5736
  %1 = load %"class.std::allocator.22"*, %"class.std::allocator.22"** %__a.addr, align 8, !dbg !5737
  call void @_ZNSt6vectorIbSaIbEEC2EmRKbRKS0_(%"class.std::vector.18"* %this1, i64 %0, i8* dereferenceable(1) %ref.tmp, %"class.std::allocator.22"* dereferenceable(1) %1), !dbg !5738
  ret void, !dbg !5739
}

; Function Attrs: noinline nounwind uwtable
define linkonce_odr dso_local void @_ZNSaIbED2Ev(%"class.std::allocator.22"* %this) unnamed_addr #3 comdat align 2 !dbg !5740 {
entry:
  %this.addr = alloca %"class.std::allocator.22"*, align 8
  store %"class.std::allocator.22"* %this, %"class.std::allocator.22"** %this.addr, align 8
  call void @llvm.dbg.declare(metadata %"class.std::allocator.22"** %this.addr, metadata !5741, metadata !DIExpression()), !dbg !5742
  %this1 = load %"class.std::allocator.22"*, %"class.std::allocator.22"** %this.addr, align 8
  %0 = bitcast %"class.std::allocator.22"* %this1 to %"class.__gnu_cxx::new_allocator.23"*, !dbg !5743
  call void @_ZN9__gnu_cxx13new_allocatorIbED2Ev(%"class.__gnu_cxx::new_allocator.23"* %0) #9, !dbg !5743
  ret void, !dbg !5745
}

; Function Attrs: noinline uwtable
define linkonce_odr dso_local void @_ZSt4fillIN9__gnu_cxx17__normal_iteratorIPiSt6vectorIiSaIiEEEEiEvT_S7_RKT0_(i32* %__first.coerce, i32* %__last.coerce, i32* dereferenceable(4) %__value) #0 comdat !dbg !5746 {
entry:
  %__first = alloca %"class.__gnu_cxx::__normal_iterator", align 8
  %__last = alloca %"class.__gnu_cxx::__normal_iterator", align 8
  %__value.addr = alloca i32*, align 8
  %agg.tmp = alloca %"class.__gnu_cxx::__normal_iterator", align 8
  %agg.tmp2 = alloca %"class.__gnu_cxx::__normal_iterator", align 8
  %coerce.dive = getelementptr inbounds %"class.__gnu_cxx::__normal_iterator", %"class.__gnu_cxx::__normal_iterator"* %__first, i32 0, i32 0
  store i32* %__first.coerce, i32** %coerce.dive, align 8
  %coerce.dive1 = getelementptr inbounds %"class.__gnu_cxx::__normal_iterator", %"class.__gnu_cxx::__normal_iterator"* %__last, i32 0, i32 0
  store i32* %__last.coerce, i32** %coerce.dive1, align 8
  call void @llvm.dbg.declare(metadata %"class.__gnu_cxx::__normal_iterator"* %__first, metadata !5752, metadata !DIExpression()), !dbg !5754
  call void @llvm.dbg.declare(metadata %"class.__gnu_cxx::__normal_iterator"* %__last, metadata !5755, metadata !DIExpression()), !dbg !5756
  store i32* %__value, i32** %__value.addr, align 8
  call void @llvm.dbg.declare(metadata i32** %__value.addr, metadata !5757, metadata !DIExpression()), !dbg !5758
  %0 = bitcast %"class.__gnu_cxx::__normal_iterator"* %agg.tmp to i8*, !dbg !5759
  %1 = bitcast %"class.__gnu_cxx::__normal_iterator"* %__first to i8*, !dbg !5759
  call void @llvm.memcpy.p0i8.p0i8.i64(i8* align 8 %0, i8* align 8 %1, i64 8, i1 false), !dbg !5759
  %2 = bitcast %"class.__gnu_cxx::__normal_iterator"* %agg.tmp2 to i8*, !dbg !5760
  %3 = bitcast %"class.__gnu_cxx::__normal_iterator"* %__last to i8*, !dbg !5760
  call void @llvm.memcpy.p0i8.p0i8.i64(i8* align 8 %2, i8* align 8 %3, i64 8, i1 false), !dbg !5760
  %4 = load i32*, i32** %__value.addr, align 8, !dbg !5761
  %coerce.dive3 = getelementptr inbounds %"class.__gnu_cxx::__normal_iterator", %"class.__gnu_cxx::__normal_iterator"* %agg.tmp, i32 0, i32 0, !dbg !5762
  %5 = load i32*, i32** %coerce.dive3, align 8, !dbg !5762
  %coerce.dive4 = getelementptr inbounds %"class.__gnu_cxx::__normal_iterator", %"class.__gnu_cxx::__normal_iterator"* %agg.tmp2, i32 0, i32 0, !dbg !5762
  %6 = load i32*, i32** %coerce.dive4, align 8, !dbg !5762
  call void @_ZSt8__fill_aIN9__gnu_cxx17__normal_iteratorIPiSt6vectorIiSaIiEEEEiEvT_S7_RKT0_(i32* %5, i32* %6, i32* dereferenceable(4) %4), !dbg !5762
  ret void, !dbg !5763
}

; Function Attrs: noinline nounwind uwtable
define linkonce_odr dso_local i32* @_ZNSt6vectorIiSaIiEE5beginEv(%"class.std::vector"* %this) #3 comdat align 2 !dbg !5764 {
entry:
  %retval = alloca %"class.__gnu_cxx::__normal_iterator", align 8
  %this.addr = alloca %"class.std::vector"*, align 8
  store %"class.std::vector"* %this, %"class.std::vector"** %this.addr, align 8
  call void @llvm.dbg.declare(metadata %"class.std::vector"** %this.addr, metadata !5765, metadata !DIExpression()), !dbg !5766
  %this1 = load %"class.std::vector"*, %"class.std::vector"** %this.addr, align 8
  %0 = bitcast %"class.std::vector"* %this1 to %"struct.std::_Vector_base"*, !dbg !5767
  %_M_impl = getelementptr inbounds %"struct.std::_Vector_base", %"struct.std::_Vector_base"* %0, i32 0, i32 0, !dbg !5767
  %1 = bitcast %"struct.std::_Vector_base<int, std::allocator<int> >::_Vector_impl"* %_M_impl to %"struct.std::_Vector_base<int, std::allocator<int> >::_Vector_impl_data"*, !dbg !5768
  %_M_start = getelementptr inbounds %"struct.std::_Vector_base<int, std::allocator<int> >::_Vector_impl_data", %"struct.std::_Vector_base<int, std::allocator<int> >::_Vector_impl_data"* %1, i32 0, i32 0, !dbg !5769
  call void @_ZN9__gnu_cxx17__normal_iteratorIPiSt6vectorIiSaIiEEEC2ERKS1_(%"class.__gnu_cxx::__normal_iterator"* %retval, i32** dereferenceable(8) %_M_start) #9, !dbg !5770
  %coerce.dive = getelementptr inbounds %"class.__gnu_cxx::__normal_iterator", %"class.__gnu_cxx::__normal_iterator"* %retval, i32 0, i32 0, !dbg !5771
  %2 = load i32*, i32** %coerce.dive, align 8, !dbg !5771
  ret i32* %2, !dbg !5771
}

; Function Attrs: noinline nounwind uwtable
define linkonce_odr dso_local i32* @_ZNSt6vectorIiSaIiEE3endEv(%"class.std::vector"* %this) #3 comdat align 2 !dbg !5772 {
entry:
  %retval = alloca %"class.__gnu_cxx::__normal_iterator", align 8
  %this.addr = alloca %"class.std::vector"*, align 8
  store %"class.std::vector"* %this, %"class.std::vector"** %this.addr, align 8
  call void @llvm.dbg.declare(metadata %"class.std::vector"** %this.addr, metadata !5773, metadata !DIExpression()), !dbg !5774
  %this1 = load %"class.std::vector"*, %"class.std::vector"** %this.addr, align 8
  %0 = bitcast %"class.std::vector"* %this1 to %"struct.std::_Vector_base"*, !dbg !5775
  %_M_impl = getelementptr inbounds %"struct.std::_Vector_base", %"struct.std::_Vector_base"* %0, i32 0, i32 0, !dbg !5775
  %1 = bitcast %"struct.std::_Vector_base<int, std::allocator<int> >::_Vector_impl"* %_M_impl to %"struct.std::_Vector_base<int, std::allocator<int> >::_Vector_impl_data"*, !dbg !5776
  %_M_finish = getelementptr inbounds %"struct.std::_Vector_base<int, std::allocator<int> >::_Vector_impl_data", %"struct.std::_Vector_base<int, std::allocator<int> >::_Vector_impl_data"* %1, i32 0, i32 1, !dbg !5777
  call void @_ZN9__gnu_cxx17__normal_iteratorIPiSt6vectorIiSaIiEEEC2ERKS1_(%"class.__gnu_cxx::__normal_iterator"* %retval, i32** dereferenceable(8) %_M_finish) #9, !dbg !5778
  %coerce.dive = getelementptr inbounds %"class.__gnu_cxx::__normal_iterator", %"class.__gnu_cxx::__normal_iterator"* %retval, i32 0, i32 0, !dbg !5779
  %2 = load i32*, i32** %coerce.dive, align 8, !dbg !5779
  ret i32* %2, !dbg !5779
}

; Function Attrs: noinline uwtable
define linkonce_odr dso_local void @_ZSt4fillSt13_Bit_iteratorS_RKb(i64* %__first.coerce0, i32 %__first.coerce1, i64* %__last.coerce0, i32 %__last.coerce1, i8* dereferenceable(1) %__x) #0 comdat !dbg !5780 {
entry:
  %__first = alloca %"struct.std::_Bit_iterator", align 8
  %__last = alloca %"struct.std::_Bit_iterator", align 8
  %__x.addr = alloca i8*, align 8
  %__first_p = alloca i64*, align 8
  %0 = bitcast %"struct.std::_Bit_iterator"* %__first to { i64*, i32 }*
  %1 = getelementptr inbounds { i64*, i32 }, { i64*, i32 }* %0, i32 0, i32 0
  store i64* %__first.coerce0, i64** %1, align 8
  %2 = getelementptr inbounds { i64*, i32 }, { i64*, i32 }* %0, i32 0, i32 1
  store i32 %__first.coerce1, i32* %2, align 8
  %3 = bitcast %"struct.std::_Bit_iterator"* %__last to { i64*, i32 }*
  %4 = getelementptr inbounds { i64*, i32 }, { i64*, i32 }* %3, i32 0, i32 0
  store i64* %__last.coerce0, i64** %4, align 8
  %5 = getelementptr inbounds { i64*, i32 }, { i64*, i32 }* %3, i32 0, i32 1
  store i32 %__last.coerce1, i32* %5, align 8
  call void @llvm.dbg.declare(metadata %"struct.std::_Bit_iterator"* %__first, metadata !5783, metadata !DIExpression()), !dbg !5784
  call void @llvm.dbg.declare(metadata %"struct.std::_Bit_iterator"* %__last, metadata !5785, metadata !DIExpression()), !dbg !5786
  store i8* %__x, i8** %__x.addr, align 8
  call void @llvm.dbg.declare(metadata i8** %__x.addr, metadata !5787, metadata !DIExpression()), !dbg !5788
  %6 = bitcast %"struct.std::_Bit_iterator"* %__first to %"struct.std::_Bit_iterator_base"*, !dbg !5789
  %_M_p = getelementptr inbounds %"struct.std::_Bit_iterator_base", %"struct.std::_Bit_iterator_base"* %6, i32 0, i32 0, !dbg !5791
  %7 = load i64*, i64** %_M_p, align 8, !dbg !5791
  %8 = bitcast %"struct.std::_Bit_iterator"* %__last to %"struct.std::_Bit_iterator_base"*, !dbg !5792
  %_M_p1 = getelementptr inbounds %"struct.std::_Bit_iterator_base", %"struct.std::_Bit_iterator_base"* %8, i32 0, i32 0, !dbg !5793
  %9 = load i64*, i64** %_M_p1, align 8, !dbg !5793
  %cmp = icmp ne i64* %7, %9, !dbg !5794
  br i1 %cmp, label %if.then, label %if.else, !dbg !5795

if.then:                                          ; preds = %entry
  call void @llvm.dbg.declare(metadata i64** %__first_p, metadata !5796, metadata !DIExpression()), !dbg !5798
  %10 = bitcast %"struct.std::_Bit_iterator"* %__first to %"struct.std::_Bit_iterator_base"*, !dbg !5799
  %_M_p2 = getelementptr inbounds %"struct.std::_Bit_iterator_base", %"struct.std::_Bit_iterator_base"* %10, i32 0, i32 0, !dbg !5800
  %11 = load i64*, i64** %_M_p2, align 8, !dbg !5800
  store i64* %11, i64** %__first_p, align 8, !dbg !5798
  %12 = bitcast %"struct.std::_Bit_iterator"* %__first to %"struct.std::_Bit_iterator_base"*, !dbg !5801
  %_M_offset = getelementptr inbounds %"struct.std::_Bit_iterator_base", %"struct.std::_Bit_iterator_base"* %12, i32 0, i32 1, !dbg !5803
  %13 = load i32, i32* %_M_offset, align 8, !dbg !5803
  %cmp3 = icmp ne i32 %13, 0, !dbg !5804
  br i1 %cmp3, label %if.then4, label %if.end, !dbg !5805

if.then4:                                         ; preds = %if.then
  %14 = load i64*, i64** %__first_p, align 8, !dbg !5806
  %incdec.ptr = getelementptr inbounds i64, i64* %14, i32 1, !dbg !5806
  store i64* %incdec.ptr, i64** %__first_p, align 8, !dbg !5806
  %15 = bitcast %"struct.std::_Bit_iterator"* %__first to %"struct.std::_Bit_iterator_base"*, !dbg !5807
  %_M_offset5 = getelementptr inbounds %"struct.std::_Bit_iterator_base", %"struct.std::_Bit_iterator_base"* %15, i32 0, i32 1, !dbg !5808
  %16 = load i32, i32* %_M_offset5, align 8, !dbg !5808
  %17 = load i8*, i8** %__x.addr, align 8, !dbg !5809
  %18 = load i8, i8* %17, align 1, !dbg !5809
  %tobool = trunc i8 %18 to i1, !dbg !5809
  call void @_ZSt14__fill_bvectorPmjjb(i64* %14, i32 %16, i32 64, i1 zeroext %tobool), !dbg !5810
  br label %if.end, !dbg !5810

if.end:                                           ; preds = %if.then4, %if.then
  %19 = load i64*, i64** %__first_p, align 8, !dbg !5811
  %20 = bitcast i64* %19 to i8*, !dbg !5812
  %21 = load i8*, i8** %__x.addr, align 8, !dbg !5813
  %22 = load i8, i8* %21, align 1, !dbg !5813
  %tobool6 = trunc i8 %22 to i1, !dbg !5813
  %23 = zext i1 %tobool6 to i64, !dbg !5813
  %cond = select i1 %tobool6, i32 -1, i32 0, !dbg !5813
  %24 = trunc i32 %cond to i8, !dbg !5812
  %25 = bitcast %"struct.std::_Bit_iterator"* %__last to %"struct.std::_Bit_iterator_base"*, !dbg !5814
  %_M_p7 = getelementptr inbounds %"struct.std::_Bit_iterator_base", %"struct.std::_Bit_iterator_base"* %25, i32 0, i32 0, !dbg !5815
  %26 = load i64*, i64** %_M_p7, align 8, !dbg !5815
  %27 = load i64*, i64** %__first_p, align 8, !dbg !5816
  %sub.ptr.lhs.cast = ptrtoint i64* %26 to i64, !dbg !5817
  %sub.ptr.rhs.cast = ptrtoint i64* %27 to i64, !dbg !5817
  %sub.ptr.sub = sub i64 %sub.ptr.lhs.cast, %sub.ptr.rhs.cast, !dbg !5817
  %sub.ptr.div = sdiv exact i64 %sub.ptr.sub, 8, !dbg !5817
  %mul = mul i64 %sub.ptr.div, 8, !dbg !5818
  call void @llvm.memset.p0i8.i64(i8* align 8 %20, i8 %24, i64 %mul, i1 false), !dbg !5812
  %28 = bitcast %"struct.std::_Bit_iterator"* %__last to %"struct.std::_Bit_iterator_base"*, !dbg !5819
  %_M_offset8 = getelementptr inbounds %"struct.std::_Bit_iterator_base", %"struct.std::_Bit_iterator_base"* %28, i32 0, i32 1, !dbg !5821
  %29 = load i32, i32* %_M_offset8, align 8, !dbg !5821
  %cmp9 = icmp ne i32 %29, 0, !dbg !5822
  br i1 %cmp9, label %if.then10, label %if.end14, !dbg !5823

if.then10:                                        ; preds = %if.end
  %30 = bitcast %"struct.std::_Bit_iterator"* %__last to %"struct.std::_Bit_iterator_base"*, !dbg !5824
  %_M_p11 = getelementptr inbounds %"struct.std::_Bit_iterator_base", %"struct.std::_Bit_iterator_base"* %30, i32 0, i32 0, !dbg !5825
  %31 = load i64*, i64** %_M_p11, align 8, !dbg !5825
  %32 = bitcast %"struct.std::_Bit_iterator"* %__last to %"struct.std::_Bit_iterator_base"*, !dbg !5826
  %_M_offset12 = getelementptr inbounds %"struct.std::_Bit_iterator_base", %"struct.std::_Bit_iterator_base"* %32, i32 0, i32 1, !dbg !5827
  %33 = load i32, i32* %_M_offset12, align 8, !dbg !5827
  %34 = load i8*, i8** %__x.addr, align 8, !dbg !5828
  %35 = load i8, i8* %34, align 1, !dbg !5828
  %tobool13 = trunc i8 %35 to i1, !dbg !5828
  call void @_ZSt14__fill_bvectorPmjjb(i64* %31, i32 0, i32 %33, i1 zeroext %tobool13), !dbg !5829
  br label %if.end14, !dbg !5829

if.end14:                                         ; preds = %if.then10, %if.end
  br label %if.end24, !dbg !5830

if.else:                                          ; preds = %entry
  %36 = bitcast %"struct.std::_Bit_iterator"* %__first to %"struct.std::_Bit_iterator_base"*, !dbg !5831
  %_M_offset15 = getelementptr inbounds %"struct.std::_Bit_iterator_base", %"struct.std::_Bit_iterator_base"* %36, i32 0, i32 1, !dbg !5833
  %37 = load i32, i32* %_M_offset15, align 8, !dbg !5833
  %38 = bitcast %"struct.std::_Bit_iterator"* %__last to %"struct.std::_Bit_iterator_base"*, !dbg !5834
  %_M_offset16 = getelementptr inbounds %"struct.std::_Bit_iterator_base", %"struct.std::_Bit_iterator_base"* %38, i32 0, i32 1, !dbg !5835
  %39 = load i32, i32* %_M_offset16, align 8, !dbg !5835
  %cmp17 = icmp ne i32 %37, %39, !dbg !5836
  br i1 %cmp17, label %if.then18, label %if.end23, !dbg !5837

if.then18:                                        ; preds = %if.else
  %40 = bitcast %"struct.std::_Bit_iterator"* %__first to %"struct.std::_Bit_iterator_base"*, !dbg !5838
  %_M_p19 = getelementptr inbounds %"struct.std::_Bit_iterator_base", %"struct.std::_Bit_iterator_base"* %40, i32 0, i32 0, !dbg !5839
  %41 = load i64*, i64** %_M_p19, align 8, !dbg !5839
  %42 = bitcast %"struct.std::_Bit_iterator"* %__first to %"struct.std::_Bit_iterator_base"*, !dbg !5840
  %_M_offset20 = getelementptr inbounds %"struct.std::_Bit_iterator_base", %"struct.std::_Bit_iterator_base"* %42, i32 0, i32 1, !dbg !5841
  %43 = load i32, i32* %_M_offset20, align 8, !dbg !5841
  %44 = bitcast %"struct.std::_Bit_iterator"* %__last to %"struct.std::_Bit_iterator_base"*, !dbg !5842
  %_M_offset21 = getelementptr inbounds %"struct.std::_Bit_iterator_base", %"struct.std::_Bit_iterator_base"* %44, i32 0, i32 1, !dbg !5843
  %45 = load i32, i32* %_M_offset21, align 8, !dbg !5843
  %46 = load i8*, i8** %__x.addr, align 8, !dbg !5844
  %47 = load i8, i8* %46, align 1, !dbg !5844
  %tobool22 = trunc i8 %47 to i1, !dbg !5844
  call void @_ZSt14__fill_bvectorPmjjb(i64* %41, i32 %43, i32 %45, i1 zeroext %tobool22), !dbg !5845
  br label %if.end23, !dbg !5845

if.end23:                                         ; preds = %if.then18, %if.else
  br label %if.end24

if.end24:                                         ; preds = %if.end23, %if.end14
  ret void, !dbg !5846
}

; Function Attrs: noinline nounwind uwtable
define linkonce_odr dso_local { i64*, i32 } @_ZNSt6vectorIbSaIbEE5beginEv(%"class.std::vector.18"* %this) #3 comdat align 2 personality i8* bitcast (i32 (...)* @__gxx_personality_v0 to i8*) !dbg !5847 {
entry:
  %retval = alloca %"struct.std::_Bit_iterator", align 8
  %this.addr = alloca %"class.std::vector.18"*, align 8
  store %"class.std::vector.18"* %this, %"class.std::vector.18"** %this.addr, align 8
  call void @llvm.dbg.declare(metadata %"class.std::vector.18"** %this.addr, metadata !5848, metadata !DIExpression()), !dbg !5849
  %this1 = load %"class.std::vector.18"*, %"class.std::vector.18"** %this.addr, align 8
  %0 = bitcast %"class.std::vector.18"* %this1 to %"struct.std::_Bvector_base"*, !dbg !5850
  %_M_impl = getelementptr inbounds %"struct.std::_Bvector_base", %"struct.std::_Bvector_base"* %0, i32 0, i32 0, !dbg !5850
  %1 = bitcast %"struct.std::_Bvector_base<std::allocator<bool> >::_Bvector_impl"* %_M_impl to %"struct.std::_Bvector_base<std::allocator<bool> >::_Bvector_impl_data"*, !dbg !5851
  %_M_start = getelementptr inbounds %"struct.std::_Bvector_base<std::allocator<bool> >::_Bvector_impl_data", %"struct.std::_Bvector_base<std::allocator<bool> >::_Bvector_impl_data"* %1, i32 0, i32 0, !dbg !5852
  %2 = bitcast %"struct.std::_Bit_iterator"* %_M_start to %"struct.std::_Bit_iterator_base"*, !dbg !5851
  %_M_p = getelementptr inbounds %"struct.std::_Bit_iterator_base", %"struct.std::_Bit_iterator_base"* %2, i32 0, i32 0, !dbg !5853
  %3 = load i64*, i64** %_M_p, align 8, !dbg !5853
  invoke void @_ZNSt13_Bit_iteratorC2EPmj(%"struct.std::_Bit_iterator"* %retval, i64* %3, i32 0)
          to label %invoke.cont unwind label %terminate.lpad, !dbg !5854

invoke.cont:                                      ; preds = %entry
  %4 = bitcast %"struct.std::_Bit_iterator"* %retval to { i64*, i32 }*, !dbg !5855
  %5 = load { i64*, i32 }, { i64*, i32 }* %4, align 8, !dbg !5855
  ret { i64*, i32 } %5, !dbg !5855

terminate.lpad:                                   ; preds = %entry
  %6 = landingpad { i8*, i32 }
          catch i8* null, !dbg !5854
  %7 = extractvalue { i8*, i32 } %6, 0, !dbg !5854
  call void @__clang_call_terminate(i8* %7) #11, !dbg !5854
  unreachable, !dbg !5854
}

; Function Attrs: noinline nounwind uwtable
define linkonce_odr dso_local { i64*, i32 } @_ZNSt6vectorIbSaIbEE3endEv(%"class.std::vector.18"* %this) #3 comdat align 2 !dbg !5856 {
entry:
  %retval = alloca %"struct.std::_Bit_iterator", align 8
  %this.addr = alloca %"class.std::vector.18"*, align 8
  store %"class.std::vector.18"* %this, %"class.std::vector.18"** %this.addr, align 8
  call void @llvm.dbg.declare(metadata %"class.std::vector.18"** %this.addr, metadata !5857, metadata !DIExpression()), !dbg !5858
  %this1 = load %"class.std::vector.18"*, %"class.std::vector.18"** %this.addr, align 8
  %0 = bitcast %"class.std::vector.18"* %this1 to %"struct.std::_Bvector_base"*, !dbg !5859
  %_M_impl = getelementptr inbounds %"struct.std::_Bvector_base", %"struct.std::_Bvector_base"* %0, i32 0, i32 0, !dbg !5859
  %1 = bitcast %"struct.std::_Bvector_base<std::allocator<bool> >::_Bvector_impl"* %_M_impl to %"struct.std::_Bvector_base<std::allocator<bool> >::_Bvector_impl_data"*, !dbg !5860
  %_M_finish = getelementptr inbounds %"struct.std::_Bvector_base<std::allocator<bool> >::_Bvector_impl_data", %"struct.std::_Bvector_base<std::allocator<bool> >::_Bvector_impl_data"* %1, i32 0, i32 1, !dbg !5861
  %2 = bitcast %"struct.std::_Bit_iterator"* %retval to i8*, !dbg !5860
  %3 = bitcast %"struct.std::_Bit_iterator"* %_M_finish to i8*, !dbg !5860
  call void @llvm.memcpy.p0i8.p0i8.i64(i8* align 8 %2, i8* align 8 %3, i64 16, i1 false), !dbg !5860
  %4 = bitcast %"struct.std::_Bit_iterator"* %retval to { i64*, i32 }*, !dbg !5862
  %5 = load { i64*, i32 }, { i64*, i32 }* %4, align 8, !dbg !5862
  ret { i64*, i32 } %5, !dbg !5862
}

; Function Attrs: noinline uwtable
define linkonce_odr dso_local void @_ZN9FastStateC2ERKS_(%class.FastState* %this, %class.FastState* dereferenceable(8392) %0) unnamed_addr #0 comdat align 2 !dbg !5863 {
entry:
  %this.addr = alloca %class.FastState*, align 8
  %.addr = alloca %class.FastState*, align 8
  store %class.FastState* %this, %class.FastState** %this.addr, align 8
  call void @llvm.dbg.declare(metadata %class.FastState** %this.addr, metadata !5869, metadata !DIExpression()), !dbg !5870
  store %class.FastState* %0, %class.FastState** %.addr, align 8
  call void @llvm.dbg.declare(metadata %class.FastState** %.addr, metadata !5871, metadata !DIExpression()), !dbg !5870
  %this1 = load %class.FastState*, %class.FastState** %this.addr, align 8
  %board = getelementptr inbounds %class.FastState, %class.FastState* %this1, i32 0, i32 0, !dbg !5872
  %1 = load %class.FastState*, %class.FastState** %.addr, align 8, !dbg !5872
  %board2 = getelementptr inbounds %class.FastState, %class.FastState* %1, i32 0, i32 0, !dbg !5872
  call void @_ZN9FullBoardC2ERKS_(%class.FullBoard* %board, %class.FullBoard* dereferenceable(8072) %board2), !dbg !5872
  %m_komi = getelementptr inbounds %class.FastState, %class.FastState* %this1, i32 0, i32 1, !dbg !5872
  %2 = load %class.FastState*, %class.FastState** %.addr, align 8, !dbg !5872
  %m_komi3 = getelementptr inbounds %class.FastState, %class.FastState* %2, i32 0, i32 1, !dbg !5872
  %3 = bitcast float* %m_komi to i8*, !dbg !5872
  %4 = bitcast float* %m_komi3 to i8*, !dbg !5872
  call void @llvm.memcpy.p0i8.p0i8.i64(i8* align 8 %3, i8* align 8 %4, i64 316, i1 false), !dbg !5872
  ret void, !dbg !5872
}

declare dso_local void @_ZN7PlayoutC1Ev(%class.Playout*) unnamed_addr #2

declare dso_local void @_ZN7Playout3runER9FastStateb(%class.Playout*, %class.FastState* dereferenceable(8392), i1 zeroext) #2

declare dso_local i32 @_ZN9FastBoard10get_vertexEii(%class.FastBoard*, i32, i32) #2

; Function Attrs: noinline nounwind uwtable
define linkonce_odr dso_local dereferenceable(4) i32* @_ZNSt6vectorIiSaIiEEixEm(%"class.std::vector"* %this, i64 %__n) #3 comdat align 2 !dbg !5873 {
entry:
  %this.addr = alloca %"class.std::vector"*, align 8
  %__n.addr = alloca i64, align 8
  store %"class.std::vector"* %this, %"class.std::vector"** %this.addr, align 8
  call void @llvm.dbg.declare(metadata %"class.std::vector"** %this.addr, metadata !5874, metadata !DIExpression()), !dbg !5875
  store i64 %__n, i64* %__n.addr, align 8
  call void @llvm.dbg.declare(metadata i64* %__n.addr, metadata !5876, metadata !DIExpression()), !dbg !5877
  %this1 = load %"class.std::vector"*, %"class.std::vector"** %this.addr, align 8
  %0 = bitcast %"class.std::vector"* %this1 to %"struct.std::_Vector_base"*, !dbg !5878
  %_M_impl = getelementptr inbounds %"struct.std::_Vector_base", %"struct.std::_Vector_base"* %0, i32 0, i32 0, !dbg !5878
  %1 = bitcast %"struct.std::_Vector_base<int, std::allocator<int> >::_Vector_impl"* %_M_impl to %"struct.std::_Vector_base<int, std::allocator<int> >::_Vector_impl_data"*, !dbg !5879
  %_M_start = getelementptr inbounds %"struct.std::_Vector_base<int, std::allocator<int> >::_Vector_impl_data", %"struct.std::_Vector_base<int, std::allocator<int> >::_Vector_impl_data"* %1, i32 0, i32 0, !dbg !5880
  %2 = load i32*, i32** %_M_start, align 8, !dbg !5880
  %3 = load i64, i64* %__n.addr, align 8, !dbg !5881
  %add.ptr = getelementptr inbounds i32, i32* %2, i64 %3, !dbg !5882
  ret i32* %add.ptr, !dbg !5883
}

; Function Attrs: noinline nounwind uwtable
define linkonce_odr dso_local void @_ZN9FastStateD2Ev(%class.FastState* %this) unnamed_addr #3 comdat align 2 !dbg !5884 {
entry:
  %this.addr = alloca %class.FastState*, align 8
  store %class.FastState* %this, %class.FastState** %this.addr, align 8
  call void @llvm.dbg.declare(metadata %class.FastState** %this.addr, metadata !5886, metadata !DIExpression()), !dbg !5887
  %this1 = load %class.FastState*, %class.FastState** %this.addr, align 8
  %board = getelementptr inbounds %class.FastState, %class.FastState* %this1, i32 0, i32 0, !dbg !5888
  call void @_ZN9FullBoardD2Ev(%class.FullBoard* %board) #9, !dbg !5888
  ret void, !dbg !5890
}

; Function Attrs: noinline uwtable
define linkonce_odr dso_local { i64*, i64 } @_ZNSt6vectorIbSaIbEEixEm(%"class.std::vector.18"* %this, i64 %__n) #0 comdat align 2 !dbg !5891 {
entry:
  %retval = alloca %"struct.std::_Bit_reference", align 8
  %this.addr = alloca %"class.std::vector.18"*, align 8
  %__n.addr = alloca i64, align 8
  %ref.tmp = alloca %"struct.std::_Bit_iterator", align 8
  store %"class.std::vector.18"* %this, %"class.std::vector.18"** %this.addr, align 8
  call void @llvm.dbg.declare(metadata %"class.std::vector.18"** %this.addr, metadata !5892, metadata !DIExpression()), !dbg !5893
  store i64 %__n, i64* %__n.addr, align 8
  call void @llvm.dbg.declare(metadata i64* %__n.addr, metadata !5894, metadata !DIExpression()), !dbg !5895
  %this1 = load %"class.std::vector.18"*, %"class.std::vector.18"** %this.addr, align 8
  %0 = bitcast %"class.std::vector.18"* %this1 to %"struct.std::_Bvector_base"*, !dbg !5896
  %_M_impl = getelementptr inbounds %"struct.std::_Bvector_base", %"struct.std::_Bvector_base"* %0, i32 0, i32 0, !dbg !5896
  %1 = bitcast %"struct.std::_Bvector_base<std::allocator<bool> >::_Bvector_impl"* %_M_impl to %"struct.std::_Bvector_base<std::allocator<bool> >::_Bvector_impl_data"*, !dbg !5897
  %_M_start = getelementptr inbounds %"struct.std::_Bvector_base<std::allocator<bool> >::_Bvector_impl_data", %"struct.std::_Bvector_base<std::allocator<bool> >::_Bvector_impl_data"* %1, i32 0, i32 0, !dbg !5898
  %2 = bitcast %"struct.std::_Bit_iterator"* %_M_start to %"struct.std::_Bit_iterator_base"*, !dbg !5897
  %_M_p = getelementptr inbounds %"struct.std::_Bit_iterator_base", %"struct.std::_Bit_iterator_base"* %2, i32 0, i32 0, !dbg !5899
  %3 = load i64*, i64** %_M_p, align 8, !dbg !5899
  %4 = load i64, i64* %__n.addr, align 8, !dbg !5900
  %div = udiv i64 %4, 64, !dbg !5901
  %add.ptr = getelementptr inbounds i64, i64* %3, i64 %div, !dbg !5902
  %5 = load i64, i64* %__n.addr, align 8, !dbg !5903
  %rem = urem i64 %5, 64, !dbg !5904
  %conv = trunc i64 %rem to i32, !dbg !5903
  call void @_ZNSt13_Bit_iteratorC2EPmj(%"struct.std::_Bit_iterator"* %ref.tmp, i64* %add.ptr, i32 %conv), !dbg !5905
  %call = call { i64*, i64 } @_ZNKSt13_Bit_iteratordeEv(%"struct.std::_Bit_iterator"* %ref.tmp), !dbg !5906
  %6 = bitcast %"struct.std::_Bit_reference"* %retval to { i64*, i64 }*, !dbg !5906
  %7 = getelementptr inbounds { i64*, i64 }, { i64*, i64 }* %6, i32 0, i32 0, !dbg !5906
  %8 = extractvalue { i64*, i64 } %call, 0, !dbg !5906
  store i64* %8, i64** %7, align 8, !dbg !5906
  %9 = getelementptr inbounds { i64*, i64 }, { i64*, i64 }* %6, i32 0, i32 1, !dbg !5906
  %10 = extractvalue { i64*, i64 } %call, 1, !dbg !5906
  store i64 %10, i64* %9, align 8, !dbg !5906
  %11 = bitcast %"struct.std::_Bit_reference"* %retval to { i64*, i64 }*, !dbg !5907
  %12 = load { i64*, i64 }, { i64*, i64 }* %11, align 8, !dbg !5907
  ret { i64*, i64 } %12, !dbg !5907
}

; Function Attrs: noinline nounwind uwtable
define linkonce_odr dso_local dereferenceable(16) %"struct.std::_Bit_reference"* @_ZNSt14_Bit_referenceaSEb(%"struct.std::_Bit_reference"* %this, i1 zeroext %__x) #3 comdat align 2 !dbg !5908 {
entry:
  %this.addr = alloca %"struct.std::_Bit_reference"*, align 8
  %__x.addr = alloca i8, align 1
  store %"struct.std::_Bit_reference"* %this, %"struct.std::_Bit_reference"** %this.addr, align 8
  call void @llvm.dbg.declare(metadata %"struct.std::_Bit_reference"** %this.addr, metadata !5909, metadata !DIExpression()), !dbg !5910
  %frombool = zext i1 %__x to i8
  store i8 %frombool, i8* %__x.addr, align 1
  call void @llvm.dbg.declare(metadata i8* %__x.addr, metadata !5911, metadata !DIExpression()), !dbg !5912
  %this1 = load %"struct.std::_Bit_reference"*, %"struct.std::_Bit_reference"** %this.addr, align 8
  %0 = load i8, i8* %__x.addr, align 1, !dbg !5913
  %tobool = trunc i8 %0 to i1, !dbg !5913
  br i1 %tobool, label %if.then, label %if.else, !dbg !5915

if.then:                                          ; preds = %entry
  %_M_mask = getelementptr inbounds %"struct.std::_Bit_reference", %"struct.std::_Bit_reference"* %this1, i32 0, i32 1, !dbg !5916
  %1 = load i64, i64* %_M_mask, align 8, !dbg !5916
  %_M_p = getelementptr inbounds %"struct.std::_Bit_reference", %"struct.std::_Bit_reference"* %this1, i32 0, i32 0, !dbg !5917
  %2 = load i64*, i64** %_M_p, align 8, !dbg !5917
  %3 = load i64, i64* %2, align 8, !dbg !5918
  %or = or i64 %3, %1, !dbg !5918
  store i64 %or, i64* %2, align 8, !dbg !5918
  br label %if.end, !dbg !5919

if.else:                                          ; preds = %entry
  %_M_mask2 = getelementptr inbounds %"struct.std::_Bit_reference", %"struct.std::_Bit_reference"* %this1, i32 0, i32 1, !dbg !5920
  %4 = load i64, i64* %_M_mask2, align 8, !dbg !5920
  %neg = xor i64 %4, -1, !dbg !5921
  %_M_p3 = getelementptr inbounds %"struct.std::_Bit_reference", %"struct.std::_Bit_reference"* %this1, i32 0, i32 0, !dbg !5922
  %5 = load i64*, i64** %_M_p3, align 8, !dbg !5922
  %6 = load i64, i64* %5, align 8, !dbg !5923
  %and = and i64 %6, %neg, !dbg !5923
  store i64 %and, i64* %5, align 8, !dbg !5923
  br label %if.end

if.end:                                           ; preds = %if.else, %if.then
  ret %"struct.std::_Bit_reference"* %this1, !dbg !5924
}

; Function Attrs: noinline nounwind uwtable
define linkonce_odr dso_local void @_ZNSt6vectorIbSaIbEED2Ev(%"class.std::vector.18"* %this) unnamed_addr #3 comdat align 2 !dbg !5925 {
entry:
  %this.addr = alloca %"class.std::vector.18"*, align 8
  store %"class.std::vector.18"* %this, %"class.std::vector.18"** %this.addr, align 8
  call void @llvm.dbg.declare(metadata %"class.std::vector.18"** %this.addr, metadata !5926, metadata !DIExpression()), !dbg !5927
  %this1 = load %"class.std::vector.18"*, %"class.std::vector.18"** %this.addr, align 8
  %0 = bitcast %"class.std::vector.18"* %this1 to %"struct.std::_Bvector_base"*, !dbg !5928
  call void @_ZNSt13_Bvector_baseISaIbEED2Ev(%"struct.std::_Bvector_base"* %0) #9, !dbg !5928
  ret void, !dbg !5930
}

; Function Attrs: noinline uwtable
define dso_local void @_ZN9FastState15final_score_mapEv(%"class.std::vector"* noalias sret %agg.result, %class.FastState* %this) #0 align 2 personality i8* bitcast (i32 (...)* @__gxx_personality_v0 to i8*) !dbg !5931 {
entry:
  %result.ptr = alloca i8*, align 8
  %this.addr = alloca %class.FastState*, align 8
  %workstate = alloca %class.FastState, align 8
  %dead_group = alloca %"class.std::vector.18", align 8
  %exn.slot = alloca i8*
  %ehselector.slot = alloca i32
  %i = alloca i32, align 4
  %j = alloca i32, align 4
  %vertex = alloca i32, align 4
  %ref.tmp = alloca %"struct.std::_Bit_reference", align 8
  %white = alloca %"class.std::vector.18", align 8
  %black = alloca %"class.std::vector.18", align 8
  %nrvo = alloca i1, align 1
  %agg.tmp = alloca %"class.__gnu_cxx::__normal_iterator", align 8
  %agg.tmp29 = alloca %"class.__gnu_cxx::__normal_iterator", align 8
  %ref.tmp32 = alloca i32, align 4
  %i36 = alloca i32, align 4
  %j43 = alloca i32, align 4
  %vertex50 = alloca i32, align 4
  %ref.tmp54 = alloca %"struct.std::_Bit_reference", align 8
  %ref.tmp59 = alloca %"struct.std::_Bit_reference", align 8
  %ref.tmp67 = alloca %"struct.std::_Bit_reference", align 8
  %ref.tmp73 = alloca %"struct.std::_Bit_reference", align 8
  %0 = bitcast %"class.std::vector"* %agg.result to i8*
  store i8* %0, i8** %result.ptr, align 8
  store %class.FastState* %this, %class.FastState** %this.addr, align 8
  call void @llvm.dbg.declare(metadata %class.FastState** %this.addr, metadata !5932, metadata !DIExpression()), !dbg !5933
  %this1 = load %class.FastState*, %class.FastState** %this.addr, align 8
  call void @llvm.dbg.declare(metadata %class.FastState* %workstate, metadata !5934, metadata !DIExpression()), !dbg !5935
  call void @_ZN9FastStateC2ERKS_(%class.FastState* %workstate, %class.FastState* dereferenceable(8392) %this1), !dbg !5935
  call void @llvm.dbg.declare(metadata %"class.std::vector.18"* %dead_group, metadata !5936, metadata !DIExpression()), !dbg !5937
  invoke void @_ZN9FastState9mark_deadEv(%"class.std::vector.18"* sret %dead_group, %class.FastState* %workstate)
          to label %invoke.cont unwind label %lpad, !dbg !5938

invoke.cont:                                      ; preds = %entry
  call void @llvm.dbg.declare(metadata i32* %i, metadata !5939, metadata !DIExpression()), !dbg !5941
  store i32 0, i32* %i, align 4, !dbg !5941
  br label %for.cond, !dbg !5942

for.cond:                                         ; preds = %for.inc18, %invoke.cont
  %1 = load i32, i32* %i, align 4, !dbg !5943
  %board = getelementptr inbounds %class.FastState, %class.FastState* %workstate, i32 0, i32 0, !dbg !5945
  %2 = bitcast %class.FullBoard* %board to %class.FastBoard*, !dbg !5946
  %call = invoke i32 @_ZN9FastBoard13get_boardsizeEv(%class.FastBoard* %2)
          to label %invoke.cont3 unwind label %lpad2, !dbg !5947

invoke.cont3:                                     ; preds = %for.cond
  %cmp = icmp slt i32 %1, %call, !dbg !5948
  br i1 %cmp, label %for.body, label %for.end20, !dbg !5949

for.body:                                         ; preds = %invoke.cont3
  call void @llvm.dbg.declare(metadata i32* %j, metadata !5950, metadata !DIExpression()), !dbg !5953
  store i32 0, i32* %j, align 4, !dbg !5953
  br label %for.cond4, !dbg !5954

for.cond4:                                        ; preds = %for.inc, %for.body
  %3 = load i32, i32* %j, align 4, !dbg !5955
  %board5 = getelementptr inbounds %class.FastState, %class.FastState* %workstate, i32 0, i32 0, !dbg !5957
  %4 = bitcast %class.FullBoard* %board5 to %class.FastBoard*, !dbg !5958
  %call7 = invoke i32 @_ZN9FastBoard13get_boardsizeEv(%class.FastBoard* %4)
          to label %invoke.cont6 unwind label %lpad2, !dbg !5959

invoke.cont6:                                     ; preds = %for.cond4
  %cmp8 = icmp slt i32 %3, %call7, !dbg !5960
  br i1 %cmp8, label %for.body9, label %for.end, !dbg !5961

for.body9:                                        ; preds = %invoke.cont6
  call void @llvm.dbg.declare(metadata i32* %vertex, metadata !5962, metadata !DIExpression()), !dbg !5964
  %board10 = getelementptr inbounds %class.FastState, %class.FastState* %workstate, i32 0, i32 0, !dbg !5965
  %5 = bitcast %class.FullBoard* %board10 to %class.FastBoard*, !dbg !5966
  %6 = load i32, i32* %i, align 4, !dbg !5967
  %7 = load i32, i32* %j, align 4, !dbg !5968
  %call12 = invoke i32 @_ZN9FastBoard10get_vertexEii(%class.FastBoard* %5, i32 %6, i32 %7)
          to label %invoke.cont11 unwind label %lpad2, !dbg !5969

invoke.cont11:                                    ; preds = %for.body9
  store i32 %call12, i32* %vertex, align 4, !dbg !5964
  %8 = load i32, i32* %vertex, align 4, !dbg !5970
  %conv = sext i32 %8 to i64, !dbg !5970
  %call14 = invoke { i64*, i64 } @_ZNSt6vectorIbSaIbEEixEm(%"class.std::vector.18"* %dead_group, i64 %conv)
          to label %invoke.cont13 unwind label %lpad2, !dbg !5972

invoke.cont13:                                    ; preds = %invoke.cont11
  %9 = bitcast %"struct.std::_Bit_reference"* %ref.tmp to { i64*, i64 }*, !dbg !5972
  %10 = getelementptr inbounds { i64*, i64 }, { i64*, i64 }* %9, i32 0, i32 0, !dbg !5972
  %11 = extractvalue { i64*, i64 } %call14, 0, !dbg !5972
  store i64* %11, i64** %10, align 8, !dbg !5972
  %12 = getelementptr inbounds { i64*, i64 }, { i64*, i64 }* %9, i32 0, i32 1, !dbg !5972
  %13 = extractvalue { i64*, i64 } %call14, 1, !dbg !5972
  store i64 %13, i64* %12, align 8, !dbg !5972
  %call15 = call zeroext i1 @_ZNKSt14_Bit_referencecvbEv(%"struct.std::_Bit_reference"* %ref.tmp) #9, !dbg !5972
  br i1 %call15, label %if.then, label %if.end, !dbg !5973

if.then:                                          ; preds = %invoke.cont13
  %board16 = getelementptr inbounds %class.FastState, %class.FastState* %workstate, i32 0, i32 0, !dbg !5974
  %14 = bitcast %class.FullBoard* %board16 to %class.FastBoard*, !dbg !5976
  %15 = load i32, i32* %vertex, align 4, !dbg !5977
  invoke void @_ZN9FastBoard10set_squareEiNS_8square_tE(%class.FastBoard* %14, i32 %15, i32 2)
          to label %invoke.cont17 unwind label %lpad2, !dbg !5978

invoke.cont17:                                    ; preds = %if.then
  br label %if.end, !dbg !5979

lpad:                                             ; preds = %entry
  %16 = landingpad { i8*, i32 }
          cleanup, !dbg !5980
  %17 = extractvalue { i8*, i32 } %16, 0, !dbg !5980
  store i8* %17, i8** %exn.slot, align 8, !dbg !5980
  %18 = extractvalue { i8*, i32 } %16, 1, !dbg !5980
  store i32 %18, i32* %ehselector.slot, align 4, !dbg !5980
  br label %ehcleanup92, !dbg !5980

lpad2:                                            ; preds = %for.end20, %if.then, %invoke.cont11, %for.body9, %for.cond4, %for.cond
  %19 = landingpad { i8*, i32 }
          cleanup, !dbg !5981
  %20 = extractvalue { i8*, i32 } %19, 0, !dbg !5981
  store i8* %20, i8** %exn.slot, align 8, !dbg !5981
  %21 = extractvalue { i8*, i32 } %19, 1, !dbg !5981
  store i32 %21, i32* %ehselector.slot, align 4, !dbg !5981
  br label %ehcleanup91, !dbg !5981

if.end:                                           ; preds = %invoke.cont17, %invoke.cont13
  br label %for.inc, !dbg !5982

for.inc:                                          ; preds = %if.end
  %22 = load i32, i32* %j, align 4, !dbg !5983
  %inc = add nsw i32 %22, 1, !dbg !5983
  store i32 %inc, i32* %j, align 4, !dbg !5983
  br label %for.cond4, !dbg !5984, !llvm.loop !5985

for.end:                                          ; preds = %invoke.cont6
  br label %for.inc18, !dbg !5987

for.inc18:                                        ; preds = %for.end
  %23 = load i32, i32* %i, align 4, !dbg !5988
  %inc19 = add nsw i32 %23, 1, !dbg !5988
  store i32 %inc19, i32* %i, align 4, !dbg !5988
  br label %for.cond, !dbg !5989, !llvm.loop !5990

for.end20:                                        ; preds = %invoke.cont3
  call void @llvm.dbg.declare(metadata %"class.std::vector.18"* %white, metadata !5992, metadata !DIExpression()), !dbg !5993
  %board21 = getelementptr inbounds %class.FastState, %class.FastState* %workstate, i32 0, i32 0, !dbg !5994
  %24 = bitcast %class.FullBoard* %board21 to %class.FastBoard*, !dbg !5995
  invoke void @_ZN9FastBoard16calc_reach_colorEi(%"class.std::vector.18"* sret %white, %class.FastBoard* %24, i32 1)
          to label %invoke.cont22 unwind label %lpad2, !dbg !5996

invoke.cont22:                                    ; preds = %for.end20
  call void @llvm.dbg.declare(metadata %"class.std::vector.18"* %black, metadata !5997, metadata !DIExpression()), !dbg !5998
  %board23 = getelementptr inbounds %class.FastState, %class.FastState* %workstate, i32 0, i32 0, !dbg !5999
  %25 = bitcast %class.FullBoard* %board23 to %class.FastBoard*, !dbg !6000
  invoke void @_ZN9FastBoard16calc_reach_colorEi(%"class.std::vector.18"* sret %black, %class.FastBoard* %25, i32 0)
          to label %invoke.cont25 unwind label %lpad24, !dbg !6001

invoke.cont25:                                    ; preds = %invoke.cont22
  store i1 false, i1* %nrvo, align 1, !dbg !6002
  call void @llvm.dbg.declare(metadata i8** %result.ptr, metadata !6003, metadata !DIExpression(DW_OP_deref)), !dbg !6004
  call void @_ZNSt6vectorIiSaIiEEC2Ev(%"class.std::vector"* %agg.result) #9, !dbg !6004
  invoke void @_ZNSt6vectorIiSaIiEE6resizeEm(%"class.std::vector"* %agg.result, i64 441)
          to label %invoke.cont27 unwind label %lpad26, !dbg !6005

invoke.cont27:                                    ; preds = %invoke.cont25
  %call28 = call i32* @_ZNSt6vectorIiSaIiEE5beginEv(%"class.std::vector"* %agg.result) #9, !dbg !6006
  %coerce.dive = getelementptr inbounds %"class.__gnu_cxx::__normal_iterator", %"class.__gnu_cxx::__normal_iterator"* %agg.tmp, i32 0, i32 0, !dbg !6006
  store i32* %call28, i32** %coerce.dive, align 8, !dbg !6006
  %call30 = call i32* @_ZNSt6vectorIiSaIiEE3endEv(%"class.std::vector"* %agg.result) #9, !dbg !6007
  %coerce.dive31 = getelementptr inbounds %"class.__gnu_cxx::__normal_iterator", %"class.__gnu_cxx::__normal_iterator"* %agg.tmp29, i32 0, i32 0, !dbg !6007
  store i32* %call30, i32** %coerce.dive31, align 8, !dbg !6007
  store i32 2, i32* %ref.tmp32, align 4, !dbg !6008
  %coerce.dive33 = getelementptr inbounds %"class.__gnu_cxx::__normal_iterator", %"class.__gnu_cxx::__normal_iterator"* %agg.tmp, i32 0, i32 0, !dbg !6009
  %26 = load i32*, i32** %coerce.dive33, align 8, !dbg !6009
  %coerce.dive34 = getelementptr inbounds %"class.__gnu_cxx::__normal_iterator", %"class.__gnu_cxx::__normal_iterator"* %agg.tmp29, i32 0, i32 0, !dbg !6009
  %27 = load i32*, i32** %coerce.dive34, align 8, !dbg !6009
  invoke void @_ZSt4fillIN9__gnu_cxx17__normal_iteratorIPiSt6vectorIiSaIiEEEEN9FastBoard8square_tEEvT_S9_RKT0_(i32* %26, i32* %27, i32* dereferenceable(4) %ref.tmp32)
          to label %invoke.cont35 unwind label %lpad26, !dbg !6009

invoke.cont35:                                    ; preds = %invoke.cont27
  call void @llvm.dbg.declare(metadata i32* %i36, metadata !6010, metadata !DIExpression()), !dbg !6012
  store i32 0, i32* %i36, align 4, !dbg !6012
  br label %for.cond37, !dbg !6013

for.cond37:                                       ; preds = %for.inc88, %invoke.cont35
  %28 = load i32, i32* %i36, align 4, !dbg !6014
  %board38 = getelementptr inbounds %class.FastState, %class.FastState* %workstate, i32 0, i32 0, !dbg !6016
  %29 = bitcast %class.FullBoard* %board38 to %class.FastBoard*, !dbg !6017
  %call40 = invoke i32 @_ZN9FastBoard13get_boardsizeEv(%class.FastBoard* %29)
          to label %invoke.cont39 unwind label %lpad26, !dbg !6018

invoke.cont39:                                    ; preds = %for.cond37
  %cmp41 = icmp slt i32 %28, %call40, !dbg !6019
  br i1 %cmp41, label %for.body42, label %for.end90, !dbg !6020

for.body42:                                       ; preds = %invoke.cont39
  call void @llvm.dbg.declare(metadata i32* %j43, metadata !6021, metadata !DIExpression()), !dbg !6024
  store i32 0, i32* %j43, align 4, !dbg !6024
  br label %for.cond44, !dbg !6025

for.cond44:                                       ; preds = %for.inc85, %for.body42
  %30 = load i32, i32* %j43, align 4, !dbg !6026
  %board45 = getelementptr inbounds %class.FastState, %class.FastState* %workstate, i32 0, i32 0, !dbg !6028
  %31 = bitcast %class.FullBoard* %board45 to %class.FastBoard*, !dbg !6029
  %call47 = invoke i32 @_ZN9FastBoard13get_boardsizeEv(%class.FastBoard* %31)
          to label %invoke.cont46 unwind label %lpad26, !dbg !6030

invoke.cont46:                                    ; preds = %for.cond44
  %cmp48 = icmp slt i32 %30, %call47, !dbg !6031
  br i1 %cmp48, label %for.body49, label %for.end87, !dbg !6032

for.body49:                                       ; preds = %invoke.cont46
  call void @llvm.dbg.declare(metadata i32* %vertex50, metadata !6033, metadata !DIExpression()), !dbg !6035
  %board51 = getelementptr inbounds %class.FastState, %class.FastState* %workstate, i32 0, i32 0, !dbg !6036
  %32 = bitcast %class.FullBoard* %board51 to %class.FastBoard*, !dbg !6037
  %33 = load i32, i32* %i36, align 4, !dbg !6038
  %34 = load i32, i32* %j43, align 4, !dbg !6039
  %call53 = invoke i32 @_ZN9FastBoard10get_vertexEii(%class.FastBoard* %32, i32 %33, i32 %34)
          to label %invoke.cont52 unwind label %lpad26, !dbg !6040

invoke.cont52:                                    ; preds = %for.body49
  store i32 %call53, i32* %vertex50, align 4, !dbg !6035
  %35 = load i32, i32* %vertex50, align 4, !dbg !6041
  %conv55 = sext i32 %35 to i64, !dbg !6041
  %call57 = invoke { i64*, i64 } @_ZNSt6vectorIbSaIbEEixEm(%"class.std::vector.18"* %white, i64 %conv55)
          to label %invoke.cont56 unwind label %lpad26, !dbg !6043

invoke.cont56:                                    ; preds = %invoke.cont52
  %36 = bitcast %"struct.std::_Bit_reference"* %ref.tmp54 to { i64*, i64 }*, !dbg !6043
  %37 = getelementptr inbounds { i64*, i64 }, { i64*, i64 }* %36, i32 0, i32 0, !dbg !6043
  %38 = extractvalue { i64*, i64 } %call57, 0, !dbg !6043
  store i64* %38, i64** %37, align 8, !dbg !6043
  %39 = getelementptr inbounds { i64*, i64 }, { i64*, i64 }* %36, i32 0, i32 1, !dbg !6043
  %40 = extractvalue { i64*, i64 } %call57, 1, !dbg !6043
  store i64 %40, i64* %39, align 8, !dbg !6043
  %call58 = call zeroext i1 @_ZNKSt14_Bit_referencecvbEv(%"struct.std::_Bit_reference"* %ref.tmp54) #9, !dbg !6043
  br i1 %call58, label %land.rhs, label %land.end, !dbg !6044

land.rhs:                                         ; preds = %invoke.cont56
  %41 = load i32, i32* %vertex50, align 4, !dbg !6045
  %conv60 = sext i32 %41 to i64, !dbg !6045
  %call62 = invoke { i64*, i64 } @_ZNSt6vectorIbSaIbEEixEm(%"class.std::vector.18"* %black, i64 %conv60)
          to label %invoke.cont61 unwind label %lpad26, !dbg !6046

invoke.cont61:                                    ; preds = %land.rhs
  %42 = bitcast %"struct.std::_Bit_reference"* %ref.tmp59 to { i64*, i64 }*, !dbg !6046
  %43 = getelementptr inbounds { i64*, i64 }, { i64*, i64 }* %42, i32 0, i32 0, !dbg !6046
  %44 = extractvalue { i64*, i64 } %call62, 0, !dbg !6046
  store i64* %44, i64** %43, align 8, !dbg !6046
  %45 = getelementptr inbounds { i64*, i64 }, { i64*, i64 }* %42, i32 0, i32 1, !dbg !6046
  %46 = extractvalue { i64*, i64 } %call62, 1, !dbg !6046
  store i64 %46, i64* %45, align 8, !dbg !6046
  %call63 = call zeroext i1 @_ZNKSt14_Bit_referencecvbEv(%"struct.std::_Bit_reference"* %ref.tmp59) #9, !dbg !6046
  %lnot = xor i1 %call63, true, !dbg !6047
  br label %land.end

land.end:                                         ; preds = %invoke.cont61, %invoke.cont56
  %47 = phi i1 [ false, %invoke.cont56 ], [ %lnot, %invoke.cont61 ], !dbg !6048
  br i1 %47, label %if.then64, label %if.else, !dbg !6049

if.then64:                                        ; preds = %land.end
  %48 = load i32, i32* %vertex50, align 4, !dbg !6050
  %conv65 = sext i32 %48 to i64, !dbg !6050
  %call66 = call dereferenceable(4) i32* @_ZNSt6vectorIiSaIiEEixEm(%"class.std::vector"* %agg.result, i64 %conv65) #9, !dbg !6052
  store i32 1, i32* %call66, align 4, !dbg !6053
  br label %if.end84, !dbg !6054

lpad24:                                           ; preds = %invoke.cont22
  %49 = landingpad { i8*, i32 }
          cleanup, !dbg !5980
  %50 = extractvalue { i8*, i32 } %49, 0, !dbg !5980
  store i8* %50, i8** %exn.slot, align 8, !dbg !5980
  %51 = extractvalue { i8*, i32 } %49, 1, !dbg !5980
  store i32 %51, i32* %ehselector.slot, align 4, !dbg !5980
  br label %ehcleanup, !dbg !5980

lpad26:                                           ; preds = %land.rhs72, %if.else, %land.rhs, %invoke.cont52, %for.body49, %for.cond44, %for.cond37, %invoke.cont27, %invoke.cont25
  %52 = landingpad { i8*, i32 }
          cleanup, !dbg !5980
  %53 = extractvalue { i8*, i32 } %52, 0, !dbg !5980
  store i8* %53, i8** %exn.slot, align 8, !dbg !5980
  %54 = extractvalue { i8*, i32 } %52, 1, !dbg !5980
  store i32 %54, i32* %ehselector.slot, align 4, !dbg !5980
  call void @_ZNSt6vectorIiSaIiEED2Ev(%"class.std::vector"* %agg.result) #9, !dbg !5980
  call void @_ZNSt6vectorIbSaIbEED2Ev(%"class.std::vector.18"* %black) #9, !dbg !5980
  br label %ehcleanup, !dbg !5980

if.else:                                          ; preds = %land.end
  %55 = load i32, i32* %vertex50, align 4, !dbg !6055
  %conv68 = sext i32 %55 to i64, !dbg !6055
  %call70 = invoke { i64*, i64 } @_ZNSt6vectorIbSaIbEEixEm(%"class.std::vector.18"* %black, i64 %conv68)
          to label %invoke.cont69 unwind label %lpad26, !dbg !6057

invoke.cont69:                                    ; preds = %if.else
  %56 = bitcast %"struct.std::_Bit_reference"* %ref.tmp67 to { i64*, i64 }*, !dbg !6057
  %57 = getelementptr inbounds { i64*, i64 }, { i64*, i64 }* %56, i32 0, i32 0, !dbg !6057
  %58 = extractvalue { i64*, i64 } %call70, 0, !dbg !6057
  store i64* %58, i64** %57, align 8, !dbg !6057
  %59 = getelementptr inbounds { i64*, i64 }, { i64*, i64 }* %56, i32 0, i32 1, !dbg !6057
  %60 = extractvalue { i64*, i64 } %call70, 1, !dbg !6057
  store i64 %60, i64* %59, align 8, !dbg !6057
  %call71 = call zeroext i1 @_ZNKSt14_Bit_referencecvbEv(%"struct.std::_Bit_reference"* %ref.tmp67) #9, !dbg !6057
  br i1 %call71, label %land.rhs72, label %land.end79, !dbg !6058

land.rhs72:                                       ; preds = %invoke.cont69
  %61 = load i32, i32* %vertex50, align 4, !dbg !6059
  %conv74 = sext i32 %61 to i64, !dbg !6059
  %call76 = invoke { i64*, i64 } @_ZNSt6vectorIbSaIbEEixEm(%"class.std::vector.18"* %white, i64 %conv74)
          to label %invoke.cont75 unwind label %lpad26, !dbg !6060

invoke.cont75:                                    ; preds = %land.rhs72
  %62 = bitcast %"struct.std::_Bit_reference"* %ref.tmp73 to { i64*, i64 }*, !dbg !6060
  %63 = getelementptr inbounds { i64*, i64 }, { i64*, i64 }* %62, i32 0, i32 0, !dbg !6060
  %64 = extractvalue { i64*, i64 } %call76, 0, !dbg !6060
  store i64* %64, i64** %63, align 8, !dbg !6060
  %65 = getelementptr inbounds { i64*, i64 }, { i64*, i64 }* %62, i32 0, i32 1, !dbg !6060
  %66 = extractvalue { i64*, i64 } %call76, 1, !dbg !6060
  store i64 %66, i64* %65, align 8, !dbg !6060
  %call77 = call zeroext i1 @_ZNKSt14_Bit_referencecvbEv(%"struct.std::_Bit_reference"* %ref.tmp73) #9, !dbg !6060
  %lnot78 = xor i1 %call77, true, !dbg !6061
  br label %land.end79

land.end79:                                       ; preds = %invoke.cont75, %invoke.cont69
  %67 = phi i1 [ false, %invoke.cont69 ], [ %lnot78, %invoke.cont75 ], !dbg !6062
  br i1 %67, label %if.then80, label %if.end83, !dbg !6063

if.then80:                                        ; preds = %land.end79
  %68 = load i32, i32* %vertex50, align 4, !dbg !6064
  %conv81 = sext i32 %68 to i64, !dbg !6064
  %call82 = call dereferenceable(4) i32* @_ZNSt6vectorIiSaIiEEixEm(%"class.std::vector"* %agg.result, i64 %conv81) #9, !dbg !6066
  store i32 0, i32* %call82, align 4, !dbg !6067
  br label %if.end83, !dbg !6068

if.end83:                                         ; preds = %if.then80, %land.end79
  br label %if.end84

if.end84:                                         ; preds = %if.end83, %if.then64
  br label %for.inc85, !dbg !6069

for.inc85:                                        ; preds = %if.end84
  %69 = load i32, i32* %j43, align 4, !dbg !6070
  %inc86 = add nsw i32 %69, 1, !dbg !6070
  store i32 %inc86, i32* %j43, align 4, !dbg !6070
  br label %for.cond44, !dbg !6071, !llvm.loop !6072

for.end87:                                        ; preds = %invoke.cont46
  br label %for.inc88, !dbg !6074

for.inc88:                                        ; preds = %for.end87
  %70 = load i32, i32* %i36, align 4, !dbg !6075
  %inc89 = add nsw i32 %70, 1, !dbg !6075
  store i32 %inc89, i32* %i36, align 4, !dbg !6075
  br label %for.cond37, !dbg !6076, !llvm.loop !6077

for.end90:                                        ; preds = %invoke.cont39
  store i1 true, i1* %nrvo, align 1, !dbg !6079
  %nrvo.val = load i1, i1* %nrvo, align 1, !dbg !5980
  br i1 %nrvo.val, label %nrvo.skipdtor, label %nrvo.unused, !dbg !5980

nrvo.unused:                                      ; preds = %for.end90
  call void @_ZNSt6vectorIiSaIiEED2Ev(%"class.std::vector"* %agg.result) #9, !dbg !5980
  br label %nrvo.skipdtor, !dbg !5980

nrvo.skipdtor:                                    ; preds = %nrvo.unused, %for.end90
  call void @_ZNSt6vectorIbSaIbEED2Ev(%"class.std::vector.18"* %black) #9, !dbg !5980
  call void @_ZNSt6vectorIbSaIbEED2Ev(%"class.std::vector.18"* %white) #9, !dbg !5980
  call void @_ZNSt6vectorIbSaIbEED2Ev(%"class.std::vector.18"* %dead_group) #9, !dbg !5980
  call void @_ZN9FastStateD2Ev(%class.FastState* %workstate) #9, !dbg !5980
  ret void, !dbg !5980

ehcleanup:                                        ; preds = %lpad26, %lpad24
  call void @_ZNSt6vectorIbSaIbEED2Ev(%"class.std::vector.18"* %white) #9, !dbg !5980
  br label %ehcleanup91, !dbg !5980

ehcleanup91:                                      ; preds = %ehcleanup, %lpad2
  call void @_ZNSt6vectorIbSaIbEED2Ev(%"class.std::vector.18"* %dead_group) #9, !dbg !5980
  br label %ehcleanup92, !dbg !5980

ehcleanup92:                                      ; preds = %ehcleanup91, %lpad
  call void @_ZN9FastStateD2Ev(%class.FastState* %workstate) #9, !dbg !5980
  br label %eh.resume, !dbg !5980

eh.resume:                                        ; preds = %ehcleanup92
  %exn = load i8*, i8** %exn.slot, align 8, !dbg !5980
  %sel = load i32, i32* %ehselector.slot, align 4, !dbg !5980
  %lpad.val = insertvalue { i8*, i32 } undef, i8* %exn, 0, !dbg !5980
  %lpad.val93 = insertvalue { i8*, i32 } %lpad.val, i32 %sel, 1, !dbg !5980
  resume { i8*, i32 } %lpad.val93, !dbg !5980
}

; Function Attrs: noinline nounwind uwtable
define linkonce_odr dso_local zeroext i1 @_ZNKSt14_Bit_referencecvbEv(%"struct.std::_Bit_reference"* %this) #3 comdat align 2 !dbg !6080 {
entry:
  %this.addr = alloca %"struct.std::_Bit_reference"*, align 8
  store %"struct.std::_Bit_reference"* %this, %"struct.std::_Bit_reference"** %this.addr, align 8
  call void @llvm.dbg.declare(metadata %"struct.std::_Bit_reference"** %this.addr, metadata !6081, metadata !DIExpression()), !dbg !6083
  %this1 = load %"struct.std::_Bit_reference"*, %"struct.std::_Bit_reference"** %this.addr, align 8
  %_M_p = getelementptr inbounds %"struct.std::_Bit_reference", %"struct.std::_Bit_reference"* %this1, i32 0, i32 0, !dbg !6084
  %0 = load i64*, i64** %_M_p, align 8, !dbg !6084
  %1 = load i64, i64* %0, align 8, !dbg !6085
  %_M_mask = getelementptr inbounds %"struct.std::_Bit_reference", %"struct.std::_Bit_reference"* %this1, i32 0, i32 1, !dbg !6086
  %2 = load i64, i64* %_M_mask, align 8, !dbg !6086
  %and = and i64 %1, %2, !dbg !6087
  %tobool = icmp ne i64 %and, 0, !dbg !6088
  %lnot = xor i1 %tobool, true, !dbg !6089
  %lnot2 = xor i1 %lnot, true, !dbg !6090
  ret i1 %lnot2, !dbg !6091
}

declare dso_local void @_ZN9FastBoard10set_squareEiNS_8square_tE(%class.FastBoard*, i32, i32) #2

declare dso_local void @_ZN9FastBoard16calc_reach_colorEi(%"class.std::vector.18"* sret, %class.FastBoard*, i32) #2

; Function Attrs: noinline uwtable
define linkonce_odr dso_local void @_ZNSt6vectorIiSaIiEE6resizeEm(%"class.std::vector"* %this, i64 %__new_size) #0 comdat align 2 !dbg !6092 {
entry:
  %this.addr = alloca %"class.std::vector"*, align 8
  %__new_size.addr = alloca i64, align 8
  store %"class.std::vector"* %this, %"class.std::vector"** %this.addr, align 8
  call void @llvm.dbg.declare(metadata %"class.std::vector"** %this.addr, metadata !6093, metadata !DIExpression()), !dbg !6094
  store i64 %__new_size, i64* %__new_size.addr, align 8
  call void @llvm.dbg.declare(metadata i64* %__new_size.addr, metadata !6095, metadata !DIExpression()), !dbg !6096
  %this1 = load %"class.std::vector"*, %"class.std::vector"** %this.addr, align 8
  %0 = load i64, i64* %__new_size.addr, align 8, !dbg !6097
  %call = call i64 @_ZNKSt6vectorIiSaIiEE4sizeEv(%"class.std::vector"* %this1) #9, !dbg !6099
  %cmp = icmp ugt i64 %0, %call, !dbg !6100
  br i1 %cmp, label %if.then, label %if.else, !dbg !6101

if.then:                                          ; preds = %entry
  %1 = load i64, i64* %__new_size.addr, align 8, !dbg !6102
  %call2 = call i64 @_ZNKSt6vectorIiSaIiEE4sizeEv(%"class.std::vector"* %this1) #9, !dbg !6103
  %sub = sub i64 %1, %call2, !dbg !6104
  call void @_ZNSt6vectorIiSaIiEE17_M_default_appendEm(%"class.std::vector"* %this1, i64 %sub), !dbg !6105
  br label %if.end6, !dbg !6105

if.else:                                          ; preds = %entry
  %2 = load i64, i64* %__new_size.addr, align 8, !dbg !6106
  %call3 = call i64 @_ZNKSt6vectorIiSaIiEE4sizeEv(%"class.std::vector"* %this1) #9, !dbg !6108
  %cmp4 = icmp ult i64 %2, %call3, !dbg !6109
  br i1 %cmp4, label %if.then5, label %if.end, !dbg !6110

if.then5:                                         ; preds = %if.else
  %3 = bitcast %"class.std::vector"* %this1 to %"struct.std::_Vector_base"*, !dbg !6111
  %_M_impl = getelementptr inbounds %"struct.std::_Vector_base", %"struct.std::_Vector_base"* %3, i32 0, i32 0, !dbg !6111
  %4 = bitcast %"struct.std::_Vector_base<int, std::allocator<int> >::_Vector_impl"* %_M_impl to %"struct.std::_Vector_base<int, std::allocator<int> >::_Vector_impl_data"*, !dbg !6112
  %_M_start = getelementptr inbounds %"struct.std::_Vector_base<int, std::allocator<int> >::_Vector_impl_data", %"struct.std::_Vector_base<int, std::allocator<int> >::_Vector_impl_data"* %4, i32 0, i32 0, !dbg !6113
  %5 = load i32*, i32** %_M_start, align 8, !dbg !6113
  %6 = load i64, i64* %__new_size.addr, align 8, !dbg !6114
  %add.ptr = getelementptr inbounds i32, i32* %5, i64 %6, !dbg !6115
  call void @_ZNSt6vectorIiSaIiEE15_M_erase_at_endEPi(%"class.std::vector"* %this1, i32* %add.ptr) #9, !dbg !6116
  br label %if.end, !dbg !6116

if.end:                                           ; preds = %if.then5, %if.else
  br label %if.end6

if.end6:                                          ; preds = %if.end, %if.then
  ret void, !dbg !6117
}

; Function Attrs: noinline uwtable
define linkonce_odr dso_local void @_ZSt4fillIN9__gnu_cxx17__normal_iteratorIPiSt6vectorIiSaIiEEEEN9FastBoard8square_tEEvT_S9_RKT0_(i32* %__first.coerce, i32* %__last.coerce, i32* dereferenceable(4) %__value) #0 comdat !dbg !6118 {
entry:
  %__first = alloca %"class.__gnu_cxx::__normal_iterator", align 8
  %__last = alloca %"class.__gnu_cxx::__normal_iterator", align 8
  %__value.addr = alloca i32*, align 8
  %agg.tmp = alloca %"class.__gnu_cxx::__normal_iterator", align 8
  %agg.tmp2 = alloca %"class.__gnu_cxx::__normal_iterator", align 8
  %coerce.dive = getelementptr inbounds %"class.__gnu_cxx::__normal_iterator", %"class.__gnu_cxx::__normal_iterator"* %__first, i32 0, i32 0
  store i32* %__first.coerce, i32** %coerce.dive, align 8
  %coerce.dive1 = getelementptr inbounds %"class.__gnu_cxx::__normal_iterator", %"class.__gnu_cxx::__normal_iterator"* %__last, i32 0, i32 0
  store i32* %__last.coerce, i32** %coerce.dive1, align 8
  call void @llvm.dbg.declare(metadata %"class.__gnu_cxx::__normal_iterator"* %__first, metadata !6123, metadata !DIExpression()), !dbg !6124
  call void @llvm.dbg.declare(metadata %"class.__gnu_cxx::__normal_iterator"* %__last, metadata !6125, metadata !DIExpression()), !dbg !6126
  store i32* %__value, i32** %__value.addr, align 8
  call void @llvm.dbg.declare(metadata i32** %__value.addr, metadata !6127, metadata !DIExpression()), !dbg !6128
  %0 = bitcast %"class.__gnu_cxx::__normal_iterator"* %agg.tmp to i8*, !dbg !6129
  %1 = bitcast %"class.__gnu_cxx::__normal_iterator"* %__first to i8*, !dbg !6129
  call void @llvm.memcpy.p0i8.p0i8.i64(i8* align 8 %0, i8* align 8 %1, i64 8, i1 false), !dbg !6129
  %2 = bitcast %"class.__gnu_cxx::__normal_iterator"* %agg.tmp2 to i8*, !dbg !6130
  %3 = bitcast %"class.__gnu_cxx::__normal_iterator"* %__last to i8*, !dbg !6130
  call void @llvm.memcpy.p0i8.p0i8.i64(i8* align 8 %2, i8* align 8 %3, i64 8, i1 false), !dbg !6130
  %4 = load i32*, i32** %__value.addr, align 8, !dbg !6131
  %coerce.dive3 = getelementptr inbounds %"class.__gnu_cxx::__normal_iterator", %"class.__gnu_cxx::__normal_iterator"* %agg.tmp, i32 0, i32 0, !dbg !6132
  %5 = load i32*, i32** %coerce.dive3, align 8, !dbg !6132
  %coerce.dive4 = getelementptr inbounds %"class.__gnu_cxx::__normal_iterator", %"class.__gnu_cxx::__normal_iterator"* %agg.tmp2, i32 0, i32 0, !dbg !6132
  %6 = load i32*, i32** %coerce.dive4, align 8, !dbg !6132
  call void @_ZSt8__fill_aIN9__gnu_cxx17__normal_iteratorIPiSt6vectorIiSaIiEEEEN9FastBoard8square_tEEvT_S9_RKT0_(i32* %5, i32* %6, i32* dereferenceable(4) %4), !dbg !6132
  ret void, !dbg !6133
}

; Function Attrs: noinline uwtable
define dso_local float @_ZN9FastState11final_scoreEv(%class.FastState* %this) #0 align 2 personality i8* bitcast (i32 (...)* @__gxx_personality_v0 to i8*) !dbg !6134 {
entry:
  %this.addr = alloca %class.FastState*, align 8
  %workstate = alloca %class.FastState, align 8
  %dead_group = alloca %"class.std::vector.18", align 8
  %exn.slot = alloca i8*
  %ehselector.slot = alloca i32
  %i = alloca i32, align 4
  %j = alloca i32, align 4
  %vertex = alloca i32, align 4
  %ref.tmp = alloca %"struct.std::_Bit_reference", align 8
  store %class.FastState* %this, %class.FastState** %this.addr, align 8
  call void @llvm.dbg.declare(metadata %class.FastState** %this.addr, metadata !6135, metadata !DIExpression()), !dbg !6136
  %this1 = load %class.FastState*, %class.FastState** %this.addr, align 8
  call void @llvm.dbg.declare(metadata %class.FastState* %workstate, metadata !6137, metadata !DIExpression()), !dbg !6138
  call void @_ZN9FastStateC2ERKS_(%class.FastState* %workstate, %class.FastState* dereferenceable(8392) %this1), !dbg !6138
  call void @llvm.dbg.declare(metadata %"class.std::vector.18"* %dead_group, metadata !6139, metadata !DIExpression()), !dbg !6140
  invoke void @_ZN9FastState9mark_deadEv(%"class.std::vector.18"* sret %dead_group, %class.FastState* %workstate)
          to label %invoke.cont unwind label %lpad, !dbg !6141

invoke.cont:                                      ; preds = %entry
  call void @llvm.dbg.declare(metadata i32* %i, metadata !6142, metadata !DIExpression()), !dbg !6144
  store i32 0, i32* %i, align 4, !dbg !6144
  br label %for.cond, !dbg !6145

for.cond:                                         ; preds = %for.inc18, %invoke.cont
  %0 = load i32, i32* %i, align 4, !dbg !6146
  %board = getelementptr inbounds %class.FastState, %class.FastState* %workstate, i32 0, i32 0, !dbg !6148
  %1 = bitcast %class.FullBoard* %board to %class.FastBoard*, !dbg !6149
  %call = invoke i32 @_ZN9FastBoard13get_boardsizeEv(%class.FastBoard* %1)
          to label %invoke.cont3 unwind label %lpad2, !dbg !6150

invoke.cont3:                                     ; preds = %for.cond
  %cmp = icmp slt i32 %0, %call, !dbg !6151
  br i1 %cmp, label %for.body, label %for.end20, !dbg !6152

for.body:                                         ; preds = %invoke.cont3
  call void @llvm.dbg.declare(metadata i32* %j, metadata !6153, metadata !DIExpression()), !dbg !6156
  store i32 0, i32* %j, align 4, !dbg !6156
  br label %for.cond4, !dbg !6157

for.cond4:                                        ; preds = %for.inc, %for.body
  %2 = load i32, i32* %j, align 4, !dbg !6158
  %board5 = getelementptr inbounds %class.FastState, %class.FastState* %workstate, i32 0, i32 0, !dbg !6160
  %3 = bitcast %class.FullBoard* %board5 to %class.FastBoard*, !dbg !6161
  %call7 = invoke i32 @_ZN9FastBoard13get_boardsizeEv(%class.FastBoard* %3)
          to label %invoke.cont6 unwind label %lpad2, !dbg !6162

invoke.cont6:                                     ; preds = %for.cond4
  %cmp8 = icmp slt i32 %2, %call7, !dbg !6163
  br i1 %cmp8, label %for.body9, label %for.end, !dbg !6164

for.body9:                                        ; preds = %invoke.cont6
  call void @llvm.dbg.declare(metadata i32* %vertex, metadata !6165, metadata !DIExpression()), !dbg !6167
  %board10 = getelementptr inbounds %class.FastState, %class.FastState* %workstate, i32 0, i32 0, !dbg !6168
  %4 = bitcast %class.FullBoard* %board10 to %class.FastBoard*, !dbg !6169
  %5 = load i32, i32* %i, align 4, !dbg !6170
  %6 = load i32, i32* %j, align 4, !dbg !6171
  %call12 = invoke i32 @_ZN9FastBoard10get_vertexEii(%class.FastBoard* %4, i32 %5, i32 %6)
          to label %invoke.cont11 unwind label %lpad2, !dbg !6172

invoke.cont11:                                    ; preds = %for.body9
  store i32 %call12, i32* %vertex, align 4, !dbg !6167
  %7 = load i32, i32* %vertex, align 4, !dbg !6173
  %conv = sext i32 %7 to i64, !dbg !6173
  %call14 = invoke { i64*, i64 } @_ZNSt6vectorIbSaIbEEixEm(%"class.std::vector.18"* %dead_group, i64 %conv)
          to label %invoke.cont13 unwind label %lpad2, !dbg !6175

invoke.cont13:                                    ; preds = %invoke.cont11
  %8 = bitcast %"struct.std::_Bit_reference"* %ref.tmp to { i64*, i64 }*, !dbg !6175
  %9 = getelementptr inbounds { i64*, i64 }, { i64*, i64 }* %8, i32 0, i32 0, !dbg !6175
  %10 = extractvalue { i64*, i64 } %call14, 0, !dbg !6175
  store i64* %10, i64** %9, align 8, !dbg !6175
  %11 = getelementptr inbounds { i64*, i64 }, { i64*, i64 }* %8, i32 0, i32 1, !dbg !6175
  %12 = extractvalue { i64*, i64 } %call14, 1, !dbg !6175
  store i64 %12, i64* %11, align 8, !dbg !6175
  %call15 = call zeroext i1 @_ZNKSt14_Bit_referencecvbEv(%"struct.std::_Bit_reference"* %ref.tmp) #9, !dbg !6175
  br i1 %call15, label %if.then, label %if.end, !dbg !6176

if.then:                                          ; preds = %invoke.cont13
  %board16 = getelementptr inbounds %class.FastState, %class.FastState* %workstate, i32 0, i32 0, !dbg !6177
  %13 = bitcast %class.FullBoard* %board16 to %class.FastBoard*, !dbg !6179
  %14 = load i32, i32* %vertex, align 4, !dbg !6180
  invoke void @_ZN9FastBoard10set_squareEiNS_8square_tE(%class.FastBoard* %13, i32 %14, i32 2)
          to label %invoke.cont17 unwind label %lpad2, !dbg !6181

invoke.cont17:                                    ; preds = %if.then
  br label %if.end, !dbg !6182

lpad:                                             ; preds = %entry
  %15 = landingpad { i8*, i32 }
          cleanup, !dbg !6183
  %16 = extractvalue { i8*, i32 } %15, 0, !dbg !6183
  store i8* %16, i8** %exn.slot, align 8, !dbg !6183
  %17 = extractvalue { i8*, i32 } %15, 1, !dbg !6183
  store i32 %17, i32* %ehselector.slot, align 4, !dbg !6183
  br label %ehcleanup, !dbg !6183

lpad2:                                            ; preds = %invoke.cont24, %invoke.cont22, %for.end20, %if.then, %invoke.cont11, %for.body9, %for.cond4, %for.cond
  %18 = landingpad { i8*, i32 }
          cleanup, !dbg !6184
  %19 = extractvalue { i8*, i32 } %18, 0, !dbg !6184
  store i8* %19, i8** %exn.slot, align 8, !dbg !6184
  %20 = extractvalue { i8*, i32 } %18, 1, !dbg !6184
  store i32 %20, i32* %ehselector.slot, align 4, !dbg !6184
  call void @_ZNSt6vectorIbSaIbEED2Ev(%"class.std::vector.18"* %dead_group) #9, !dbg !6183
  br label %ehcleanup, !dbg !6183

if.end:                                           ; preds = %invoke.cont17, %invoke.cont13
  br label %for.inc, !dbg !6185

for.inc:                                          ; preds = %if.end
  %21 = load i32, i32* %j, align 4, !dbg !6186
  %inc = add nsw i32 %21, 1, !dbg !6186
  store i32 %inc, i32* %j, align 4, !dbg !6186
  br label %for.cond4, !dbg !6187, !llvm.loop !6188

for.end:                                          ; preds = %invoke.cont6
  br label %for.inc18, !dbg !6190

for.inc18:                                        ; preds = %for.end
  %22 = load i32, i32* %i, align 4, !dbg !6191
  %inc19 = add nsw i32 %22, 1, !dbg !6191
  store i32 %inc19, i32* %i, align 4, !dbg !6191
  br label %for.cond, !dbg !6192, !llvm.loop !6193

for.end20:                                        ; preds = %invoke.cont3
  %board21 = getelementptr inbounds %class.FastState, %class.FastState* %workstate, i32 0, i32 0, !dbg !6195
  %23 = bitcast %class.FullBoard* %board21 to %class.FastBoard*, !dbg !6196
  %call23 = invoke float @_ZN9FastState8get_komiEv(%class.FastState* %this1)
          to label %invoke.cont22 unwind label %lpad2, !dbg !6197

invoke.cont22:                                    ; preds = %for.end20
  %call25 = invoke i32 @_ZN9FastState12get_handicapEv(%class.FastState* %this1)
          to label %invoke.cont24 unwind label %lpad2, !dbg !6198

invoke.cont24:                                    ; preds = %invoke.cont22
  %conv26 = sitofp i32 %call25 to float, !dbg !6198
  %add = fadd float %call23, %conv26, !dbg !6199
  %call28 = invoke float @_ZN9FastBoard10area_scoreEf(%class.FastBoard* %23, float %add)
          to label %invoke.cont27 unwind label %lpad2, !dbg !6200

invoke.cont27:                                    ; preds = %invoke.cont24
  call void @_ZNSt6vectorIbSaIbEED2Ev(%"class.std::vector.18"* %dead_group) #9, !dbg !6183
  call void @_ZN9FastStateD2Ev(%class.FastState* %workstate) #9, !dbg !6183
  ret float %call28, !dbg !6183

ehcleanup:                                        ; preds = %lpad2, %lpad
  call void @_ZN9FastStateD2Ev(%class.FastState* %workstate) #9, !dbg !6183
  br label %eh.resume, !dbg !6183

eh.resume:                                        ; preds = %ehcleanup
  %exn = load i8*, i8** %exn.slot, align 8, !dbg !6183
  %sel = load i32, i32* %ehselector.slot, align 4, !dbg !6183
  %lpad.val = insertvalue { i8*, i32 } undef, i8* %exn, 0, !dbg !6183
  %lpad.val29 = insertvalue { i8*, i32 } %lpad.val, i32 %sel, 1, !dbg !6183
  resume { i8*, i32 } %lpad.val29, !dbg !6183
}

declare dso_local float @_ZN9FastBoard10area_scoreEf(%class.FastBoard*, float) #2

; Function Attrs: noinline nounwind uwtable
define dso_local float @_ZN9FastState8get_komiEv(%class.FastState* %this) #3 align 2 !dbg !6201 {
entry:
  %this.addr = alloca %class.FastState*, align 8
  store %class.FastState* %this, %class.FastState** %this.addr, align 8
  call void @llvm.dbg.declare(metadata %class.FastState** %this.addr, metadata !6202, metadata !DIExpression()), !dbg !6203
  %this1 = load %class.FastState*, %class.FastState** %this.addr, align 8
  %m_komi = getelementptr inbounds %class.FastState, %class.FastState* %this1, i32 0, i32 1, !dbg !6204
  %0 = load float, float* %m_komi, align 8, !dbg !6204
  ret float %0, !dbg !6205
}

; Function Attrs: noinline nounwind uwtable
define dso_local i32 @_ZN9FastState12get_handicapEv(%class.FastState* %this) #3 align 2 !dbg !6206 {
entry:
  %this.addr = alloca %class.FastState*, align 8
  store %class.FastState* %this, %class.FastState** %this.addr, align 8
  call void @llvm.dbg.declare(metadata %class.FastState** %this.addr, metadata !6207, metadata !DIExpression()), !dbg !6208
  %this1 = load %class.FastState*, %class.FastState** %this.addr, align 8
  %m_handicap = getelementptr inbounds %class.FastState, %class.FastState* %this1, i32 0, i32 2, !dbg !6209
  %0 = load i32, i32* %m_handicap, align 4, !dbg !6209
  ret i32 %0, !dbg !6210
}

; Function Attrs: noinline nounwind uwtable
define dso_local void @_ZN9FastState12set_handicapEi(%class.FastState* %this, i32 %hcap) #3 align 2 !dbg !6211 {
entry:
  %this.addr = alloca %class.FastState*, align 8
  %hcap.addr = alloca i32, align 4
  store %class.FastState* %this, %class.FastState** %this.addr, align 8
  call void @llvm.dbg.declare(metadata %class.FastState** %this.addr, metadata !6212, metadata !DIExpression()), !dbg !6213
  store i32 %hcap, i32* %hcap.addr, align 4
  call void @llvm.dbg.declare(metadata i32* %hcap.addr, metadata !6214, metadata !DIExpression()), !dbg !6215
  %this1 = load %class.FastState*, %class.FastState** %this.addr, align 8
  %0 = load i32, i32* %hcap.addr, align 4, !dbg !6216
  %m_handicap = getelementptr inbounds %class.FastState, %class.FastState* %this1, i32 0, i32 2, !dbg !6217
  store i32 %0, i32* %m_handicap, align 4, !dbg !6218
  ret void, !dbg !6219
}

; Function Attrs: noinline nounwind uwtable
define dso_local i32 @_ZN9FastState10get_komoveEv(%class.FastState* %this) #3 align 2 !dbg !6220 {
entry:
  %this.addr = alloca %class.FastState*, align 8
  store %class.FastState* %this, %class.FastState** %this.addr, align 8
  call void @llvm.dbg.declare(metadata %class.FastState** %this.addr, metadata !6221, metadata !DIExpression()), !dbg !6222
  %this1 = load %class.FastState*, %class.FastState** %this.addr, align 8
  %komove = getelementptr inbounds %class.FastState, %class.FastState* %this1, i32 0, i32 4, !dbg !6223
  %0 = load i32, i32* %komove, align 4, !dbg !6223
  ret i32 %0, !dbg !6224
}

; Function Attrs: noinline nounwind uwtable
define linkonce_odr dso_local void @_ZNSt12_Vector_baseIiSaIiEEC2Ev(%"struct.std::_Vector_base"* %this) unnamed_addr #3 comdat align 2 !dbg !6225 {
entry:
  %this.addr = alloca %"struct.std::_Vector_base"*, align 8
  store %"struct.std::_Vector_base"* %this, %"struct.std::_Vector_base"** %this.addr, align 8
  call void @llvm.dbg.declare(metadata %"struct.std::_Vector_base"** %this.addr, metadata !6226, metadata !DIExpression()), !dbg !6228
  %this1 = load %"struct.std::_Vector_base"*, %"struct.std::_Vector_base"** %this.addr, align 8
  %_M_impl = getelementptr inbounds %"struct.std::_Vector_base", %"struct.std::_Vector_base"* %this1, i32 0, i32 0, !dbg !6229
  call void @_ZNSt12_Vector_baseIiSaIiEE12_Vector_implC2Ev(%"struct.std::_Vector_base<int, std::allocator<int> >::_Vector_impl"* %_M_impl) #9, !dbg !6229
  ret void, !dbg !6230
}

; Function Attrs: noinline nounwind uwtable
define linkonce_odr dso_local void @_ZNSt12_Vector_baseIiSaIiEE12_Vector_implC2Ev(%"struct.std::_Vector_base<int, std::allocator<int> >::_Vector_impl"* %this) unnamed_addr #3 comdat align 2 !dbg !6231 {
entry:
  %this.addr = alloca %"struct.std::_Vector_base<int, std::allocator<int> >::_Vector_impl"*, align 8
  store %"struct.std::_Vector_base<int, std::allocator<int> >::_Vector_impl"* %this, %"struct.std::_Vector_base<int, std::allocator<int> >::_Vector_impl"** %this.addr, align 8
  call void @llvm.dbg.declare(metadata %"struct.std::_Vector_base<int, std::allocator<int> >::_Vector_impl"** %this.addr, metadata !6232, metadata !DIExpression()), !dbg !6234
  %this1 = load %"struct.std::_Vector_base<int, std::allocator<int> >::_Vector_impl"*, %"struct.std::_Vector_base<int, std::allocator<int> >::_Vector_impl"** %this.addr, align 8
  %0 = bitcast %"struct.std::_Vector_base<int, std::allocator<int> >::_Vector_impl"* %this1 to %"class.std::allocator"*, !dbg !6235
  call void @_ZNSaIiEC2Ev(%"class.std::allocator"* %0) #9, !dbg !6236
  %1 = bitcast %"struct.std::_Vector_base<int, std::allocator<int> >::_Vector_impl"* %this1 to %"struct.std::_Vector_base<int, std::allocator<int> >::_Vector_impl_data"*, !dbg !6235
  call void @_ZNSt12_Vector_baseIiSaIiEE17_Vector_impl_dataC2Ev(%"struct.std::_Vector_base<int, std::allocator<int> >::_Vector_impl_data"* %1) #9, !dbg !6237
  ret void, !dbg !6238
}

; Function Attrs: noinline nounwind uwtable
define linkonce_odr dso_local void @_ZNSt12_Vector_baseIiSaIiEE17_Vector_impl_dataC2Ev(%"struct.std::_Vector_base<int, std::allocator<int> >::_Vector_impl_data"* %this) unnamed_addr #3 comdat align 2 !dbg !6239 {
entry:
  %this.addr = alloca %"struct.std::_Vector_base<int, std::allocator<int> >::_Vector_impl_data"*, align 8
  store %"struct.std::_Vector_base<int, std::allocator<int> >::_Vector_impl_data"* %this, %"struct.std::_Vector_base<int, std::allocator<int> >::_Vector_impl_data"** %this.addr, align 8
  call void @llvm.dbg.declare(metadata %"struct.std::_Vector_base<int, std::allocator<int> >::_Vector_impl_data"** %this.addr, metadata !6240, metadata !DIExpression()), !dbg !6242
  %this1 = load %"struct.std::_Vector_base<int, std::allocator<int> >::_Vector_impl_data"*, %"struct.std::_Vector_base<int, std::allocator<int> >::_Vector_impl_data"** %this.addr, align 8
  %_M_start = getelementptr inbounds %"struct.std::_Vector_base<int, std::allocator<int> >::_Vector_impl_data", %"struct.std::_Vector_base<int, std::allocator<int> >::_Vector_impl_data"* %this1, i32 0, i32 0, !dbg !6243
  store i32* null, i32** %_M_start, align 8, !dbg !6243
  %_M_finish = getelementptr inbounds %"struct.std::_Vector_base<int, std::allocator<int> >::_Vector_impl_data", %"struct.std::_Vector_base<int, std::allocator<int> >::_Vector_impl_data"* %this1, i32 0, i32 1, !dbg !6244
  store i32* null, i32** %_M_finish, align 8, !dbg !6244
  %_M_end_of_storage = getelementptr inbounds %"struct.std::_Vector_base<int, std::allocator<int> >::_Vector_impl_data", %"struct.std::_Vector_base<int, std::allocator<int> >::_Vector_impl_data"* %this1, i32 0, i32 2, !dbg !6245
  store i32* null, i32** %_M_end_of_storage, align 8, !dbg !6245
  ret void, !dbg !6246
}

; Function Attrs: noinline nounwind uwtable
define linkonce_odr dso_local void @_ZN9__gnu_cxx13new_allocatorIiEC2Ev(%"class.__gnu_cxx::new_allocator"* %this) unnamed_addr #3 comdat align 2 !dbg !6247 {
entry:
  %this.addr = alloca %"class.__gnu_cxx::new_allocator"*, align 8
  store %"class.__gnu_cxx::new_allocator"* %this, %"class.__gnu_cxx::new_allocator"** %this.addr, align 8
  call void @llvm.dbg.declare(metadata %"class.__gnu_cxx::new_allocator"** %this.addr, metadata !6248, metadata !DIExpression()), !dbg !6250
  %this1 = load %"class.__gnu_cxx::new_allocator"*, %"class.__gnu_cxx::new_allocator"** %this.addr, align 8
  ret void, !dbg !6251
}

; Function Attrs: noinline nounwind uwtable
define linkonce_odr dso_local dereferenceable(4) i32* @_ZSt7forwardIRiEOT_RNSt16remove_referenceIS1_E4typeE(i32* dereferenceable(4) %__t) #3 comdat !dbg !6252 {
entry:
  %__t.addr = alloca i32*, align 8
  store i32* %__t, i32** %__t.addr, align 8
  call void @llvm.dbg.declare(metadata i32** %__t.addr, metadata !6261, metadata !DIExpression()), !dbg !6262
  %0 = load i32*, i32** %__t.addr, align 8, !dbg !6263
  ret i32* %0, !dbg !6264
}

; Function Attrs: noinline nounwind uwtable
define linkonce_odr dso_local void @_ZNSt4pairIiiEC2IRiS2_Lb1EEEOT_OT0_(%"struct.std::pair"* %this, i32* dereferenceable(4) %__x, i32* dereferenceable(4) %__y) unnamed_addr #3 comdat align 2 !dbg !6265 {
entry:
  %this.addr = alloca %"struct.std::pair"*, align 8
  %__x.addr = alloca i32*, align 8
  %__y.addr = alloca i32*, align 8
  store %"struct.std::pair"* %this, %"struct.std::pair"** %this.addr, align 8
  call void @llvm.dbg.declare(metadata %"struct.std::pair"** %this.addr, metadata !6273, metadata !DIExpression()), !dbg !6274
  store i32* %__x, i32** %__x.addr, align 8
  call void @llvm.dbg.declare(metadata i32** %__x.addr, metadata !6275, metadata !DIExpression()), !dbg !6276
  store i32* %__y, i32** %__y.addr, align 8
  call void @llvm.dbg.declare(metadata i32** %__y.addr, metadata !6277, metadata !DIExpression()), !dbg !6278
  %this1 = load %"struct.std::pair"*, %"struct.std::pair"** %this.addr, align 8
  %0 = bitcast %"struct.std::pair"* %this1 to %"class.std::__pair_base"*, !dbg !6279
  %first = getelementptr inbounds %"struct.std::pair", %"struct.std::pair"* %this1, i32 0, i32 0, !dbg !6280
  %1 = load i32*, i32** %__x.addr, align 8, !dbg !6281
  %call = call dereferenceable(4) i32* @_ZSt7forwardIRiEOT_RNSt16remove_referenceIS1_E4typeE(i32* dereferenceable(4) %1) #9, !dbg !6282
  %2 = load i32, i32* %call, align 4, !dbg !6282
  store i32 %2, i32* %first, align 4, !dbg !6280
  %second = getelementptr inbounds %"struct.std::pair", %"struct.std::pair"* %this1, i32 0, i32 1, !dbg !6283
  %3 = load i32*, i32** %__y.addr, align 8, !dbg !6284
  %call2 = call dereferenceable(4) i32* @_ZSt7forwardIRiEOT_RNSt16remove_referenceIS1_E4typeE(i32* dereferenceable(4) %3) #9, !dbg !6285
  %4 = load i32, i32* %call2, align 4, !dbg !6285
  store i32 %4, i32* %second, align 4, !dbg !6283
  ret void, !dbg !6286
}

; Function Attrs: noinline nounwind uwtable
define linkonce_odr dso_local void @_ZSt14__fill_bvectorPmjjb(i64* %__v, i32 %__first, i32 %__last, i1 zeroext %__x) #3 comdat !dbg !6287 {
entry:
  %__v.addr = alloca i64*, align 8
  %__first.addr = alloca i32, align 4
  %__last.addr = alloca i32, align 4
  %__x.addr = alloca i8, align 1
  %__fmask = alloca i64, align 8
  %__lmask = alloca i64, align 8
  %__mask = alloca i64, align 8
  store i64* %__v, i64** %__v.addr, align 8
  call void @llvm.dbg.declare(metadata i64** %__v.addr, metadata !6290, metadata !DIExpression()), !dbg !6291
  store i32 %__first, i32* %__first.addr, align 4
  call void @llvm.dbg.declare(metadata i32* %__first.addr, metadata !6292, metadata !DIExpression()), !dbg !6293
  store i32 %__last, i32* %__last.addr, align 4
  call void @llvm.dbg.declare(metadata i32* %__last.addr, metadata !6294, metadata !DIExpression()), !dbg !6295
  %frombool = zext i1 %__x to i8
  store i8 %frombool, i8* %__x.addr, align 1
  call void @llvm.dbg.declare(metadata i8* %__x.addr, metadata !6296, metadata !DIExpression()), !dbg !6297
  call void @llvm.dbg.declare(metadata i64* %__fmask, metadata !6298, metadata !DIExpression()), !dbg !6300
  %0 = load i32, i32* %__first.addr, align 4, !dbg !6301
  %sh_prom = zext i32 %0 to i64, !dbg !6302
  %shl = shl i64 -1, %sh_prom, !dbg !6302
  store i64 %shl, i64* %__fmask, align 8, !dbg !6300
  call void @llvm.dbg.declare(metadata i64* %__lmask, metadata !6303, metadata !DIExpression()), !dbg !6304
  %1 = load i32, i32* %__last.addr, align 4, !dbg !6305
  %sub = sub i32 64, %1, !dbg !6306
  %sh_prom1 = zext i32 %sub to i64, !dbg !6307
  %shr = lshr i64 -1, %sh_prom1, !dbg !6307
  store i64 %shr, i64* %__lmask, align 8, !dbg !6304
  call void @llvm.dbg.declare(metadata i64* %__mask, metadata !6308, metadata !DIExpression()), !dbg !6309
  %2 = load i64, i64* %__fmask, align 8, !dbg !6310
  %3 = load i64, i64* %__lmask, align 8, !dbg !6311
  %and = and i64 %2, %3, !dbg !6312
  store i64 %and, i64* %__mask, align 8, !dbg !6309
  %4 = load i8, i8* %__x.addr, align 1, !dbg !6313
  %tobool = trunc i8 %4 to i1, !dbg !6313
  br i1 %tobool, label %if.then, label %if.else, !dbg !6315

if.then:                                          ; preds = %entry
  %5 = load i64, i64* %__mask, align 8, !dbg !6316
  %6 = load i64*, i64** %__v.addr, align 8, !dbg !6317
  %7 = load i64, i64* %6, align 8, !dbg !6318
  %or = or i64 %7, %5, !dbg !6318
  store i64 %or, i64* %6, align 8, !dbg !6318
  br label %if.end, !dbg !6319

if.else:                                          ; preds = %entry
  %8 = load i64, i64* %__mask, align 8, !dbg !6320
  %neg = xor i64 %8, -1, !dbg !6321
  %9 = load i64*, i64** %__v.addr, align 8, !dbg !6322
  %10 = load i64, i64* %9, align 8, !dbg !6323
  %and2 = and i64 %10, %neg, !dbg !6323
  store i64 %and2, i64* %9, align 8, !dbg !6323
  br label %if.end

if.end:                                           ; preds = %if.else, %if.then
  ret void, !dbg !6324
}

; Function Attrs: argmemonly nounwind willreturn
declare void @llvm.memset.p0i8.i64(i8* nocapture writeonly, i8, i64, i1 immarg) #4

; Function Attrs: noinline uwtable
define linkonce_odr dso_local void @_ZN9FullBoardC2ERKS_(%class.FullBoard* %this, %class.FullBoard* dereferenceable(8072) %0) unnamed_addr #0 comdat align 2 !dbg !6325 {
entry:
  %this.addr = alloca %class.FullBoard*, align 8
  %.addr = alloca %class.FullBoard*, align 8
  store %class.FullBoard* %this, %class.FullBoard** %this.addr, align 8
  call void @llvm.dbg.declare(metadata %class.FullBoard** %this.addr, metadata !6331, metadata !DIExpression()), !dbg !6333
  store %class.FullBoard* %0, %class.FullBoard** %.addr, align 8
  call void @llvm.dbg.declare(metadata %class.FullBoard** %.addr, metadata !6334, metadata !DIExpression()), !dbg !6333
  %this1 = load %class.FullBoard*, %class.FullBoard** %this.addr, align 8
  %1 = bitcast %class.FullBoard* %this1 to %class.FastBoard*, !dbg !6335
  %2 = load %class.FullBoard*, %class.FullBoard** %.addr, align 8, !dbg !6335
