; ModuleID = 'TTable.cpp'
source_filename = "TTable.cpp"
target datalayout = "e-m:e-p270:32:32-p271:32:32-p272:64:64-i64:64-f80:128-n8:16:32:64-S128"
target triple = "x86_64-unknown-linux-gnu"

%class.TTable = type { %"class.std::vector", %"class.SMP::Mutex" }
%"class.std::vector" = type { %"struct.std::_Vector_base" }
%"struct.std::_Vector_base" = type { %"struct.std::_Vector_base<TTEntry, std::allocator<TTEntry> >::_Vector_impl" }
%"struct.std::_Vector_base<TTEntry, std::allocator<TTEntry> >::_Vector_impl" = type { %"struct.std::_Vector_base<TTEntry, std::allocator<TTEntry> >::_Vector_impl_data" }
%"struct.std::_Vector_base<TTEntry, std::allocator<TTEntry> >::_Vector_impl_data" = type { %class.TTEntry*, %class.TTEntry*, %class.TTEntry* }
%class.TTEntry = type { i64, float, i32 }
%"class.SMP::Mutex" = type { i64 }
%"class.std::allocator" = type { i8 }
%class.UCTNode = type { %class.UCTNode*, %class.UCTNode*, i32, i32, i32, i32, i32, i8, i32, %"class.SMP::Mutex" }
%"class.SMP::Lock" = type { %"class.SMP::Mutex"* }
%"class.__gnu_cxx::new_allocator" = type { i8 }
%"struct.std::integral_constant" = type { i8 }

$_ZNSt6vectorI7TTEntrySaIS0_EEC2Ev = comdat any

$_ZNSt6vectorI7TTEntrySaIS0_EE6resizeEm = comdat any

$_ZNSt6vectorI7TTEntrySaIS0_EED2Ev = comdat any

$_ZNKSt6vectorI7TTEntrySaIS0_EE4sizeEv = comdat any

$_ZNSt6vectorI7TTEntrySaIS0_EEixEm = comdat any

$_ZNSt12_Vector_baseI7TTEntrySaIS0_EEC2Ev = comdat any

$_ZNSt12_Vector_baseI7TTEntrySaIS0_EE12_Vector_implC2Ev = comdat any

$_ZNSaI7TTEntryEC2Ev = comdat any

$_ZNSt12_Vector_baseI7TTEntrySaIS0_EE17_Vector_impl_dataC2Ev = comdat any

$_ZN9__gnu_cxx13new_allocatorI7TTEntryEC2Ev = comdat any

$_ZSt8_DestroyIP7TTEntryS0_EvT_S2_RSaIT0_E = comdat any

$_ZNSt12_Vector_baseI7TTEntrySaIS0_EE19_M_get_Tp_allocatorEv = comdat any

$_ZNSt12_Vector_baseI7TTEntrySaIS0_EED2Ev = comdat any

$__clang_call_terminate = comdat any

$_ZSt8_DestroyIP7TTEntryEvT_S2_ = comdat any

$_ZNSt12_Destroy_auxILb1EE9__destroyIP7TTEntryEEvT_S4_ = comdat any

$_ZNSt12_Vector_baseI7TTEntrySaIS0_EE13_M_deallocateEPS0_m = comdat any

$_ZNSt12_Vector_baseI7TTEntrySaIS0_EE12_Vector_implD2Ev = comdat any

$_ZNSt16allocator_traitsISaI7TTEntryEE10deallocateERS1_PS0_m = comdat any

$_ZN9__gnu_cxx13new_allocatorI7TTEntryE10deallocateEPS1_m = comdat any

$_ZNSaI7TTEntryED2Ev = comdat any

$_ZN9__gnu_cxx13new_allocatorI7TTEntryED2Ev = comdat any

$_ZNSt6vectorI7TTEntrySaIS0_EE17_M_default_appendEm = comdat any

$_ZNSt6vectorI7TTEntrySaIS0_EE15_M_erase_at_endEPS0_ = comdat any

$_ZNKSt6vectorI7TTEntrySaIS0_EE8max_sizeEv = comdat any

$_ZSt27__uninitialized_default_n_aIP7TTEntrymS0_ET_S2_T0_RSaIT1_E = comdat any

$_ZNKSt6vectorI7TTEntrySaIS0_EE12_M_check_lenEmPKc = comdat any

$_ZNSt12_Vector_baseI7TTEntrySaIS0_EE11_M_allocateEm = comdat any

$_ZNSt6vectorI7TTEntrySaIS0_EE11_S_relocateEPS0_S3_S3_RS1_ = comdat any

$_ZNSt6vectorI7TTEntrySaIS0_EE11_S_max_sizeERKS1_ = comdat any

$_ZNKSt12_Vector_baseI7TTEntrySaIS0_EE19_M_get_Tp_allocatorEv = comdat any

$_ZNSt16allocator_traitsISaI7TTEntryEE8max_sizeERKS1_ = comdat any

$_ZSt3minImERKT_S2_S2_ = comdat any

$_ZNK9__gnu_cxx13new_allocatorI7TTEntryE8max_sizeEv = comdat any

$_ZNK9__gnu_cxx13new_allocatorI7TTEntryE11_M_max_sizeEv = comdat any

$_ZSt25__uninitialized_default_nIP7TTEntrymET_S2_T0_ = comdat any

$_ZNSt27__uninitialized_default_n_1ILb0EE18__uninit_default_nIP7TTEntrymEET_S4_T0_ = comdat any

$_ZSt10_ConstructI7TTEntryJEEvPT_DpOT0_ = comdat any

$_ZSt11__addressofI7TTEntryEPT_RS1_ = comdat any

$_ZSt3maxImERKT_S2_S2_ = comdat any

$_ZNSt16allocator_traitsISaI7TTEntryEE8allocateERS1_m = comdat any

$_ZN9__gnu_cxx13new_allocatorI7TTEntryE8allocateEmPKv = comdat any

$_ZNSt6vectorI7TTEntrySaIS0_EE14_S_do_relocateEPS0_S3_S3_RS1_St17integral_constantIbLb1EE = comdat any

$_ZSt12__relocate_aIP7TTEntryS1_SaIS0_EET0_T_S4_S3_RT1_ = comdat any

$_ZSt14__relocate_a_1IP7TTEntryS1_SaIS0_EET0_T_S4_S3_RT1_ = comdat any

$_ZSt12__niter_baseIP7TTEntryET_S2_ = comdat any

$_ZSt19__relocate_object_aI7TTEntryS0_SaIS0_EEvPT_PT0_RT1_ = comdat any

$_ZNSt16allocator_traitsISaI7TTEntryEE9constructIS0_JS0_EEEvRS1_PT_DpOT0_ = comdat any

$_ZSt4moveIR7TTEntryEONSt16remove_referenceIT_E4typeEOS3_ = comdat any

$_ZNSt16allocator_traitsISaI7TTEntryEE7destroyIS0_EEvRS1_PT_ = comdat any

$_ZN9__gnu_cxx13new_allocatorI7TTEntryE9constructIS1_JS1_EEEvPT_DpOT0_ = comdat any

$_ZSt7forwardI7TTEntryEOT_RNSt16remove_referenceIS1_E4typeE = comdat any

$_ZN9__gnu_cxx13new_allocatorI7TTEntryE7destroyIS1_EEvPT_ = comdat any

@_ZN6TTable8s_ttableE = dso_local global %class.TTable* null, align 8, !dbg !0
@.str = private unnamed_addr constant [26 x i8] c"vector::_M_default_append\00", align 1

@_ZN6TTableC1Ei = dso_local unnamed_addr alias void (%class.TTable*, i32), void (%class.TTable*, i32)* @_ZN6TTableC2Ei
@_ZN7TTEntryC1Ev = dso_local unnamed_addr alias void (%class.TTEntry*), void (%class.TTEntry*)* @_ZN7TTEntryC2Ev

; Function Attrs: noinline uwtable
define dso_local %class.TTable* @_ZN6TTable6get_TTEv() #0 align 2 personality i8* bitcast (i32 (...)* @__gxx_personality_v0 to i8*) !dbg !3310 {
entry:
  %exn.slot = alloca i8*
  %ehselector.slot = alloca i32
  %0 = load %class.TTable*, %class.TTable** @_ZN6TTable8s_ttableE, align 8, !dbg !3311
  %cmp = icmp eq %class.TTable* %0, null, !dbg !3313
  br i1 %cmp, label %if.then, label %if.end, !dbg !3314

if.then:                                          ; preds = %entry
  %call = call i8* @_Znwm(i64 32) #11, !dbg !3315
  %1 = bitcast i8* %call to %class.TTable*, !dbg !3315
  invoke void @_ZN6TTableC1Ei(%class.TTable* %1, i32 200000)
          to label %invoke.cont unwind label %lpad, !dbg !3317

invoke.cont:                                      ; preds = %if.then
  store %class.TTable* %1, %class.TTable** @_ZN6TTable8s_ttableE, align 8, !dbg !3318
  br label %if.end, !dbg !3319

lpad:                                             ; preds = %if.then
  %2 = landingpad { i8*, i32 }
          cleanup, !dbg !3320
  %3 = extractvalue { i8*, i32 } %2, 0, !dbg !3320
  store i8* %3, i8** %exn.slot, align 8, !dbg !3320
  %4 = extractvalue { i8*, i32 } %2, 1, !dbg !3320
  store i32 %4, i32* %ehselector.slot, align 4, !dbg !3320
  call void @_ZdlPv(i8* %call) #12, !dbg !3315
  br label %eh.resume, !dbg !3315

if.end:                                           ; preds = %invoke.cont, %entry
  %5 = load %class.TTable*, %class.TTable** @_ZN6TTable8s_ttableE, align 8, !dbg !3321
  ret %class.TTable* %5, !dbg !3322

eh.resume:                                        ; preds = %lpad
  %exn = load i8*, i8** %exn.slot, align 8, !dbg !3315
  %sel = load i32, i32* %ehselector.slot, align 4, !dbg !3315
  %lpad.val = insertvalue { i8*, i32 } undef, i8* %exn, 0, !dbg !3315
  %lpad.val1 = insertvalue { i8*, i32 } %lpad.val, i32 %sel, 1, !dbg !3315
  resume { i8*, i32 } %lpad.val1, !dbg !3315
}

; Function Attrs: nobuiltin
declare dso_local noalias i8* @_Znwm(i64) #1

declare dso_local i32 @__gxx_personality_v0(...)

; Function Attrs: nobuiltin nounwind
declare dso_local void @_ZdlPv(i8*) #2

; Function Attrs: noinline uwtable
define dso_local void @_ZN6TTableC2Ei(%class.TTable* %this, i32 %size) unnamed_addr #0 align 2 personality i8* bitcast (i32 (...)* @__gxx_personality_v0 to i8*) !dbg !3323 {
entry:
  %this.addr = alloca %class.TTable*, align 8
  %size.addr = alloca i32, align 4
  %exn.slot = alloca i8*
  %ehselector.slot = alloca i32
  store %class.TTable* %this, %class.TTable** %this.addr, align 8
  call void @llvm.dbg.declare(metadata %class.TTable** %this.addr, metadata !3324, metadata !DIExpression()), !dbg !3325
  store i32 %size, i32* %size.addr, align 4
  call void @llvm.dbg.declare(metadata i32* %size.addr, metadata !3326, metadata !DIExpression()), !dbg !3327
  %this1 = load %class.TTable*, %class.TTable** %this.addr, align 8
  %m_buckets = getelementptr inbounds %class.TTable, %class.TTable* %this1, i32 0, i32 0, !dbg !3328
  call void @_ZNSt6vectorI7TTEntrySaIS0_EEC2Ev(%"class.std::vector"* %m_buckets) #13, !dbg !3328
  %m_mutex = getelementptr inbounds %class.TTable, %class.TTable* %this1, i32 0, i32 1, !dbg !3328
  invoke void @_ZN3SMP5MutexC1Ev(%"class.SMP::Mutex"* %m_mutex)
          to label %invoke.cont unwind label %lpad, !dbg !3328

invoke.cont:                                      ; preds = %entry
  %m_buckets2 = getelementptr inbounds %class.TTable, %class.TTable* %this1, i32 0, i32 0, !dbg !3329
  %0 = load i32, i32* %size.addr, align 4, !dbg !3331
  %conv = sext i32 %0 to i64, !dbg !3331
  invoke void @_ZNSt6vectorI7TTEntrySaIS0_EE6resizeEm(%"class.std::vector"* %m_buckets2, i64 %conv)
          to label %invoke.cont3 unwind label %lpad, !dbg !3332

invoke.cont3:                                     ; preds = %invoke.cont
  ret void, !dbg !3333

lpad:                                             ; preds = %invoke.cont, %entry
  %1 = landingpad { i8*, i32 }
          cleanup, !dbg !3333
  %2 = extractvalue { i8*, i32 } %1, 0, !dbg !3333
  store i8* %2, i8** %exn.slot, align 8, !dbg !3333
  %3 = extractvalue { i8*, i32 } %1, 1, !dbg !3333
  store i32 %3, i32* %ehselector.slot, align 4, !dbg !3333
  call void @_ZNSt6vectorI7TTEntrySaIS0_EED2Ev(%"class.std::vector"* %m_buckets) #13, !dbg !3334
  br label %eh.resume, !dbg !3334

eh.resume:                                        ; preds = %lpad
  %exn = load i8*, i8** %exn.slot, align 8, !dbg !3334
  %sel = load i32, i32* %ehselector.slot, align 4, !dbg !3334
  %lpad.val = insertvalue { i8*, i32 } undef, i8* %exn, 0, !dbg !3334
  %lpad.val4 = insertvalue { i8*, i32 } %lpad.val, i32 %sel, 1, !dbg !3334
  resume { i8*, i32 } %lpad.val4, !dbg !3334
}

; Function Attrs: nounwind readnone speculatable willreturn
declare void @llvm.dbg.declare(metadata, metadata, metadata) #3

; Function Attrs: noinline nounwind uwtable
define linkonce_odr dso_local void @_ZNSt6vectorI7TTEntrySaIS0_EEC2Ev(%"class.std::vector"* %this) unnamed_addr #4 comdat align 2 !dbg !3335 {
entry:
  %this.addr = alloca %"class.std::vector"*, align 8
  store %"class.std::vector"* %this, %"class.std::vector"** %this.addr, align 8
  call void @llvm.dbg.declare(metadata %"class.std::vector"** %this.addr, metadata !3336, metadata !DIExpression()), !dbg !3338
  %this1 = load %"class.std::vector"*, %"class.std::vector"** %this.addr, align 8
  %0 = bitcast %"class.std::vector"* %this1 to %"struct.std::_Vector_base"*, !dbg !3339
  call void @_ZNSt12_Vector_baseI7TTEntrySaIS0_EEC2Ev(%"struct.std::_Vector_base"* %0) #13, !dbg !3340
  ret void, !dbg !3339
}

declare dso_local void @_ZN3SMP5MutexC1Ev(%"class.SMP::Mutex"*) unnamed_addr #5

; Function Attrs: noinline uwtable
define linkonce_odr dso_local void @_ZNSt6vectorI7TTEntrySaIS0_EE6resizeEm(%"class.std::vector"* %this, i64 %__new_size) #0 comdat align 2 !dbg !3341 {
entry:
  %this.addr = alloca %"class.std::vector"*, align 8
  %__new_size.addr = alloca i64, align 8
  store %"class.std::vector"* %this, %"class.std::vector"** %this.addr, align 8
  call void @llvm.dbg.declare(metadata %"class.std::vector"** %this.addr, metadata !3342, metadata !DIExpression()), !dbg !3343
  store i64 %__new_size, i64* %__new_size.addr, align 8
  call void @llvm.dbg.declare(metadata i64* %__new_size.addr, metadata !3344, metadata !DIExpression()), !dbg !3345
  %this1 = load %"class.std::vector"*, %"class.std::vector"** %this.addr, align 8
  %0 = load i64, i64* %__new_size.addr, align 8, !dbg !3346
  %call = call i64 @_ZNKSt6vectorI7TTEntrySaIS0_EE4sizeEv(%"class.std::vector"* %this1) #13, !dbg !3348
  %cmp = icmp ugt i64 %0, %call, !dbg !3349
  br i1 %cmp, label %if.then, label %if.else, !dbg !3350

if.then:                                          ; preds = %entry
  %1 = load i64, i64* %__new_size.addr, align 8, !dbg !3351
  %call2 = call i64 @_ZNKSt6vectorI7TTEntrySaIS0_EE4sizeEv(%"class.std::vector"* %this1) #13, !dbg !3352
  %sub = sub i64 %1, %call2, !dbg !3353
  call void @_ZNSt6vectorI7TTEntrySaIS0_EE17_M_default_appendEm(%"class.std::vector"* %this1, i64 %sub), !dbg !3354
  br label %if.end6, !dbg !3354

if.else:                                          ; preds = %entry
  %2 = load i64, i64* %__new_size.addr, align 8, !dbg !3355
  %call3 = call i64 @_ZNKSt6vectorI7TTEntrySaIS0_EE4sizeEv(%"class.std::vector"* %this1) #13, !dbg !3357
  %cmp4 = icmp ult i64 %2, %call3, !dbg !3358
  br i1 %cmp4, label %if.then5, label %if.end, !dbg !3359

if.then5:                                         ; preds = %if.else
  %3 = bitcast %"class.std::vector"* %this1 to %"struct.std::_Vector_base"*, !dbg !3360
  %_M_impl = getelementptr inbounds %"struct.std::_Vector_base", %"struct.std::_Vector_base"* %3, i32 0, i32 0, !dbg !3360
  %4 = bitcast %"struct.std::_Vector_base<TTEntry, std::allocator<TTEntry> >::_Vector_impl"* %_M_impl to %"struct.std::_Vector_base<TTEntry, std::allocator<TTEntry> >::_Vector_impl_data"*, !dbg !3361
  %_M_start = getelementptr inbounds %"struct.std::_Vector_base<TTEntry, std::allocator<TTEntry> >::_Vector_impl_data", %"struct.std::_Vector_base<TTEntry, std::allocator<TTEntry> >::_Vector_impl_data"* %4, i32 0, i32 0, !dbg !3362
  %5 = load %class.TTEntry*, %class.TTEntry** %_M_start, align 8, !dbg !3362
  %6 = load i64, i64* %__new_size.addr, align 8, !dbg !3363
  %add.ptr = getelementptr inbounds %class.TTEntry, %class.TTEntry* %5, i64 %6, !dbg !3364
  call void @_ZNSt6vectorI7TTEntrySaIS0_EE15_M_erase_at_endEPS0_(%"class.std::vector"* %this1, %class.TTEntry* %add.ptr) #13, !dbg !3365
  br label %if.end, !dbg !3365

if.end:                                           ; preds = %if.then5, %if.else
  br label %if.end6

if.end6:                                          ; preds = %if.end, %if.then
  ret void, !dbg !3366
}

; Function Attrs: noinline nounwind uwtable
define linkonce_odr dso_local void @_ZNSt6vectorI7TTEntrySaIS0_EED2Ev(%"class.std::vector"* %this) unnamed_addr #4 comdat align 2 personality i8* bitcast (i32 (...)* @__gxx_personality_v0 to i8*) !dbg !3367 {
entry:
  %this.addr = alloca %"class.std::vector"*, align 8
  %exn.slot = alloca i8*
  %ehselector.slot = alloca i32
  store %"class.std::vector"* %this, %"class.std::vector"** %this.addr, align 8
  call void @llvm.dbg.declare(metadata %"class.std::vector"** %this.addr, metadata !3368, metadata !DIExpression()), !dbg !3369
  %this1 = load %"class.std::vector"*, %"class.std::vector"** %this.addr, align 8
  %0 = bitcast %"class.std::vector"* %this1 to %"struct.std::_Vector_base"*, !dbg !3370
  %_M_impl = getelementptr inbounds %"struct.std::_Vector_base", %"struct.std::_Vector_base"* %0, i32 0, i32 0, !dbg !3370
  %1 = bitcast %"struct.std::_Vector_base<TTEntry, std::allocator<TTEntry> >::_Vector_impl"* %_M_impl to %"struct.std::_Vector_base<TTEntry, std::allocator<TTEntry> >::_Vector_impl_data"*, !dbg !3372
  %_M_start = getelementptr inbounds %"struct.std::_Vector_base<TTEntry, std::allocator<TTEntry> >::_Vector_impl_data", %"struct.std::_Vector_base<TTEntry, std::allocator<TTEntry> >::_Vector_impl_data"* %1, i32 0, i32 0, !dbg !3373
  %2 = load %class.TTEntry*, %class.TTEntry** %_M_start, align 8, !dbg !3373
  %3 = bitcast %"class.std::vector"* %this1 to %"struct.std::_Vector_base"*, !dbg !3374
  %_M_impl2 = getelementptr inbounds %"struct.std::_Vector_base", %"struct.std::_Vector_base"* %3, i32 0, i32 0, !dbg !3374
  %4 = bitcast %"struct.std::_Vector_base<TTEntry, std::allocator<TTEntry> >::_Vector_impl"* %_M_impl2 to %"struct.std::_Vector_base<TTEntry, std::allocator<TTEntry> >::_Vector_impl_data"*, !dbg !3375
  %_M_finish = getelementptr inbounds %"struct.std::_Vector_base<TTEntry, std::allocator<TTEntry> >::_Vector_impl_data", %"struct.std::_Vector_base<TTEntry, std::allocator<TTEntry> >::_Vector_impl_data"* %4, i32 0, i32 1, !dbg !3376
  %5 = load %class.TTEntry*, %class.TTEntry** %_M_finish, align 8, !dbg !3376
  %6 = bitcast %"class.std::vector"* %this1 to %"struct.std::_Vector_base"*, !dbg !3377
  %call = call dereferenceable(1) %"class.std::allocator"* @_ZNSt12_Vector_baseI7TTEntrySaIS0_EE19_M_get_Tp_allocatorEv(%"struct.std::_Vector_base"* %6) #13, !dbg !3377
  invoke void @_ZSt8_DestroyIP7TTEntryS0_EvT_S2_RSaIT0_E(%class.TTEntry* %2, %class.TTEntry* %5, %"class.std::allocator"* dereferenceable(1) %call)
          to label %invoke.cont unwind label %lpad, !dbg !3378

invoke.cont:                                      ; preds = %entry
  %7 = bitcast %"class.std::vector"* %this1 to %"struct.std::_Vector_base"*, !dbg !3379
  call void @_ZNSt12_Vector_baseI7TTEntrySaIS0_EED2Ev(%"struct.std::_Vector_base"* %7) #13, !dbg !3379
  ret void, !dbg !3380

lpad:                                             ; preds = %entry
  %8 = landingpad { i8*, i32 }
          catch i8* null, !dbg !3379
  %9 = extractvalue { i8*, i32 } %8, 0, !dbg !3379
  store i8* %9, i8** %exn.slot, align 8, !dbg !3379
  %10 = extractvalue { i8*, i32 } %8, 1, !dbg !3379
  store i32 %10, i32* %ehselector.slot, align 4, !dbg !3379
  %11 = bitcast %"class.std::vector"* %this1 to %"struct.std::_Vector_base"*, !dbg !3379
  call void @_ZNSt12_Vector_baseI7TTEntrySaIS0_EED2Ev(%"struct.std::_Vector_base"* %11) #13, !dbg !3379
  br label %terminate.handler, !dbg !3379

terminate.handler:                                ; preds = %lpad
  %exn = load i8*, i8** %exn.slot, align 8, !dbg !3379
  call void @__clang_call_terminate(i8* %exn) #14, !dbg !3379
  unreachable, !dbg !3379
}

; Function Attrs: noinline uwtable
define dso_local void @_ZN6TTable6updateEyPK7UCTNode(%class.TTable* %this, i64 %hash, %class.UCTNode* %node) #0 align 2 personality i8* bitcast (i32 (...)* @__gxx_personality_v0 to i8*) !dbg !3381 {
entry:
  %this.addr = alloca %class.TTable*, align 8
  %hash.addr = alloca i64, align 8
  %node.addr = alloca %class.UCTNode*, align 8
  %index = alloca i32, align 4
  %lock = alloca %"class.SMP::Lock", align 8
  %exn.slot = alloca i8*
  %ehselector.slot = alloca i32
  store %class.TTable* %this, %class.TTable** %this.addr, align 8
  call void @llvm.dbg.declare(metadata %class.TTable** %this.addr, metadata !3382, metadata !DIExpression()), !dbg !3383
  store i64 %hash, i64* %hash.addr, align 8
  call void @llvm.dbg.declare(metadata i64* %hash.addr, metadata !3384, metadata !DIExpression()), !dbg !3385
  store %class.UCTNode* %node, %class.UCTNode** %node.addr, align 8
  call void @llvm.dbg.declare(metadata %class.UCTNode** %node.addr, metadata !3386, metadata !DIExpression()), !dbg !3387
  %this1 = load %class.TTable*, %class.TTable** %this.addr, align 8
  call void @llvm.dbg.declare(metadata i32* %index, metadata !3388, metadata !DIExpression()), !dbg !3389
  %0 = load i64, i64* %hash.addr, align 8, !dbg !3390
  %conv = trunc i64 %0 to i32, !dbg !3390
  store i32 %conv, i32* %index, align 4, !dbg !3389
  %m_buckets = getelementptr inbounds %class.TTable, %class.TTable* %this1, i32 0, i32 0, !dbg !3391
  %call = call i64 @_ZNKSt6vectorI7TTEntrySaIS0_EE4sizeEv(%"class.std::vector"* %m_buckets) #13, !dbg !3392
  %1 = load i32, i32* %index, align 4, !dbg !3393
  %conv2 = zext i32 %1 to i64, !dbg !3393
  %rem = urem i64 %conv2, %call, !dbg !3393
  %conv3 = trunc i64 %rem to i32, !dbg !3393
  store i32 %conv3, i32* %index, align 4, !dbg !3393
  call void @llvm.dbg.declare(metadata %"class.SMP::Lock"* %lock, metadata !3394, metadata !DIExpression()), !dbg !3406
  %m_mutex = getelementptr inbounds %class.TTable, %class.TTable* %this1, i32 0, i32 1, !dbg !3407
  call void @_ZN3SMP4LockC1ERNS_5MutexE(%"class.SMP::Lock"* %lock, %"class.SMP::Mutex"* dereferenceable(8) %m_mutex), !dbg !3406
  %2 = load i64, i64* %hash.addr, align 8, !dbg !3408
  %m_buckets4 = getelementptr inbounds %class.TTable, %class.TTable* %this1, i32 0, i32 0, !dbg !3409
  %3 = load i32, i32* %index, align 4, !dbg !3410
  %conv5 = zext i32 %3 to i64, !dbg !3410
  %call6 = call dereferenceable(16) %class.TTEntry* @_ZNSt6vectorI7TTEntrySaIS0_EEixEm(%"class.std::vector"* %m_buckets4, i64 %conv5) #13, !dbg !3409
  %m_hash = getelementptr inbounds %class.TTEntry, %class.TTEntry* %call6, i32 0, i32 0, !dbg !3411
  store i64 %2, i64* %m_hash, align 8, !dbg !3412
  %4 = load %class.UCTNode*, %class.UCTNode** %node.addr, align 8, !dbg !3413
  %call7 = invoke i32 @_ZNK7UCTNode10get_visitsEv(%class.UCTNode* %4)
          to label %invoke.cont unwind label %lpad, !dbg !3414

invoke.cont:                                      ; preds = %entry
  %m_buckets8 = getelementptr inbounds %class.TTable, %class.TTable* %this1, i32 0, i32 0, !dbg !3415
  %5 = load i32, i32* %index, align 4, !dbg !3416
  %conv9 = zext i32 %5 to i64, !dbg !3416
  %call10 = call dereferenceable(16) %class.TTEntry* @_ZNSt6vectorI7TTEntrySaIS0_EEixEm(%"class.std::vector"* %m_buckets8, i64 %conv9) #13, !dbg !3415
  %m_visits = getelementptr inbounds %class.TTEntry, %class.TTEntry* %call10, i32 0, i32 2, !dbg !3417
  store i32 %call7, i32* %m_visits, align 4, !dbg !3418
  %6 = load %class.UCTNode*, %class.UCTNode** %node.addr, align 8, !dbg !3419
  %call12 = invoke i32 @_ZNK7UCTNode13get_blackwinsEv(%class.UCTNode* %6)
          to label %invoke.cont11 unwind label %lpad, !dbg !3420

invoke.cont11:                                    ; preds = %invoke.cont
  %conv13 = sitofp i32 %call12 to float, !dbg !3419
  %m_buckets14 = getelementptr inbounds %class.TTable, %class.TTable* %this1, i32 0, i32 0, !dbg !3421
  %7 = load i32, i32* %index, align 4, !dbg !3422
  %conv15 = zext i32 %7 to i64, !dbg !3422
  %call16 = call dereferenceable(16) %class.TTEntry* @_ZNSt6vectorI7TTEntrySaIS0_EEixEm(%"class.std::vector"* %m_buckets14, i64 %conv15) #13, !dbg !3421
  %m_blackwins = getelementptr inbounds %class.TTEntry, %class.TTEntry* %call16, i32 0, i32 1, !dbg !3423
  store float %conv13, float* %m_blackwins, align 8, !dbg !3424
  call void @_ZN3SMP4LockD1Ev(%"class.SMP::Lock"* %lock) #13, !dbg !3425
  ret void, !dbg !3425

lpad:                                             ; preds = %invoke.cont, %entry
  %8 = landingpad { i8*, i32 }
          cleanup, !dbg !3425
  %9 = extractvalue { i8*, i32 } %8, 0, !dbg !3425
  store i8* %9, i8** %exn.slot, align 8, !dbg !3425
  %10 = extractvalue { i8*, i32 } %8, 1, !dbg !3425
  store i32 %10, i32* %ehselector.slot, align 4, !dbg !3425
  call void @_ZN3SMP4LockD1Ev(%"class.SMP::Lock"* %lock) #13, !dbg !3425
  br label %eh.resume, !dbg !3425

eh.resume:                                        ; preds = %lpad
  %exn = load i8*, i8** %exn.slot, align 8, !dbg !3425
  %sel = load i32, i32* %ehselector.slot, align 4, !dbg !3425
  %lpad.val = insertvalue { i8*, i32 } undef, i8* %exn, 0, !dbg !3425
  %lpad.val17 = insertvalue { i8*, i32 } %lpad.val, i32 %sel, 1, !dbg !3425
  resume { i8*, i32 } %lpad.val17, !dbg !3425
}

; Function Attrs: noinline nounwind uwtable
define linkonce_odr dso_local i64 @_ZNKSt6vectorI7TTEntrySaIS0_EE4sizeEv(%"class.std::vector"* %this) #4 comdat align 2 !dbg !3426 {
entry:
  %this.addr = alloca %"class.std::vector"*, align 8
  store %"class.std::vector"* %this, %"class.std::vector"** %this.addr, align 8
  call void @llvm.dbg.declare(metadata %"class.std::vector"** %this.addr, metadata !3427, metadata !DIExpression()), !dbg !3429
  %this1 = load %"class.std::vector"*, %"class.std::vector"** %this.addr, align 8
  %0 = bitcast %"class.std::vector"* %this1 to %"struct.std::_Vector_base"*, !dbg !3430
  %_M_impl = getelementptr inbounds %"struct.std::_Vector_base", %"struct.std::_Vector_base"* %0, i32 0, i32 0, !dbg !3430
  %1 = bitcast %"struct.std::_Vector_base<TTEntry, std::allocator<TTEntry> >::_Vector_impl"* %_M_impl to %"struct.std::_Vector_base<TTEntry, std::allocator<TTEntry> >::_Vector_impl_data"*, !dbg !3431
  %_M_finish = getelementptr inbounds %"struct.std::_Vector_base<TTEntry, std::allocator<TTEntry> >::_Vector_impl_data", %"struct.std::_Vector_base<TTEntry, std::allocator<TTEntry> >::_Vector_impl_data"* %1, i32 0, i32 1, !dbg !3432
  %2 = load %class.TTEntry*, %class.TTEntry** %_M_finish, align 8, !dbg !3432
  %3 = bitcast %"class.std::vector"* %this1 to %"struct.std::_Vector_base"*, !dbg !3433
  %_M_impl2 = getelementptr inbounds %"struct.std::_Vector_base", %"struct.std::_Vector_base"* %3, i32 0, i32 0, !dbg !3433
  %4 = bitcast %"struct.std::_Vector_base<TTEntry, std::allocator<TTEntry> >::_Vector_impl"* %_M_impl2 to %"struct.std::_Vector_base<TTEntry, std::allocator<TTEntry> >::_Vector_impl_data"*, !dbg !3434
  %_M_start = getelementptr inbounds %"struct.std::_Vector_base<TTEntry, std::allocator<TTEntry> >::_Vector_impl_data", %"struct.std::_Vector_base<TTEntry, std::allocator<TTEntry> >::_Vector_impl_data"* %4, i32 0, i32 0, !dbg !3435
  %5 = load %class.TTEntry*, %class.TTEntry** %_M_start, align 8, !dbg !3435
  %sub.ptr.lhs.cast = ptrtoint %class.TTEntry* %2 to i64, !dbg !3436
  %sub.ptr.rhs.cast = ptrtoint %class.TTEntry* %5 to i64, !dbg !3436
  %sub.ptr.sub = sub i64 %sub.ptr.lhs.cast, %sub.ptr.rhs.cast, !dbg !3436
  %sub.ptr.div = sdiv exact i64 %sub.ptr.sub, 16, !dbg !3436
  ret i64 %sub.ptr.div, !dbg !3437
}

declare dso_local void @_ZN3SMP4LockC1ERNS_5MutexE(%"class.SMP::Lock"*, %"class.SMP::Mutex"* dereferenceable(8)) unnamed_addr #5

; Function Attrs: noinline nounwind uwtable
define linkonce_odr dso_local dereferenceable(16) %class.TTEntry* @_ZNSt6vectorI7TTEntrySaIS0_EEixEm(%"class.std::vector"* %this, i64 %__n) #4 comdat align 2 !dbg !3438 {
entry:
  %this.addr = alloca %"class.std::vector"*, align 8
  %__n.addr = alloca i64, align 8
  store %"class.std::vector"* %this, %"class.std::vector"** %this.addr, align 8
  call void @llvm.dbg.declare(metadata %"class.std::vector"** %this.addr, metadata !3439, metadata !DIExpression()), !dbg !3440
  store i64 %__n, i64* %__n.addr, align 8
  call void @llvm.dbg.declare(metadata i64* %__n.addr, metadata !3441, metadata !DIExpression()), !dbg !3442
  %this1 = load %"class.std::vector"*, %"class.std::vector"** %this.addr, align 8
  %0 = bitcast %"class.std::vector"* %this1 to %"struct.std::_Vector_base"*, !dbg !3443
  %_M_impl = getelementptr inbounds %"struct.std::_Vector_base", %"struct.std::_Vector_base"* %0, i32 0, i32 0, !dbg !3443
  %1 = bitcast %"struct.std::_Vector_base<TTEntry, std::allocator<TTEntry> >::_Vector_impl"* %_M_impl to %"struct.std::_Vector_base<TTEntry, std::allocator<TTEntry> >::_Vector_impl_data"*, !dbg !3444
  %_M_start = getelementptr inbounds %"struct.std::_Vector_base<TTEntry, std::allocator<TTEntry> >::_Vector_impl_data", %"struct.std::_Vector_base<TTEntry, std::allocator<TTEntry> >::_Vector_impl_data"* %1, i32 0, i32 0, !dbg !3445
  %2 = load %class.TTEntry*, %class.TTEntry** %_M_start, align 8, !dbg !3445
  %3 = load i64, i64* %__n.addr, align 8, !dbg !3446
  %add.ptr = getelementptr inbounds %class.TTEntry, %class.TTEntry* %2, i64 %3, !dbg !3447
  ret %class.TTEntry* %add.ptr, !dbg !3448
}

declare dso_local i32 @_ZNK7UCTNode10get_visitsEv(%class.UCTNode*) #5

declare dso_local i32 @_ZNK7UCTNode13get_blackwinsEv(%class.UCTNode*) #5

; Function Attrs: nounwind
declare dso_local void @_ZN3SMP4LockD1Ev(%"class.SMP::Lock"*) unnamed_addr #6

; Function Attrs: noinline uwtable
define dso_local void @_ZN6TTable4syncEyP7UCTNode(%class.TTable* %this, i64 %hash, %class.UCTNode* %node) #0 align 2 personality i8* bitcast (i32 (...)* @__gxx_personality_v0 to i8*) !dbg !3449 {
entry:
  %this.addr = alloca %class.TTable*, align 8
  %hash.addr = alloca i64, align 8
  %node.addr = alloca %class.UCTNode*, align 8
  %index = alloca i32, align 4
  %lock = alloca %"class.SMP::Lock", align 8
  %cleanup.dest.slot = alloca i32, align 4
  %exn.slot = alloca i8*
  %ehselector.slot = alloca i32
  store %class.TTable* %this, %class.TTable** %this.addr, align 8
  call void @llvm.dbg.declare(metadata %class.TTable** %this.addr, metadata !3450, metadata !DIExpression()), !dbg !3451
  store i64 %hash, i64* %hash.addr, align 8
  call void @llvm.dbg.declare(metadata i64* %hash.addr, metadata !3452, metadata !DIExpression()), !dbg !3453
  store %class.UCTNode* %node, %class.UCTNode** %node.addr, align 8
  call void @llvm.dbg.declare(metadata %class.UCTNode** %node.addr, metadata !3454, metadata !DIExpression()), !dbg !3455
  %this1 = load %class.TTable*, %class.TTable** %this.addr, align 8
  call void @llvm.dbg.declare(metadata i32* %index, metadata !3456, metadata !DIExpression()), !dbg !3457
  %0 = load i64, i64* %hash.addr, align 8, !dbg !3458
  %conv = trunc i64 %0 to i32, !dbg !3458
  store i32 %conv, i32* %index, align 4, !dbg !3457
  %m_buckets = getelementptr inbounds %class.TTable, %class.TTable* %this1, i32 0, i32 0, !dbg !3459
  %call = call i64 @_ZNKSt6vectorI7TTEntrySaIS0_EE4sizeEv(%"class.std::vector"* %m_buckets) #13, !dbg !3460
  %1 = load i32, i32* %index, align 4, !dbg !3461
  %conv2 = zext i32 %1 to i64, !dbg !3461
  %rem = urem i64 %conv2, %call, !dbg !3461
  %conv3 = trunc i64 %rem to i32, !dbg !3461
  store i32 %conv3, i32* %index, align 4, !dbg !3461
  call void @llvm.dbg.declare(metadata %"class.SMP::Lock"* %lock, metadata !3462, metadata !DIExpression()), !dbg !3463
  %m_mutex = getelementptr inbounds %class.TTable, %class.TTable* %this1, i32 0, i32 1, !dbg !3464
  call void @_ZN3SMP4LockC1ERNS_5MutexE(%"class.SMP::Lock"* %lock, %"class.SMP::Mutex"* dereferenceable(8) %m_mutex), !dbg !3463
  %m_buckets4 = getelementptr inbounds %class.TTable, %class.TTable* %this1, i32 0, i32 0, !dbg !3465
  %2 = load i32, i32* %index, align 4, !dbg !3467
  %conv5 = zext i32 %2 to i64, !dbg !3467
  %call6 = call dereferenceable(16) %class.TTEntry* @_ZNSt6vectorI7TTEntrySaIS0_EEixEm(%"class.std::vector"* %m_buckets4, i64 %conv5) #13, !dbg !3465
  %m_hash = getelementptr inbounds %class.TTEntry, %class.TTEntry* %call6, i32 0, i32 0, !dbg !3468
  %3 = load i64, i64* %m_hash, align 8, !dbg !3468
  %4 = load i64, i64* %hash.addr, align 8, !dbg !3469
  %cmp = icmp ne i64 %3, %4, !dbg !3470
  br i1 %cmp, label %if.then, label %if.end, !dbg !3471

if.then:                                          ; preds = %entry
  store i32 1, i32* %cleanup.dest.slot, align 4
  br label %cleanup, !dbg !3472

if.end:                                           ; preds = %entry
  %m_buckets7 = getelementptr inbounds %class.TTable, %class.TTable* %this1, i32 0, i32 0, !dbg !3474
  %5 = load i32, i32* %index, align 4, !dbg !3476
  %conv8 = zext i32 %5 to i64, !dbg !3476
  %call9 = call dereferenceable(16) %class.TTEntry* @_ZNSt6vectorI7TTEntrySaIS0_EEixEm(%"class.std::vector"* %m_buckets7, i64 %conv8) #13, !dbg !3474
  %m_visits = getelementptr inbounds %class.TTEntry, %class.TTEntry* %call9, i32 0, i32 2, !dbg !3477
  %6 = load i32, i32* %m_visits, align 4, !dbg !3477
  %7 = load %class.UCTNode*, %class.UCTNode** %node.addr, align 8, !dbg !3478
  %call10 = invoke i32 @_ZNK7UCTNode10get_visitsEv(%class.UCTNode* %7)
          to label %invoke.cont unwind label %lpad, !dbg !3479

invoke.cont:                                      ; preds = %if.end
  %cmp11 = icmp sgt i32 %6, %call10, !dbg !3480
  br i1 %cmp11, label %if.then12, label %if.end23, !dbg !3481

if.then12:                                        ; preds = %invoke.cont
  %8 = load %class.UCTNode*, %class.UCTNode** %node.addr, align 8, !dbg !3482
  %m_buckets13 = getelementptr inbounds %class.TTable, %class.TTable* %this1, i32 0, i32 0, !dbg !3484
  %9 = load i32, i32* %index, align 4, !dbg !3485
  %conv14 = zext i32 %9 to i64, !dbg !3485
  %call15 = call dereferenceable(16) %class.TTEntry* @_ZNSt6vectorI7TTEntrySaIS0_EEixEm(%"class.std::vector"* %m_buckets13, i64 %conv14) #13, !dbg !3484
  %m_visits16 = getelementptr inbounds %class.TTEntry, %class.TTEntry* %call15, i32 0, i32 2, !dbg !3486
  %10 = load i32, i32* %m_visits16, align 4, !dbg !3486
  invoke void @_ZN7UCTNode10set_visitsEi(%class.UCTNode* %8, i32 %10)
          to label %invoke.cont17 unwind label %lpad, !dbg !3487

invoke.cont17:                                    ; preds = %if.then12
  %11 = load %class.UCTNode*, %class.UCTNode** %node.addr, align 8, !dbg !3488
  %m_buckets18 = getelementptr inbounds %class.TTable, %class.TTable* %this1, i32 0, i32 0, !dbg !3489
  %12 = load i32, i32* %index, align 4, !dbg !3490
  %conv19 = zext i32 %12 to i64, !dbg !3490
  %call20 = call dereferenceable(16) %class.TTEntry* @_ZNSt6vectorI7TTEntrySaIS0_EEixEm(%"class.std::vector"* %m_buckets18, i64 %conv19) #13, !dbg !3489
  %m_blackwins = getelementptr inbounds %class.TTEntry, %class.TTEntry* %call20, i32 0, i32 1, !dbg !3491
  %13 = load float, float* %m_blackwins, align 8, !dbg !3491
  %conv21 = fptosi float %13 to i32, !dbg !3489
  invoke void @_ZN7UCTNode13set_blackwinsEi(%class.UCTNode* %11, i32 %conv21)
          to label %invoke.cont22 unwind label %lpad, !dbg !3492

invoke.cont22:                                    ; preds = %invoke.cont17
  br label %if.end23, !dbg !3493

lpad:                                             ; preds = %invoke.cont17, %if.then12, %if.end
  %14 = landingpad { i8*, i32 }
          cleanup, !dbg !3494
  %15 = extractvalue { i8*, i32 } %14, 0, !dbg !3494
  store i8* %15, i8** %exn.slot, align 8, !dbg !3494
  %16 = extractvalue { i8*, i32 } %14, 1, !dbg !3494
  store i32 %16, i32* %ehselector.slot, align 4, !dbg !3494
  call void @_ZN3SMP4LockD1Ev(%"class.SMP::Lock"* %lock) #13, !dbg !3495
  br label %eh.resume, !dbg !3495

if.end23:                                         ; preds = %invoke.cont22, %invoke.cont
  store i32 0, i32* %cleanup.dest.slot, align 4, !dbg !3495
  br label %cleanup, !dbg !3495

cleanup:                                          ; preds = %if.end23, %if.then
  call void @_ZN3SMP4LockD1Ev(%"class.SMP::Lock"* %lock) #13, !dbg !3495
  %cleanup.dest = load i32, i32* %cleanup.dest.slot, align 4
  switch i32 %cleanup.dest, label %unreachable [
    i32 0, label %cleanup.cont
    i32 1, label %cleanup.cont
  ]

cleanup.cont:                                     ; preds = %cleanup, %cleanup
  ret void, !dbg !3495

eh.resume:                                        ; preds = %lpad
  %exn = load i8*, i8** %exn.slot, align 8, !dbg !3495
  %sel = load i32, i32* %ehselector.slot, align 4, !dbg !3495
  %lpad.val = insertvalue { i8*, i32 } undef, i8* %exn, 0, !dbg !3495
  %lpad.val24 = insertvalue { i8*, i32 } %lpad.val, i32 %sel, 1, !dbg !3495
  resume { i8*, i32 } %lpad.val24, !dbg !3495

unreachable:                                      ; preds = %cleanup
  unreachable
}

declare dso_local void @_ZN7UCTNode10set_visitsEi(%class.UCTNode*, i32) #5

declare dso_local void @_ZN7UCTNode13set_blackwinsEi(%class.UCTNode*, i32) #5

; Function Attrs: noinline nounwind uwtable
define dso_local void @_ZN7TTEntryC2Ev(%class.TTEntry* %this) unnamed_addr #4 align 2 !dbg !3496 {
entry:
  %this.addr = alloca %class.TTEntry*, align 8
  store %class.TTEntry* %this, %class.TTEntry** %this.addr, align 8
  call void @llvm.dbg.declare(metadata %class.TTEntry** %this.addr, metadata !3497, metadata !DIExpression()), !dbg !3498
  %this1 = load %class.TTEntry*, %class.TTEntry** %this.addr, align 8
  %m_hash = getelementptr inbounds %class.TTEntry, %class.TTEntry* %this1, i32 0, i32 0, !dbg !3499
  store i64 0, i64* %m_hash, align 8, !dbg !3499
  %m_blackwins = getelementptr inbounds %class.TTEntry, %class.TTEntry* %this1, i32 0, i32 1, !dbg !3500
  store float 0.000000e+00, float* %m_blackwins, align 8, !dbg !3500
  %m_visits = getelementptr inbounds %class.TTEntry, %class.TTEntry* %this1, i32 0, i32 2, !dbg !3501
  store i32 0, i32* %m_visits, align 4, !dbg !3501
  ret void, !dbg !3502
}

; Function Attrs: noinline nounwind uwtable
define linkonce_odr dso_local void @_ZNSt12_Vector_baseI7TTEntrySaIS0_EEC2Ev(%"struct.std::_Vector_base"* %this) unnamed_addr #4 comdat align 2 !dbg !3503 {
entry:
  %this.addr = alloca %"struct.std::_Vector_base"*, align 8
  store %"struct.std::_Vector_base"* %this, %"struct.std::_Vector_base"** %this.addr, align 8
  call void @llvm.dbg.declare(metadata %"struct.std::_Vector_base"** %this.addr, metadata !3504, metadata !DIExpression()), !dbg !3506
  %this1 = load %"struct.std::_Vector_base"*, %"struct.std::_Vector_base"** %this.addr, align 8
  %_M_impl = getelementptr inbounds %"struct.std::_Vector_base", %"struct.std::_Vector_base"* %this1, i32 0, i32 0, !dbg !3507
  call void @_ZNSt12_Vector_baseI7TTEntrySaIS0_EE12_Vector_implC2Ev(%"struct.std::_Vector_base<TTEntry, std::allocator<TTEntry> >::_Vector_impl"* %_M_impl) #13, !dbg !3507
  ret void, !dbg !3508
}

; Function Attrs: noinline nounwind uwtable
define linkonce_odr dso_local void @_ZNSt12_Vector_baseI7TTEntrySaIS0_EE12_Vector_implC2Ev(%"struct.std::_Vector_base<TTEntry, std::allocator<TTEntry> >::_Vector_impl"* %this) unnamed_addr #4 comdat align 2 !dbg !3509 {
entry:
  %this.addr = alloca %"struct.std::_Vector_base<TTEntry, std::allocator<TTEntry> >::_Vector_impl"*, align 8
  store %"struct.std::_Vector_base<TTEntry, std::allocator<TTEntry> >::_Vector_impl"* %this, %"struct.std::_Vector_base<TTEntry, std::allocator<TTEntry> >::_Vector_impl"** %this.addr, align 8
  call void @llvm.dbg.declare(metadata %"struct.std::_Vector_base<TTEntry, std::allocator<TTEntry> >::_Vector_impl"** %this.addr, metadata !3510, metadata !DIExpression()), !dbg !3512
  %this1 = load %"struct.std::_Vector_base<TTEntry, std::allocator<TTEntry> >::_Vector_impl"*, %"struct.std::_Vector_base<TTEntry, std::allocator<TTEntry> >::_Vector_impl"** %this.addr, align 8
  %0 = bitcast %"struct.std::_Vector_base<TTEntry, std::allocator<TTEntry> >::_Vector_impl"* %this1 to %"class.std::allocator"*, !dbg !3513
  call void @_ZNSaI7TTEntryEC2Ev(%"class.std::allocator"* %0) #13, !dbg !3514
  %1 = bitcast %"struct.std::_Vector_base<TTEntry, std::allocator<TTEntry> >::_Vector_impl"* %this1 to %"struct.std::_Vector_base<TTEntry, std::allocator<TTEntry> >::_Vector_impl_data"*, !dbg !3513
  call void @_ZNSt12_Vector_baseI7TTEntrySaIS0_EE17_Vector_impl_dataC2Ev(%"struct.std::_Vector_base<TTEntry, std::allocator<TTEntry> >::_Vector_impl_data"* %1) #13, !dbg !3515
  ret void, !dbg !3516
}

; Function Attrs: noinline nounwind uwtable
define linkonce_odr dso_local void @_ZNSaI7TTEntryEC2Ev(%"class.std::allocator"* %this) unnamed_addr #4 comdat align 2 !dbg !3517 {
entry:
  %this.addr = alloca %"class.std::allocator"*, align 8
  store %"class.std::allocator"* %this, %"class.std::allocator"** %this.addr, align 8
  call void @llvm.dbg.declare(metadata %"class.std::allocator"** %this.addr, metadata !3518, metadata !DIExpression()), !dbg !3520
  %this1 = load %"class.std::allocator"*, %"class.std::allocator"** %this.addr, align 8
  %0 = bitcast %"class.std::allocator"* %this1 to %"class.__gnu_cxx::new_allocator"*, !dbg !3521
  call void @_ZN9__gnu_cxx13new_allocatorI7TTEntryEC2Ev(%"class.__gnu_cxx::new_allocator"* %0) #13, !dbg !3522
  ret void, !dbg !3523
}

; Function Attrs: noinline nounwind uwtable
define linkonce_odr dso_local void @_ZNSt12_Vector_baseI7TTEntrySaIS0_EE17_Vector_impl_dataC2Ev(%"struct.std::_Vector_base<TTEntry, std::allocator<TTEntry> >::_Vector_impl_data"* %this) unnamed_addr #4 comdat align 2 !dbg !3524 {
entry:
  %this.addr = alloca %"struct.std::_Vector_base<TTEntry, std::allocator<TTEntry> >::_Vector_impl_data"*, align 8
  store %"struct.std::_Vector_base<TTEntry, std::allocator<TTEntry> >::_Vector_impl_data"* %this, %"struct.std::_Vector_base<TTEntry, std::allocator<TTEntry> >::_Vector_impl_data"** %this.addr, align 8
  call void @llvm.dbg.declare(metadata %"struct.std::_Vector_base<TTEntry, std::allocator<TTEntry> >::_Vector_impl_data"** %this.addr, metadata !3525, metadata !DIExpression()), !dbg !3527
  %this1 = load %"struct.std::_Vector_base<TTEntry, std::allocator<TTEntry> >::_Vector_impl_data"*, %"struct.std::_Vector_base<TTEntry, std::allocator<TTEntry> >::_Vector_impl_data"** %this.addr, align 8
  %_M_start = getelementptr inbounds %"struct.std::_Vector_base<TTEntry, std::allocator<TTEntry> >::_Vector_impl_data", %"struct.std::_Vector_base<TTEntry, std::allocator<TTEntry> >::_Vector_impl_data"* %this1, i32 0, i32 0, !dbg !3528
  store %class.TTEntry* null, %class.TTEntry** %_M_start, align 8, !dbg !3528
  %_M_finish = getelementptr inbounds %"struct.std::_Vector_base<TTEntry, std::allocator<TTEntry> >::_Vector_impl_data", %"struct.std::_Vector_base<TTEntry, std::allocator<TTEntry> >::_Vector_impl_data"* %this1, i32 0, i32 1, !dbg !3529
  store %class.TTEntry* null, %class.TTEntry** %_M_finish, align 8, !dbg !3529
  %_M_end_of_storage = getelementptr inbounds %"struct.std::_Vector_base<TTEntry, std::allocator<TTEntry> >::_Vector_impl_data", %"struct.std::_Vector_base<TTEntry, std::allocator<TTEntry> >::_Vector_impl_data"* %this1, i32 0, i32 2, !dbg !3530
  store %class.TTEntry* null, %class.TTEntry** %_M_end_of_storage, align 8, !dbg !3530
  ret void, !dbg !3531
}

; Function Attrs: noinline nounwind uwtable
define linkonce_odr dso_local void @_ZN9__gnu_cxx13new_allocatorI7TTEntryEC2Ev(%"class.__gnu_cxx::new_allocator"* %this) unnamed_addr #4 comdat align 2 !dbg !3532 {
entry:
  %this.addr = alloca %"class.__gnu_cxx::new_allocator"*, align 8
  store %"class.__gnu_cxx::new_allocator"* %this, %"class.__gnu_cxx::new_allocator"** %this.addr, align 8
  call void @llvm.dbg.declare(metadata %"class.__gnu_cxx::new_allocator"** %this.addr, metadata !3533, metadata !DIExpression()), !dbg !3535
  %this1 = load %"class.__gnu_cxx::new_allocator"*, %"class.__gnu_cxx::new_allocator"** %this.addr, align 8
  ret void, !dbg !3536
}

; Function Attrs: noinline uwtable
define linkonce_odr dso_local void @_ZSt8_DestroyIP7TTEntryS0_EvT_S2_RSaIT0_E(%class.TTEntry* %__first, %class.TTEntry* %__last, %"class.std::allocator"* dereferenceable(1) %0) #0 comdat !dbg !3537 {
entry:
  %__first.addr = alloca %class.TTEntry*, align 8
  %__last.addr = alloca %class.TTEntry*, align 8
  %.addr = alloca %"class.std::allocator"*, align 8
  store %class.TTEntry* %__first, %class.TTEntry** %__first.addr, align 8
  call void @llvm.dbg.declare(metadata %class.TTEntry** %__first.addr, metadata !3542, metadata !DIExpression()), !dbg !3543
  store %class.TTEntry* %__last, %class.TTEntry** %__last.addr, align 8
  call void @llvm.dbg.declare(metadata %class.TTEntry** %__last.addr, metadata !3544, metadata !DIExpression()), !dbg !3545
  store %"class.std::allocator"* %0, %"class.std::allocator"** %.addr, align 8
  call void @llvm.dbg.declare(metadata %"class.std::allocator"** %.addr, metadata !3546, metadata !DIExpression()), !dbg !3547
  %1 = load %class.TTEntry*, %class.TTEntry** %__first.addr, align 8, !dbg !3548
  %2 = load %class.TTEntry*, %class.TTEntry** %__last.addr, align 8, !dbg !3549
  call void @_ZSt8_DestroyIP7TTEntryEvT_S2_(%class.TTEntry* %1, %class.TTEntry* %2), !dbg !3550
  ret void, !dbg !3551
}

; Function Attrs: noinline nounwind uwtable
define linkonce_odr dso_local dereferenceable(1) %"class.std::allocator"* @_ZNSt12_Vector_baseI7TTEntrySaIS0_EE19_M_get_Tp_allocatorEv(%"struct.std::_Vector_base"* %this) #4 comdat align 2 !dbg !3552 {
entry:
  %this.addr = alloca %"struct.std::_Vector_base"*, align 8
  store %"struct.std::_Vector_base"* %this, %"struct.std::_Vector_base"** %this.addr, align 8
  call void @llvm.dbg.declare(metadata %"struct.std::_Vector_base"** %this.addr, metadata !3553, metadata !DIExpression()), !dbg !3554
  %this1 = load %"struct.std::_Vector_base"*, %"struct.std::_Vector_base"** %this.addr, align 8
  %_M_impl = getelementptr inbounds %"struct.std::_Vector_base", %"struct.std::_Vector_base"* %this1, i32 0, i32 0, !dbg !3555
  %0 = bitcast %"struct.std::_Vector_base<TTEntry, std::allocator<TTEntry> >::_Vector_impl"* %_M_impl to %"class.std::allocator"*, !dbg !3556
  ret %"class.std::allocator"* %0, !dbg !3557
}

; Function Attrs: noinline nounwind uwtable
define linkonce_odr dso_local void @_ZNSt12_Vector_baseI7TTEntrySaIS0_EED2Ev(%"struct.std::_Vector_base"* %this) unnamed_addr #4 comdat align 2 personality i8* bitcast (i32 (...)* @__gxx_personality_v0 to i8*) !dbg !3558 {
entry:
  %this.addr = alloca %"struct.std::_Vector_base"*, align 8
  %exn.slot = alloca i8*
  %ehselector.slot = alloca i32
  store %"struct.std::_Vector_base"* %this, %"struct.std::_Vector_base"** %this.addr, align 8
  call void @llvm.dbg.declare(metadata %"struct.std::_Vector_base"** %this.addr, metadata !3559, metadata !DIExpression()), !dbg !3560
  %this1 = load %"struct.std::_Vector_base"*, %"struct.std::_Vector_base"** %this.addr, align 8
  %_M_impl = getelementptr inbounds %"struct.std::_Vector_base", %"struct.std::_Vector_base"* %this1, i32 0, i32 0, !dbg !3561
  %0 = bitcast %"struct.std::_Vector_base<TTEntry, std::allocator<TTEntry> >::_Vector_impl"* %_M_impl to %"struct.std::_Vector_base<TTEntry, std::allocator<TTEntry> >::_Vector_impl_data"*, !dbg !3561
  %_M_start = getelementptr inbounds %"struct.std::_Vector_base<TTEntry, std::allocator<TTEntry> >::_Vector_impl_data", %"struct.std::_Vector_base<TTEntry, std::allocator<TTEntry> >::_Vector_impl_data"* %0, i32 0, i32 0, !dbg !3563
  %1 = load %class.TTEntry*, %class.TTEntry** %_M_start, align 8, !dbg !3563
  %_M_impl2 = getelementptr inbounds %"struct.std::_Vector_base", %"struct.std::_Vector_base"* %this1, i32 0, i32 0, !dbg !3564
  %2 = bitcast %"struct.std::_Vector_base<TTEntry, std::allocator<TTEntry> >::_Vector_impl"* %_M_impl2 to %"struct.std::_Vector_base<TTEntry, std::allocator<TTEntry> >::_Vector_impl_data"*, !dbg !3564
  %_M_end_of_storage = getelementptr inbounds %"struct.std::_Vector_base<TTEntry, std::allocator<TTEntry> >::_Vector_impl_data", %"struct.std::_Vector_base<TTEntry, std::allocator<TTEntry> >::_Vector_impl_data"* %2, i32 0, i32 2, !dbg !3565
  %3 = load %class.TTEntry*, %class.TTEntry** %_M_end_of_storage, align 8, !dbg !3565
  %_M_impl3 = getelementptr inbounds %"struct.std::_Vector_base", %"struct.std::_Vector_base"* %this1, i32 0, i32 0, !dbg !3566
  %4 = bitcast %"struct.std::_Vector_base<TTEntry, std::allocator<TTEntry> >::_Vector_impl"* %_M_impl3 to %"struct.std::_Vector_base<TTEntry, std::allocator<TTEntry> >::_Vector_impl_data"*, !dbg !3566
  %_M_start4 = getelementptr inbounds %"struct.std::_Vector_base<TTEntry, std::allocator<TTEntry> >::_Vector_impl_data", %"struct.std::_Vector_base<TTEntry, std::allocator<TTEntry> >::_Vector_impl_data"* %4, i32 0, i32 0, !dbg !3567
  %5 = load %class.TTEntry*, %class.TTEntry** %_M_start4, align 8, !dbg !3567
  %sub.ptr.lhs.cast = ptrtoint %class.TTEntry* %3 to i64, !dbg !3568
  %sub.ptr.rhs.cast = ptrtoint %class.TTEntry* %5 to i64, !dbg !3568
  %sub.ptr.sub = sub i64 %sub.ptr.lhs.cast, %sub.ptr.rhs.cast, !dbg !3568
  %sub.ptr.div = sdiv exact i64 %sub.ptr.sub, 16, !dbg !3568
  invoke void @_ZNSt12_Vector_baseI7TTEntrySaIS0_EE13_M_deallocateEPS0_m(%"struct.std::_Vector_base"* %this1, %class.TTEntry* %1, i64 %sub.ptr.div)
          to label %invoke.cont unwind label %lpad, !dbg !3569

invoke.cont:                                      ; preds = %entry
  %_M_impl5 = getelementptr inbounds %"struct.std::_Vector_base", %"struct.std::_Vector_base"* %this1, i32 0, i32 0, !dbg !3570
  call void @_ZNSt12_Vector_baseI7TTEntrySaIS0_EE12_Vector_implD2Ev(%"struct.std::_Vector_base<TTEntry, std::allocator<TTEntry> >::_Vector_impl"* %_M_impl5) #13, !dbg !3570
  ret void, !dbg !3571

lpad:                                             ; preds = %entry
  %6 = landingpad { i8*, i32 }
          catch i8* null, !dbg !3570
  %7 = extractvalue { i8*, i32 } %6, 0, !dbg !3570
  store i8* %7, i8** %exn.slot, align 8, !dbg !3570
  %8 = extractvalue { i8*, i32 } %6, 1, !dbg !3570
  store i32 %8, i32* %ehselector.slot, align 4, !dbg !3570
  %_M_impl6 = getelementptr inbounds %"struct.std::_Vector_base", %"struct.std::_Vector_base"* %this1, i32 0, i32 0, !dbg !3570
  call void @_ZNSt12_Vector_baseI7TTEntrySaIS0_EE12_Vector_implD2Ev(%"struct.std::_Vector_base<TTEntry, std::allocator<TTEntry> >::_Vector_impl"* %_M_impl6) #13, !dbg !3570
  br label %terminate.handler, !dbg !3570

terminate.handler:                                ; preds = %lpad
  %exn = load i8*, i8** %exn.slot, align 8, !dbg !3570
  call void @__clang_call_terminate(i8* %exn) #14, !dbg !3570
  unreachable, !dbg !3570
}

; Function Attrs: noinline noreturn nounwind
define linkonce_odr hidden void @__clang_call_terminate(i8* %0) #7 comdat {
  %2 = call i8* @__cxa_begin_catch(i8* %0) #13
  call void @_ZSt9terminatev() #14
  unreachable
}

declare dso_local i8* @__cxa_begin_catch(i8*)

declare dso_local void @_ZSt9terminatev()

; Function Attrs: noinline uwtable
define linkonce_odr dso_local void @_ZSt8_DestroyIP7TTEntryEvT_S2_(%class.TTEntry* %__first, %class.TTEntry* %__last) #0 comdat !dbg !3572 {
entry:
  %__first.addr = alloca %class.TTEntry*, align 8
  %__last.addr = alloca %class.TTEntry*, align 8
  store %class.TTEntry* %__first, %class.TTEntry** %__first.addr, align 8
  call void @llvm.dbg.declare(metadata %class.TTEntry** %__first.addr, metadata !3577, metadata !DIExpression()), !dbg !3578
  store %class.TTEntry* %__last, %class.TTEntry** %__last.addr, align 8
  call void @llvm.dbg.declare(metadata %class.TTEntry** %__last.addr, metadata !3579, metadata !DIExpression()), !dbg !3580
  %0 = load %class.TTEntry*, %class.TTEntry** %__first.addr, align 8, !dbg !3581
  %1 = load %class.TTEntry*, %class.TTEntry** %__last.addr, align 8, !dbg !3582
  call void @_ZNSt12_Destroy_auxILb1EE9__destroyIP7TTEntryEEvT_S4_(%class.TTEntry* %0, %class.TTEntry* %1), !dbg !3583
  ret void, !dbg !3584
}

; Function Attrs: noinline nounwind uwtable
define linkonce_odr dso_local void @_ZNSt12_Destroy_auxILb1EE9__destroyIP7TTEntryEEvT_S4_(%class.TTEntry* %0, %class.TTEntry* %1) #4 comdat align 2 !dbg !3585 {
entry:
  %.addr = alloca %class.TTEntry*, align 8
  %.addr1 = alloca %class.TTEntry*, align 8
  store %class.TTEntry* %0, %class.TTEntry** %.addr, align 8
  call void @llvm.dbg.declare(metadata %class.TTEntry** %.addr, metadata !3590, metadata !DIExpression()), !dbg !3591
  store %class.TTEntry* %1, %class.TTEntry** %.addr1, align 8
  call void @llvm.dbg.declare(metadata %class.TTEntry** %.addr1, metadata !3592, metadata !DIExpression()), !dbg !3593
  ret void, !dbg !3594
}

; Function Attrs: noinline uwtable
define linkonce_odr dso_local void @_ZNSt12_Vector_baseI7TTEntrySaIS0_EE13_M_deallocateEPS0_m(%"struct.std::_Vector_base"* %this, %class.TTEntry* %__p, i64 %__n) #0 comdat align 2 !dbg !3595 {
entry:
  %this.addr = alloca %"struct.std::_Vector_base"*, align 8
  %__p.addr = alloca %class.TTEntry*, align 8
  %__n.addr = alloca i64, align 8
  store %"struct.std::_Vector_base"* %this, %"struct.std::_Vector_base"** %this.addr, align 8
  call void @llvm.dbg.declare(metadata %"struct.std::_Vector_base"** %this.addr, metadata !3596, metadata !DIExpression()), !dbg !3597
  store %class.TTEntry* %__p, %class.TTEntry** %__p.addr, align 8
  call void @llvm.dbg.declare(metadata %class.TTEntry** %__p.addr, metadata !3598, metadata !DIExpression()), !dbg !3599
  store i64 %__n, i64* %__n.addr, align 8
  call void @llvm.dbg.declare(metadata i64* %__n.addr, metadata !3600, metadata !DIExpression()), !dbg !3601
  %this1 = load %"struct.std::_Vector_base"*, %"struct.std::_Vector_base"** %this.addr, align 8
  %0 = load %class.TTEntry*, %class.TTEntry** %__p.addr, align 8, !dbg !3602
  %tobool = icmp ne %class.TTEntry* %0, null, !dbg !3602
  br i1 %tobool, label %if.then, label %if.end, !dbg !3604

if.then:                                          ; preds = %entry
  %_M_impl = getelementptr inbounds %"struct.std::_Vector_base", %"struct.std::_Vector_base"* %this1, i32 0, i32 0, !dbg !3605
  %1 = bitcast %"struct.std::_Vector_base<TTEntry, std::allocator<TTEntry> >::_Vector_impl"* %_M_impl to %"class.std::allocator"*, !dbg !3605
  %2 = load %class.TTEntry*, %class.TTEntry** %__p.addr, align 8, !dbg !3606
  %3 = load i64, i64* %__n.addr, align 8, !dbg !3607
  call void @_ZNSt16allocator_traitsISaI7TTEntryEE10deallocateERS1_PS0_m(%"class.std::allocator"* dereferenceable(1) %1, %class.TTEntry* %2, i64 %3), !dbg !3608
  br label %if.end, !dbg !3608

if.end:                                           ; preds = %if.then, %entry
  ret void, !dbg !3609
}

; Function Attrs: noinline nounwind uwtable
define linkonce_odr dso_local void @_ZNSt12_Vector_baseI7TTEntrySaIS0_EE12_Vector_implD2Ev(%"struct.std::_Vector_base<TTEntry, std::allocator<TTEntry> >::_Vector_impl"* %this) unnamed_addr #4 comdat align 2 !dbg !3610 {
entry:
  %this.addr = alloca %"struct.std::_Vector_base<TTEntry, std::allocator<TTEntry> >::_Vector_impl"*, align 8
  store %"struct.std::_Vector_base<TTEntry, std::allocator<TTEntry> >::_Vector_impl"* %this, %"struct.std::_Vector_base<TTEntry, std::allocator<TTEntry> >::_Vector_impl"** %this.addr, align 8
  call void @llvm.dbg.declare(metadata %"struct.std::_Vector_base<TTEntry, std::allocator<TTEntry> >::_Vector_impl"** %this.addr, metadata !3612, metadata !DIExpression()), !dbg !3613
  %this1 = load %"struct.std::_Vector_base<TTEntry, std::allocator<TTEntry> >::_Vector_impl"*, %"struct.std::_Vector_base<TTEntry, std::allocator<TTEntry> >::_Vector_impl"** %this.addr, align 8
  %0 = bitcast %"struct.std::_Vector_base<TTEntry, std::allocator<TTEntry> >::_Vector_impl"* %this1 to %"class.std::allocator"*, !dbg !3614
  call void @_ZNSaI7TTEntryED2Ev(%"class.std::allocator"* %0) #13, !dbg !3614
  ret void, !dbg !3616
}

; Function Attrs: noinline uwtable
define linkonce_odr dso_local void @_ZNSt16allocator_traitsISaI7TTEntryEE10deallocateERS1_PS0_m(%"class.std::allocator"* dereferenceable(1) %__a, %class.TTEntry* %__p, i64 %__n) #0 comdat align 2 !dbg !3617 {
entry:
  %__a.addr = alloca %"class.std::allocator"*, align 8
  %__p.addr = alloca %class.TTEntry*, align 8
  %__n.addr = alloca i64, align 8
  store %"class.std::allocator"* %__a, %"class.std::allocator"** %__a.addr, align 8
  call void @llvm.dbg.declare(metadata %"class.std::allocator"** %__a.addr, metadata !3618, metadata !DIExpression()), !dbg !3619
  store %class.TTEntry* %__p, %class.TTEntry** %__p.addr, align 8
  call void @llvm.dbg.declare(metadata %class.TTEntry** %__p.addr, metadata !3620, metadata !DIExpression()), !dbg !3621
  store i64 %__n, i64* %__n.addr, align 8
  call void @llvm.dbg.declare(metadata i64* %__n.addr, metadata !3622, metadata !DIExpression()), !dbg !3623
  %0 = load %"class.std::allocator"*, %"class.std::allocator"** %__a.addr, align 8, !dbg !3624
  %1 = bitcast %"class.std::allocator"* %0 to %"class.__gnu_cxx::new_allocator"*, !dbg !3624
  %2 = load %class.TTEntry*, %class.TTEntry** %__p.addr, align 8, !dbg !3625
  %3 = load i64, i64* %__n.addr, align 8, !dbg !3626
  call void @_ZN9__gnu_cxx13new_allocatorI7TTEntryE10deallocateEPS1_m(%"class.__gnu_cxx::new_allocator"* %1, %class.TTEntry* %2, i64 %3), !dbg !3627
  ret void, !dbg !3628
}

; Function Attrs: noinline nounwind uwtable
define linkonce_odr dso_local void @_ZN9__gnu_cxx13new_allocatorI7TTEntryE10deallocateEPS1_m(%"class.__gnu_cxx::new_allocator"* %this, %class.TTEntry* %__p, i64 %__t) #4 comdat align 2 !dbg !3629 {
entry:
  %this.addr = alloca %"class.__gnu_cxx::new_allocator"*, align 8
  %__p.addr = alloca %class.TTEntry*, align 8
  %__t.addr = alloca i64, align 8
  store %"class.__gnu_cxx::new_allocator"* %this, %"class.__gnu_cxx::new_allocator"** %this.addr, align 8
  call void @llvm.dbg.declare(metadata %"class.__gnu_cxx::new_allocator"** %this.addr, metadata !3630, metadata !DIExpression()), !dbg !3631
  store %class.TTEntry* %__p, %class.TTEntry** %__p.addr, align 8
  call void @llvm.dbg.declare(metadata %class.TTEntry** %__p.addr, metadata !3632, metadata !DIExpression()), !dbg !3633
  store i64 %__t, i64* %__t.addr, align 8
  call void @llvm.dbg.declare(metadata i64* %__t.addr, metadata !3634, metadata !DIExpression()), !dbg !3635
  %this1 = load %"class.__gnu_cxx::new_allocator"*, %"class.__gnu_cxx::new_allocator"** %this.addr, align 8
  %0 = load %class.TTEntry*, %class.TTEntry** %__p.addr, align 8, !dbg !3636
  %1 = bitcast %class.TTEntry* %0 to i8*, !dbg !3636
  call void @_ZdlPv(i8* %1) #13, !dbg !3637
  ret void, !dbg !3638
}

; Function Attrs: noinline nounwind uwtable
define linkonce_odr dso_local void @_ZNSaI7TTEntryED2Ev(%"class.std::allocator"* %this) unnamed_addr #4 comdat align 2 !dbg !3639 {
entry:
  %this.addr = alloca %"class.std::allocator"*, align 8
  store %"class.std::allocator"* %this, %"class.std::allocator"** %this.addr, align 8
  call void @llvm.dbg.declare(metadata %"class.std::allocator"** %this.addr, metadata !3640, metadata !DIExpression()), !dbg !3641
  %this1 = load %"class.std::allocator"*, %"class.std::allocator"** %this.addr, align 8
  %0 = bitcast %"class.std::allocator"* %this1 to %"class.__gnu_cxx::new_allocator"*, !dbg !3642
  call void @_ZN9__gnu_cxx13new_allocatorI7TTEntryED2Ev(%"class.__gnu_cxx::new_allocator"* %0) #13, !dbg !3642
  ret void, !dbg !3644
}

; Function Attrs: noinline nounwind uwtable
define linkonce_odr dso_local void @_ZN9__gnu_cxx13new_allocatorI7TTEntryED2Ev(%"class.__gnu_cxx::new_allocator"* %this) unnamed_addr #4 comdat align 2 !dbg !3645 {
entry:
  %this.addr = alloca %"class.__gnu_cxx::new_allocator"*, align 8
  store %"class.__gnu_cxx::new_allocator"* %this, %"class.__gnu_cxx::new_allocator"** %this.addr, align 8
  call void @llvm.dbg.declare(metadata %"class.__gnu_cxx::new_allocator"** %this.addr, metadata !3646, metadata !DIExpression()), !dbg !3647
  %this1 = load %"class.__gnu_cxx::new_allocator"*, %"class.__gnu_cxx::new_allocator"** %this.addr, align 8
  ret void, !dbg !3648
}

; Function Attrs: noinline uwtable
define linkonce_odr dso_local void @_ZNSt6vectorI7TTEntrySaIS0_EE17_M_default_appendEm(%"class.std::vector"* %this, i64 %__n) #0 comdat align 2 personality i8* bitcast (i32 (...)* @__gxx_personality_v0 to i8*) !dbg !3649 {
entry:
  %this.addr = alloca %"class.std::vector"*, align 8
  %__n.addr = alloca i64, align 8
  %__size = alloca i64, align 8
  %__navail = alloca i64, align 8
  %__len = alloca i64, align 8
  %__new_start = alloca %class.TTEntry*, align 8
  %exn.slot = alloca i8*
  %ehselector.slot = alloca i32
  store %"class.std::vector"* %this, %"class.std::vector"** %this.addr, align 8
  call void @llvm.dbg.declare(metadata %"class.std::vector"** %this.addr, metadata !3651, metadata !DIExpression()), !dbg !3652
  store i64 %__n, i64* %__n.addr, align 8
  call void @llvm.dbg.declare(metadata i64* %__n.addr, metadata !3653, metadata !DIExpression()), !dbg !3654
  %this1 = load %"class.std::vector"*, %"class.std::vector"** %this.addr, align 8
  %0 = load i64, i64* %__n.addr, align 8, !dbg !3655
  %cmp = icmp ne i64 %0, 0, !dbg !3657
  br i1 %cmp, label %if.then, label %if.end48, !dbg !3658

if.then:                                          ; preds = %entry
  call void @llvm.dbg.declare(metadata i64* %__size, metadata !3659, metadata !DIExpression()), !dbg !3662
  %call = call i64 @_ZNKSt6vectorI7TTEntrySaIS0_EE4sizeEv(%"class.std::vector"* %this1) #13, !dbg !3663
  store i64 %call, i64* %__size, align 8, !dbg !3662
  call void @llvm.dbg.declare(metadata i64* %__navail, metadata !3664, metadata !DIExpression()), !dbg !3665
  %1 = bitcast %"class.std::vector"* %this1 to %"struct.std::_Vector_base"*, !dbg !3666
  %_M_impl = getelementptr inbounds %"struct.std::_Vector_base", %"struct.std::_Vector_base"* %1, i32 0, i32 0, !dbg !3666
  %2 = bitcast %"struct.std::_Vector_base<TTEntry, std::allocator<TTEntry> >::_Vector_impl"* %_M_impl to %"struct.std::_Vector_base<TTEntry, std::allocator<TTEntry> >::_Vector_impl_data"*, !dbg !3667
  %_M_end_of_storage = getelementptr inbounds %"struct.std::_Vector_base<TTEntry, std::allocator<TTEntry> >::_Vector_impl_data", %"struct.std::_Vector_base<TTEntry, std::allocator<TTEntry> >::_Vector_impl_data"* %2, i32 0, i32 2, !dbg !3668
  %3 = load %class.TTEntry*, %class.TTEntry** %_M_end_of_storage, align 8, !dbg !3668
  %4 = bitcast %"class.std::vector"* %this1 to %"struct.std::_Vector_base"*, !dbg !3669
  %_M_impl2 = getelementptr inbounds %"struct.std::_Vector_base", %"struct.std::_Vector_base"* %4, i32 0, i32 0, !dbg !3669
  %5 = bitcast %"struct.std::_Vector_base<TTEntry, std::allocator<TTEntry> >::_Vector_impl"* %_M_impl2 to %"struct.std::_Vector_base<TTEntry, std::allocator<TTEntry> >::_Vector_impl_data"*, !dbg !3670
  %_M_finish = getelementptr inbounds %"struct.std::_Vector_base<TTEntry, std::allocator<TTEntry> >::_Vector_impl_data", %"struct.std::_Vector_base<TTEntry, std::allocator<TTEntry> >::_Vector_impl_data"* %5, i32 0, i32 1, !dbg !3671
  %6 = load %class.TTEntry*, %class.TTEntry** %_M_finish, align 8, !dbg !3671
  %sub.ptr.lhs.cast = ptrtoint %class.TTEntry* %3 to i64, !dbg !3672
  %sub.ptr.rhs.cast = ptrtoint %class.TTEntry* %6 to i64, !dbg !3672
  %sub.ptr.sub = sub i64 %sub.ptr.lhs.cast, %sub.ptr.rhs.cast, !dbg !3672
  %sub.ptr.div = sdiv exact i64 %sub.ptr.sub, 16, !dbg !3672
  store i64 %sub.ptr.div, i64* %__navail, align 8, !dbg !3665
  %7 = load i64, i64* %__size, align 8, !dbg !3673
  %call3 = call i64 @_ZNKSt6vectorI7TTEntrySaIS0_EE8max_sizeEv(%"class.std::vector"* %this1) #13, !dbg !3675
  %cmp4 = icmp ugt i64 %7, %call3, !dbg !3676
  br i1 %cmp4, label %if.then7, label %lor.lhs.false, !dbg !3677

lor.lhs.false:                                    ; preds = %if.then
  %8 = load i64, i64* %__navail, align 8, !dbg !3678
  %call5 = call i64 @_ZNKSt6vectorI7TTEntrySaIS0_EE8max_sizeEv(%"class.std::vector"* %this1) #13, !dbg !3679
  %9 = load i64, i64* %__size, align 8, !dbg !3680
  %sub = sub i64 %call5, %9, !dbg !3681
  %cmp6 = icmp ugt i64 %8, %sub, !dbg !3682
  br i1 %cmp6, label %if.then7, label %if.end, !dbg !3683

if.then7:                                         ; preds = %lor.lhs.false, %if.then
  unreachable, !dbg !3684

if.end:                                           ; preds = %lor.lhs.false
  %10 = load i64, i64* %__navail, align 8, !dbg !3685
  %11 = load i64, i64* %__n.addr, align 8, !dbg !3687
  %cmp8 = icmp uge i64 %10, %11, !dbg !3688
  br i1 %cmp8, label %if.then9, label %if.else, !dbg !3689

if.then9:                                         ; preds = %if.end
  %12 = bitcast %"class.std::vector"* %this1 to %"struct.std::_Vector_base"*, !dbg !3690
  %_M_impl10 = getelementptr inbounds %"struct.std::_Vector_base", %"struct.std::_Vector_base"* %12, i32 0, i32 0, !dbg !3690
  %13 = bitcast %"struct.std::_Vector_base<TTEntry, std::allocator<TTEntry> >::_Vector_impl"* %_M_impl10 to %"struct.std::_Vector_base<TTEntry, std::allocator<TTEntry> >::_Vector_impl_data"*, !dbg !3692
  %_M_finish11 = getelementptr inbounds %"struct.std::_Vector_base<TTEntry, std::allocator<TTEntry> >::_Vector_impl_data", %"struct.std::_Vector_base<TTEntry, std::allocator<TTEntry> >::_Vector_impl_data"* %13, i32 0, i32 1, !dbg !3693
  %14 = load %class.TTEntry*, %class.TTEntry** %_M_finish11, align 8, !dbg !3693
  %15 = load i64, i64* %__n.addr, align 8, !dbg !3694
  %16 = bitcast %"class.std::vector"* %this1 to %"struct.std::_Vector_base"*, !dbg !3695
  %call12 = call dereferenceable(1) %"class.std::allocator"* @_ZNSt12_Vector_baseI7TTEntrySaIS0_EE19_M_get_Tp_allocatorEv(%"struct.std::_Vector_base"* %16) #13, !dbg !3695
  %call13 = call %class.TTEntry* @_ZSt27__uninitialized_default_n_aIP7TTEntrymS0_ET_S2_T0_RSaIT1_E(%class.TTEntry* %14, i64 %15, %"class.std::allocator"* dereferenceable(1) %call12), !dbg !3696
  %17 = bitcast %"class.std::vector"* %this1 to %"struct.std::_Vector_base"*, !dbg !3697
  %_M_impl14 = getelementptr inbounds %"struct.std::_Vector_base", %"struct.std::_Vector_base"* %17, i32 0, i32 0, !dbg !3697
  %18 = bitcast %"struct.std::_Vector_base<TTEntry, std::allocator<TTEntry> >::_Vector_impl"* %_M_impl14 to %"struct.std::_Vector_base<TTEntry, std::allocator<TTEntry> >::_Vector_impl_data"*, !dbg !3698
  %_M_finish15 = getelementptr inbounds %"struct.std::_Vector_base<TTEntry, std::allocator<TTEntry> >::_Vector_impl_data", %"struct.std::_Vector_base<TTEntry, std::allocator<TTEntry> >::_Vector_impl_data"* %18, i32 0, i32 1, !dbg !3699
  store %class.TTEntry* %call13, %class.TTEntry** %_M_finish15, align 8, !dbg !3700
  br label %if.end47, !dbg !3701

if.else:                                          ; preds = %if.end
  call void @llvm.dbg.declare(metadata i64* %__len, metadata !3702, metadata !DIExpression()), !dbg !3704
  %19 = load i64, i64* %__n.addr, align 8, !dbg !3705
  %call16 = call i64 @_ZNKSt6vectorI7TTEntrySaIS0_EE12_M_check_lenEmPKc(%"class.std::vector"* %this1, i64 %19, i8* getelementptr inbounds ([26 x i8], [26 x i8]* @.str, i64 0, i64 0)), !dbg !3706
  store i64 %call16, i64* %__len, align 8, !dbg !3704
  call void @llvm.dbg.declare(metadata %class.TTEntry** %__new_start, metadata !3707, metadata !DIExpression()), !dbg !3708
  %20 = bitcast %"class.std::vector"* %this1 to %"struct.std::_Vector_base"*, !dbg !3709
  %21 = load i64, i64* %__len, align 8, !dbg !3710
  %call17 = call %class.TTEntry* @_ZNSt12_Vector_baseI7TTEntrySaIS0_EE11_M_allocateEm(%"struct.std::_Vector_base"* %20, i64 %21), !dbg !3709
  store %class.TTEntry* %call17, %class.TTEntry** %__new_start, align 8, !dbg !3708
  %22 = load %class.TTEntry*, %class.TTEntry** %__new_start, align 8, !dbg !3711
  %23 = load i64, i64* %__size, align 8, !dbg !3715
  %add.ptr = getelementptr inbounds %class.TTEntry, %class.TTEntry* %22, i64 %23, !dbg !3716
  %24 = load i64, i64* %__n.addr, align 8, !dbg !3717
  %25 = bitcast %"class.std::vector"* %this1 to %"struct.std::_Vector_base"*, !dbg !3718
  %call18 = call dereferenceable(1) %"class.std::allocator"* @_ZNSt12_Vector_baseI7TTEntrySaIS0_EE19_M_get_Tp_allocatorEv(%"struct.std::_Vector_base"* %25) #13, !dbg !3718
  %call19 = invoke %class.TTEntry* @_ZSt27__uninitialized_default_n_aIP7TTEntrymS0_ET_S2_T0_RSaIT1_E(%class.TTEntry* %add.ptr, i64 %24, %"class.std::allocator"* dereferenceable(1) %call18)
          to label %invoke.cont unwind label %lpad, !dbg !3719

invoke.cont:                                      ; preds = %if.else
  br label %try.cont, !dbg !3720

lpad:                                             ; preds = %if.else
  %26 = landingpad { i8*, i32 }
          catch i8* null, !dbg !3721
  %27 = extractvalue { i8*, i32 } %26, 0, !dbg !3721
  store i8* %27, i8** %exn.slot, align 8, !dbg !3721
  %28 = extractvalue { i8*, i32 } %26, 1, !dbg !3721
  store i32 %28, i32* %ehselector.slot, align 4, !dbg !3721
  br label %catch, !dbg !3721

catch:                                            ; preds = %lpad
  %exn = load i8*, i8** %exn.slot, align 8, !dbg !3720
  %29 = call i8* @__cxa_begin_catch(i8* %exn) #13, !dbg !3720
  %30 = bitcast %"class.std::vector"* %this1 to %"struct.std::_Vector_base"*, !dbg !3722
  %31 = load %class.TTEntry*, %class.TTEntry** %__new_start, align 8, !dbg !3724
  %32 = load i64, i64* %__len, align 8, !dbg !3725
  invoke void @_ZNSt12_Vector_baseI7TTEntrySaIS0_EE13_M_deallocateEPS0_m(%"struct.std::_Vector_base"* %30, %class.TTEntry* %31, i64 %32)
          to label %invoke.cont21 unwind label %lpad20, !dbg !3722

invoke.cont21:                                    ; preds = %catch
  invoke void @__cxa_rethrow() #15
          to label %unreachable unwind label %lpad20, !dbg !3726

lpad20:                                           ; preds = %invoke.cont21, %catch
  %33 = landingpad { i8*, i32 }
          cleanup, !dbg !3727
  %34 = extractvalue { i8*, i32 } %33, 0, !dbg !3727
  store i8* %34, i8** %exn.slot, align 8, !dbg !3727
  %35 = extractvalue { i8*, i32 } %33, 1, !dbg !3727
  store i32 %35, i32* %ehselector.slot, align 4, !dbg !3727
  invoke void @__cxa_end_catch()
          to label %invoke.cont22 unwind label %terminate.lpad, !dbg !3728

invoke.cont22:                                    ; preds = %lpad20
  br label %eh.resume, !dbg !3728

try.cont:                                         ; preds = %invoke.cont
  %36 = bitcast %"class.std::vector"* %this1 to %"struct.std::_Vector_base"*, !dbg !3729
  %_M_impl23 = getelementptr inbounds %"struct.std::_Vector_base", %"struct.std::_Vector_base"* %36, i32 0, i32 0, !dbg !3729
  %37 = bitcast %"struct.std::_Vector_base<TTEntry, std::allocator<TTEntry> >::_Vector_impl"* %_M_impl23 to %"struct.std::_Vector_base<TTEntry, std::allocator<TTEntry> >::_Vector_impl_data"*, !dbg !3730
  %_M_start = getelementptr inbounds %"struct.std::_Vector_base<TTEntry, std::allocator<TTEntry> >::_Vector_impl_data", %"struct.std::_Vector_base<TTEntry, std::allocator<TTEntry> >::_Vector_impl_data"* %37, i32 0, i32 0, !dbg !3731
  %38 = load %class.TTEntry*, %class.TTEntry** %_M_start, align 8, !dbg !3731
  %39 = bitcast %"class.std::vector"* %this1 to %"struct.std::_Vector_base"*, !dbg !3732
  %_M_impl24 = getelementptr inbounds %"struct.std::_Vector_base", %"struct.std::_Vector_base"* %39, i32 0, i32 0, !dbg !3732
  %40 = bitcast %"struct.std::_Vector_base<TTEntry, std::allocator<TTEntry> >::_Vector_impl"* %_M_impl24 to %"struct.std::_Vector_base<TTEntry, std::allocator<TTEntry> >::_Vector_impl_data"*, !dbg !3733
  %_M_finish25 = getelementptr inbounds %"struct.std::_Vector_base<TTEntry, std::allocator<TTEntry> >::_Vector_impl_data", %"struct.std::_Vector_base<TTEntry, std::allocator<TTEntry> >::_Vector_impl_data"* %40, i32 0, i32 1, !dbg !3734
  %41 = load %class.TTEntry*, %class.TTEntry** %_M_finish25, align 8, !dbg !3734
  %42 = load %class.TTEntry*, %class.TTEntry** %__new_start, align 8, !dbg !3735
  %43 = bitcast %"class.std::vector"* %this1 to %"struct.std::_Vector_base"*, !dbg !3736
  %call26 = call dereferenceable(1) %"class.std::allocator"* @_ZNSt12_Vector_baseI7TTEntrySaIS0_EE19_M_get_Tp_allocatorEv(%"struct.std::_Vector_base"* %43) #13, !dbg !3736
  %call27 = call %class.TTEntry* @_ZNSt6vectorI7TTEntrySaIS0_EE11_S_relocateEPS0_S3_S3_RS1_(%class.TTEntry* %38, %class.TTEntry* %41, %class.TTEntry* %42, %"class.std::allocator"* dereferenceable(1) %call26) #13, !dbg !3737
  %44 = bitcast %"class.std::vector"* %this1 to %"struct.std::_Vector_base"*, !dbg !3738
  %45 = bitcast %"class.std::vector"* %this1 to %"struct.std::_Vector_base"*, !dbg !3739
  %_M_impl28 = getelementptr inbounds %"struct.std::_Vector_base", %"struct.std::_Vector_base"* %45, i32 0, i32 0, !dbg !3739
  %46 = bitcast %"struct.std::_Vector_base<TTEntry, std::allocator<TTEntry> >::_Vector_impl"* %_M_impl28 to %"struct.std::_Vector_base<TTEntry, std::allocator<TTEntry> >::_Vector_impl_data"*, !dbg !3740
  %_M_start29 = getelementptr inbounds %"struct.std::_Vector_base<TTEntry, std::allocator<TTEntry> >::_Vector_impl_data", %"struct.std::_Vector_base<TTEntry, std::allocator<TTEntry> >::_Vector_impl_data"* %46, i32 0, i32 0, !dbg !3741
  %47 = load %class.TTEntry*, %class.TTEntry** %_M_start29, align 8, !dbg !3741
  %48 = bitcast %"class.std::vector"* %this1 to %"struct.std::_Vector_base"*, !dbg !3742
  %_M_impl30 = getelementptr inbounds %"struct.std::_Vector_base", %"struct.std::_Vector_base"* %48, i32 0, i32 0, !dbg !3742
  %49 = bitcast %"struct.std::_Vector_base<TTEntry, std::allocator<TTEntry> >::_Vector_impl"* %_M_impl30 to %"struct.std::_Vector_base<TTEntry, std::allocator<TTEntry> >::_Vector_impl_data"*, !dbg !3743
  %_M_end_of_storage31 = getelementptr inbounds %"struct.std::_Vector_base<TTEntry, std::allocator<TTEntry> >::_Vector_impl_data", %"struct.std::_Vector_base<TTEntry, std::allocator<TTEntry> >::_Vector_impl_data"* %49, i32 0, i32 2, !dbg !3744
  %50 = load %class.TTEntry*, %class.TTEntry** %_M_end_of_storage31, align 8, !dbg !3744
  %51 = bitcast %"class.std::vector"* %this1 to %"struct.std::_Vector_base"*, !dbg !3745
  %_M_impl32 = getelementptr inbounds %"struct.std::_Vector_base", %"struct.std::_Vector_base"* %51, i32 0, i32 0, !dbg !3745
  %52 = bitcast %"struct.std::_Vector_base<TTEntry, std::allocator<TTEntry> >::_Vector_impl"* %_M_impl32 to %"struct.std::_Vector_base<TTEntry, std::allocator<TTEntry> >::_Vector_impl_data"*, !dbg !3746
  %_M_start33 = getelementptr inbounds %"struct.std::_Vector_base<TTEntry, std::allocator<TTEntry> >::_Vector_impl_data", %"struct.std::_Vector_base<TTEntry, std::allocator<TTEntry> >::_Vector_impl_data"* %52, i32 0, i32 0, !dbg !3747
  %53 = load %class.TTEntry*, %class.TTEntry** %_M_start33, align 8, !dbg !3747
  %sub.ptr.lhs.cast34 = ptrtoint %class.TTEntry* %50 to i64, !dbg !3748
  %sub.ptr.rhs.cast35 = ptrtoint %class.TTEntry* %53 to i64, !dbg !3748
  %sub.ptr.sub36 = sub i64 %sub.ptr.lhs.cast34, %sub.ptr.rhs.cast35, !dbg !3748
  %sub.ptr.div37 = sdiv exact i64 %sub.ptr.sub36, 16, !dbg !3748
  call void @_ZNSt12_Vector_baseI7TTEntrySaIS0_EE13_M_deallocateEPS0_m(%"struct.std::_Vector_base"* %44, %class.TTEntry* %47, i64 %sub.ptr.div37), !dbg !3738
  %54 = load %class.TTEntry*, %class.TTEntry** %__new_start, align 8, !dbg !3749
  %55 = bitcast %"class.std::vector"* %this1 to %"struct.std::_Vector_base"*, !dbg !3750
  %_M_impl38 = getelementptr inbounds %"struct.std::_Vector_base", %"struct.std::_Vector_base"* %55, i32 0, i32 0, !dbg !3750
  %56 = bitcast %"struct.std::_Vector_base<TTEntry, std::allocator<TTEntry> >::_Vector_impl"* %_M_impl38 to %"struct.std::_Vector_base<TTEntry, std::allocator<TTEntry> >::_Vector_impl_data"*, !dbg !3751
  %_M_start39 = getelementptr inbounds %"struct.std::_Vector_base<TTEntry, std::allocator<TTEntry> >::_Vector_impl_data", %"struct.std::_Vector_base<TTEntry, std::allocator<TTEntry> >::_Vector_impl_data"* %56, i32 0, i32 0, !dbg !3752
  store %class.TTEntry* %54, %class.TTEntry** %_M_start39, align 8, !dbg !3753
  %57 = load %class.TTEntry*, %class.TTEntry** %__new_start, align 8, !dbg !3754
  %58 = load i64, i64* %__size, align 8, !dbg !3755
  %add.ptr40 = getelementptr inbounds %class.TTEntry, %class.TTEntry* %57, i64 %58, !dbg !3756
  %59 = load i64, i64* %__n.addr, align 8, !dbg !3757
  %add.ptr41 = getelementptr inbounds %class.TTEntry, %class.TTEntry* %add.ptr40, i64 %59, !dbg !3758
  %60 = bitcast %"class.std::vector"* %this1 to %"struct.std::_Vector_base"*, !dbg !3759
  %_M_impl42 = getelementptr inbounds %"struct.std::_Vector_base", %"struct.std::_Vector_base"* %60, i32 0, i32 0, !dbg !3759
  %61 = bitcast %"struct.std::_Vector_base<TTEntry, std::allocator<TTEntry> >::_Vector_impl"* %_M_impl42 to %"struct.std::_Vector_base<TTEntry, std::allocator<TTEntry> >::_Vector_impl_data"*, !dbg !3760
  %_M_finish43 = getelementptr inbounds %"struct.std::_Vector_base<TTEntry, std::allocator<TTEntry> >::_Vector_impl_data", %"struct.std::_Vector_base<TTEntry, std::allocator<TTEntry> >::_Vector_impl_data"* %61, i32 0, i32 1, !dbg !3761
  store %class.TTEntry* %add.ptr41, %class.TTEntry** %_M_finish43, align 8, !dbg !3762
  %62 = load %class.TTEntry*, %class.TTEntry** %__new_start, align 8, !dbg !3763
  %63 = load i64, i64* %__len, align 8, !dbg !3764
  %add.ptr44 = getelementptr inbounds %class.TTEntry, %class.TTEntry* %62, i64 %63, !dbg !3765
  %64 = bitcast %"class.std::vector"* %this1 to %"struct.std::_Vector_base"*, !dbg !3766
  %_M_impl45 = getelementptr inbounds %"struct.std::_Vector_base", %"struct.std::_Vector_base"* %64, i32 0, i32 0, !dbg !3766
  %65 = bitcast %"struct.std::_Vector_base<TTEntry, std::allocator<TTEntry> >::_Vector_impl"* %_M_impl45 to %"struct.std::_Vector_base<TTEntry, std::allocator<TTEntry> >::_Vector_impl_data"*, !dbg !3767
  %_M_end_of_storage46 = getelementptr inbounds %"struct.std::_Vector_base<TTEntry, std::allocator<TTEntry> >::_Vector_impl_data", %"struct.std::_Vector_base<TTEntry, std::allocator<TTEntry> >::_Vector_impl_data"* %65, i32 0, i32 2, !dbg !3768
  store %class.TTEntry* %add.ptr44, %class.TTEntry** %_M_end_of_storage46, align 8, !dbg !3769
  br label %if.end47

if.end47:                                         ; preds = %try.cont, %if.then9
  br label %if.end48, !dbg !3770

if.end48:                                         ; preds = %if.end47, %entry
  ret void, !dbg !3771

eh.resume:                                        ; preds = %invoke.cont22
  %exn49 = load i8*, i8** %exn.slot, align 8, !dbg !3728
  %sel = load i32, i32* %ehselector.slot, align 4, !dbg !3728
  %lpad.val = insertvalue { i8*, i32 } undef, i8* %exn49, 0, !dbg !3728
  %lpad.val50 = insertvalue { i8*, i32 } %lpad.val, i32 %sel, 1, !dbg !3728
  resume { i8*, i32 } %lpad.val50, !dbg !3728

terminate.lpad:                                   ; preds = %lpad20
  %66 = landingpad { i8*, i32 }
          catch i8* null, !dbg !3728
  %67 = extractvalue { i8*, i32 } %66, 0, !dbg !3728
  call void @__clang_call_terminate(i8* %67) #14, !dbg !3728
  unreachable, !dbg !3728

unreachable:                                      ; preds = %invoke.cont21
  unreachable
}

; Function Attrs: noinline nounwind uwtable
define linkonce_odr dso_local void @_ZNSt6vectorI7TTEntrySaIS0_EE15_M_erase_at_endEPS0_(%"class.std::vector"* %this, %class.TTEntry* %__pos) #4 comdat align 2 personality i8* bitcast (i32 (...)* @__gxx_personality_v0 to i8*) !dbg !3772 {
entry:
  %this.addr = alloca %"class.std::vector"*, align 8
  %__pos.addr = alloca %class.TTEntry*, align 8
  %__n = alloca i64, align 8
  store %"class.std::vector"* %this, %"class.std::vector"** %this.addr, align 8
  call void @llvm.dbg.declare(metadata %"class.std::vector"** %this.addr, metadata !3773, metadata !DIExpression()), !dbg !3774
  store %class.TTEntry* %__pos, %class.TTEntry** %__pos.addr, align 8
  call void @llvm.dbg.declare(metadata %class.TTEntry** %__pos.addr, metadata !3775, metadata !DIExpression()), !dbg !3776
  %this1 = load %"class.std::vector"*, %"class.std::vector"** %this.addr, align 8
  call void @llvm.dbg.declare(metadata i64* %__n, metadata !3777, metadata !DIExpression()), !dbg !3779
  %0 = bitcast %"class.std::vector"* %this1 to %"struct.std::_Vector_base"*, !dbg !3780
  %_M_impl = getelementptr inbounds %"struct.std::_Vector_base", %"struct.std::_Vector_base"* %0, i32 0, i32 0, !dbg !3780
  %1 = bitcast %"struct.std::_Vector_base<TTEntry, std::allocator<TTEntry> >::_Vector_impl"* %_M_impl to %"struct.std::_Vector_base<TTEntry, std::allocator<TTEntry> >::_Vector_impl_data"*, !dbg !3781
  %_M_finish = getelementptr inbounds %"struct.std::_Vector_base<TTEntry, std::allocator<TTEntry> >::_Vector_impl_data", %"struct.std::_Vector_base<TTEntry, std::allocator<TTEntry> >::_Vector_impl_data"* %1, i32 0, i32 1, !dbg !3782
  %2 = load %class.TTEntry*, %class.TTEntry** %_M_finish, align 8, !dbg !3782
  %3 = load %class.TTEntry*, %class.TTEntry** %__pos.addr, align 8, !dbg !3783
  %sub.ptr.lhs.cast = ptrtoint %class.TTEntry* %2 to i64, !dbg !3784
  %sub.ptr.rhs.cast = ptrtoint %class.TTEntry* %3 to i64, !dbg !3784
  %sub.ptr.sub = sub i64 %sub.ptr.lhs.cast, %sub.ptr.rhs.cast, !dbg !3784
  %sub.ptr.div = sdiv exact i64 %sub.ptr.sub, 16, !dbg !3784
  store i64 %sub.ptr.div, i64* %__n, align 8, !dbg !3779
  %4 = load i64, i64* %__n, align 8, !dbg !3779
  %tobool = icmp ne i64 %4, 0, !dbg !3779
  br i1 %tobool, label %if.then, label %if.end, !dbg !3785

if.then:                                          ; preds = %entry
  %5 = load %class.TTEntry*, %class.TTEntry** %__pos.addr, align 8, !dbg !3786
  %6 = bitcast %"class.std::vector"* %this1 to %"struct.std::_Vector_base"*, !dbg !3788
  %_M_impl2 = getelementptr inbounds %"struct.std::_Vector_base", %"struct.std::_Vector_base"* %6, i32 0, i32 0, !dbg !3788
  %7 = bitcast %"struct.std::_Vector_base<TTEntry, std::allocator<TTEntry> >::_Vector_impl"* %_M_impl2 to %"struct.std::_Vector_base<TTEntry, std::allocator<TTEntry> >::_Vector_impl_data"*, !dbg !3789
  %_M_finish3 = getelementptr inbounds %"struct.std::_Vector_base<TTEntry, std::allocator<TTEntry> >::_Vector_impl_data", %"struct.std::_Vector_base<TTEntry, std::allocator<TTEntry> >::_Vector_impl_data"* %7, i32 0, i32 1, !dbg !3790
  %8 = load %class.TTEntry*, %class.TTEntry** %_M_finish3, align 8, !dbg !3790
  %9 = bitcast %"class.std::vector"* %this1 to %"struct.std::_Vector_base"*, !dbg !3791
  %call = call dereferenceable(1) %"class.std::allocator"* @_ZNSt12_Vector_baseI7TTEntrySaIS0_EE19_M_get_Tp_allocatorEv(%"struct.std::_Vector_base"* %9) #13, !dbg !3791
  invoke void @_ZSt8_DestroyIP7TTEntryS0_EvT_S2_RSaIT0_E(%class.TTEntry* %5, %class.TTEntry* %8, %"class.std::allocator"* dereferenceable(1) %call)
          to label %invoke.cont unwind label %terminate.lpad, !dbg !3792

invoke.cont:                                      ; preds = %if.then
  %10 = load %class.TTEntry*, %class.TTEntry** %__pos.addr, align 8, !dbg !3793
  %11 = bitcast %"class.std::vector"* %this1 to %"struct.std::_Vector_base"*, !dbg !3794
  %_M_impl4 = getelementptr inbounds %"struct.std::_Vector_base", %"struct.std::_Vector_base"* %11, i32 0, i32 0, !dbg !3794
  %12 = bitcast %"struct.std::_Vector_base<TTEntry, std::allocator<TTEntry> >::_Vector_impl"* %_M_impl4 to %"struct.std::_Vector_base<TTEntry, std::allocator<TTEntry> >::_Vector_impl_data"*, !dbg !3795
  %_M_finish5 = getelementptr inbounds %"struct.std::_Vector_base<TTEntry, std::allocator<TTEntry> >::_Vector_impl_data", %"struct.std::_Vector_base<TTEntry, std::allocator<TTEntry> >::_Vector_impl_data"* %12, i32 0, i32 1, !dbg !3796
  store %class.TTEntry* %10, %class.TTEntry** %_M_finish5, align 8, !dbg !3797
  br label %if.end, !dbg !3798

if.end:                                           ; preds = %invoke.cont, %entry
  ret void, !dbg !3799

terminate.lpad:                                   ; preds = %if.then
  %13 = landingpad { i8*, i32 }
          catch i8* null, !dbg !3792
  %14 = extractvalue { i8*, i32 } %13, 0, !dbg !3792
  call void @__clang_call_terminate(i8* %14) #14, !dbg !3792
  unreachable, !dbg !3792
}

; Function Attrs: noinline nounwind uwtable
define linkonce_odr dso_local i64 @_ZNKSt6vectorI7TTEntrySaIS0_EE8max_sizeEv(%"class.std::vector"* %this) #4 comdat align 2 !dbg !3800 {
entry:
  %this.addr = alloca %"class.std::vector"*, align 8
  store %"class.std::vector"* %this, %"class.std::vector"** %this.addr, align 8
  call void @llvm.dbg.declare(metadata %"class.std::vector"** %this.addr, metadata !3801, metadata !DIExpression()), !dbg !3802
  %this1 = load %"class.std::vector"*, %"class.std::vector"** %this.addr, align 8
  %0 = bitcast %"class.std::vector"* %this1 to %"struct.std::_Vector_base"*, !dbg !3803
  %call = call dereferenceable(1) %"class.std::allocator"* @_ZNKSt12_Vector_baseI7TTEntrySaIS0_EE19_M_get_Tp_allocatorEv(%"struct.std::_Vector_base"* %0) #13, !dbg !3803
  %call2 = call i64 @_ZNSt6vectorI7TTEntrySaIS0_EE11_S_max_sizeERKS1_(%"class.std::allocator"* dereferenceable(1) %call) #13, !dbg !3804
  ret i64 %call2, !dbg !3805
}

; Function Attrs: noinline uwtable
define linkonce_odr dso_local %class.TTEntry* @_ZSt27__uninitialized_default_n_aIP7TTEntrymS0_ET_S2_T0_RSaIT1_E(%class.TTEntry* %__first, i64 %__n, %"class.std::allocator"* dereferenceable(1) %0) #0 comdat !dbg !3806 {
entry:
  %__first.addr = alloca %class.TTEntry*, align 8
  %__n.addr = alloca i64, align 8
  %.addr = alloca %"class.std::allocator"*, align 8
  store %class.TTEntry* %__first, %class.TTEntry** %__first.addr, align 8
  call void @llvm.dbg.declare(metadata %class.TTEntry** %__first.addr, metadata !3812, metadata !DIExpression()), !dbg !3813
  store i64 %__n, i64* %__n.addr, align 8
  call void @llvm.dbg.declare(metadata i64* %__n.addr, metadata !3814, metadata !DIExpression()), !dbg !3815
  store %"class.std::allocator"* %0, %"class.std::allocator"** %.addr, align 8
  call void @llvm.dbg.declare(metadata %"class.std::allocator"** %.addr, metadata !3816, metadata !DIExpression()), !dbg !3817
  %1 = load %class.TTEntry*, %class.TTEntry** %__first.addr, align 8, !dbg !3818
  %2 = load i64, i64* %__n.addr, align 8, !dbg !3819
  %call = call %class.TTEntry* @_ZSt25__uninitialized_default_nIP7TTEntrymET_S2_T0_(%class.TTEntry* %1, i64 %2), !dbg !3820
  ret %class.TTEntry* %call, !dbg !3821
}

; Function Attrs: noinline uwtable
define linkonce_odr dso_local i64 @_ZNKSt6vectorI7TTEntrySaIS0_EE12_M_check_lenEmPKc(%"class.std::vector"* %this, i64 %__n, i8* %__s) #0 comdat align 2 !dbg !3822 {
entry:
  %this.addr = alloca %"class.std::vector"*, align 8
  %__n.addr = alloca i64, align 8
  %__s.addr = alloca i8*, align 8
  %__len = alloca i64, align 8
  %ref.tmp = alloca i64, align 8
  store %"class.std::vector"* %this, %"class.std::vector"** %this.addr, align 8
  call void @llvm.dbg.declare(metadata %"class.std::vector"** %this.addr, metadata !3823, metadata !DIExpression()), !dbg !3824
  store i64 %__n, i64* %__n.addr, align 8
  call void @llvm.dbg.declare(metadata i64* %__n.addr, metadata !3825, metadata !DIExpression()), !dbg !3826
  store i8* %__s, i8** %__s.addr, align 8
  call void @llvm.dbg.declare(metadata i8** %__s.addr, metadata !3827, metadata !DIExpression()), !dbg !3828
  %this1 = load %"class.std::vector"*, %"class.std::vector"** %this.addr, align 8
  %call = call i64 @_ZNKSt6vectorI7TTEntrySaIS0_EE8max_sizeEv(%"class.std::vector"* %this1) #13, !dbg !3829
  %call2 = call i64 @_ZNKSt6vectorI7TTEntrySaIS0_EE4sizeEv(%"class.std::vector"* %this1) #13, !dbg !3831
  %sub = sub i64 %call, %call2, !dbg !3832
  %0 = load i64, i64* %__n.addr, align 8, !dbg !3833
  %cmp = icmp ult i64 %sub, %0, !dbg !3834
  br i1 %cmp, label %if.then, label %if.end, !dbg !3835

if.then:                                          ; preds = %entry
  %1 = load i8*, i8** %__s.addr, align 8, !dbg !3836
  call void @_ZSt20__throw_length_errorPKc(i8* %1) #15, !dbg !3837
  unreachable, !dbg !3837

if.end:                                           ; preds = %entry
  call void @llvm.dbg.declare(metadata i64* %__len, metadata !3838, metadata !DIExpression()), !dbg !3839
  %call3 = call i64 @_ZNKSt6vectorI7TTEntrySaIS0_EE4sizeEv(%"class.std::vector"* %this1) #13, !dbg !3840
  %call4 = call i64 @_ZNKSt6vectorI7TTEntrySaIS0_EE4sizeEv(%"class.std::vector"* %this1) #13, !dbg !3841
  store i64 %call4, i64* %ref.tmp, align 8, !dbg !3841
  %call5 = call dereferenceable(8) i64* @_ZSt3maxImERKT_S2_S2_(i64* dereferenceable(8) %ref.tmp, i64* dereferenceable(8) %__n.addr), !dbg !3842
  %2 = load i64, i64* %call5, align 8, !dbg !3842
  %add = add i64 %call3, %2, !dbg !3843
  store i64 %add, i64* %__len, align 8, !dbg !3839
  %3 = load i64, i64* %__len, align 8, !dbg !3844
  %call6 = call i64 @_ZNKSt6vectorI7TTEntrySaIS0_EE4sizeEv(%"class.std::vector"* %this1) #13, !dbg !3845
  %cmp7 = icmp ult i64 %3, %call6, !dbg !3846
  br i1 %cmp7, label %cond.true, label %lor.lhs.false, !dbg !3847

lor.lhs.false:                                    ; preds = %if.end
  %4 = load i64, i64* %__len, align 8, !dbg !3848
  %call8 = call i64 @_ZNKSt6vectorI7TTEntrySaIS0_EE8max_sizeEv(%"class.std::vector"* %this1) #13, !dbg !3849
  %cmp9 = icmp ugt i64 %4, %call8, !dbg !3850
  br i1 %cmp9, label %cond.true, label %cond.false, !dbg !3851

cond.true:                                        ; preds = %lor.lhs.false, %if.end
  %call10 = call i64 @_ZNKSt6vectorI7TTEntrySaIS0_EE8max_sizeEv(%"class.std::vector"* %this1) #13, !dbg !3852
  br label %cond.end, !dbg !3851

cond.false:                                       ; preds = %lor.lhs.false
  %5 = load i64, i64* %__len, align 8, !dbg !3853
  br label %cond.end, !dbg !3851

cond.end:                                         ; preds = %cond.false, %cond.true
  %cond = phi i64 [ %call10, %cond.true ], [ %5, %cond.false ], !dbg !3851
  ret i64 %cond, !dbg !3854
}

; Function Attrs: noinline uwtable
define linkonce_odr dso_local %class.TTEntry* @_ZNSt12_Vector_baseI7TTEntrySaIS0_EE11_M_allocateEm(%"struct.std::_Vector_base"* %this, i64 %__n) #0 comdat align 2 !dbg !3855 {
entry:
  %this.addr = alloca %"struct.std::_Vector_base"*, align 8
  %__n.addr = alloca i64, align 8
  store %"struct.std::_Vector_base"* %this, %"struct.std::_Vector_base"** %this.addr, align 8
  call void @llvm.dbg.declare(metadata %"struct.std::_Vector_base"** %this.addr, metadata !3856, metadata !DIExpression()), !dbg !3857
  store i64 %__n, i64* %__n.addr, align 8
  call void @llvm.dbg.declare(metadata i64* %__n.addr, metadata !3858, metadata !DIExpression()), !dbg !3859
  %this1 = load %"struct.std::_Vector_base"*, %"struct.std::_Vector_base"** %this.addr, align 8
  %0 = load i64, i64* %__n.addr, align 8, !dbg !3860
  %cmp = icmp ne i64 %0, 0, !dbg !3861
  br i1 %cmp, label %cond.true, label %cond.false, !dbg !3860

cond.true:                                        ; preds = %entry
  %_M_impl = getelementptr inbounds %"struct.std::_Vector_base", %"struct.std::_Vector_base"* %this1, i32 0, i32 0, !dbg !3862
  %1 = bitcast %"struct.std::_Vector_base<TTEntry, std::allocator<TTEntry> >::_Vector_impl"* %_M_impl to %"class.std::allocator"*, !dbg !3862
  %2 = load i64, i64* %__n.addr, align 8, !dbg !3863
  %call = call %class.TTEntry* @_ZNSt16allocator_traitsISaI7TTEntryEE8allocateERS1_m(%"class.std::allocator"* dereferenceable(1) %1, i64 %2), !dbg !3864
  br label %cond.end, !dbg !3860

cond.false:                                       ; preds = %entry
  br label %cond.end, !dbg !3860

cond.end:                                         ; preds = %cond.false, %cond.true
  %cond = phi %class.TTEntry* [ %call, %cond.true ], [ null, %cond.false ], !dbg !3860
  ret %class.TTEntry* %cond, !dbg !3865
}

declare dso_local void @__cxa_rethrow()

declare dso_local void @__cxa_end_catch()

; Function Attrs: noinline nounwind uwtable
define linkonce_odr dso_local %class.TTEntry* @_ZNSt6vectorI7TTEntrySaIS0_EE11_S_relocateEPS0_S3_S3_RS1_(%class.TTEntry* %__first, %class.TTEntry* %__last, %class.TTEntry* %__result, %"class.std::allocator"* dereferenceable(1) %__alloc) #4 comdat align 2 !dbg !1274 {
entry:
  %__first.addr = alloca %class.TTEntry*, align 8
  %__last.addr = alloca %class.TTEntry*, align 8
  %__result.addr = alloca %class.TTEntry*, align 8
  %__alloc.addr = alloca %"class.std::allocator"*, align 8
  %agg.tmp = alloca %"struct.std::integral_constant", align 1
  store %class.TTEntry* %__first, %class.TTEntry** %__first.addr, align 8
  call void @llvm.dbg.declare(metadata %class.TTEntry** %__first.addr, metadata !3866, metadata !DIExpression()), !dbg !3867
  store %class.TTEntry* %__last, %class.TTEntry** %__last.addr, align 8
  call void @llvm.dbg.declare(metadata %class.TTEntry** %__last.addr, metadata !3868, metadata !DIExpression()), !dbg !3869
  store %class.TTEntry* %__result, %class.TTEntry** %__result.addr, align 8
  call void @llvm.dbg.declare(metadata %class.TTEntry** %__result.addr, metadata !3870, metadata !DIExpression()), !dbg !3871
  store %"class.std::allocator"* %__alloc, %"class.std::allocator"** %__alloc.addr, align 8
  call void @llvm.dbg.declare(metadata %"class.std::allocator"** %__alloc.addr, metadata !3872, metadata !DIExpression()), !dbg !3873
  %0 = load %class.TTEntry*, %class.TTEntry** %__first.addr, align 8, !dbg !3874
  %1 = load %class.TTEntry*, %class.TTEntry** %__last.addr, align 8, !dbg !3875
  %2 = load %class.TTEntry*, %class.TTEntry** %__result.addr, align 8, !dbg !3876
  %3 = load %"class.std::allocator"*, %"class.std::allocator"** %__alloc.addr, align 8, !dbg !3877
  %call = call %class.TTEntry* @_ZNSt6vectorI7TTEntrySaIS0_EE14_S_do_relocateEPS0_S3_S3_RS1_St17integral_constantIbLb1EE(%class.TTEntry* %0, %class.TTEntry* %1, %class.TTEntry* %2, %"class.std::allocator"* dereferenceable(1) %3) #13, !dbg !3878
  ret %class.TTEntry* %call, !dbg !3879
}

; Function Attrs: noinline nounwind uwtable
define linkonce_odr dso_local i64 @_ZNSt6vectorI7TTEntrySaIS0_EE11_S_max_sizeERKS1_(%"class.std::allocator"* dereferenceable(1) %__a) #4 comdat align 2 personality i8* bitcast (i32 (...)* @__gxx_personality_v0 to i8*) !dbg !3880 {
entry:
  %__a.addr = alloca %"class.std::allocator"*, align 8
  %__diffmax = alloca i64, align 8
  %__allocmax = alloca i64, align 8
  store %"class.std::allocator"* %__a, %"class.std::allocator"** %__a.addr, align 8
  call void @llvm.dbg.declare(metadata %"class.std::allocator"** %__a.addr, metadata !3881, metadata !DIExpression()), !dbg !3882
  call void @llvm.dbg.declare(metadata i64* %__diffmax, metadata !3883, metadata !DIExpression()), !dbg !3885
  store i64 576460752303423487, i64* %__diffmax, align 8, !dbg !3885
  call void @llvm.dbg.declare(metadata i64* %__allocmax, metadata !3886, metadata !DIExpression()), !dbg !3887
  %0 = load %"class.std::allocator"*, %"class.std::allocator"** %__a.addr, align 8, !dbg !3888
  %call = call i64 @_ZNSt16allocator_traitsISaI7TTEntryEE8max_sizeERKS1_(%"class.std::allocator"* dereferenceable(1) %0) #13, !dbg !3889
  store i64 %call, i64* %__allocmax, align 8, !dbg !3887
  %call1 = invoke dereferenceable(8) i64* @_ZSt3minImERKT_S2_S2_(i64* dereferenceable(8) %__diffmax, i64* dereferenceable(8) %__allocmax)
          to label %invoke.cont unwind label %terminate.lpad, !dbg !3890

invoke.cont:                                      ; preds = %entry
  %1 = load i64, i64* %call1, align 8, !dbg !3890
  ret i64 %1, !dbg !3891

terminate.lpad:                                   ; preds = %entry
  %2 = landingpad { i8*, i32 }
          catch i8* null, !dbg !3890
  %3 = extractvalue { i8*, i32 } %2, 0, !dbg !3890
  call void @__clang_call_terminate(i8* %3) #14, !dbg !3890
  unreachable, !dbg !3890
}

; Function Attrs: noinline nounwind uwtable
define linkonce_odr dso_local dereferenceable(1) %"class.std::allocator"* @_ZNKSt12_Vector_baseI7TTEntrySaIS0_EE19_M_get_Tp_allocatorEv(%"struct.std::_Vector_base"* %this) #4 comdat align 2 !dbg !3892 {
entry:
  %this.addr = alloca %"struct.std::_Vector_base"*, align 8
  store %"struct.std::_Vector_base"* %this, %"struct.std::_Vector_base"** %this.addr, align 8
  call void @llvm.dbg.declare(metadata %"struct.std::_Vector_base"** %this.addr, metadata !3893, metadata !DIExpression()), !dbg !3895
  %this1 = load %"struct.std::_Vector_base"*, %"struct.std::_Vector_base"** %this.addr, align 8
  %_M_impl = getelementptr inbounds %"struct.std::_Vector_base", %"struct.std::_Vector_base"* %this1, i32 0, i32 0, !dbg !3896
  %0 = bitcast %"struct.std::_Vector_base<TTEntry, std::allocator<TTEntry> >::_Vector_impl"* %_M_impl to %"class.std::allocator"*, !dbg !3897
  ret %"class.std::allocator"* %0, !dbg !3898
}

; Function Attrs: noinline nounwind uwtable
define linkonce_odr dso_local i64 @_ZNSt16allocator_traitsISaI7TTEntryEE8max_sizeERKS1_(%"class.std::allocator"* dereferenceable(1) %__a) #4 comdat align 2 !dbg !3899 {
entry:
  %__a.addr = alloca %"class.std::allocator"*, align 8
  store %"class.std::allocator"* %__a, %"class.std::allocator"** %__a.addr, align 8
  call void @llvm.dbg.declare(metadata %"class.std::allocator"** %__a.addr, metadata !3900, metadata !DIExpression()), !dbg !3901
  %0 = load %"class.std::allocator"*, %"class.std::allocator"** %__a.addr, align 8, !dbg !3902
  %1 = bitcast %"class.std::allocator"* %0 to %"class.__gnu_cxx::new_allocator"*, !dbg !3902
  %call = call i64 @_ZNK9__gnu_cxx13new_allocatorI7TTEntryE8max_sizeEv(%"class.__gnu_cxx::new_allocator"* %1) #13, !dbg !3903
  ret i64 %call, !dbg !3904
}

; Function Attrs: noinline nounwind uwtable
define linkonce_odr dso_local dereferenceable(8) i64* @_ZSt3minImERKT_S2_S2_(i64* dereferenceable(8) %__a, i64* dereferenceable(8) %__b) #4 comdat !dbg !3905 {
entry:
  %retval = alloca i64*, align 8
  %__a.addr = alloca i64*, align 8
  %__b.addr = alloca i64*, align 8
  store i64* %__a, i64** %__a.addr, align 8
  call void @llvm.dbg.declare(metadata i64** %__a.addr, metadata !3913, metadata !DIExpression()), !dbg !3914
  store i64* %__b, i64** %__b.addr, align 8
  call void @llvm.dbg.declare(metadata i64** %__b.addr, metadata !3915, metadata !DIExpression()), !dbg !3916
  %0 = load i64*, i64** %__b.addr, align 8, !dbg !3917
  %1 = load i64, i64* %0, align 8, !dbg !3917
  %2 = load i64*, i64** %__a.addr, align 8, !dbg !3919
  %3 = load i64, i64* %2, align 8, !dbg !3919
  %cmp = icmp ult i64 %1, %3, !dbg !3920
  br i1 %cmp, label %if.then, label %if.end, !dbg !3921

if.then:                                          ; preds = %entry
  %4 = load i64*, i64** %__b.addr, align 8, !dbg !3922
  store i64* %4, i64** %retval, align 8, !dbg !3923
  br label %return, !dbg !3923

if.end:                                           ; preds = %entry
  %5 = load i64*, i64** %__a.addr, align 8, !dbg !3924
  store i64* %5, i64** %retval, align 8, !dbg !3925
  br label %return, !dbg !3925

return:                                           ; preds = %if.end, %if.then
  %6 = load i64*, i64** %retval, align 8, !dbg !3926
  ret i64* %6, !dbg !3926
}

; Function Attrs: noinline nounwind uwtable
define linkonce_odr dso_local i64 @_ZNK9__gnu_cxx13new_allocatorI7TTEntryE8max_sizeEv(%"class.__gnu_cxx::new_allocator"* %this) #4 comdat align 2 !dbg !3927 {
entry:
  %this.addr = alloca %"class.__gnu_cxx::new_allocator"*, align 8
  store %"class.__gnu_cxx::new_allocator"* %this, %"class.__gnu_cxx::new_allocator"** %this.addr, align 8
  call void @llvm.dbg.declare(metadata %"class.__gnu_cxx::new_allocator"** %this.addr, metadata !3928, metadata !DIExpression()), !dbg !3930
  %this1 = load %"class.__gnu_cxx::new_allocator"*, %"class.__gnu_cxx::new_allocator"** %this.addr, align 8
  %call = call i64 @_ZNK9__gnu_cxx13new_allocatorI7TTEntryE11_M_max_sizeEv(%"class.__gnu_cxx::new_allocator"* %this1) #13, !dbg !3931
  ret i64 %call, !dbg !3932
}

; Function Attrs: noinline nounwind uwtable
define linkonce_odr dso_local i64 @_ZNK9__gnu_cxx13new_allocatorI7TTEntryE11_M_max_sizeEv(%"class.__gnu_cxx::new_allocator"* %this) #4 comdat align 2 !dbg !3933 {
entry:
  %this.addr = alloca %"class.__gnu_cxx::new_allocator"*, align 8
  store %"class.__gnu_cxx::new_allocator"* %this, %"class.__gnu_cxx::new_allocator"** %this.addr, align 8
  call void @llvm.dbg.declare(metadata %"class.__gnu_cxx::new_allocator"** %this.addr, metadata !3934, metadata !DIExpression()), !dbg !3935
  %this1 = load %"class.__gnu_cxx::new_allocator"*, %"class.__gnu_cxx::new_allocator"** %this.addr, align 8
  ret i64 576460752303423487, !dbg !3936
}

; Function Attrs: noinline uwtable
define linkonce_odr dso_local %class.TTEntry* @_ZSt25__uninitialized_default_nIP7TTEntrymET_S2_T0_(%class.TTEntry* %__first, i64 %__n) #0 comdat !dbg !3937 {
entry:
  %__first.addr = alloca %class.TTEntry*, align 8
  %__n.addr = alloca i64, align 8
  %__assignable = alloca i8, align 1
  store %class.TTEntry* %__first, %class.TTEntry** %__first.addr, align 8
  call void @llvm.dbg.declare(metadata %class.TTEntry** %__first.addr, metadata !3941, metadata !DIExpression()), !dbg !3942
  store i64 %__n, i64* %__n.addr, align 8
  call void @llvm.dbg.declare(metadata i64* %__n.addr, metadata !3943, metadata !DIExpression()), !dbg !3944
  call void @llvm.dbg.declare(metadata i8* %__assignable, metadata !3945, metadata !DIExpression()), !dbg !3946
  store i8 1, i8* %__assignable, align 1, !dbg !3946
  %0 = load %class.TTEntry*, %class.TTEntry** %__first.addr, align 8, !dbg !3947
  %1 = load i64, i64* %__n.addr, align 8, !dbg !3948
  %call = call %class.TTEntry* @_ZNSt27__uninitialized_default_n_1ILb0EE18__uninit_default_nIP7TTEntrymEET_S4_T0_(%class.TTEntry* %0, i64 %1), !dbg !3949
  ret %class.TTEntry* %call, !dbg !3950
}

; Function Attrs: noinline uwtable
define linkonce_odr dso_local %class.TTEntry* @_ZNSt27__uninitialized_default_n_1ILb0EE18__uninit_default_nIP7TTEntrymEET_S4_T0_(%class.TTEntry* %__first, i64 %__n) #0 comdat align 2 personality i8* bitcast (i32 (...)* @__gxx_personality_v0 to i8*) !dbg !3951 {
entry:
  %__first.addr = alloca %class.TTEntry*, align 8
  %__n.addr = alloca i64, align 8
  %__cur = alloca %class.TTEntry*, align 8
  %exn.slot = alloca i8*
  %ehselector.slot = alloca i32
  store %class.TTEntry* %__first, %class.TTEntry** %__first.addr, align 8
  call void @llvm.dbg.declare(metadata %class.TTEntry** %__first.addr, metadata !3956, metadata !DIExpression()), !dbg !3957
  store i64 %__n, i64* %__n.addr, align 8
  call void @llvm.dbg.declare(metadata i64* %__n.addr, metadata !3958, metadata !DIExpression()), !dbg !3959
  call void @llvm.dbg.declare(metadata %class.TTEntry** %__cur, metadata !3960, metadata !DIExpression()), !dbg !3961
  %0 = load %class.TTEntry*, %class.TTEntry** %__first.addr, align 8, !dbg !3962
  store %class.TTEntry* %0, %class.TTEntry** %__cur, align 8, !dbg !3961
  br label %for.cond, !dbg !3963

for.cond:                                         ; preds = %for.inc, %entry
  %1 = load i64, i64* %__n.addr, align 8, !dbg !3965
  %cmp = icmp ugt i64 %1, 0, !dbg !3968
  br i1 %cmp, label %for.body, label %for.end, !dbg !3969

for.body:                                         ; preds = %for.cond
  %2 = load %class.TTEntry*, %class.TTEntry** %__cur, align 8, !dbg !3970
  %call = call %class.TTEntry* @_ZSt11__addressofI7TTEntryEPT_RS1_(%class.TTEntry* dereferenceable(16) %2) #13, !dbg !3971
  invoke void @_ZSt10_ConstructI7TTEntryJEEvPT_DpOT0_(%class.TTEntry* %call)
          to label %invoke.cont unwind label %lpad, !dbg !3972

invoke.cont:                                      ; preds = %for.body
  br label %for.inc, !dbg !3972

for.inc:                                          ; preds = %invoke.cont
  %3 = load i64, i64* %__n.addr, align 8, !dbg !3973
  %dec = add i64 %3, -1, !dbg !3973
  store i64 %dec, i64* %__n.addr, align 8, !dbg !3973
  %4 = load %class.TTEntry*, %class.TTEntry** %__cur, align 8, !dbg !3974
  %incdec.ptr = getelementptr inbounds %class.TTEntry, %class.TTEntry* %4, i32 1, !dbg !3974
  store %class.TTEntry* %incdec.ptr, %class.TTEntry** %__cur, align 8, !dbg !3974
  br label %for.cond, !dbg !3975, !llvm.loop !3976

lpad:                                             ; preds = %for.body
  %5 = landingpad { i8*, i32 }
          catch i8* null, !dbg !3978
  %6 = extractvalue { i8*, i32 } %5, 0, !dbg !3978
  store i8* %6, i8** %exn.slot, align 8, !dbg !3978
  %7 = extractvalue { i8*, i32 } %5, 1, !dbg !3978
  store i32 %7, i32* %ehselector.slot, align 4, !dbg !3978
  br label %catch, !dbg !3978

catch:                                            ; preds = %lpad
  %exn = load i8*, i8** %exn.slot, align 8, !dbg !3979
  %8 = call i8* @__cxa_begin_catch(i8* %exn) #13, !dbg !3979
  %9 = load %class.TTEntry*, %class.TTEntry** %__first.addr, align 8, !dbg !3980
  %10 = load %class.TTEntry*, %class.TTEntry** %__cur, align 8, !dbg !3982
  invoke void @_ZSt8_DestroyIP7TTEntryEvT_S2_(%class.TTEntry* %9, %class.TTEntry* %10)
          to label %invoke.cont2 unwind label %lpad1, !dbg !3983

invoke.cont2:                                     ; preds = %catch
  invoke void @__cxa_rethrow() #15
          to label %unreachable unwind label %lpad1, !dbg !3984

for.end:                                          ; preds = %for.cond
  %11 = load %class.TTEntry*, %class.TTEntry** %__cur, align 8, !dbg !3985
  ret %class.TTEntry* %11, !dbg !3986

lpad1:                                            ; preds = %invoke.cont2, %catch
  %12 = landingpad { i8*, i32 }
          cleanup, !dbg !3987
  %13 = extractvalue { i8*, i32 } %12, 0, !dbg !3987
  store i8* %13, i8** %exn.slot, align 8, !dbg !3987
  %14 = extractvalue { i8*, i32 } %12, 1, !dbg !3987
  store i32 %14, i32* %ehselector.slot, align 4, !dbg !3987
  invoke void @__cxa_end_catch()
          to label %invoke.cont3 unwind label %terminate.lpad, !dbg !3988

invoke.cont3:                                     ; preds = %lpad1
  br label %eh.resume, !dbg !3988

try.cont:                                         ; No predecessors!
  call void @llvm.trap(), !dbg !3988
  unreachable, !dbg !3988

eh.resume:                                        ; preds = %invoke.cont3
  %exn4 = load i8*, i8** %exn.slot, align 8, !dbg !3988
  %sel = load i32, i32* %ehselector.slot, align 4, !dbg !3988
  %lpad.val = insertvalue { i8*, i32 } undef, i8* %exn4, 0, !dbg !3988
  %lpad.val5 = insertvalue { i8*, i32 } %lpad.val, i32 %sel, 1, !dbg !3988
  resume { i8*, i32 } %lpad.val5, !dbg !3988

terminate.lpad:                                   ; preds = %lpad1
  %15 = landingpad { i8*, i32 }
          catch i8* null, !dbg !3988
  %16 = extractvalue { i8*, i32 } %15, 0, !dbg !3988
  call void @__clang_call_terminate(i8* %16) #14, !dbg !3988
  unreachable, !dbg !3988

unreachable:                                      ; preds = %invoke.cont2
  unreachable
}

; Function Attrs: noinline uwtable
define linkonce_odr dso_local void @_ZSt10_ConstructI7TTEntryJEEvPT_DpOT0_(%class.TTEntry* %__p) #0 comdat !dbg !3989 {
entry:
  %__p.addr = alloca %class.TTEntry*, align 8
  store %class.TTEntry* %__p, %class.TTEntry** %__p.addr, align 8
  call void @llvm.dbg.declare(metadata %class.TTEntry** %__p.addr, metadata !3994, metadata !DIExpression()), !dbg !3995
  %0 = load %class.TTEntry*, %class.TTEntry** %__p.addr, align 8, !dbg !3996
  %1 = bitcast %class.TTEntry* %0 to i8*, !dbg !3996
  %2 = bitcast i8* %1 to %class.TTEntry*, !dbg !3997
  call void @_ZN7TTEntryC1Ev(%class.TTEntry* %2), !dbg !3998
  ret void, !dbg !3999
}

; Function Attrs: noinline nounwind uwtable
define linkonce_odr dso_local %class.TTEntry* @_ZSt11__addressofI7TTEntryEPT_RS1_(%class.TTEntry* dereferenceable(16) %__r) #4 comdat !dbg !4000 {
entry:
  %__r.addr = alloca %class.TTEntry*, align 8
  store %class.TTEntry* %__r, %class.TTEntry** %__r.addr, align 8
  call void @llvm.dbg.declare(metadata %class.TTEntry** %__r.addr, metadata !4004, metadata !DIExpression()), !dbg !4005
  %0 = load %class.TTEntry*, %class.TTEntry** %__r.addr, align 8, !dbg !4006
  ret %class.TTEntry* %0, !dbg !4007
}

; Function Attrs: cold noreturn nounwind
declare void @llvm.trap() #8

; Function Attrs: noreturn
declare dso_local void @_ZSt20__throw_length_errorPKc(i8*) #9

; Function Attrs: noinline nounwind uwtable
define linkonce_odr dso_local dereferenceable(8) i64* @_ZSt3maxImERKT_S2_S2_(i64* dereferenceable(8) %__a, i64* dereferenceable(8) %__b) #4 comdat !dbg !4008 {
entry:
  %retval = alloca i64*, align 8
  %__a.addr = alloca i64*, align 8
  %__b.addr = alloca i64*, align 8
  store i64* %__a, i64** %__a.addr, align 8
  call void @llvm.dbg.declare(metadata i64** %__a.addr, metadata !4009, metadata !DIExpression()), !dbg !4010
  store i64* %__b, i64** %__b.addr, align 8
  call void @llvm.dbg.declare(metadata i64** %__b.addr, metadata !4011, metadata !DIExpression()), !dbg !4012
  %0 = load i64*, i64** %__a.addr, align 8, !dbg !4013
  %1 = load i64, i64* %0, align 8, !dbg !4013
  %2 = load i64*, i64** %__b.addr, align 8, !dbg !4015
  %3 = load i64, i64* %2, align 8, !dbg !4015
  %cmp = icmp ult i64 %1, %3, !dbg !4016
  br i1 %cmp, label %if.then, label %if.end, !dbg !4017

if.then:                                          ; preds = %entry
  %4 = load i64*, i64** %__b.addr, align 8, !dbg !4018
  store i64* %4, i64** %retval, align 8, !dbg !4019
  br label %return, !dbg !4019

if.end:                                           ; preds = %entry
  %5 = load i64*, i64** %__a.addr, align 8, !dbg !4020
  store i64* %5, i64** %retval, align 8, !dbg !4021
  br label %return, !dbg !4021

return:                                           ; preds = %if.end, %if.then
  %6 = load i64*, i64** %retval, align 8, !dbg !4022
  ret i64* %6, !dbg !4022
}

; Function Attrs: noinline uwtable
define linkonce_odr dso_local %class.TTEntry* @_ZNSt16allocator_traitsISaI7TTEntryEE8allocateERS1_m(%"class.std::allocator"* dereferenceable(1) %__a, i64 %__n) #0 comdat align 2 !dbg !4023 {
entry:
  %__a.addr = alloca %"class.std::allocator"*, align 8
  %__n.addr = alloca i64, align 8
  store %"class.std::allocator"* %__a, %"class.std::allocator"** %__a.addr, align 8
  call void @llvm.dbg.declare(metadata %"class.std::allocator"** %__a.addr, metadata !4024, metadata !DIExpression()), !dbg !4025
  store i64 %__n, i64* %__n.addr, align 8
  call void @llvm.dbg.declare(metadata i64* %__n.addr, metadata !4026, metadata !DIExpression()), !dbg !4027
  %0 = load %"class.std::allocator"*, %"class.std::allocator"** %__a.addr, align 8, !dbg !4028
  %1 = bitcast %"class.std::allocator"* %0 to %"class.__gnu_cxx::new_allocator"*, !dbg !4028
  %2 = load i64, i64* %__n.addr, align 8, !dbg !4029
  %call = call %class.TTEntry* @_ZN9__gnu_cxx13new_allocatorI7TTEntryE8allocateEmPKv(%"class.__gnu_cxx::new_allocator"* %1, i64 %2, i8* null), !dbg !4030
  ret %class.TTEntry* %call, !dbg !4031
}

; Function Attrs: noinline uwtable
define linkonce_odr dso_local %class.TTEntry* @_ZN9__gnu_cxx13new_allocatorI7TTEntryE8allocateEmPKv(%"class.__gnu_cxx::new_allocator"* %this, i64 %__n, i8* %0) #0 comdat align 2 !dbg !4032 {
entry:
  %this.addr = alloca %"class.__gnu_cxx::new_allocator"*, align 8
  %__n.addr = alloca i64, align 8
  %.addr = alloca i8*, align 8
  store %"class.__gnu_cxx::new_allocator"* %this, %"class.__gnu_cxx::new_allocator"** %this.addr, align 8
  call void @llvm.dbg.declare(metadata %"class.__gnu_cxx::new_allocator"** %this.addr, metadata !4033, metadata !DIExpression()), !dbg !4034
  store i64 %__n, i64* %__n.addr, align 8
  call void @llvm.dbg.declare(metadata i64* %__n.addr, metadata !4035, metadata !DIExpression()), !dbg !4036
  store i8* %0, i8** %.addr, align 8
  call void @llvm.dbg.declare(metadata i8** %.addr, metadata !4037, metadata !DIExpression()), !dbg !4038
  %this1 = load %"class.__gnu_cxx::new_allocator"*, %"class.__gnu_cxx::new_allocator"** %this.addr, align 8
  %1 = load i64, i64* %__n.addr, align 8, !dbg !4039
  %call = call i64 @_ZNK9__gnu_cxx13new_allocatorI7TTEntryE11_M_max_sizeEv(%"class.__gnu_cxx::new_allocator"* %this1) #13, !dbg !4041
  %cmp = icmp ugt i64 %1, %call, !dbg !4042
  br i1 %cmp, label %if.then, label %if.end, !dbg !4043

if.then:                                          ; preds = %entry
  call void @_ZSt17__throw_bad_allocv() #15, !dbg !4044
  unreachable, !dbg !4044

if.end:                                           ; preds = %entry
  %2 = load i64, i64* %__n.addr, align 8, !dbg !4045
  %mul = mul i64 %2, 16, !dbg !4046
  %call2 = call i8* @_Znwm(i64 %mul), !dbg !4047
  %3 = bitcast i8* %call2 to %class.TTEntry*, !dbg !4048
  ret %class.TTEntry* %3, !dbg !4049
}

; Function Attrs: noreturn
declare dso_local void @_ZSt17__throw_bad_allocv() #9

; Function Attrs: noinline nounwind uwtable
define linkonce_odr dso_local %class.TTEntry* @_ZNSt6vectorI7TTEntrySaIS0_EE14_S_do_relocateEPS0_S3_S3_RS1_St17integral_constantIbLb1EE(%class.TTEntry* %__first, %class.TTEntry* %__last, %class.TTEntry* %__result, %"class.std::allocator"* dereferenceable(1) %__alloc) #4 comdat align 2 !dbg !4050 {
entry:
  %0 = alloca %"struct.std::integral_constant", align 1
  %__first.addr = alloca %class.TTEntry*, align 8
  %__last.addr = alloca %class.TTEntry*, align 8
  %__result.addr = alloca %class.TTEntry*, align 8
  %__alloc.addr = alloca %"class.std::allocator"*, align 8
  store %class.TTEntry* %__first, %class.TTEntry** %__first.addr, align 8
  call void @llvm.dbg.declare(metadata %class.TTEntry** %__first.addr, metadata !4051, metadata !DIExpression()), !dbg !4052
  store %class.TTEntry* %__last, %class.TTEntry** %__last.addr, align 8
  call void @llvm.dbg.declare(metadata %class.TTEntry** %__last.addr, metadata !4053, metadata !DIExpression()), !dbg !4054
  store %class.TTEntry* %__result, %class.TTEntry** %__result.addr, align 8
  call void @llvm.dbg.declare(metadata %class.TTEntry** %__result.addr, metadata !4055, metadata !DIExpression()), !dbg !4056
  store %"class.std::allocator"* %__alloc, %"class.std::allocator"** %__alloc.addr, align 8
  call void @llvm.dbg.declare(metadata %"class.std::allocator"** %__alloc.addr, metadata !4057, metadata !DIExpression()), !dbg !4058
  call void @llvm.dbg.declare(metadata %"struct.std::integral_constant"* %0, metadata !4059, metadata !DIExpression()), !dbg !4060
  %1 = load %class.TTEntry*, %class.TTEntry** %__first.addr, align 8, !dbg !4061
  %2 = load %class.TTEntry*, %class.TTEntry** %__last.addr, align 8, !dbg !4062
  %3 = load %class.TTEntry*, %class.TTEntry** %__result.addr, align 8, !dbg !4063
  %4 = load %"class.std::allocator"*, %"class.std::allocator"** %__alloc.addr, align 8, !dbg !4064
  %call = call %class.TTEntry* @_ZSt12__relocate_aIP7TTEntryS1_SaIS0_EET0_T_S4_S3_RT1_(%class.TTEntry* %1, %class.TTEntry* %2, %class.TTEntry* %3, %"class.std::allocator"* dereferenceable(1) %4) #13, !dbg !4065
  ret %class.TTEntry* %call, !dbg !4066
}

; Function Attrs: noinline nounwind uwtable
define linkonce_odr dso_local %class.TTEntry* @_ZSt12__relocate_aIP7TTEntryS1_SaIS0_EET0_T_S4_S3_RT1_(%class.TTEntry* %__first, %class.TTEntry* %__last, %class.TTEntry* %__result, %"class.std::allocator"* dereferenceable(1) %__alloc) #4 comdat !dbg !4067 {
entry:
  %__first.addr = alloca %class.TTEntry*, align 8
  %__last.addr = alloca %class.TTEntry*, align 8
  %__result.addr = alloca %class.TTEntry*, align 8
  %__alloc.addr = alloca %"class.std::allocator"*, align 8
  store %class.TTEntry* %__first, %class.TTEntry** %__first.addr, align 8
  call void @llvm.dbg.declare(metadata %class.TTEntry** %__first.addr, metadata !4073, metadata !DIExpression()), !dbg !4074
  store %class.TTEntry* %__last, %class.TTEntry** %__last.addr, align 8
  call void @llvm.dbg.declare(metadata %class.TTEntry** %__last.addr, metadata !4075, metadata !DIExpression()), !dbg !4076
  store %class.TTEntry* %__result, %class.TTEntry** %__result.addr, align 8
  call void @llvm.dbg.declare(metadata %class.TTEntry** %__result.addr, metadata !4077, metadata !DIExpression()), !dbg !4078
  store %"class.std::allocator"* %__alloc, %"class.std::allocator"** %__alloc.addr, align 8
  call void @llvm.dbg.declare(metadata %"class.std::allocator"** %__alloc.addr, metadata !4079, metadata !DIExpression()), !dbg !4080
  %0 = load %class.TTEntry*, %class.TTEntry** %__first.addr, align 8, !dbg !4081
  %call = call %class.TTEntry* @_ZSt12__niter_baseIP7TTEntryET_S2_(%class.TTEntry* %0) #13, !dbg !4082
  %1 = load %class.TTEntry*, %class.TTEntry** %__last.addr, align 8, !dbg !4083
  %call1 = call %class.TTEntry* @_ZSt12__niter_baseIP7TTEntryET_S2_(%class.TTEntry* %1) #13, !dbg !4084
  %2 = load %class.TTEntry*, %class.TTEntry** %__result.addr, align 8, !dbg !4085
  %call2 = call %class.TTEntry* @_ZSt12__niter_baseIP7TTEntryET_S2_(%class.TTEntry* %2) #13, !dbg !4086
  %3 = load %"class.std::allocator"*, %"class.std::allocator"** %__alloc.addr, align 8, !dbg !4087
  %call3 = call %class.TTEntry* @_ZSt14__relocate_a_1IP7TTEntryS1_SaIS0_EET0_T_S4_S3_RT1_(%class.TTEntry* %call, %class.TTEntry* %call1, %class.TTEntry* %call2, %"class.std::allocator"* dereferenceable(1) %3) #13, !dbg !4088
  ret %class.TTEntry* %call3, !dbg !4089
}

; Function Attrs: noinline nounwind uwtable
define linkonce_odr dso_local %class.TTEntry* @_ZSt14__relocate_a_1IP7TTEntryS1_SaIS0_EET0_T_S4_S3_RT1_(%class.TTEntry* %__first, %class.TTEntry* %__last, %class.TTEntry* %__result, %"class.std::allocator"* dereferenceable(1) %__alloc) #4 comdat !dbg !4090 {
entry:
  %__first.addr = alloca %class.TTEntry*, align 8
  %__last.addr = alloca %class.TTEntry*, align 8
  %__result.addr = alloca %class.TTEntry*, align 8
  %__alloc.addr = alloca %"class.std::allocator"*, align 8
  %__cur = alloca %class.TTEntry*, align 8
  store %class.TTEntry* %__first, %class.TTEntry** %__first.addr, align 8
  call void @llvm.dbg.declare(metadata %class.TTEntry** %__first.addr, metadata !4091, metadata !DIExpression()), !dbg !4092
  store %class.TTEntry* %__last, %class.TTEntry** %__last.addr, align 8
  call void @llvm.dbg.declare(metadata %class.TTEntry** %__last.addr, metadata !4093, metadata !DIExpression()), !dbg !4094
  store %class.TTEntry* %__result, %class.TTEntry** %__result.addr, align 8
  call void @llvm.dbg.declare(metadata %class.TTEntry** %__result.addr, metadata !4095, metadata !DIExpression()), !dbg !4096
  store %"class.std::allocator"* %__alloc, %"class.std::allocator"** %__alloc.addr, align 8
  call void @llvm.dbg.declare(metadata %"class.std::allocator"** %__alloc.addr, metadata !4097, metadata !DIExpression()), !dbg !4098
  call void @llvm.dbg.declare(metadata %class.TTEntry** %__cur, metadata !4099, metadata !DIExpression()), !dbg !4100
  %0 = load %class.TTEntry*, %class.TTEntry** %__result.addr, align 8, !dbg !4101
  store %class.TTEntry* %0, %class.TTEntry** %__cur, align 8, !dbg !4100
  br label %for.cond, !dbg !4102

for.cond:                                         ; preds = %for.inc, %entry
  %1 = load %class.TTEntry*, %class.TTEntry** %__first.addr, align 8, !dbg !4103
  %2 = load %class.TTEntry*, %class.TTEntry** %__last.addr, align 8, !dbg !4106
  %cmp = icmp ne %class.TTEntry* %1, %2, !dbg !4107
  br i1 %cmp, label %for.body, label %for.end, !dbg !4108

for.body:                                         ; preds = %for.cond
  %3 = load %class.TTEntry*, %class.TTEntry** %__cur, align 8, !dbg !4109
  %call = call %class.TTEntry* @_ZSt11__addressofI7TTEntryEPT_RS1_(%class.TTEntry* dereferenceable(16) %3) #13, !dbg !4110
  %4 = load %class.TTEntry*, %class.TTEntry** %__first.addr, align 8, !dbg !4111
  %call1 = call %class.TTEntry* @_ZSt11__addressofI7TTEntryEPT_RS1_(%class.TTEntry* dereferenceable(16) %4) #13, !dbg !4112
  %5 = load %"class.std::allocator"*, %"class.std::allocator"** %__alloc.addr, align 8, !dbg !4113
  call void @_ZSt19__relocate_object_aI7TTEntryS0_SaIS0_EEvPT_PT0_RT1_(%class.TTEntry* %call, %class.TTEntry* %call1, %"class.std::allocator"* dereferenceable(1) %5) #13, !dbg !4114
  br label %for.inc, !dbg !4114

for.inc:                                          ; preds = %for.body
  %6 = load %class.TTEntry*, %class.TTEntry** %__first.addr, align 8, !dbg !4115
  %incdec.ptr = getelementptr inbounds %class.TTEntry, %class.TTEntry* %6, i32 1, !dbg !4115
  store %class.TTEntry* %incdec.ptr, %class.TTEntry** %__first.addr, align 8, !dbg !4115
  %7 = load %class.TTEntry*, %class.TTEntry** %__cur, align 8, !dbg !4116
  %incdec.ptr2 = getelementptr inbounds %class.TTEntry, %class.TTEntry* %7, i32 1, !dbg !4116
  store %class.TTEntry* %incdec.ptr2, %class.TTEntry** %__cur, align 8, !dbg !4116
  br label %for.cond, !dbg !4117, !llvm.loop !4118

for.end:                                          ; preds = %for.cond
  %8 = load %class.TTEntry*, %class.TTEntry** %__cur, align 8, !dbg !4120
  ret %class.TTEntry* %8, !dbg !4121
}

; Function Attrs: noinline nounwind uwtable
define linkonce_odr dso_local %class.TTEntry* @_ZSt12__niter_baseIP7TTEntryET_S2_(%class.TTEntry* %__it) #4 comdat !dbg !4122 {
entry:
  %__it.addr = alloca %class.TTEntry*, align 8
  store %class.TTEntry* %__it, %class.TTEntry** %__it.addr, align 8
  call void @llvm.dbg.declare(metadata %class.TTEntry** %__it.addr, metadata !4127, metadata !DIExpression()), !dbg !4128
  %0 = load %class.TTEntry*, %class.TTEntry** %__it.addr, align 8, !dbg !4129
  ret %class.TTEntry* %0, !dbg !4130
}

; Function Attrs: noinline nounwind uwtable
define linkonce_odr dso_local void @_ZSt19__relocate_object_aI7TTEntryS0_SaIS0_EEvPT_PT0_RT1_(%class.TTEntry* noalias %__dest, %class.TTEntry* noalias %__orig, %"class.std::allocator"* dereferenceable(1) %__alloc) #4 comdat !dbg !4131 {
entry:
  %__dest.addr = alloca %class.TTEntry*, align 8
  %__orig.addr = alloca %class.TTEntry*, align 8
  %__alloc.addr = alloca %"class.std::allocator"*, align 8
  store %class.TTEntry* %__dest, %class.TTEntry** %__dest.addr, align 8
  call void @llvm.dbg.declare(metadata %class.TTEntry** %__dest.addr, metadata !4137, metadata !DIExpression()), !dbg !4138
  store %class.TTEntry* %__orig, %class.TTEntry** %__orig.addr, align 8
  call void @llvm.dbg.declare(metadata %class.TTEntry** %__orig.addr, metadata !4139, metadata !DIExpression()), !dbg !4140
  store %"class.std::allocator"* %__alloc, %"class.std::allocator"** %__alloc.addr, align 8
  call void @llvm.dbg.declare(metadata %"class.std::allocator"** %__alloc.addr, metadata !4141, metadata !DIExpression()), !dbg !4142
  %0 = load %"class.std::allocator"*, %"class.std::allocator"** %__alloc.addr, align 8, !dbg !4143
  %1 = load %class.TTEntry*, %class.TTEntry** %__dest.addr, align 8, !dbg !4144
  %2 = load %class.TTEntry*, %class.TTEntry** %__orig.addr, align 8, !dbg !4145
  %call = call dereferenceable(16) %class.TTEntry* @_ZSt4moveIR7TTEntryEONSt16remove_referenceIT_E4typeEOS3_(%class.TTEntry* dereferenceable(16) %2) #13, !dbg !4146
  call void @_ZNSt16allocator_traitsISaI7TTEntryEE9constructIS0_JS0_EEEvRS1_PT_DpOT0_(%"class.std::allocator"* dereferenceable(1) %0, %class.TTEntry* %1, %class.TTEntry* dereferenceable(16) %call) #13, !dbg !4147
  %3 = load %"class.std::allocator"*, %"class.std::allocator"** %__alloc.addr, align 8, !dbg !4148
  %4 = load %class.TTEntry*, %class.TTEntry** %__orig.addr, align 8, !dbg !4149
  %call1 = call %class.TTEntry* @_ZSt11__addressofI7TTEntryEPT_RS1_(%class.TTEntry* dereferenceable(16) %4) #13, !dbg !4150
  call void @_ZNSt16allocator_traitsISaI7TTEntryEE7destroyIS0_EEvRS1_PT_(%"class.std::allocator"* dereferenceable(1) %3, %class.TTEntry* %call1) #13, !dbg !4151
  ret void, !dbg !4152
}

; Function Attrs: noinline nounwind uwtable
define linkonce_odr dso_local void @_ZNSt16allocator_traitsISaI7TTEntryEE9constructIS0_JS0_EEEvRS1_PT_DpOT0_(%"class.std::allocator"* dereferenceable(1) %__a, %class.TTEntry* %__p, %class.TTEntry* dereferenceable(16) %__args) #4 comdat align 2 !dbg !4153 {
entry:
  %__a.addr = alloca %"class.std::allocator"*, align 8
  %__p.addr = alloca %class.TTEntry*, align 8
  %__args.addr = alloca %class.TTEntry*, align 8
  store %"class.std::allocator"* %__a, %"class.std::allocator"** %__a.addr, align 8
  call void @llvm.dbg.declare(metadata %"class.std::allocator"** %__a.addr, metadata !4161, metadata !DIExpression()), !dbg !4162
  store %class.TTEntry* %__p, %class.TTEntry** %__p.addr, align 8
  call void @llvm.dbg.declare(metadata %class.TTEntry** %__p.addr, metadata !4163, metadata !DIExpression()), !dbg !4164
  store %class.TTEntry* %__args, %class.TTEntry** %__args.addr, align 8
  call void @llvm.dbg.declare(metadata %class.TTEntry** %__args.addr, metadata !4165, metadata !DIExpression()), !dbg !4166
  %0 = load %"class.std::allocator"*, %"class.std::allocator"** %__a.addr, align 8, !dbg !4167
  %1 = bitcast %"class.std::allocator"* %0 to %"class.__gnu_cxx::new_allocator"*, !dbg !4167
  %2 = load %class.TTEntry*, %class.TTEntry** %__p.addr, align 8, !dbg !4168
  %3 = load %class.TTEntry*, %class.TTEntry** %__args.addr, align 8, !dbg !4169
  %call = call dereferenceable(16) %class.TTEntry* @_ZSt7forwardI7TTEntryEOT_RNSt16remove_referenceIS1_E4typeE(%class.TTEntry* dereferenceable(16) %3) #13, !dbg !4170
  call void @_ZN9__gnu_cxx13new_allocatorI7TTEntryE9constructIS1_JS1_EEEvPT_DpOT0_(%"class.__gnu_cxx::new_allocator"* %1, %class.TTEntry* %2, %class.TTEntry* dereferenceable(16) %call) #13, !dbg !4171
  ret void, !dbg !4172
}

; Function Attrs: noinline nounwind uwtable
define linkonce_odr dso_local dereferenceable(16) %class.TTEntry* @_ZSt4moveIR7TTEntryEONSt16remove_referenceIT_E4typeEOS3_(%class.TTEntry* dereferenceable(16) %__t) #4 comdat !dbg !4173 {
entry:
  %__t.addr = alloca %class.TTEntry*, align 8
  store %class.TTEntry* %__t, %class.TTEntry** %__t.addr, align 8
  call void @llvm.dbg.declare(metadata %class.TTEntry** %__t.addr, metadata !4181, metadata !DIExpression()), !dbg !4182
  %0 = load %class.TTEntry*, %class.TTEntry** %__t.addr, align 8, !dbg !4183
  ret %class.TTEntry* %0, !dbg !4184
}

; Function Attrs: noinline nounwind uwtable
define linkonce_odr dso_local void @_ZNSt16allocator_traitsISaI7TTEntryEE7destroyIS0_EEvRS1_PT_(%"class.std::allocator"* dereferenceable(1) %__a, %class.TTEntry* %__p) #4 comdat align 2 !dbg !4185 {
entry:
  %__a.addr = alloca %"class.std::allocator"*, align 8
  %__p.addr = alloca %class.TTEntry*, align 8
  store %"class.std::allocator"* %__a, %"class.std::allocator"** %__a.addr, align 8
  call void @llvm.dbg.declare(metadata %"class.std::allocator"** %__a.addr, metadata !4190, metadata !DIExpression()), !dbg !4191
  store %class.TTEntry* %__p, %class.TTEntry** %__p.addr, align 8
  call void @llvm.dbg.declare(metadata %class.TTEntry** %__p.addr, metadata !4192, metadata !DIExpression()), !dbg !4193
  %0 = load %"class.std::allocator"*, %"class.std::allocator"** %__a.addr, align 8, !dbg !4194
  %1 = bitcast %"class.std::allocator"* %0 to %"class.__gnu_cxx::new_allocator"*, !dbg !4194
  %2 = load %class.TTEntry*, %class.TTEntry** %__p.addr, align 8, !dbg !4195
  call void @_ZN9__gnu_cxx13new_allocatorI7TTEntryE7destroyIS1_EEvPT_(%"class.__gnu_cxx::new_allocator"* %1, %class.TTEntry* %2) #13, !dbg !4196
  ret void, !dbg !4197
}

; Function Attrs: noinline nounwind uwtable
define linkonce_odr dso_local void @_ZN9__gnu_cxx13new_allocatorI7TTEntryE9constructIS1_JS1_EEEvPT_DpOT0_(%"class.__gnu_cxx::new_allocator"* %this, %class.TTEntry* %__p, %class.TTEntry* dereferenceable(16) %__args) #4 comdat align 2 !dbg !4198 {
entry:
  %this.addr = alloca %"class.__gnu_cxx::new_allocator"*, align 8
  %__p.addr = alloca %class.TTEntry*, align 8
  %__args.addr = alloca %class.TTEntry*, align 8
  store %"class.__gnu_cxx::new_allocator"* %this, %"class.__gnu_cxx::new_allocator"** %this.addr, align 8
  call void @llvm.dbg.declare(metadata %"class.__gnu_cxx::new_allocator"** %this.addr, metadata !4202, metadata !DIExpression()), !dbg !4203
  store %class.TTEntry* %__p, %class.TTEntry** %__p.addr, align 8
  call void @llvm.dbg.declare(metadata %class.TTEntry** %__p.addr, metadata !4204, metadata !DIExpression()), !dbg !4205
  store %class.TTEntry* %__args, %class.TTEntry** %__args.addr, align 8
  call void @llvm.dbg.declare(metadata %class.TTEntry** %__args.addr, metadata !4206, metadata !DIExpression()), !dbg !4207
  %this1 = load %"class.__gnu_cxx::new_allocator"*, %"class.__gnu_cxx::new_allocator"** %this.addr, align 8
  %0 = load %class.TTEntry*, %class.TTEntry** %__p.addr, align 8, !dbg !4208
  %1 = bitcast %class.TTEntry* %0 to i8*, !dbg !4208
  %2 = bitcast i8* %1 to %class.TTEntry*, !dbg !4209
  %3 = load %class.TTEntry*, %class.TTEntry** %__args.addr, align 8, !dbg !4210
  %call = call dereferenceable(16) %class.TTEntry* @_ZSt7forwardI7TTEntryEOT_RNSt16remove_referenceIS1_E4typeE(%class.TTEntry* dereferenceable(16) %3) #13, !dbg !4211
  %4 = bitcast %class.TTEntry* %2 to i8*, !dbg !4212
  %5 = bitcast %class.TTEntry* %call to i8*, !dbg !4212
  call void @llvm.memcpy.p0i8.p0i8.i64(i8* align 8 %4, i8* align 8 %5, i64 16, i1 false), !dbg !4212
  ret void, !dbg !4213
}

; Function Attrs: noinline nounwind uwtable
define linkonce_odr dso_local dereferenceable(16) %class.TTEntry* @_ZSt7forwardI7TTEntryEOT_RNSt16remove_referenceIS1_E4typeE(%class.TTEntry* dereferenceable(16) %__t) #4 comdat !dbg !4214 {
entry:
  %__t.addr = alloca %class.TTEntry*, align 8
  store %class.TTEntry* %__t, %class.TTEntry** %__t.addr, align 8
  call void @llvm.dbg.declare(metadata %class.TTEntry** %__t.addr, metadata !4220, metadata !DIExpression()), !dbg !4221
  %0 = load %class.TTEntry*, %class.TTEntry** %__t.addr, align 8, !dbg !4222
  ret %class.TTEntry* %0, !dbg !4223
}

; Function Attrs: argmemonly nounwind willreturn
declare void @llvm.memcpy.p0i8.p0i8.i64(i8* noalias nocapture writeonly, i8* noalias nocapture readonly, i64, i1 immarg) #10

; Function Attrs: noinline nounwind uwtable
define linkonce_odr dso_local void @_ZN9__gnu_cxx13new_allocatorI7TTEntryE7destroyIS1_EEvPT_(%"class.__gnu_cxx::new_allocator"* %this, %class.TTEntry* %__p) #4 comdat align 2 !dbg !4224 {
entry:
  %this.addr = alloca %"class.__gnu_cxx::new_allocator"*, align 8
  %__p.addr = alloca %class.TTEntry*, align 8
  store %"class.__gnu_cxx::new_allocator"* %this, %"class.__gnu_cxx::new_allocator"** %this.addr, align 8
  call void @llvm.dbg.declare(metadata %"class.__gnu_cxx::new_allocator"** %this.addr, metadata !4228, metadata !DIExpression()), !dbg !4229
  store %class.TTEntry* %__p, %class.TTEntry** %__p.addr, align 8
  call void @llvm.dbg.declare(metadata %class.TTEntry** %__p.addr, metadata !4230, metadata !DIExpression()), !dbg !4231
  %this1 = load %"class.__gnu_cxx::new_allocator"*, %"class.__gnu_cxx::new_allocator"** %this.addr, align 8
  %0 = load %class.TTEntry*, %class.TTEntry** %__p.addr, align 8, !dbg !4232
  ret void, !dbg !4233
}

attributes #0 = { noinline uwtable "correctly-rounded-divide-sqrt-fp-math"="false" "disable-tail-calls"="false" "frame-pointer"="all" "less-precise-fpmad"="false" "min-legal-vector-width"="0" "no-infs-fp-math"="false" "no-jump-tables"="false" "no-nans-fp-math"="false" "no-signed-zeros-fp-math"="false" "no-trapping-math"="false" "stack-protector-buffer-size"="8" "target-cpu"="x86-64" "target-features"="+cx8,+fxsr,+mmx,+sse,+sse2,+x87" "unsafe-fp-math"="false" "use-soft-float"="false" }
attributes #1 = { nobuiltin "correctly-rounded-divide-sqrt-fp-math"="false" "disable-tail-calls"="false" "frame-pointer"="all" "less-precise-fpmad"="false" "no-infs-fp-math"="false" "no-nans-fp-math"="false" "no-signed-zeros-fp-math"="false" "no-trapping-math"="false" "stack-protector-buffer-size"="8" "target-cpu"="x86-64" "target-features"="+cx8,+fxsr,+mmx,+sse,+sse2,+x87" "unsafe-fp-math"="false" "use-soft-float"="false" }
attributes #2 = { nobuiltin nounwind "correctly-rounded-divide-sqrt-fp-math"="false" "disable-tail-calls"="false" "frame-pointer"="all" "less-precise-fpmad"="false" "no-infs-fp-math"="false" "no-nans-fp-math"="false" "no-signed-zeros-fp-math"="false" "no-trapping-math"="false" "stack-protector-buffer-size"="8" "target-cpu"="x86-64" "target-features"="+cx8,+fxsr,+mmx,+sse,+sse2,+x87" "unsafe-fp-math"="false" "use-soft-float"="false" }
attributes #3 = { nounwind readnone speculatable willreturn }
attributes #4 = { noinline nounwind uwtable "correctly-rounded-divide-sqrt-fp-math"="false" "disable-tail-calls"="false" "frame-pointer"="all" "less-precise-fpmad"="false" "min-legal-vector-width"="0" "no-infs-fp-math"="false" "no-jump-tables"="false" "no-nans-fp-math"="false" "no-signed-zeros-fp-math"="false" "no-trapping-math"="false" "stack-protector-buffer-size"="8" "target-cpu"="x86-64" "target-features"="+cx8,+fxsr,+mmx,+sse,+sse2,+x87" "unsafe-fp-math"="false" "use-soft-float"="false" }
attributes #5 = { "correctly-rounded-divide-sqrt-fp-math"="false" "disable-tail-calls"="false" "frame-pointer"="all" "less-precise-fpmad"="false" "no-infs-fp-math"="false" "no-nans-fp-math"="false" "no-signed-zeros-fp-math"="false" "no-trapping-math"="false" "stack-protector-buffer-size"="8" "target-cpu"="x86-64" "target-features"="+cx8,+fxsr,+mmx,+sse,+sse2,+x87" "unsafe-fp-math"="false" "use-soft-float"="false" }
attributes #6 = { nounwind "correctly-rounded-divide-sqrt-fp-math"="false" "disable-tail-calls"="false" "frame-pointer"="all" "less-precise-fpmad"="false" "no-infs-fp-math"="false" "no-nans-fp-math"="false" "no-signed-zeros-fp-math"="false" "no-trapping-math"="false" "stack-protector-buffer-size"="8" "target-cpu"="x86-64" "target-features"="+cx8,+fxsr,+mmx,+sse,+sse2,+x87" "unsafe-fp-math"="false" "use-soft-float"="false" }
attributes #7 = { noinline noreturn nounwind }
attributes #8 = { cold noreturn nounwind }
attributes #9 = { noreturn "correctly-rounded-divide-sqrt-fp-math"="false" "disable-tail-calls"="false" "frame-pointer"="all" "less-precise-fpmad"="false" "no-infs-fp-math"="false" "no-nans-fp-math"="false" "no-signed-zeros-fp-math"="false" "no-trapping-math"="false" "stack-protector-buffer-size"="8" "target-cpu"="x86-64" "target-features"="+cx8,+fxsr,+mmx,+sse,+sse2,+x87" "unsafe-fp-math"="false" "use-soft-float"="false" }
attributes #10 = { argmemonly nounwind willreturn }
attributes #11 = { builtin }
attributes #12 = { builtin nounwind }
attributes #13 = { nounwind }
attributes #14 = { noreturn nounwind }
attributes #15 = { noreturn }

!llvm.dbg.cu = !{!2}
!llvm.module.flags = !{!3306, !3307, !3308}
!llvm.ident = !{!3309}

!0 = !DIGlobalVariableExpression(var: !1, expr: !DIExpression())
!1 = distinct !DIGlobalVariable(name: "s_ttable", linkageName: "_ZN6TTable8s_ttableE", scope: !2, file: !3, line: 8, type: !2565, isLocal: false, isDefinition: true, declaration: !2580)
!2 = distinct !DICompileUnit(language: DW_LANG_C_plus_plus_14, file: !3, producer: "clang version 10.0.1 (https://github.com/svkeerthy/IR2Vec-LoopOptimizationFramework.git 561ac470e63b728263a0ac06ef987886ac648486)", isOptimized: false, runtimeVersion: 0, emissionKind: FullDebug, enums: !4, retainedTypes: !1260, globals: !1704, imports: !1705, splitDebugInlining: false, nameTableKind: None)
!3 = !DIFile(filename: "TTable.cpp", directory: "/home/venkat/IF-DV/spec_build_release/CPU_2017/benchspec/CPU/541.leela_r/build/build_base_ld-loop-ext-m64.0000")
!4 = !{!5}
!5 = !DICompositeType(tag: DW_TAG_enumeration_type, name: "square_t", scope: !7, file: !6, line: 50, baseType: !1254, size: 32, elements: !1255, identifier: "_ZTSN9FastBoard8square_tE")
!6 = !DIFile(filename: "./FastBoard.h", directory: "/home/venkat/IF-DV/spec_build_release/CPU_2017/benchspec/CPU/541.leela_r/build/build_base_ld-loop-ext-m64.0000")
!7 = distinct !DICompositeType(tag: DW_TAG_class_type, name: "FastBoard", file: !6, line: 11, size: 64448, flags: DIFlagTypePassByReference | DIFlagNonTrivial, elements: !8, identifier: "_ZTS9FastBoard")
!8 = !{!9, !12, !13, !14, !15, !16, !17, !109, !110, !111, !112, !113, !188, !191, !264, !332, !333, !334, !335, !336, !404, !472, !473, !474, !950, !951, !955, !958, !961, !964, !967, !970, !1036, !1039, !1042, !1045, !1046, !1118, !1119, !1122, !1123, !1124, !1125, !1128, !1131, !1132, !1135, !1138, !1139, !1140, !1143, !1146, !1147, !1150, !1151, !1152, !1153, !1154, !1155, !1158, !1159, !1160, !1163, !1164, !1167, !1168, !1174, !1178, !1181, !1182, !1183, !1187, !1190, !1191, !1192, !1193, !1194, !1195, !1196, !1197, !1200, !1201, !1209, !1210, !1213, !1214, !1215, !1216, !1219, !1222, !1223, !1224, !1227, !1230, !1231, !1234, !1235, !1236, !1237, !1238, !1241, !1242, !1243, !1246, !1247, !1248, !1251}
!9 = !DIDerivedType(tag: DW_TAG_member, name: "NBR_SHIFT", scope: !7, file: !6, line: 17, baseType: !10, flags: DIFlagPublic | DIFlagStaticMember, extraData: i32 4)
!10 = !DIDerivedType(tag: DW_TAG_const_type, baseType: !11)
!11 = !DIBasicType(name: "int", size: 32, encoding: DW_ATE_signed)
!12 = !DIDerivedType(tag: DW_TAG_member, name: "MAXBOARDSIZE", scope: !7, file: !6, line: 25, baseType: !10, flags: DIFlagPublic | DIFlagStaticMember, extraData: i32 19)
!13 = !DIDerivedType(tag: DW_TAG_member, name: "MAXSQ", scope: !7, file: !6, line: 31, baseType: !10, flags: DIFlagPublic | DIFlagStaticMember, extraData: i32 441)
!14 = !DIDerivedType(tag: DW_TAG_member, name: "BIG", scope: !7, file: !6, line: 36, baseType: !10, flags: DIFlagPublic | DIFlagStaticMember, extraData: i32 10000000)
!15 = !DIDerivedType(tag: DW_TAG_member, name: "PASS", scope: !7, file: !6, line: 41, baseType: !10, flags: DIFlagPublic | DIFlagStaticMember, extraData: i32 -1)
!16 = !DIDerivedType(tag: DW_TAG_member, name: "RESIGN", scope: !7, file: !6, line: 45, baseType: !10, flags: DIFlagPublic | DIFlagStaticMember, extraData: i32 -2)
!17 = !DIDerivedType(tag: DW_TAG_member, name: "m_empty", scope: !7, file: !6, line: 138, baseType: !18, size: 7056, flags: DIFlagPublic)
!18 = distinct !DICompositeType(tag: DW_TAG_class_type, name: "array<unsigned short, 441>", scope: !20, file: !19, line: 44, size: 7056, flags: DIFlagTypePassByValue, elements: !21, templateParams: !106, identifier: "_ZTSN5boost5arrayItLm441EEE")
!19 = !DIFile(filename: "./boost/array.hpp", directory: "/home/venkat/IF-DV/spec_build_release/CPU_2017/benchspec/CPU/541.leela_r/build/build_base_ld-loop-ext-m64.0000")
!20 = !DINamespace(name: "boost", scope: null)
!21 = !{!22, !27, !33, !41, !42, !43, !50, !55, !56, !57, !66, !71, !72, !73, !76, !79, !80, !81, !84, !88, !89, !93, !96, !99, !100, !103}
!22 = !DIDerivedType(tag: DW_TAG_member, name: "elems", scope: !18, file: !19, line: 46, baseType: !23, size: 7056, flags: DIFlagPublic)
!23 = !DICompositeType(tag: DW_TAG_array_type, baseType: !24, size: 7056, elements: !25)
!24 = !DIBasicType(name: "unsigned short", size: 16, encoding: DW_ATE_unsigned)
!25 = !{!26}
!26 = !DISubrange(count: 441)
!27 = !DISubprogram(name: "begin", linkageName: "_ZN5boost5arrayItLm441EE5beginEv", scope: !18, file: !19, line: 59, type: !28, scopeLine: 59, flags: DIFlagPublic | DIFlagPrototyped, spFlags: 0)
!28 = !DISubroutineType(types: !29)
!29 = !{!30, !32}
!30 = !DIDerivedType(tag: DW_TAG_typedef, name: "iterator", scope: !18, file: !19, line: 51, baseType: !31)
!31 = !DIDerivedType(tag: DW_TAG_pointer_type, baseType: !24, size: 64)
!32 = !DIDerivedType(tag: DW_TAG_pointer_type, baseType: !18, size: 64, flags: DIFlagArtificial | DIFlagObjectPointer)
!33 = !DISubprogram(name: "begin", linkageName: "_ZNK5boost5arrayItLm441EE5beginEv", scope: !18, file: !19, line: 60, type: !34, scopeLine: 60, flags: DIFlagPublic | DIFlagPrototyped, spFlags: 0)
!34 = !DISubroutineType(types: !35)
!35 = !{!36, !39}
!36 = !DIDerivedType(tag: DW_TAG_typedef, name: "const_iterator", scope: !18, file: !19, line: 52, baseType: !37)
!37 = !DIDerivedType(tag: DW_TAG_pointer_type, baseType: !38, size: 64)
!38 = !DIDerivedType(tag: DW_TAG_const_type, baseType: !24)
!39 = !DIDerivedType(tag: DW_TAG_pointer_type, baseType: !40, size: 64, flags: DIFlagArtificial | DIFlagObjectPointer)
!40 = !DIDerivedType(tag: DW_TAG_const_type, baseType: !18)
!41 = !DISubprogram(name: "end", linkageName: "_ZN5boost5arrayItLm441EE3endEv", scope: !18, file: !19, line: 61, type: !28, scopeLine: 61, flags: DIFlagPublic | DIFlagPrototyped, spFlags: 0)
!42 = !DISubprogram(name: "end", linkageName: "_ZNK5boost5arrayItLm441EE3endEv", scope: !18, file: !19, line: 62, type: !34, scopeLine: 62, flags: DIFlagPublic | DIFlagPrototyped, spFlags: 0)
!43 = !DISubprogram(name: "rbegin", linkageName: "_ZN5boost5arrayItLm441EE6rbeginEv", scope: !18, file: !19, line: 80, type: !44, scopeLine: 80, flags: DIFlagPublic | DIFlagPrototyped, spFlags: 0)
!44 = !DISubroutineType(types: !45)
!45 = !{!46, !32}
!46 = !DIDerivedType(tag: DW_TAG_typedef, name: "reverse_iterator", scope: !18, file: !19, line: 66, baseType: !47)
!47 = !DICompositeType(tag: DW_TAG_class_type, name: "reverse_iterator<unsigned short *>", scope: !49, file: !48, line: 125, flags: DIFlagFwdDecl, identifier: "_ZTSSt16reverse_iteratorIPtE")
!48 = !DIFile(filename: "/usr/lib/gcc/x86_64-linux-gnu/10/../../../../include/c++/10/bits/stl_iterator.h", directory: "")
!49 = !DINamespace(name: "std", scope: null)
!50 = !DISubprogram(name: "rbegin", linkageName: "_ZNK5boost5arrayItLm441EE6rbeginEv", scope: !18, file: !19, line: 81, type: !51, scopeLine: 81, flags: DIFlagPublic | DIFlagPrototyped, spFlags: 0)
!51 = !DISubroutineType(types: !52)
!52 = !{!53, !39}
!53 = !DIDerivedType(tag: DW_TAG_typedef, name: "const_reverse_iterator", scope: !18, file: !19, line: 67, baseType: !54)
!54 = !DICompositeType(tag: DW_TAG_class_type, name: "reverse_iterator<const unsigned short *>", scope: !49, file: !48, line: 125, flags: DIFlagFwdDecl, identifier: "_ZTSSt16reverse_iteratorIPKtE")
!55 = !DISubprogram(name: "rend", linkageName: "_ZN5boost5arrayItLm441EE4rendEv", scope: !18, file: !19, line: 84, type: !44, scopeLine: 84, flags: DIFlagPublic | DIFlagPrototyped, spFlags: 0)
!56 = !DISubprogram(name: "rend", linkageName: "_ZNK5boost5arrayItLm441EE4rendEv", scope: !18, file: !19, line: 85, type: !51, scopeLine: 85, flags: DIFlagPublic | DIFlagPrototyped, spFlags: 0)
!57 = !DISubprogram(name: "operator[]", linkageName: "_ZN5boost5arrayItLm441EEixEm", scope: !18, file: !19, line: 90, type: !58, scopeLine: 90, flags: DIFlagPublic | DIFlagPrototyped, spFlags: 0)
!58 = !DISubroutineType(types: !59)
!59 = !{!60, !32, !62}
!60 = !DIDerivedType(tag: DW_TAG_typedef, name: "reference", scope: !18, file: !19, line: 53, baseType: !61)
!61 = !DIDerivedType(tag: DW_TAG_reference_type, baseType: !24, size: 64)
!62 = !DIDerivedType(tag: DW_TAG_typedef, name: "size_type", file: !19, line: 55, baseType: !63)
!63 = !DIDerivedType(tag: DW_TAG_typedef, name: "size_t", scope: !49, file: !64, line: 260, baseType: !65)
!64 = !DIFile(filename: "/usr/lib/gcc/x86_64-linux-gnu/10/../../../../include/x86_64-linux-gnu/c++/10/bits/c++config.h", directory: "")
!65 = !DIBasicType(name: "long unsigned int", size: 64, encoding: DW_ATE_unsigned)
!66 = !DISubprogram(name: "operator[]", linkageName: "_ZNK5boost5arrayItLm441EEixEm", scope: !18, file: !19, line: 96, type: !67, scopeLine: 96, flags: DIFlagPublic | DIFlagPrototyped, spFlags: 0)
!67 = !DISubroutineType(types: !68)
!68 = !{!69, !39, !62}
!69 = !DIDerivedType(tag: DW_TAG_typedef, name: "const_reference", scope: !18, file: !19, line: 54, baseType: !70)
!70 = !DIDerivedType(tag: DW_TAG_reference_type, baseType: !38, size: 64)
!71 = !DISubprogram(name: "at", linkageName: "_ZN5boost5arrayItLm441EE2atEm", scope: !18, file: !19, line: 103, type: !58, scopeLine: 103, flags: DIFlagPublic | DIFlagPrototyped, spFlags: 0)
!72 = !DISubprogram(name: "at", linkageName: "_ZNK5boost5arrayItLm441EE2atEm", scope: !18, file: !19, line: 104, type: !67, scopeLine: 104, flags: DIFlagPublic | DIFlagPrototyped, spFlags: 0)
!73 = !DISubprogram(name: "front", linkageName: "_ZN5boost5arrayItLm441EE5frontEv", scope: !18, file: !19, line: 107, type: !74, scopeLine: 107, flags: DIFlagPublic | DIFlagPrototyped, spFlags: 0)
!74 = !DISubroutineType(types: !75)
!75 = !{!60, !32}
!76 = !DISubprogram(name: "front", linkageName: "_ZNK5boost5arrayItLm441EE5frontEv", scope: !18, file: !19, line: 112, type: !77, scopeLine: 112, flags: DIFlagPublic | DIFlagPrototyped, spFlags: 0)
!77 = !DISubroutineType(types: !78)
!78 = !{!69, !39}
!79 = !DISubprogram(name: "back", linkageName: "_ZN5boost5arrayItLm441EE4backEv", scope: !18, file: !19, line: 117, type: !74, scopeLine: 117, flags: DIFlagPublic | DIFlagPrototyped, spFlags: 0)
!80 = !DISubprogram(name: "back", linkageName: "_ZNK5boost5arrayItLm441EE4backEv", scope: !18, file: !19, line: 122, type: !77, scopeLine: 122, flags: DIFlagPublic | DIFlagPrototyped, spFlags: 0)
!81 = !DISubprogram(name: "size", linkageName: "_ZN5boost5arrayItLm441EE4sizeEv", scope: !18, file: !19, line: 128, type: !82, scopeLine: 128, flags: DIFlagPublic | DIFlagPrototyped | DIFlagStaticMember, spFlags: 0)
!82 = !DISubroutineType(types: !83)
!83 = !{!62}
!84 = !DISubprogram(name: "empty", linkageName: "_ZN5boost5arrayItLm441EE5emptyEv", scope: !18, file: !19, line: 129, type: !85, scopeLine: 129, flags: DIFlagPublic | DIFlagPrototyped | DIFlagStaticMember, spFlags: 0)
!85 = !DISubroutineType(types: !86)
!86 = !{!87}
!87 = !DIBasicType(name: "bool", size: 8, encoding: DW_ATE_boolean)
!88 = !DISubprogram(name: "max_size", linkageName: "_ZN5boost5arrayItLm441EE8max_sizeEv", scope: !18, file: !19, line: 130, type: !82, scopeLine: 130, flags: DIFlagPublic | DIFlagPrototyped | DIFlagStaticMember, spFlags: 0)
!89 = !DISubprogram(name: "swap", linkageName: "_ZN5boost5arrayItLm441EE4swapERS1_", scope: !18, file: !19, line: 134, type: !90, scopeLine: 134, flags: DIFlagPublic | DIFlagPrototyped, spFlags: 0)
!90 = !DISubroutineType(types: !91)
!91 = !{null, !32, !92}
!92 = !DIDerivedType(tag: DW_TAG_reference_type, baseType: !18, size: 64)
!93 = !DISubprogram(name: "data", linkageName: "_ZNK5boost5arrayItLm441EE4dataEv", scope: !18, file: !19, line: 140, type: !94, scopeLine: 140, flags: DIFlagPublic | DIFlagPrototyped, spFlags: 0)
!94 = !DISubroutineType(types: !95)
!95 = !{!37, !39}
!96 = !DISubprogram(name: "data", linkageName: "_ZN5boost5arrayItLm441EE4dataEv", scope: !18, file: !19, line: 141, type: !97, scopeLine: 141, flags: DIFlagPublic | DIFlagPrototyped, spFlags: 0)
!97 = !DISubroutineType(types: !98)
!98 = !{!31, !32}
!99 = !DISubprogram(name: "c_array", linkageName: "_ZN5boost5arrayItLm441EE7c_arrayEv", scope: !18, file: !19, line: 144, type: !97, scopeLine: 144, flags: DIFlagPublic | DIFlagPrototyped, spFlags: 0)
!100 = !DISubprogram(name: "assign", linkageName: "_ZN5boost5arrayItLm441EE6assignERKt", scope: !18, file: !19, line: 154, type: !101, scopeLine: 154, flags: DIFlagPublic | DIFlagPrototyped, spFlags: 0)
!101 = !DISubroutineType(types: !102)
!102 = !{null, !32, !70}
!103 = !DISubprogram(name: "rangecheck", linkageName: "_ZN5boost5arrayItLm441EE10rangecheckEm", scope: !18, file: !19, line: 160, type: !104, scopeLine: 160, flags: DIFlagPublic | DIFlagPrototyped | DIFlagStaticMember, spFlags: 0)
!104 = !DISubroutineType(types: !105)
!105 = !{null, !62}
!106 = !{!107, !108}
!107 = !DITemplateTypeParameter(name: "T", type: !24)
!108 = !DITemplateValueParameter(name: "N", type: !65, value: i64 441)
!109 = !DIDerivedType(tag: DW_TAG_member, name: "m_empty_idx", scope: !7, file: !6, line: 139, baseType: !18, size: 7056, offset: 7056, flags: DIFlagPublic)
!110 = !DIDerivedType(tag: DW_TAG_member, name: "m_empty_cnt", scope: !7, file: !6, line: 140, baseType: !11, size: 32, offset: 14112, flags: DIFlagPublic)
!111 = !DIDerivedType(tag: DW_TAG_member, name: "m_tomove", scope: !7, file: !6, line: 142, baseType: !11, size: 32, offset: 14144, flags: DIFlagPublic)
!112 = !DIDerivedType(tag: DW_TAG_member, name: "m_maxsq", scope: !7, file: !6, line: 143, baseType: !11, size: 32, offset: 14176, flags: DIFlagPublic)
!113 = !DIDerivedType(tag: DW_TAG_member, name: "s_eyemask", scope: !7, file: !6, line: 149, baseType: !114, flags: DIFlagProtected | DIFlagStaticMember)
!114 = !DIDerivedType(tag: DW_TAG_const_type, baseType: !115)
!115 = distinct !DICompositeType(tag: DW_TAG_class_type, name: "array<int, 2>", scope: !20, file: !19, line: 44, size: 64, flags: DIFlagTypePassByValue, elements: !116, templateParams: !185, identifier: "_ZTSN5boost5arrayIiLm2EEE")
!116 = !{!117, !121, !127, !133, !134, !135, !140, !145, !146, !147, !152, !157, !158, !159, !162, !165, !166, !167, !168, !169, !170, !174, !177, !180, !181, !184}
!117 = !DIDerivedType(tag: DW_TAG_member, name: "elems", scope: !115, file: !19, line: 46, baseType: !118, size: 64, flags: DIFlagPublic)
!118 = !DICompositeType(tag: DW_TAG_array_type, baseType: !11, size: 64, elements: !119)
!119 = !{!120}
!120 = !DISubrange(count: 2)
!121 = !DISubprogram(name: "begin", linkageName: "_ZN5boost5arrayIiLm2EE5beginEv", scope: !115, file: !19, line: 59, type: !122, scopeLine: 59, flags: DIFlagPublic | DIFlagPrototyped, spFlags: 0)
!122 = !DISubroutineType(types: !123)
!123 = !{!124, !126}
!124 = !DIDerivedType(tag: DW_TAG_typedef, name: "iterator", scope: !115, file: !19, line: 51, baseType: !125)
!125 = !DIDerivedType(tag: DW_TAG_pointer_type, baseType: !11, size: 64)
!126 = !DIDerivedType(tag: DW_TAG_pointer_type, baseType: !115, size: 64, flags: DIFlagArtificial | DIFlagObjectPointer)
!127 = !DISubprogram(name: "begin", linkageName: "_ZNK5boost5arrayIiLm2EE5beginEv", scope: !115, file: !19, line: 60, type: !128, scopeLine: 60, flags: DIFlagPublic | DIFlagPrototyped, spFlags: 0)
!128 = !DISubroutineType(types: !129)
!129 = !{!130, !132}
!130 = !DIDerivedType(tag: DW_TAG_typedef, name: "const_iterator", scope: !115, file: !19, line: 52, baseType: !131)
!131 = !DIDerivedType(tag: DW_TAG_pointer_type, baseType: !10, size: 64)
!132 = !DIDerivedType(tag: DW_TAG_pointer_type, baseType: !114, size: 64, flags: DIFlagArtificial | DIFlagObjectPointer)
!133 = !DISubprogram(name: "end", linkageName: "_ZN5boost5arrayIiLm2EE3endEv", scope: !115, file: !19, line: 61, type: !122, scopeLine: 61, flags: DIFlagPublic | DIFlagPrototyped, spFlags: 0)
!134 = !DISubprogram(name: "end", linkageName: "_ZNK5boost5arrayIiLm2EE3endEv", scope: !115, file: !19, line: 62, type: !128, scopeLine: 62, flags: DIFlagPublic | DIFlagPrototyped, spFlags: 0)
!135 = !DISubprogram(name: "rbegin", linkageName: "_ZN5boost5arrayIiLm2EE6rbeginEv", scope: !115, file: !19, line: 80, type: !136, scopeLine: 80, flags: DIFlagPublic | DIFlagPrototyped, spFlags: 0)
!136 = !DISubroutineType(types: !137)
!137 = !{!138, !126}
!138 = !DIDerivedType(tag: DW_TAG_typedef, name: "reverse_iterator", scope: !115, file: !19, line: 66, baseType: !139)
!139 = !DICompositeType(tag: DW_TAG_class_type, name: "reverse_iterator<int *>", scope: !49, file: !48, line: 125, flags: DIFlagFwdDecl, identifier: "_ZTSSt16reverse_iteratorIPiE")
!140 = !DISubprogram(name: "rbegin", linkageName: "_ZNK5boost5arrayIiLm2EE6rbeginEv", scope: !115, file: !19, line: 81, type: !141, scopeLine: 81, flags: DIFlagPublic | DIFlagPrototyped, spFlags: 0)
!141 = !DISubroutineType(types: !142)
!142 = !{!143, !132}
!143 = !DIDerivedType(tag: DW_TAG_typedef, name: "const_reverse_iterator", scope: !115, file: !19, line: 67, baseType: !144)
!144 = !DICompositeType(tag: DW_TAG_class_type, name: "reverse_iterator<const int *>", scope: !49, file: !48, line: 125, flags: DIFlagFwdDecl, identifier: "_ZTSSt16reverse_iteratorIPKiE")
!145 = !DISubprogram(name: "rend", linkageName: "_ZN5boost5arrayIiLm2EE4rendEv", scope: !115, file: !19, line: 84, type: !136, scopeLine: 84, flags: DIFlagPublic | DIFlagPrototyped, spFlags: 0)
!146 = !DISubprogram(name: "rend", linkageName: "_ZNK5boost5arrayIiLm2EE4rendEv", scope: !115, file: !19, line: 85, type: !141, scopeLine: 85, flags: DIFlagPublic | DIFlagPrototyped, spFlags: 0)
!147 = !DISubprogram(name: "operator[]", linkageName: "_ZN5boost5arrayIiLm2EEixEm", scope: !115, file: !19, line: 90, type: !148, scopeLine: 90, flags: DIFlagPublic | DIFlagPrototyped, spFlags: 0)
!148 = !DISubroutineType(types: !149)
!149 = !{!150, !126, !62}
!150 = !DIDerivedType(tag: DW_TAG_typedef, name: "reference", scope: !115, file: !19, line: 53, baseType: !151)
!151 = !DIDerivedType(tag: DW_TAG_reference_type, baseType: !11, size: 64)
!152 = !DISubprogram(name: "operator[]", linkageName: "_ZNK5boost5arrayIiLm2EEixEm", scope: !115, file: !19, line: 96, type: !153, scopeLine: 96, flags: DIFlagPublic | DIFlagPrototyped, spFlags: 0)
!153 = !DISubroutineType(types: !154)
!154 = !{!155, !132, !62}
!155 = !DIDerivedType(tag: DW_TAG_typedef, name: "const_reference", scope: !115, file: !19, line: 54, baseType: !156)
!156 = !DIDerivedType(tag: DW_TAG_reference_type, baseType: !10, size: 64)
!157 = !DISubprogram(name: "at", linkageName: "_ZN5boost5arrayIiLm2EE2atEm", scope: !115, file: !19, line: 103, type: !148, scopeLine: 103, flags: DIFlagPublic | DIFlagPrototyped, spFlags: 0)
!158 = !DISubprogram(name: "at", linkageName: "_ZNK5boost5arrayIiLm2EE2atEm", scope: !115, file: !19, line: 104, type: !153, scopeLine: 104, flags: DIFlagPublic | DIFlagPrototyped, spFlags: 0)
!159 = !DISubprogram(name: "front", linkageName: "_ZN5boost5arrayIiLm2EE5frontEv", scope: !115, file: !19, line: 107, type: !160, scopeLine: 107, flags: DIFlagPublic | DIFlagPrototyped, spFlags: 0)
!160 = !DISubroutineType(types: !161)
!161 = !{!150, !126}
!162 = !DISubprogram(name: "front", linkageName: "_ZNK5boost5arrayIiLm2EE5frontEv", scope: !115, file: !19, line: 112, type: !163, scopeLine: 112, flags: DIFlagPublic | DIFlagPrototyped, spFlags: 0)
!163 = !DISubroutineType(types: !164)
!164 = !{!155, !132}
!165 = !DISubprogram(name: "back", linkageName: "_ZN5boost5arrayIiLm2EE4backEv", scope: !115, file: !19, line: 117, type: !160, scopeLine: 117, flags: DIFlagPublic | DIFlagPrototyped, spFlags: 0)
!166 = !DISubprogram(name: "back", linkageName: "_ZNK5boost5arrayIiLm2EE4backEv", scope: !115, file: !19, line: 122, type: !163, scopeLine: 122, flags: DIFlagPublic | DIFlagPrototyped, spFlags: 0)
!167 = !DISubprogram(name: "size", linkageName: "_ZN5boost5arrayIiLm2EE4sizeEv", scope: !115, file: !19, line: 128, type: !82, scopeLine: 128, flags: DIFlagPublic | DIFlagPrototyped | DIFlagStaticMember, spFlags: 0)
!168 = !DISubprogram(name: "empty", linkageName: "_ZN5boost5arrayIiLm2EE5emptyEv", scope: !115, file: !19, line: 129, type: !85, scopeLine: 129, flags: DIFlagPublic | DIFlagPrototyped | DIFlagStaticMember, spFlags: 0)
!169 = !DISubprogram(name: "max_size", linkageName: "_ZN5boost5arrayIiLm2EE8max_sizeEv", scope: !115, file: !19, line: 130, type: !82, scopeLine: 130, flags: DIFlagPublic | DIFlagPrototyped | DIFlagStaticMember, spFlags: 0)
!170 = !DISubprogram(name: "swap", linkageName: "_ZN5boost5arrayIiLm2EE4swapERS1_", scope: !115, file: !19, line: 134, type: !171, scopeLine: 134, flags: DIFlagPublic | DIFlagPrototyped, spFlags: 0)
!171 = !DISubroutineType(types: !172)
!172 = !{null, !126, !173}
!173 = !DIDerivedType(tag: DW_TAG_reference_type, baseType: !115, size: 64)
!174 = !DISubprogram(name: "data", linkageName: "_ZNK5boost5arrayIiLm2EE4dataEv", scope: !115, file: !19, line: 140, type: !175, scopeLine: 140, flags: DIFlagPublic | DIFlagPrototyped, spFlags: 0)
!175 = !DISubroutineType(types: !176)
!176 = !{!131, !132}
!177 = !DISubprogram(name: "data", linkageName: "_ZN5boost5arrayIiLm2EE4dataEv", scope: !115, file: !19, line: 141, type: !178, scopeLine: 141, flags: DIFlagPublic | DIFlagPrototyped, spFlags: 0)
!178 = !DISubroutineType(types: !179)
!179 = !{!125, !126}
!180 = !DISubprogram(name: "c_array", linkageName: "_ZN5boost5arrayIiLm2EE7c_arrayEv", scope: !115, file: !19, line: 144, type: !178, scopeLine: 144, flags: DIFlagPublic | DIFlagPrototyped, spFlags: 0)
!181 = !DISubprogram(name: "assign", linkageName: "_ZN5boost5arrayIiLm2EE6assignERKi", scope: !115, file: !19, line: 154, type: !182, scopeLine: 154, flags: DIFlagPublic | DIFlagPrototyped, spFlags: 0)
!182 = !DISubroutineType(types: !183)
!183 = !{null, !126, !156}
!184 = !DISubprogram(name: "rangecheck", linkageName: "_ZN5boost5arrayIiLm2EE10rangecheckEm", scope: !115, file: !19, line: 160, type: !104, scopeLine: 160, flags: DIFlagPublic | DIFlagPrototyped | DIFlagStaticMember, spFlags: 0)
!185 = !{!186, !187}
!186 = !DITemplateTypeParameter(name: "T", type: !11)
!187 = !DITemplateValueParameter(name: "N", type: !65, value: i64 2)
!188 = !DIDerivedType(tag: DW_TAG_member, name: "s_cinvert", scope: !7, file: !6, line: 150, baseType: !189, flags: DIFlagProtected | DIFlagStaticMember)
!189 = !DIDerivedType(tag: DW_TAG_const_type, baseType: !190)
!190 = !DICompositeType(tag: DW_TAG_class_type, name: "array<FastBoard::square_t, 4>", scope: !20, file: !19, line: 44, flags: DIFlagFwdDecl, identifier: "_ZTSN5boost5arrayIN9FastBoard8square_tELm4EEE")
!191 = !DIDerivedType(tag: DW_TAG_member, name: "m_square", scope: !7, file: !6, line: 152, baseType: !192, size: 14112, offset: 14208, flags: DIFlagProtected)
!192 = distinct !DICompositeType(tag: DW_TAG_class_type, name: "array<FastBoard::square_t, 441>", scope: !20, file: !19, line: 44, size: 14112, flags: DIFlagTypePassByValue, elements: !193, templateParams: !262, identifier: "_ZTSN5boost5arrayIN9FastBoard8square_tELm441EEE")
!193 = !{!194, !196, !202, !210, !211, !212, !217, !222, !223, !224, !229, !234, !235, !236, !239, !242, !243, !244, !245, !246, !247, !251, !254, !257, !258, !261}
!194 = !DIDerivedType(tag: DW_TAG_member, name: "elems", scope: !192, file: !19, line: 46, baseType: !195, size: 14112, flags: DIFlagPublic)
!195 = !DICompositeType(tag: DW_TAG_array_type, baseType: !5, size: 14112, elements: !25)
!196 = !DISubprogram(name: "begin", linkageName: "_ZN5boost5arrayIN9FastBoard8square_tELm441EE5beginEv", scope: !192, file: !19, line: 59, type: !197, scopeLine: 59, flags: DIFlagPublic | DIFlagPrototyped, spFlags: 0)
!197 = !DISubroutineType(types: !198)
!198 = !{!199, !201}
!199 = !DIDerivedType(tag: DW_TAG_typedef, name: "iterator", scope: !192, file: !19, line: 51, baseType: !200)
!200 = !DIDerivedType(tag: DW_TAG_pointer_type, baseType: !5, size: 64)
!201 = !DIDerivedType(tag: DW_TAG_pointer_type, baseType: !192, size: 64, flags: DIFlagArtificial | DIFlagObjectPointer)
!202 = !DISubprogram(name: "begin", linkageName: "_ZNK5boost5arrayIN9FastBoard8square_tELm441EE5beginEv", scope: !192, file: !19, line: 60, type: !203, scopeLine: 60, flags: DIFlagPublic | DIFlagPrototyped, spFlags: 0)
!203 = !DISubroutineType(types: !204)
!204 = !{!205, !208}
!205 = !DIDerivedType(tag: DW_TAG_typedef, name: "const_iterator", scope: !192, file: !19, line: 52, baseType: !206)
!206 = !DIDerivedType(tag: DW_TAG_pointer_type, baseType: !207, size: 64)
!207 = !DIDerivedType(tag: DW_TAG_const_type, baseType: !5)
!208 = !DIDerivedType(tag: DW_TAG_pointer_type, baseType: !209, size: 64, flags: DIFlagArtificial | DIFlagObjectPointer)
!209 = !DIDerivedType(tag: DW_TAG_const_type, baseType: !192)
!210 = !DISubprogram(name: "end", linkageName: "_ZN5boost5arrayIN9FastBoard8square_tELm441EE3endEv", scope: !192, file: !19, line: 61, type: !197, scopeLine: 61, flags: DIFlagPublic | DIFlagPrototyped, spFlags: 0)
!211 = !DISubprogram(name: "end", linkageName: "_ZNK5boost5arrayIN9FastBoard8square_tELm441EE3endEv", scope: !192, file: !19, line: 62, type: !203, scopeLine: 62, flags: DIFlagPublic | DIFlagPrototyped, spFlags: 0)
!212 = !DISubprogram(name: "rbegin", linkageName: "_ZN5boost5arrayIN9FastBoard8square_tELm441EE6rbeginEv", scope: !192, file: !19, line: 80, type: !213, scopeLine: 80, flags: DIFlagPublic | DIFlagPrototyped, spFlags: 0)
!213 = !DISubroutineType(types: !214)
!214 = !{!215, !201}
!215 = !DIDerivedType(tag: DW_TAG_typedef, name: "reverse_iterator", scope: !192, file: !19, line: 66, baseType: !216)
!216 = !DICompositeType(tag: DW_TAG_class_type, name: "reverse_iterator<FastBoard::square_t *>", scope: !49, file: !48, line: 125, flags: DIFlagFwdDecl, identifier: "_ZTSSt16reverse_iteratorIPN9FastBoard8square_tEE")
!217 = !DISubprogram(name: "rbegin", linkageName: "_ZNK5boost5arrayIN9FastBoard8square_tELm441EE6rbeginEv", scope: !192, file: !19, line: 81, type: !218, scopeLine: 81, flags: DIFlagPublic | DIFlagPrototyped, spFlags: 0)
!218 = !DISubroutineType(types: !219)
!219 = !{!220, !208}
!220 = !DIDerivedType(tag: DW_TAG_typedef, name: "const_reverse_iterator", scope: !192, file: !19, line: 67, baseType: !221)
!221 = !DICompositeType(tag: DW_TAG_class_type, name: "reverse_iterator<const FastBoard::square_t *>", scope: !49, file: !48, line: 125, flags: DIFlagFwdDecl, identifier: "_ZTSSt16reverse_iteratorIPKN9FastBoard8square_tEE")
!222 = !DISubprogram(name: "rend", linkageName: "_ZN5boost5arrayIN9FastBoard8square_tELm441EE4rendEv", scope: !192, file: !19, line: 84, type: !213, scopeLine: 84, flags: DIFlagPublic | DIFlagPrototyped, spFlags: 0)
!223 = !DISubprogram(name: "rend", linkageName: "_ZNK5boost5arrayIN9FastBoard8square_tELm441EE4rendEv", scope: !192, file: !19, line: 85, type: !218, scopeLine: 85, flags: DIFlagPublic | DIFlagPrototyped, spFlags: 0)
!224 = !DISubprogram(name: "operator[]", linkageName: "_ZN5boost5arrayIN9FastBoard8square_tELm441EEixEm", scope: !192, file: !19, line: 90, type: !225, scopeLine: 90, flags: DIFlagPublic | DIFlagPrototyped, spFlags: 0)
!225 = !DISubroutineType(types: !226)
!226 = !{!227, !201, !62}
!227 = !DIDerivedType(tag: DW_TAG_typedef, name: "reference", scope: !192, file: !19, line: 53, baseType: !228)
!228 = !DIDerivedType(tag: DW_TAG_reference_type, baseType: !5, size: 64)
!229 = !DISubprogram(name: "operator[]", linkageName: "_ZNK5boost5arrayIN9FastBoard8square_tELm441EEixEm", scope: !192, file: !19, line: 96, type: !230, scopeLine: 96, flags: DIFlagPublic | DIFlagPrototyped, spFlags: 0)
!230 = !DISubroutineType(types: !231)
!231 = !{!232, !208, !62}
!232 = !DIDerivedType(tag: DW_TAG_typedef, name: "const_reference", scope: !192, file: !19, line: 54, baseType: !233)
!233 = !DIDerivedType(tag: DW_TAG_reference_type, baseType: !207, size: 64)
!234 = !DISubprogram(name: "at", linkageName: "_ZN5boost5arrayIN9FastBoard8square_tELm441EE2atEm", scope: !192, file: !19, line: 103, type: !225, scopeLine: 103, flags: DIFlagPublic | DIFlagPrototyped, spFlags: 0)
!235 = !DISubprogram(name: "at", linkageName: "_ZNK5boost5arrayIN9FastBoard8square_tELm441EE2atEm", scope: !192, file: !19, line: 104, type: !230, scopeLine: 104, flags: DIFlagPublic | DIFlagPrototyped, spFlags: 0)
!236 = !DISubprogram(name: "front", linkageName: "_ZN5boost5arrayIN9FastBoard8square_tELm441EE5frontEv", scope: !192, file: !19, line: 107, type: !237, scopeLine: 107, flags: DIFlagPublic | DIFlagPrototyped, spFlags: 0)
!237 = !DISubroutineType(types: !238)
!238 = !{!227, !201}
!239 = !DISubprogram(name: "front", linkageName: "_ZNK5boost5arrayIN9FastBoard8square_tELm441EE5frontEv", scope: !192, file: !19, line: 112, type: !240, scopeLine: 112, flags: DIFlagPublic | DIFlagPrototyped, spFlags: 0)
!240 = !DISubroutineType(types: !241)
!241 = !{!232, !208}
!242 = !DISubprogram(name: "back", linkageName: "_ZN5boost5arrayIN9FastBoard8square_tELm441EE4backEv", scope: !192, file: !19, line: 117, type: !237, scopeLine: 117, flags: DIFlagPublic | DIFlagPrototyped, spFlags: 0)
!243 = !DISubprogram(name: "back", linkageName: "_ZNK5boost5arrayIN9FastBoard8square_tELm441EE4backEv", scope: !192, file: !19, line: 122, type: !240, scopeLine: 122, flags: DIFlagPublic | DIFlagPrototyped, spFlags: 0)
!244 = !DISubprogram(name: "size", linkageName: "_ZN5boost5arrayIN9FastBoard8square_tELm441EE4sizeEv", scope: !192, file: !19, line: 128, type: !82, scopeLine: 128, flags: DIFlagPublic | DIFlagPrototyped | DIFlagStaticMember, spFlags: 0)
!245 = !DISubprogram(name: "empty", linkageName: "_ZN5boost5arrayIN9FastBoard8square_tELm441EE5emptyEv", scope: !192, file: !19, line: 129, type: !85, scopeLine: 129, flags: DIFlagPublic | DIFlagPrototyped | DIFlagStaticMember, spFlags: 0)
!246 = !DISubprogram(name: "max_size", linkageName: "_ZN5boost5arrayIN9FastBoard8square_tELm441EE8max_sizeEv", scope: !192, file: !19, line: 130, type: !82, scopeLine: 130, flags: DIFlagPublic | DIFlagPrototyped | DIFlagStaticMember, spFlags: 0)
!247 = !DISubprogram(name: "swap", linkageName: "_ZN5boost5arrayIN9FastBoard8square_tELm441EE4swapERS3_", scope: !192, file: !19, line: 134, type: !248, scopeLine: 134, flags: DIFlagPublic | DIFlagPrototyped, spFlags: 0)
!248 = !DISubroutineType(types: !249)
!249 = !{null, !201, !250}
!250 = !DIDerivedType(tag: DW_TAG_reference_type, baseType: !192, size: 64)
!251 = !DISubprogram(name: "data", linkageName: "_ZNK5boost5arrayIN9FastBoard8square_tELm441EE4dataEv", scope: !192, file: !19, line: 140, type: !252, scopeLine: 140, flags: DIFlagPublic | DIFlagPrototyped, spFlags: 0)
!252 = !DISubroutineType(types: !253)
!253 = !{!206, !208}
!254 = !DISubprogram(name: "data", linkageName: "_ZN5boost5arrayIN9FastBoard8square_tELm441EE4dataEv", scope: !192, file: !19, line: 141, type: !255, scopeLine: 141, flags: DIFlagPublic | DIFlagPrototyped, spFlags: 0)
!255 = !DISubroutineType(types: !256)
!256 = !{!200, !201}
!257 = !DISubprogram(name: "c_array", linkageName: "_ZN5boost5arrayIN9FastBoard8square_tELm441EE7c_arrayEv", scope: !192, file: !19, line: 144, type: !255, scopeLine: 144, flags: DIFlagPublic | DIFlagPrototyped, spFlags: 0)
!258 = !DISubprogram(name: "assign", linkageName: "_ZN5boost5arrayIN9FastBoard8square_tELm441EE6assignERKS2_", scope: !192, file: !19, line: 154, type: !259, scopeLine: 154, flags: DIFlagPublic | DIFlagPrototyped, spFlags: 0)
!259 = !DISubroutineType(types: !260)
!260 = !{null, !201, !233}
!261 = !DISubprogram(name: "rangecheck", linkageName: "_ZN5boost5arrayIN9FastBoard8square_tELm441EE10rangecheckEm", scope: !192, file: !19, line: 160, type: !104, scopeLine: 160, flags: DIFlagPublic | DIFlagPrototyped | DIFlagStaticMember, spFlags: 0)
!262 = !{!263, !108}
!263 = !DITemplateTypeParameter(name: "T", type: !5)
!264 = !DIDerivedType(tag: DW_TAG_member, name: "m_next", scope: !7, file: !6, line: 153, baseType: !265, size: 7072, offset: 28320, flags: DIFlagProtected)
!265 = distinct !DICompositeType(tag: DW_TAG_class_type, name: "array<unsigned short, 442>", scope: !20, file: !19, line: 44, size: 7072, flags: DIFlagTypePassByValue, elements: !266, templateParams: !330, identifier: "_ZTSN5boost5arrayItLm442EEE")
!266 = !{!267, !271, !276, !282, !283, !284, !288, !292, !293, !294, !298, !302, !303, !304, !307, !310, !311, !312, !313, !314, !315, !319, !322, !325, !326, !329}
!267 = !DIDerivedType(tag: DW_TAG_member, name: "elems", scope: !265, file: !19, line: 46, baseType: !268, size: 7072, flags: DIFlagPublic)
!268 = !DICompositeType(tag: DW_TAG_array_type, baseType: !24, size: 7072, elements: !269)
!269 = !{!270}
!270 = !DISubrange(count: 442)
!271 = !DISubprogram(name: "begin", linkageName: "_ZN5boost5arrayItLm442EE5beginEv", scope: !265, file: !19, line: 59, type: !272, scopeLine: 59, flags: DIFlagPublic | DIFlagPrototyped, spFlags: 0)
!272 = !DISubroutineType(types: !273)
!273 = !{!274, !275}
!274 = !DIDerivedType(tag: DW_TAG_typedef, name: "iterator", scope: !265, file: !19, line: 51, baseType: !31)
!275 = !DIDerivedType(tag: DW_TAG_pointer_type, baseType: !265, size: 64, flags: DIFlagArtificial | DIFlagObjectPointer)
!276 = !DISubprogram(name: "begin", linkageName: "_ZNK5boost5arrayItLm442EE5beginEv", scope: !265, file: !19, line: 60, type: !277, scopeLine: 60, flags: DIFlagPublic | DIFlagPrototyped, spFlags: 0)
!277 = !DISubroutineType(types: !278)
!278 = !{!279, !280}
!279 = !DIDerivedType(tag: DW_TAG_typedef, name: "const_iterator", scope: !265, file: !19, line: 52, baseType: !37)
!280 = !DIDerivedType(tag: DW_TAG_pointer_type, baseType: !281, size: 64, flags: DIFlagArtificial | DIFlagObjectPointer)
!281 = !DIDerivedType(tag: DW_TAG_const_type, baseType: !265)
!282 = !DISubprogram(name: "end", linkageName: "_ZN5boost5arrayItLm442EE3endEv", scope: !265, file: !19, line: 61, type: !272, scopeLine: 61, flags: DIFlagPublic | DIFlagPrototyped, spFlags: 0)
!283 = !DISubprogram(name: "end", linkageName: "_ZNK5boost5arrayItLm442EE3endEv", scope: !265, file: !19, line: 62, type: !277, scopeLine: 62, flags: DIFlagPublic | DIFlagPrototyped, spFlags: 0)
!284 = !DISubprogram(name: "rbegin", linkageName: "_ZN5boost5arrayItLm442EE6rbeginEv", scope: !265, file: !19, line: 80, type: !285, scopeLine: 80, flags: DIFlagPublic | DIFlagPrototyped, spFlags: 0)
!285 = !DISubroutineType(types: !286)
!286 = !{!287, !275}
!287 = !DIDerivedType(tag: DW_TAG_typedef, name: "reverse_iterator", scope: !265, file: !19, line: 66, baseType: !47)
!288 = !DISubprogram(name: "rbegin", linkageName: "_ZNK5boost5arrayItLm442EE6rbeginEv", scope: !265, file: !19, line: 81, type: !289, scopeLine: 81, flags: DIFlagPublic | DIFlagPrototyped, spFlags: 0)
!289 = !DISubroutineType(types: !290)
!290 = !{!291, !280}
!291 = !DIDerivedType(tag: DW_TAG_typedef, name: "const_reverse_iterator", scope: !265, file: !19, line: 67, baseType: !54)
!292 = !DISubprogram(name: "rend", linkageName: "_ZN5boost5arrayItLm442EE4rendEv", scope: !265, file: !19, line: 84, type: !285, scopeLine: 84, flags: DIFlagPublic | DIFlagPrototyped, spFlags: 0)
!293 = !DISubprogram(name: "rend", linkageName: "_ZNK5boost5arrayItLm442EE4rendEv", scope: !265, file: !19, line: 85, type: !289, scopeLine: 85, flags: DIFlagPublic | DIFlagPrototyped, spFlags: 0)
!294 = !DISubprogram(name: "operator[]", linkageName: "_ZN5boost5arrayItLm442EEixEm", scope: !265, file: !19, line: 90, type: !295, scopeLine: 90, flags: DIFlagPublic | DIFlagPrototyped, spFlags: 0)
!295 = !DISubroutineType(types: !296)
!296 = !{!297, !275, !62}
!297 = !DIDerivedType(tag: DW_TAG_typedef, name: "reference", scope: !265, file: !19, line: 53, baseType: !61)
!298 = !DISubprogram(name: "operator[]", linkageName: "_ZNK5boost5arrayItLm442EEixEm", scope: !265, file: !19, line: 96, type: !299, scopeLine: 96, flags: DIFlagPublic | DIFlagPrototyped, spFlags: 0)
!299 = !DISubroutineType(types: !300)
!300 = !{!301, !280, !62}
!301 = !DIDerivedType(tag: DW_TAG_typedef, name: "const_reference", scope: !265, file: !19, line: 54, baseType: !70)
!302 = !DISubprogram(name: "at", linkageName: "_ZN5boost5arrayItLm442EE2atEm", scope: !265, file: !19, line: 103, type: !295, scopeLine: 103, flags: DIFlagPublic | DIFlagPrototyped, spFlags: 0)
!303 = !DISubprogram(name: "at", linkageName: "_ZNK5boost5arrayItLm442EE2atEm", scope: !265, file: !19, line: 104, type: !299, scopeLine: 104, flags: DIFlagPublic | DIFlagPrototyped, spFlags: 0)
!304 = !DISubprogram(name: "front", linkageName: "_ZN5boost5arrayItLm442EE5frontEv", scope: !265, file: !19, line: 107, type: !305, scopeLine: 107, flags: DIFlagPublic | DIFlagPrototyped, spFlags: 0)
!305 = !DISubroutineType(types: !306)
!306 = !{!297, !275}
!307 = !DISubprogram(name: "front", linkageName: "_ZNK5boost5arrayItLm442EE5frontEv", scope: !265, file: !19, line: 112, type: !308, scopeLine: 112, flags: DIFlagPublic | DIFlagPrototyped, spFlags: 0)
!308 = !DISubroutineType(types: !309)
!309 = !{!301, !280}
!310 = !DISubprogram(name: "back", linkageName: "_ZN5boost5arrayItLm442EE4backEv", scope: !265, file: !19, line: 117, type: !305, scopeLine: 117, flags: DIFlagPublic | DIFlagPrototyped, spFlags: 0)
!311 = !DISubprogram(name: "back", linkageName: "_ZNK5boost5arrayItLm442EE4backEv", scope: !265, file: !19, line: 122, type: !308, scopeLine: 122, flags: DIFlagPublic | DIFlagPrototyped, spFlags: 0)
!312 = !DISubprogram(name: "size", linkageName: "_ZN5boost5arrayItLm442EE4sizeEv", scope: !265, file: !19, line: 128, type: !82, scopeLine: 128, flags: DIFlagPublic | DIFlagPrototyped | DIFlagStaticMember, spFlags: 0)
!313 = !DISubprogram(name: "empty", linkageName: "_ZN5boost5arrayItLm442EE5emptyEv", scope: !265, file: !19, line: 129, type: !85, scopeLine: 129, flags: DIFlagPublic | DIFlagPrototyped | DIFlagStaticMember, spFlags: 0)
!314 = !DISubprogram(name: "max_size", linkageName: "_ZN5boost5arrayItLm442EE8max_sizeEv", scope: !265, file: !19, line: 130, type: !82, scopeLine: 130, flags: DIFlagPublic | DIFlagPrototyped | DIFlagStaticMember, spFlags: 0)
!315 = !DISubprogram(name: "swap", linkageName: "_ZN5boost5arrayItLm442EE4swapERS1_", scope: !265, file: !19, line: 134, type: !316, scopeLine: 134, flags: DIFlagPublic | DIFlagPrototyped, spFlags: 0)
!316 = !DISubroutineType(types: !317)
!317 = !{null, !275, !318}
!318 = !DIDerivedType(tag: DW_TAG_reference_type, baseType: !265, size: 64)
!319 = !DISubprogram(name: "data", linkageName: "_ZNK5boost5arrayItLm442EE4dataEv", scope: !265, file: !19, line: 140, type: !320, scopeLine: 140, flags: DIFlagPublic | DIFlagPrototyped, spFlags: 0)
!320 = !DISubroutineType(types: !321)
!321 = !{!37, !280}
!322 = !DISubprogram(name: "data", linkageName: "_ZN5boost5arrayItLm442EE4dataEv", scope: !265, file: !19, line: 141, type: !323, scopeLine: 141, flags: DIFlagPublic | DIFlagPrototyped, spFlags: 0)
!323 = !DISubroutineType(types: !324)
!324 = !{!31, !275}
!325 = !DISubprogram(name: "c_array", linkageName: "_ZN5boost5arrayItLm442EE7c_arrayEv", scope: !265, file: !19, line: 144, type: !323, scopeLine: 144, flags: DIFlagPublic | DIFlagPrototyped, spFlags: 0)
!326 = !DISubprogram(name: "assign", linkageName: "_ZN5boost5arrayItLm442EE6assignERKt", scope: !265, file: !19, line: 154, type: !327, scopeLine: 154, flags: DIFlagPublic | DIFlagPrototyped, spFlags: 0)
!327 = !DISubroutineType(types: !328)
!328 = !{null, !275, !70}
!329 = !DISubprogram(name: "rangecheck", linkageName: "_ZN5boost5arrayItLm442EE10rangecheckEm", scope: !265, file: !19, line: 160, type: !104, scopeLine: 160, flags: DIFlagPublic | DIFlagPrototyped | DIFlagStaticMember, spFlags: 0)
!330 = !{!107, !331}
!331 = !DITemplateValueParameter(name: "N", type: !65, value: i64 442)
!332 = !DIDerivedType(tag: DW_TAG_member, name: "m_parent", scope: !7, file: !6, line: 154, baseType: !265, size: 7072, offset: 35392, flags: DIFlagProtected)
!333 = !DIDerivedType(tag: DW_TAG_member, name: "m_libs", scope: !7, file: !6, line: 155, baseType: !265, size: 7072, offset: 42464, flags: DIFlagProtected)
!334 = !DIDerivedType(tag: DW_TAG_member, name: "m_stones", scope: !7, file: !6, line: 156, baseType: !265, size: 7072, offset: 49536, flags: DIFlagProtected)
!335 = !DIDerivedType(tag: DW_TAG_member, name: "m_neighbours", scope: !7, file: !6, line: 157, baseType: !18, size: 7056, offset: 56608, flags: DIFlagProtected)
!336 = !DIDerivedType(tag: DW_TAG_member, name: "m_dirs", scope: !7, file: !6, line: 158, baseType: !337, size: 128, offset: 63680, flags: DIFlagProtected)
!337 = distinct !DICompositeType(tag: DW_TAG_class_type, name: "array<int, 4>", scope: !20, file: !19, line: 44, size: 128, flags: DIFlagTypePassByValue, elements: !338, templateParams: !402, identifier: "_ZTSN5boost5arrayIiLm4EEE")
!338 = !{!339, !343, !348, !354, !355, !356, !360, !364, !365, !366, !370, !374, !375, !376, !379, !382, !383, !384, !385, !386, !387, !391, !394, !397, !398, !401}
!339 = !DIDerivedType(tag: DW_TAG_member, name: "elems", scope: !337, file: !19, line: 46, baseType: !340, size: 128, flags: DIFlagPublic)
!340 = !DICompositeType(tag: DW_TAG_array_type, baseType: !11, size: 128, elements: !341)
!341 = !{!342}
!342 = !DISubrange(count: 4)
!343 = !DISubprogram(name: "begin", linkageName: "_ZN5boost5arrayIiLm4EE5beginEv", scope: !337, file: !19, line: 59, type: !344, scopeLine: 59, flags: DIFlagPublic | DIFlagPrototyped, spFlags: 0)
!344 = !DISubroutineType(types: !345)
!345 = !{!346, !347}
!346 = !DIDerivedType(tag: DW_TAG_typedef, name: "iterator", scope: !337, file: !19, line: 51, baseType: !125)
!347 = !DIDerivedType(tag: DW_TAG_pointer_type, baseType: !337, size: 64, flags: DIFlagArtificial | DIFlagObjectPointer)
!348 = !DISubprogram(name: "begin", linkageName: "_ZNK5boost5arrayIiLm4EE5beginEv", scope: !337, file: !19, line: 60, type: !349, scopeLine: 60, flags: DIFlagPublic | DIFlagPrototyped, spFlags: 0)
!349 = !DISubroutineType(types: !350)
!350 = !{!351, !352}
!351 = !DIDerivedType(tag: DW_TAG_typedef, name: "const_iterator", scope: !337, file: !19, line: 52, baseType: !131)
!352 = !DIDerivedType(tag: DW_TAG_pointer_type, baseType: !353, size: 64, flags: DIFlagArtificial | DIFlagObjectPointer)
!353 = !DIDerivedType(tag: DW_TAG_const_type, baseType: !337)
!354 = !DISubprogram(name: "end", linkageName: "_ZN5boost5arrayIiLm4EE3endEv", scope: !337, file: !19, line: 61, type: !344, scopeLine: 61, flags: DIFlagPublic | DIFlagPrototyped, spFlags: 0)
!355 = !DISubprogram(name: "end", linkageName: "_ZNK5boost5arrayIiLm4EE3endEv", scope: !337, file: !19, line: 62, type: !349, scopeLine: 62, flags: DIFlagPublic | DIFlagPrototyped, spFlags: 0)
!356 = !DISubprogram(name: "rbegin", linkageName: "_ZN5boost5arrayIiLm4EE6rbeginEv", scope: !337, file: !19, line: 80, type: !357, scopeLine: 80, flags: DIFlagPublic | DIFlagPrototyped, spFlags: 0)
!357 = !DISubroutineType(types: !358)
!358 = !{!359, !347}
!359 = !DIDerivedType(tag: DW_TAG_typedef, name: "reverse_iterator", scope: !337, file: !19, line: 66, baseType: !139)
!360 = !DISubprogram(name: "rbegin", linkageName: "_ZNK5boost5arrayIiLm4EE6rbeginEv", scope: !337, file: !19, line: 81, type: !361, scopeLine: 81, flags: DIFlagPublic | DIFlagPrototyped, spFlags: 0)
!361 = !DISubroutineType(types: !362)
!362 = !{!363, !352}
!363 = !DIDerivedType(tag: DW_TAG_typedef, name: "const_reverse_iterator", scope: !337, file: !19, line: 67, baseType: !144)
!364 = !DISubprogram(name: "rend", linkageName: "_ZN5boost5arrayIiLm4EE4rendEv", scope: !337, file: !19, line: 84, type: !357, scopeLine: 84, flags: DIFlagPublic | DIFlagPrototyped, spFlags: 0)
!365 = !DISubprogram(name: "rend", linkageName: "_ZNK5boost5arrayIiLm4EE4rendEv", scope: !337, file: !19, line: 85, type: !361, scopeLine: 85, flags: DIFlagPublic | DIFlagPrototyped, spFlags: 0)
!366 = !DISubprogram(name: "operator[]", linkageName: "_ZN5boost5arrayIiLm4EEixEm", scope: !337, file: !19, line: 90, type: !367, scopeLine: 90, flags: DIFlagPublic | DIFlagPrototyped, spFlags: 0)
!367 = !DISubroutineType(types: !368)
!368 = !{!369, !347, !62}
!369 = !DIDerivedType(tag: DW_TAG_typedef, name: "reference", scope: !337, file: !19, line: 53, baseType: !151)
!370 = !DISubprogram(name: "operator[]", linkageName: "_ZNK5boost5arrayIiLm4EEixEm", scope: !337, file: !19, line: 96, type: !371, scopeLine: 96, flags: DIFlagPublic | DIFlagPrototyped, spFlags: 0)
!371 = !DISubroutineType(types: !372)
!372 = !{!373, !352, !62}
!373 = !DIDerivedType(tag: DW_TAG_typedef, name: "const_reference", scope: !337, file: !19, line: 54, baseType: !156)
!374 = !DISubprogram(name: "at", linkageName: "_ZN5boost5arrayIiLm4EE2atEm", scope: !337, file: !19, line: 103, type: !367, scopeLine: 103, flags: DIFlagPublic | DIFlagPrototyped, spFlags: 0)
!375 = !DISubprogram(name: "at", linkageName: "_ZNK5boost5arrayIiLm4EE2atEm", scope: !337, file: !19, line: 104, type: !371, scopeLine: 104, flags: DIFlagPublic | DIFlagPrototyped, spFlags: 0)
!376 = !DISubprogram(name: "front", linkageName: "_ZN5boost5arrayIiLm4EE5frontEv", scope: !337, file: !19, line: 107, type: !377, scopeLine: 107, flags: DIFlagPublic | DIFlagPrototyped, spFlags: 0)
!377 = !DISubroutineType(types: !378)
!378 = !{!369, !347}
!379 = !DISubprogram(name: "front", linkageName: "_ZNK5boost5arrayIiLm4EE5frontEv", scope: !337, file: !19, line: 112, type: !380, scopeLine: 112, flags: DIFlagPublic | DIFlagPrototyped, spFlags: 0)
!380 = !DISubroutineType(types: !381)
!381 = !{!373, !352}
!382 = !DISubprogram(name: "back", linkageName: "_ZN5boost5arrayIiLm4EE4backEv", scope: !337, file: !19, line: 117, type: !377, scopeLine: 117, flags: DIFlagPublic | DIFlagPrototyped, spFlags: 0)
!383 = !DISubprogram(name: "back", linkageName: "_ZNK5boost5arrayIiLm4EE4backEv", scope: !337, file: !19, line: 122, type: !380, scopeLine: 122, flags: DIFlagPublic | DIFlagPrototyped, spFlags: 0)
!384 = !DISubprogram(name: "size", linkageName: "_ZN5boost5arrayIiLm4EE4sizeEv", scope: !337, file: !19, line: 128, type: !82, scopeLine: 128, flags: DIFlagPublic | DIFlagPrototyped | DIFlagStaticMember, spFlags: 0)
!385 = !DISubprogram(name: "empty", linkageName: "_ZN5boost5arrayIiLm4EE5emptyEv", scope: !337, file: !19, line: 129, type: !85, scopeLine: 129, flags: DIFlagPublic | DIFlagPrototyped | DIFlagStaticMember, spFlags: 0)
!386 = !DISubprogram(name: "max_size", linkageName: "_ZN5boost5arrayIiLm4EE8max_sizeEv", scope: !337, file: !19, line: 130, type: !82, scopeLine: 130, flags: DIFlagPublic | DIFlagPrototyped | DIFlagStaticMember, spFlags: 0)
!387 = !DISubprogram(name: "swap", linkageName: "_ZN5boost5arrayIiLm4EE4swapERS1_", scope: !337, file: !19, line: 134, type: !388, scopeLine: 134, flags: DIFlagPublic | DIFlagPrototyped, spFlags: 0)
!388 = !DISubroutineType(types: !389)
!389 = !{null, !347, !390}
!390 = !DIDerivedType(tag: DW_TAG_reference_type, baseType: !337, size: 64)
!391 = !DISubprogram(name: "data", linkageName: "_ZNK5boost5arrayIiLm4EE4dataEv", scope: !337, file: !19, line: 140, type: !392, scopeLine: 140, flags: DIFlagPublic | DIFlagPrototyped, spFlags: 0)
!392 = !DISubroutineType(types: !393)
!393 = !{!131, !352}
!394 = !DISubprogram(name: "data", linkageName: "_ZN5boost5arrayIiLm4EE4dataEv", scope: !337, file: !19, line: 141, type: !395, scopeLine: 141, flags: DIFlagPublic | DIFlagPrototyped, spFlags: 0)
!395 = !DISubroutineType(types: !396)
!396 = !{!125, !347}
!397 = !DISubprogram(name: "c_array", linkageName: "_ZN5boost5arrayIiLm4EE7c_arrayEv", scope: !337, file: !19, line: 144, type: !395, scopeLine: 144, flags: DIFlagPublic | DIFlagPrototyped, spFlags: 0)
!398 = !DISubprogram(name: "assign", linkageName: "_ZN5boost5arrayIiLm4EE6assignERKi", scope: !337, file: !19, line: 154, type: !399, scopeLine: 154, flags: DIFlagPublic | DIFlagPrototyped, spFlags: 0)
!399 = !DISubroutineType(types: !400)
!400 = !{null, !347, !156}
!401 = !DISubprogram(name: "rangecheck", linkageName: "_ZN5boost5arrayIiLm4EE10rangecheckEm", scope: !337, file: !19, line: 160, type: !104, scopeLine: 160, flags: DIFlagPublic | DIFlagPrototyped | DIFlagStaticMember, spFlags: 0)
!402 = !{!186, !403}
!403 = !DITemplateValueParameter(name: "N", type: !65, value: i64 4)
!404 = !DIDerivedType(tag: DW_TAG_member, name: "m_extradirs", scope: !7, file: !6, line: 159, baseType: !405, size: 256, offset: 63808, flags: DIFlagProtected)
!405 = distinct !DICompositeType(tag: DW_TAG_class_type, name: "array<int, 8>", scope: !20, file: !19, line: 44, size: 256, flags: DIFlagTypePassByValue, elements: !406, templateParams: !470, identifier: "_ZTSN5boost5arrayIiLm8EEE")
!406 = !{!407, !411, !416, !422, !423, !424, !428, !432, !433, !434, !438, !442, !443, !444, !447, !450, !451, !452, !453, !454, !455, !459, !462, !465, !466, !469}
!407 = !DIDerivedType(tag: DW_TAG_member, name: "elems", scope: !405, file: !19, line: 46, baseType: !408, size: 256, flags: DIFlagPublic)
!408 = !DICompositeType(tag: DW_TAG_array_type, baseType: !11, size: 256, elements: !409)
!409 = !{!410}
!410 = !DISubrange(count: 8)
!411 = !DISubprogram(name: "begin", linkageName: "_ZN5boost5arrayIiLm8EE5beginEv", scope: !405, file: !19, line: 59, type: !412, scopeLine: 59, flags: DIFlagPublic | DIFlagPrototyped, spFlags: 0)
!412 = !DISubroutineType(types: !413)
!413 = !{!414, !415}
!414 = !DIDerivedType(tag: DW_TAG_typedef, name: "iterator", scope: !405, file: !19, line: 51, baseType: !125)
!415 = !DIDerivedType(tag: DW_TAG_pointer_type, baseType: !405, size: 64, flags: DIFlagArtificial | DIFlagObjectPointer)
!416 = !DISubprogram(name: "begin", linkageName: "_ZNK5boost5arrayIiLm8EE5beginEv", scope: !405, file: !19, line: 60, type: !417, scopeLine: 60, flags: DIFlagPublic | DIFlagPrototyped, spFlags: 0)
!417 = !DISubroutineType(types: !418)
!418 = !{!419, !420}
!419 = !DIDerivedType(tag: DW_TAG_typedef, name: "const_iterator", scope: !405, file: !19, line: 52, baseType: !131)
!420 = !DIDerivedType(tag: DW_TAG_pointer_type, baseType: !421, size: 64, flags: DIFlagArtificial | DIFlagObjectPointer)
!421 = !DIDerivedType(tag: DW_TAG_const_type, baseType: !405)
!422 = !DISubprogram(name: "end", linkageName: "_ZN5boost5arrayIiLm8EE3endEv", scope: !405, file: !19, line: 61, type: !412, scopeLine: 61, flags: DIFlagPublic | DIFlagPrototyped, spFlags: 0)
!423 = !DISubprogram(name: "end", linkageName: "_ZNK5boost5arrayIiLm8EE3endEv", scope: !405, file: !19, line: 62, type: !417, scopeLine: 62, flags: DIFlagPublic | DIFlagPrototyped, spFlags: 0)
!424 = !DISubprogram(name: "rbegin", linkageName: "_ZN5boost5arrayIiLm8EE6rbeginEv", scope: !405, file: !19, line: 80, type: !425, scopeLine: 80, flags: DIFlagPublic | DIFlagPrototyped, spFlags: 0)
!425 = !DISubroutineType(types: !426)
!426 = !{!427, !415}
!427 = !DIDerivedType(tag: DW_TAG_typedef, name: "reverse_iterator", scope: !405, file: !19, line: 66, baseType: !139)
!428 = !DISubprogram(name: "rbegin", linkageName: "_ZNK5boost5arrayIiLm8EE6rbeginEv", scope: !405, file: !19, line: 81, type: !429, scopeLine: 81, flags: DIFlagPublic | DIFlagPrototyped, spFlags: 0)
!429 = !DISubroutineType(types: !430)
!430 = !{!431, !420}
!431 = !DIDerivedType(tag: DW_TAG_typedef, name: "const_reverse_iterator", scope: !405, file: !19, line: 67, baseType: !144)
!432 = !DISubprogram(name: "rend", linkageName: "_ZN5boost5arrayIiLm8EE4rendEv", scope: !405, file: !19, line: 84, type: !425, scopeLine: 84, flags: DIFlagPublic | DIFlagPrototyped, spFlags: 0)
!433 = !DISubprogram(name: "rend", linkageName: "_ZNK5boost5arrayIiLm8EE4rendEv", scope: !405, file: !19, line: 85, type: !429, scopeLine: 85, flags: DIFlagPublic | DIFlagPrototyped, spFlags: 0)
!434 = !DISubprogram(name: "operator[]", linkageName: "_ZN5boost5arrayIiLm8EEixEm", scope: !405, file: !19, line: 90, type: !435, scopeLine: 90, flags: DIFlagPublic | DIFlagPrototyped, spFlags: 0)
!435 = !DISubroutineType(types: !436)
!436 = !{!437, !415, !62}
!437 = !DIDerivedType(tag: DW_TAG_typedef, name: "reference", scope: !405, file: !19, line: 53, baseType: !151)
!438 = !DISubprogram(name: "operator[]", linkageName: "_ZNK5boost5arrayIiLm8EEixEm", scope: !405, file: !19, line: 96, type: !439, scopeLine: 96, flags: DIFlagPublic | DIFlagPrototyped, spFlags: 0)
!439 = !DISubroutineType(types: !440)
!440 = !{!441, !420, !62}
!441 = !DIDerivedType(tag: DW_TAG_typedef, name: "const_reference", scope: !405, file: !19, line: 54, baseType: !156)
!442 = !DISubprogram(name: "at", linkageName: "_ZN5boost5arrayIiLm8EE2atEm", scope: !405, file: !19, line: 103, type: !435, scopeLine: 103, flags: DIFlagPublic | DIFlagPrototyped, spFlags: 0)
!443 = !DISubprogram(name: "at", linkageName: "_ZNK5boost5arrayIiLm8EE2atEm", scope: !405, file: !19, line: 104, type: !439, scopeLine: 104, flags: DIFlagPublic | DIFlagPrototyped, spFlags: 0)
!444 = !DISubprogram(name: "front", linkageName: "_ZN5boost5arrayIiLm8EE5frontEv", scope: !405, file: !19, line: 107, type: !445, scopeLine: 107, flags: DIFlagPublic | DIFlagPrototyped, spFlags: 0)
!445 = !DISubroutineType(types: !446)
!446 = !{!437, !415}
!447 = !DISubprogram(name: "front", linkageName: "_ZNK5boost5arrayIiLm8EE5frontEv", scope: !405, file: !19, line: 112, type: !448, scopeLine: 112, flags: DIFlagPublic | DIFlagPrototyped, spFlags: 0)
!448 = !DISubroutineType(types: !449)
!449 = !{!441, !420}
!450 = !DISubprogram(name: "back", linkageName: "_ZN5boost5arrayIiLm8EE4backEv", scope: !405, file: !19, line: 117, type: !445, scopeLine: 117, flags: DIFlagPublic | DIFlagPrototyped, spFlags: 0)
!451 = !DISubprogram(name: "back", linkageName: "_ZNK5boost5arrayIiLm8EE4backEv", scope: !405, file: !19, line: 122, type: !448, scopeLine: 122, flags: DIFlagPublic | DIFlagPrototyped, spFlags: 0)
!452 = !DISubprogram(name: "size", linkageName: "_ZN5boost5arrayIiLm8EE4sizeEv", scope: !405, file: !19, line: 128, type: !82, scopeLine: 128, flags: DIFlagPublic | DIFlagPrototyped | DIFlagStaticMember, spFlags: 0)
!453 = !DISubprogram(name: "empty", linkageName: "_ZN5boost5arrayIiLm8EE5emptyEv", scope: !405, file: !19, line: 129, type: !85, scopeLine: 129, flags: DIFlagPublic | DIFlagPrototyped | DIFlagStaticMember, spFlags: 0)
!454 = !DISubprogram(name: "max_size", linkageName: "_ZN5boost5arrayIiLm8EE8max_sizeEv", scope: !405, file: !19, line: 130, type: !82, scopeLine: 130, flags: DIFlagPublic | DIFlagPrototyped | DIFlagStaticMember, spFlags: 0)
!455 = !DISubprogram(name: "swap", linkageName: "_ZN5boost5arrayIiLm8EE4swapERS1_", scope: !405, file: !19, line: 134, type: !456, scopeLine: 134, flags: DIFlagPublic | DIFlagPrototyped, spFlags: 0)
!456 = !DISubroutineType(types: !457)
!457 = !{null, !415, !458}
!458 = !DIDerivedType(tag: DW_TAG_reference_type, baseType: !405, size: 64)
!459 = !DISubprogram(name: "data", linkageName: "_ZNK5boost5arrayIiLm8EE4dataEv", scope: !405, file: !19, line: 140, type: !460, scopeLine: 140, flags: DIFlagPublic | DIFlagPrototyped, spFlags: 0)
!460 = !DISubroutineType(types: !461)
!461 = !{!131, !420}
!462 = !DISubprogram(name: "data", linkageName: "_ZN5boost5arrayIiLm8EE4dataEv", scope: !405, file: !19, line: 141, type: !463, scopeLine: 141, flags: DIFlagPublic | DIFlagPrototyped, spFlags: 0)
!463 = !DISubroutineType(types: !464)
!464 = !{!125, !415}
!465 = !DISubprogram(name: "c_array", linkageName: "_ZN5boost5arrayIiLm8EE7c_arrayEv", scope: !405, file: !19, line: 144, type: !463, scopeLine: 144, flags: DIFlagPublic | DIFlagPrototyped, spFlags: 0)
!466 = !DISubprogram(name: "assign", linkageName: "_ZN5boost5arrayIiLm8EE6assignERKi", scope: !405, file: !19, line: 154, type: !467, scopeLine: 154, flags: DIFlagPublic | DIFlagPrototyped, spFlags: 0)
!467 = !DISubroutineType(types: !468)
!468 = !{null, !415, !156}
!469 = !DISubprogram(name: "rangecheck", linkageName: "_ZN5boost5arrayIiLm8EE10rangecheckEm", scope: !405, file: !19, line: 160, type: !104, scopeLine: 160, flags: DIFlagPublic | DIFlagPrototyped | DIFlagStaticMember, spFlags: 0)
!470 = !{!186, !471}
!471 = !DITemplateValueParameter(name: "N", type: !65, value: i64 8)
!472 = !DIDerivedType(tag: DW_TAG_member, name: "m_prisoners", scope: !7, file: !6, line: 160, baseType: !115, size: 64, offset: 64064, flags: DIFlagProtected)
!473 = !DIDerivedType(tag: DW_TAG_member, name: "m_totalstones", scope: !7, file: !6, line: 161, baseType: !115, size: 64, offset: 64128, flags: DIFlagProtected)
!474 = !DIDerivedType(tag: DW_TAG_member, name: "m_critical", scope: !7, file: !6, line: 162, baseType: !475, size: 192, offset: 64192, flags: DIFlagProtected)
!475 = distinct !DICompositeType(tag: DW_TAG_class_type, name: "vector<int, std::allocator<int> >", scope: !49, file: !476, line: 389, size: 192, flags: DIFlagTypePassByReference | DIFlagNonTrivial, elements: !477, templateParams: !689, identifier: "_ZTSSt6vectorIiSaIiEE")
!476 = !DIFile(filename: "/usr/lib/gcc/x86_64-linux-gnu/10/../../../../include/c++/10/bits/stl_vector.h", directory: "")
!477 = !{!478, !690, !709, !725, !726, !732, !735, !738, !742, !748, !752, !758, !763, !767, !770, !773, !776, !779, !784, !785, !789, !792, !795, !798, !801, !806, !812, !813, !814, !819, !824, !825, !826, !827, !828, !829, !830, !833, !834, !837, !838, !839, !840, !843, !844, !852, !859, !862, !863, !864, !867, !870, !871, !872, !875, !878, !881, !885, !886, !889, !892, !895, !898, !901, !904, !907, !908, !909, !910, !911, !914, !915, !918, !919, !920, !927, !930, !935, !938, !941, !944, !947}
!478 = !DIDerivedType(tag: DW_TAG_inheritance, scope: !475, baseType: !479, flags: DIFlagProtected, extraData: i32 0)
!479 = distinct !DICompositeType(tag: DW_TAG_structure_type, name: "_Vector_base<int, std::allocator<int> >", scope: !49, file: !476, line: 84, size: 192, flags: DIFlagTypePassByReference | DIFlagNonTrivial, elements: !480, templateParams: !689, identifier: "_ZTSSt12_Vector_baseIiSaIiEE")
!480 = !{!481, !640, !645, !650, !654, !657, !662, !665, !668, !672, !675, !678, !681, !682, !685, !688}
!481 = !DIDerivedType(tag: DW_TAG_member, name: "_M_impl", scope: !479, file: !476, line: 340, baseType: !482, size: 192)
!482 = distinct !DICompositeType(tag: DW_TAG_structure_type, name: "_Vector_impl", scope: !479, file: !476, line: 128, size: 192, flags: DIFlagTypePassByReference | DIFlagNonTrivial, elements: !483, identifier: "_ZTSNSt12_Vector_baseIiSaIiEE12_Vector_implE")
!483 = !{!484, !595, !620, !624, !629, !633, !637}
!484 = !DIDerivedType(tag: DW_TAG_inheritance, scope: !482, baseType: !485, extraData: i32 0)
!485 = !DIDerivedType(tag: DW_TAG_typedef, name: "_Tp_alloc_type", scope: !479, file: !476, line: 87, baseType: !486)
!486 = !DIDerivedType(tag: DW_TAG_typedef, name: "other", scope: !488, file: !487, line: 120, baseType: !594)
!487 = !DIFile(filename: "/usr/lib/gcc/x86_64-linux-gnu/10/../../../../include/c++/10/ext/alloc_traits.h", directory: "")
!488 = distinct !DICompositeType(tag: DW_TAG_structure_type, name: "rebind<int>", scope: !489, file: !487, line: 119, size: 8, flags: DIFlagTypePassByValue, elements: !593, templateParams: !545, identifier: "_ZTSN9__gnu_cxx14__alloc_traitsISaIiEiE6rebindIiEE")
!489 = distinct !DICompositeType(tag: DW_TAG_structure_type, name: "__alloc_traits<std::allocator<int>, int>", scope: !490, file: !487, line: 48, size: 8, flags: DIFlagTypePassByValue, elements: !491, templateParams: !591, identifier: "_ZTSN9__gnu_cxx14__alloc_traitsISaIiEiEE")
!490 = !DINamespace(name: "__gnu_cxx", scope: null)
!491 = !{!492, !580, !583, !586, !587, !588, !589, !590}
!492 = !DIDerivedType(tag: DW_TAG_inheritance, scope: !489, baseType: !493, extraData: i32 0)
!493 = distinct !DICompositeType(tag: DW_TAG_structure_type, name: "allocator_traits<std::allocator<int> >", scope: !49, file: !494, line: 407, size: 8, flags: DIFlagTypePassByValue, elements: !495, templateParams: !578, identifier: "_ZTSSt16allocator_traitsISaIiEE")
!494 = !DIFile(filename: "/usr/lib/gcc/x86_64-linux-gnu/10/../../../../include/c++/10/bits/alloc_traits.h", directory: "")
!495 = !{!496, !562, !566, !569, !575}
!496 = !DISubprogram(name: "allocate", linkageName: "_ZNSt16allocator_traitsISaIiEE8allocateERS0_m", scope: !493, file: !494, line: 459, type: !497, scopeLine: 459, flags: DIFlagPrototyped | DIFlagStaticMember, spFlags: 0)
!497 = !DISubroutineType(types: !498)
!498 = !{!499, !500, !561}
!499 = !DIDerivedType(tag: DW_TAG_typedef, name: "pointer", scope: !493, file: !494, line: 416, baseType: !125)
!500 = !DIDerivedType(tag: DW_TAG_reference_type, baseType: !501, size: 64)
!501 = !DIDerivedType(tag: DW_TAG_typedef, name: "allocator_type", scope: !493, file: !494, line: 410, baseType: !502)
!502 = distinct !DICompositeType(tag: DW_TAG_class_type, name: "allocator<int>", scope: !49, file: !503, line: 116, size: 8, flags: DIFlagTypePassByReference | DIFlagNonTrivial, elements: !504, templateParams: !545, identifier: "_ZTSSaIiE")
!503 = !DIFile(filename: "/usr/lib/gcc/x86_64-linux-gnu/10/../../../../include/c++/10/bits/allocator.h", directory: "")
!504 = !{!505, !547, !551, !556, !560}
!505 = !DIDerivedType(tag: DW_TAG_inheritance, scope: !502, baseType: !506, flags: DIFlagPublic, extraData: i32 0)
!506 = !DIDerivedType(tag: DW_TAG_typedef, name: "__allocator_base<int>", scope: !49, file: !507, line: 48, baseType: !508)
!507 = !DIFile(filename: "/usr/lib/gcc/x86_64-linux-gnu/10/../../../../include/x86_64-linux-gnu/c++/10/bits/c++allocator.h", directory: "")
!508 = distinct !DICompositeType(tag: DW_TAG_class_type, name: "new_allocator<int>", scope: !490, file: !509, line: 55, size: 8, flags: DIFlagTypePassByReference | DIFlagNonTrivial, elements: !510, templateParams: !545, identifier: "_ZTSN9__gnu_cxx13new_allocatorIiEE")
!509 = !DIFile(filename: "/usr/lib/gcc/x86_64-linux-gnu/10/../../../../include/c++/10/ext/new_allocator.h", directory: "")
!510 = !{!511, !515, !520, !521, !527, !532, !538, !541, !544}
!511 = !DISubprogram(name: "new_allocator", scope: !508, file: !509, line: 79, type: !512, scopeLine: 79, flags: DIFlagPublic | DIFlagPrototyped, spFlags: 0)
!512 = !DISubroutineType(types: !513)
!513 = !{null, !514}
!514 = !DIDerivedType(tag: DW_TAG_pointer_type, baseType: !508, size: 64, flags: DIFlagArtificial | DIFlagObjectPointer)
!515 = !DISubprogram(name: "new_allocator", scope: !508, file: !509, line: 82, type: !516, scopeLine: 82, flags: DIFlagPublic | DIFlagPrototyped, spFlags: 0)
!516 = !DISubroutineType(types: !517)
!517 = !{null, !514, !518}
!518 = !DIDerivedType(tag: DW_TAG_reference_type, baseType: !519, size: 64)
!519 = !DIDerivedType(tag: DW_TAG_const_type, baseType: !508)
!520 = !DISubprogram(name: "~new_allocator", scope: !508, file: !509, line: 89, type: !512, scopeLine: 89, flags: DIFlagPublic | DIFlagPrototyped, spFlags: 0)
!521 = !DISubprogram(name: "address", linkageName: "_ZNK9__gnu_cxx13new_allocatorIiE7addressERi", scope: !508, file: !509, line: 92, type: !522, scopeLine: 92, flags: DIFlagPublic | DIFlagPrototyped, spFlags: 0)
!522 = !DISubroutineType(types: !523)
!523 = !{!524, !525, !526}
!524 = !DIDerivedType(tag: DW_TAG_typedef, name: "pointer", scope: !508, file: !509, line: 62, baseType: !125)
!525 = !DIDerivedType(tag: DW_TAG_pointer_type, baseType: !519, size: 64, flags: DIFlagArtificial | DIFlagObjectPointer)
!526 = !DIDerivedType(tag: DW_TAG_typedef, name: "reference", scope: !508, file: !509, line: 64, baseType: !151)
!527 = !DISubprogram(name: "address", linkageName: "_ZNK9__gnu_cxx13new_allocatorIiE7addressERKi", scope: !508, file: !509, line: 96, type: !528, scopeLine: 96, flags: DIFlagPublic | DIFlagPrototyped, spFlags: 0)
!528 = !DISubroutineType(types: !529)
!529 = !{!530, !525, !531}
!530 = !DIDerivedType(tag: DW_TAG_typedef, name: "const_pointer", scope: !508, file: !509, line: 63, baseType: !131)
!531 = !DIDerivedType(tag: DW_TAG_typedef, name: "const_reference", scope: !508, file: !509, line: 65, baseType: !156)
!532 = !DISubprogram(name: "allocate", linkageName: "_ZN9__gnu_cxx13new_allocatorIiE8allocateEmPKv", scope: !508, file: !509, line: 103, type: !533, scopeLine: 103, flags: DIFlagPublic | DIFlagPrototyped, spFlags: 0)
!533 = !DISubroutineType(types: !534)
!534 = !{!125, !514, !535, !536}
!535 = !DIDerivedType(tag: DW_TAG_typedef, name: "size_type", file: !509, line: 59, baseType: !63)
!536 = !DIDerivedType(tag: DW_TAG_pointer_type, baseType: !537, size: 64)
!537 = !DIDerivedType(tag: DW_TAG_const_type, baseType: null)
!538 = !DISubprogram(name: "deallocate", linkageName: "_ZN9__gnu_cxx13new_allocatorIiE10deallocateEPim", scope: !508, file: !509, line: 120, type: !539, scopeLine: 120, flags: DIFlagPublic | DIFlagPrototyped, spFlags: 0)
!539 = !DISubroutineType(types: !540)
!540 = !{null, !514, !125, !535}
!541 = !DISubprogram(name: "max_size", linkageName: "_ZNK9__gnu_cxx13new_allocatorIiE8max_sizeEv", scope: !508, file: !509, line: 142, type: !542, scopeLine: 142, flags: DIFlagPublic | DIFlagPrototyped, spFlags: 0)
!542 = !DISubroutineType(types: !543)
!543 = !{!535, !525}
!544 = !DISubprogram(name: "_M_max_size", linkageName: "_ZNK9__gnu_cxx13new_allocatorIiE11_M_max_sizeEv", scope: !508, file: !509, line: 185, type: !542, scopeLine: 185, flags: DIFlagPrototyped, spFlags: 0)
!545 = !{!546}
!546 = !DITemplateTypeParameter(name: "_Tp", type: !11)
!547 = !DISubprogram(name: "allocator", scope: !502, file: !503, line: 144, type: !548, scopeLine: 144, flags: DIFlagPublic | DIFlagPrototyped, spFlags: 0)
!548 = !DISubroutineType(types: !549)
!549 = !{null, !550}
!550 = !DIDerivedType(tag: DW_TAG_pointer_type, baseType: !502, size: 64, flags: DIFlagArtificial | DIFlagObjectPointer)
!551 = !DISubprogram(name: "allocator", scope: !502, file: !503, line: 147, type: !552, scopeLine: 147, flags: DIFlagPublic | DIFlagPrototyped, spFlags: 0)
!552 = !DISubroutineType(types: !553)
!553 = !{null, !550, !554}
!554 = !DIDerivedType(tag: DW_TAG_reference_type, baseType: !555, size: 64)
!555 = !DIDerivedType(tag: DW_TAG_const_type, baseType: !502)
!556 = !DISubprogram(name: "operator=", linkageName: "_ZNSaIiEaSERKS_", scope: !502, file: !503, line: 152, type: !557, scopeLine: 152, flags: DIFlagPublic | DIFlagPrototyped, spFlags: 0)
!557 = !DISubroutineType(types: !558)
!558 = !{!559, !550, !554}
!559 = !DIDerivedType(tag: DW_TAG_reference_type, baseType: !502, size: 64)
!560 = !DISubprogram(name: "~allocator", scope: !502, file: !503, line: 162, type: !548, scopeLine: 162, flags: DIFlagPublic | DIFlagPrototyped, spFlags: 0)
!561 = !DIDerivedType(tag: DW_TAG_typedef, name: "size_type", file: !494, line: 431, baseType: !63)
!562 = !DISubprogram(name: "allocate", linkageName: "_ZNSt16allocator_traitsISaIiEE8allocateERS0_mPKv", scope: !493, file: !494, line: 473, type: !563, scopeLine: 473, flags: DIFlagPrototyped | DIFlagStaticMember, spFlags: 0)
!563 = !DISubroutineType(types: !564)
!564 = !{!499, !500, !561, !565}
!565 = !DIDerivedType(tag: DW_TAG_typedef, name: "const_void_pointer", file: !494, line: 425, baseType: !536)
!566 = !DISubprogram(name: "deallocate", linkageName: "_ZNSt16allocator_traitsISaIiEE10deallocateERS0_Pim", scope: !493, file: !494, line: 491, type: !567, scopeLine: 491, flags: DIFlagPrototyped | DIFlagStaticMember, spFlags: 0)
!567 = !DISubroutineType(types: !568)
!568 = !{null, !500, !499, !561}
!569 = !DISubprogram(name: "max_size", linkageName: "_ZNSt16allocator_traitsISaIiEE8max_sizeERKS0_", scope: !493, file: !494, line: 543, type: !570, scopeLine: 543, flags: DIFlagPrototyped | DIFlagStaticMember, spFlags: 0)
!570 = !DISubroutineType(types: !571)
!571 = !{!572, !573}
!572 = !DIDerivedType(tag: DW_TAG_typedef, name: "size_type", scope: !493, file: !494, line: 431, baseType: !63)
!573 = !DIDerivedType(tag: DW_TAG_reference_type, baseType: !574, size: 64)
!574 = !DIDerivedType(tag: DW_TAG_const_type, baseType: !501)
!575 = !DISubprogram(name: "select_on_container_copy_construction", linkageName: "_ZNSt16allocator_traitsISaIiEE37select_on_container_copy_constructionERKS0_", scope: !493, file: !494, line: 558, type: !576, scopeLine: 558, flags: DIFlagPrototyped | DIFlagStaticMember, spFlags: 0)
!576 = !DISubroutineType(types: !577)
!577 = !{!501, !573}
!578 = !{!579}
!579 = !DITemplateTypeParameter(name: "_Alloc", type: !502)
!580 = !DISubprogram(name: "_S_select_on_copy", linkageName: "_ZN9__gnu_cxx14__alloc_traitsISaIiEiE17_S_select_on_copyERKS1_", scope: !489, file: !487, line: 97, type: !581, scopeLine: 97, flags: DIFlagPrototyped | DIFlagStaticMember, spFlags: 0)
!581 = !DISubroutineType(types: !582)
!582 = !{!502, !554}
!583 = !DISubprogram(name: "_S_on_swap", linkageName: "_ZN9__gnu_cxx14__alloc_traitsISaIiEiE10_S_on_swapERS1_S3_", scope: !489, file: !487, line: 100, type: !584, scopeLine: 100, flags: DIFlagPrototyped | DIFlagStaticMember, spFlags: 0)
!584 = !DISubroutineType(types: !585)
!585 = !{null, !559, !559}
!586 = !DISubprogram(name: "_S_propagate_on_copy_assign", linkageName: "_ZN9__gnu_cxx14__alloc_traitsISaIiEiE27_S_propagate_on_copy_assignEv", scope: !489, file: !487, line: 103, type: !85, scopeLine: 103, flags: DIFlagPrototyped | DIFlagStaticMember, spFlags: 0)
!587 = !DISubprogram(name: "_S_propagate_on_move_assign", linkageName: "_ZN9__gnu_cxx14__alloc_traitsISaIiEiE27_S_propagate_on_move_assignEv", scope: !489, file: !487, line: 106, type: !85, scopeLine: 106, flags: DIFlagPrototyped | DIFlagStaticMember, spFlags: 0)
!588 = !DISubprogram(name: "_S_propagate_on_swap", linkageName: "_ZN9__gnu_cxx14__alloc_traitsISaIiEiE20_S_propagate_on_swapEv", scope: !489, file: !487, line: 109, type: !85, scopeLine: 109, flags: DIFlagPrototyped | DIFlagStaticMember, spFlags: 0)
!589 = !DISubprogram(name: "_S_always_equal", linkageName: "_ZN9__gnu_cxx14__alloc_traitsISaIiEiE15_S_always_equalEv", scope: !489, file: !487, line: 112, type: !85, scopeLine: 112, flags: DIFlagPrototyped | DIFlagStaticMember, spFlags: 0)
!590 = !DISubprogram(name: "_S_nothrow_move", linkageName: "_ZN9__gnu_cxx14__alloc_traitsISaIiEiE15_S_nothrow_moveEv", scope: !489, file: !487, line: 115, type: !85, scopeLine: 115, flags: DIFlagPrototyped | DIFlagStaticMember, spFlags: 0)
!591 = !{!579, !592}
!592 = !DITemplateTypeParameter(type: !11)
!593 = !{}
!594 = !DIDerivedType(tag: DW_TAG_typedef, name: "rebind_alloc<int>", scope: !493, file: !494, line: 446, baseType: !502)
!595 = !DIDerivedType(tag: DW_TAG_inheritance, scope: !482, baseType: !596, extraData: i32 0)
!596 = distinct !DICompositeType(tag: DW_TAG_structure_type, name: "_Vector_impl_data", scope: !479, file: !476, line: 91, size: 192, flags: DIFlagTypePassByReference | DIFlagNonTrivial, elements: !597, identifier: "_ZTSNSt12_Vector_baseIiSaIiEE17_Vector_impl_dataE")
!597 = !{!598, !601, !602, !603, !607, !611, !616}
!598 = !DIDerivedType(tag: DW_TAG_member, name: "_M_start", scope: !596, file: !476, line: 93, baseType: !599, size: 64)
!599 = !DIDerivedType(tag: DW_TAG_typedef, name: "pointer", scope: !479, file: !476, line: 89, baseType: !600)
!600 = !DIDerivedType(tag: DW_TAG_typedef, name: "pointer", scope: !489, file: !487, line: 57, baseType: !499)
!601 = !DIDerivedType(tag: DW_TAG_member, name: "_M_finish", scope: !596, file: !476, line: 94, baseType: !599, size: 64, offset: 64)
!602 = !DIDerivedType(tag: DW_TAG_member, name: "_M_end_of_storage", scope: !596, file: !476, line: 95, baseType: !599, size: 64, offset: 128)
!603 = !DISubprogram(name: "_Vector_impl_data", scope: !596, file: !476, line: 97, type: !604, scopeLine: 97, flags: DIFlagPrototyped, spFlags: 0)
!604 = !DISubroutineType(types: !605)
!605 = !{null, !606}
!606 = !DIDerivedType(tag: DW_TAG_pointer_type, baseType: !596, size: 64, flags: DIFlagArtificial | DIFlagObjectPointer)
!607 = !DISubprogram(name: "_Vector_impl_data", scope: !596, file: !476, line: 102, type: !608, scopeLine: 102, flags: DIFlagPrototyped, spFlags: 0)
!608 = !DISubroutineType(types: !609)
!609 = !{null, !606, !610}
!610 = !DIDerivedType(tag: DW_TAG_rvalue_reference_type, baseType: !596, size: 64)
!611 = !DISubprogram(name: "_M_copy_data", linkageName: "_ZNSt12_Vector_baseIiSaIiEE17_Vector_impl_data12_M_copy_dataERKS2_", scope: !596, file: !476, line: 109, type: !612, scopeLine: 109, flags: DIFlagPrototyped, spFlags: 0)
!612 = !DISubroutineType(types: !613)
!613 = !{null, !606, !614}
!614 = !DIDerivedType(tag: DW_TAG_reference_type, baseType: !615, size: 64)
!615 = !DIDerivedType(tag: DW_TAG_const_type, baseType: !596)
!616 = !DISubprogram(name: "_M_swap_data", linkageName: "_ZNSt12_Vector_baseIiSaIiEE17_Vector_impl_data12_M_swap_dataERS2_", scope: !596, file: !476, line: 117, type: !617, scopeLine: 117, flags: DIFlagPrototyped, spFlags: 0)
!617 = !DISubroutineType(types: !618)
!618 = !{null, !606, !619}
!619 = !DIDerivedType(tag: DW_TAG_reference_type, baseType: !596, size: 64)
!620 = !DISubprogram(name: "_Vector_impl", scope: !482, file: !476, line: 131, type: !621, scopeLine: 131, flags: DIFlagPrototyped, spFlags: 0)
!621 = !DISubroutineType(types: !622)
!622 = !{null, !623}
!623 = !DIDerivedType(tag: DW_TAG_pointer_type, baseType: !482, size: 64, flags: DIFlagArtificial | DIFlagObjectPointer)
!624 = !DISubprogram(name: "_Vector_impl", scope: !482, file: !476, line: 136, type: !625, scopeLine: 136, flags: DIFlagPrototyped, spFlags: 0)
!625 = !DISubroutineType(types: !626)
!626 = !{null, !623, !627}
!627 = !DIDerivedType(tag: DW_TAG_reference_type, baseType: !628, size: 64)
!628 = !DIDerivedType(tag: DW_TAG_const_type, baseType: !485)
!629 = !DISubprogram(name: "_Vector_impl", scope: !482, file: !476, line: 143, type: !630, scopeLine: 143, flags: DIFlagPrototyped, spFlags: 0)
!630 = !DISubroutineType(types: !631)
!631 = !{null, !623, !632}
!632 = !DIDerivedType(tag: DW_TAG_rvalue_reference_type, baseType: !482, size: 64)
!633 = !DISubprogram(name: "_Vector_impl", scope: !482, file: !476, line: 147, type: !634, scopeLine: 147, flags: DIFlagPrototyped, spFlags: 0)
!634 = !DISubroutineType(types: !635)
!635 = !{null, !623, !636}
!636 = !DIDerivedType(tag: DW_TAG_rvalue_reference_type, baseType: !485, size: 64)
!637 = !DISubprogram(name: "_Vector_impl", scope: !482, file: !476, line: 151, type: !638, scopeLine: 151, flags: DIFlagPrototyped, spFlags: 0)
!638 = !DISubroutineType(types: !639)
!639 = !{null, !623, !636, !632}
!640 = !DISubprogram(name: "_M_get_Tp_allocator", linkageName: "_ZNSt12_Vector_baseIiSaIiEE19_M_get_Tp_allocatorEv", scope: !479, file: !476, line: 276, type: !641, scopeLine: 276, flags: DIFlagPrototyped, spFlags: 0)
!641 = !DISubroutineType(types: !642)
!642 = !{!643, !644}
!643 = !DIDerivedType(tag: DW_TAG_reference_type, baseType: !485, size: 64)
!644 = !DIDerivedType(tag: DW_TAG_pointer_type, baseType: !479, size: 64, flags: DIFlagArtificial | DIFlagObjectPointer)
!645 = !DISubprogram(name: "_M_get_Tp_allocator", linkageName: "_ZNKSt12_Vector_baseIiSaIiEE19_M_get_Tp_allocatorEv", scope: !479, file: !476, line: 280, type: !646, scopeLine: 280, flags: DIFlagPrototyped, spFlags: 0)
!646 = !DISubroutineType(types: !647)
!647 = !{!627, !648}
!648 = !DIDerivedType(tag: DW_TAG_pointer_type, baseType: !649, size: 64, flags: DIFlagArtificial | DIFlagObjectPointer)
!649 = !DIDerivedType(tag: DW_TAG_const_type, baseType: !479)
!650 = !DISubprogram(name: "get_allocator", linkageName: "_ZNKSt12_Vector_baseIiSaIiEE13get_allocatorEv", scope: !479, file: !476, line: 284, type: !651, scopeLine: 284, flags: DIFlagPrototyped, spFlags: 0)
!651 = !DISubroutineType(types: !652)
!652 = !{!653, !648}
!653 = !DIDerivedType(tag: DW_TAG_typedef, name: "allocator_type", scope: !479, file: !476, line: 273, baseType: !502)
!654 = !DISubprogram(name: "_Vector_base", scope: !479, file: !476, line: 288, type: !655, scopeLine: 288, flags: DIFlagPrototyped, spFlags: 0)
!655 = !DISubroutineType(types: !656)
!656 = !{null, !644}
!657 = !DISubprogram(name: "_Vector_base", scope: !479, file: !476, line: 293, type: !658, scopeLine: 293, flags: DIFlagPrototyped, spFlags: 0)
!658 = !DISubroutineType(types: !659)
!659 = !{null, !644, !660}
!660 = !DIDerivedType(tag: DW_TAG_reference_type, baseType: !661, size: 64)
!661 = !DIDerivedType(tag: DW_TAG_const_type, baseType: !653)
!662 = !DISubprogram(name: "_Vector_base", scope: !479, file: !476, line: 298, type: !663, scopeLine: 298, flags: DIFlagPrototyped, spFlags: 0)
!663 = !DISubroutineType(types: !664)
!664 = !{null, !644, !63}
!665 = !DISubprogram(name: "_Vector_base", scope: !479, file: !476, line: 303, type: !666, scopeLine: 303, flags: DIFlagPrototyped, spFlags: 0)
!666 = !DISubroutineType(types: !667)
!667 = !{null, !644, !63, !660}
!668 = !DISubprogram(name: "_Vector_base", scope: !479, file: !476, line: 308, type: !669, scopeLine: 308, flags: DIFlagPrototyped, spFlags: 0)
!669 = !DISubroutineType(types: !670)
!670 = !{null, !644, !671}
!671 = !DIDerivedType(tag: DW_TAG_rvalue_reference_type, baseType: !479, size: 64)
!672 = !DISubprogram(name: "_Vector_base", scope: !479, file: !476, line: 312, type: !673, scopeLine: 312, flags: DIFlagPrototyped, spFlags: 0)
!673 = !DISubroutineType(types: !674)
!674 = !{null, !644, !636}
!675 = !DISubprogram(name: "_Vector_base", scope: !479, file: !476, line: 315, type: !676, scopeLine: 315, flags: DIFlagPrototyped, spFlags: 0)
!676 = !DISubroutineType(types: !677)
!677 = !{null, !644, !671, !660}
!678 = !DISubprogram(name: "_Vector_base", scope: !479, file: !476, line: 328, type: !679, scopeLine: 328, flags: DIFlagPrototyped, spFlags: 0)
!679 = !DISubroutineType(types: !680)
!680 = !{null, !644, !660, !671}
!681 = !DISubprogram(name: "~_Vector_base", scope: !479, file: !476, line: 333, type: !655, scopeLine: 333, flags: DIFlagPrototyped, spFlags: 0)
!682 = !DISubprogram(name: "_M_allocate", linkageName: "_ZNSt12_Vector_baseIiSaIiEE11_M_allocateEm", scope: !479, file: !476, line: 343, type: !683, scopeLine: 343, flags: DIFlagPrototyped, spFlags: 0)
!683 = !DISubroutineType(types: !684)
!684 = !{!599, !644, !63}
!685 = !DISubprogram(name: "_M_deallocate", linkageName: "_ZNSt12_Vector_baseIiSaIiEE13_M_deallocateEPim", scope: !479, file: !476, line: 350, type: !686, scopeLine: 350, flags: DIFlagPrototyped, spFlags: 0)
!686 = !DISubroutineType(types: !687)
!687 = !{null, !644, !599, !63}
!688 = !DISubprogram(name: "_M_create_storage", linkageName: "_ZNSt12_Vector_baseIiSaIiEE17_M_create_storageEm", scope: !479, file: !476, line: 359, type: !663, scopeLine: 359, flags: DIFlagProtected | DIFlagPrototyped, spFlags: 0)
!689 = !{!546, !579}
!690 = !DISubprogram(name: "_S_nothrow_relocate", linkageName: "_ZNSt6vectorIiSaIiEE19_S_nothrow_relocateESt17integral_constantIbLb1EE", scope: !475, file: !476, line: 431, type: !691, scopeLine: 431, flags: DIFlagPrototyped | DIFlagStaticMember, spFlags: 0)
!691 = !DISubroutineType(types: !692)
!692 = !{!87, !693}
!693 = !DIDerivedType(tag: DW_TAG_typedef, name: "true_type", scope: !49, file: !694, line: 75, baseType: !695)
!694 = !DIFile(filename: "/usr/lib/gcc/x86_64-linux-gnu/10/../../../../include/c++/10/type_traits", directory: "")
!695 = distinct !DICompositeType(tag: DW_TAG_structure_type, name: "integral_constant<bool, true>", scope: !49, file: !694, line: 57, size: 8, flags: DIFlagTypePassByValue, elements: !696, templateParams: !706, identifier: "_ZTSSt17integral_constantIbLb1EE")
!696 = !{!697, !699, !705}
!697 = !DIDerivedType(tag: DW_TAG_member, name: "value", scope: !695, file: !694, line: 59, baseType: !698, flags: DIFlagStaticMember, extraData: i1 true)
!698 = !DIDerivedType(tag: DW_TAG_const_type, baseType: !87)
!699 = !DISubprogram(name: "operator bool", linkageName: "_ZNKSt17integral_constantIbLb1EEcvbEv", scope: !695, file: !694, line: 62, type: !700, scopeLine: 62, flags: DIFlagPrototyped, spFlags: 0)
!700 = !DISubroutineType(types: !701)
!701 = !{!702, !703}
!702 = !DIDerivedType(tag: DW_TAG_typedef, name: "value_type", scope: !695, file: !694, line: 60, baseType: !87)
!703 = !DIDerivedType(tag: DW_TAG_pointer_type, baseType: !704, size: 64, flags: DIFlagArtificial | DIFlagObjectPointer)
!704 = !DIDerivedType(tag: DW_TAG_const_type, baseType: !695)
!705 = !DISubprogram(name: "operator()", linkageName: "_ZNKSt17integral_constantIbLb1EEclEv", scope: !695, file: !694, line: 67, type: !700, scopeLine: 67, flags: DIFlagPrototyped, spFlags: 0)
!706 = !{!707, !708}
!707 = !DITemplateTypeParameter(name: "_Tp", type: !87)
!708 = !DITemplateValueParameter(name: "__v", type: !87, value: i8 1)
!709 = !DISubprogram(name: "_S_nothrow_relocate", linkageName: "_ZNSt6vectorIiSaIiEE19_S_nothrow_relocateESt17integral_constantIbLb0EE", scope: !475, file: !476, line: 440, type: !710, scopeLine: 440, flags: DIFlagPrototyped | DIFlagStaticMember, spFlags: 0)
!710 = !DISubroutineType(types: !711)
!711 = !{!87, !712}
!712 = !DIDerivedType(tag: DW_TAG_typedef, name: "false_type", scope: !49, file: !694, line: 78, baseType: !713)
!713 = distinct !DICompositeType(tag: DW_TAG_structure_type, name: "integral_constant<bool, false>", scope: !49, file: !694, line: 57, size: 8, flags: DIFlagTypePassByValue, elements: !714, templateParams: !723, identifier: "_ZTSSt17integral_constantIbLb0EE")
!714 = !{!715, !716, !722}
!715 = !DIDerivedType(tag: DW_TAG_member, name: "value", scope: !713, file: !694, line: 59, baseType: !698, flags: DIFlagStaticMember, extraData: i1 false)
!716 = !DISubprogram(name: "operator bool", linkageName: "_ZNKSt17integral_constantIbLb0EEcvbEv", scope: !713, file: !694, line: 62, type: !717, scopeLine: 62, flags: DIFlagPrototyped, spFlags: 0)
!717 = !DISubroutineType(types: !718)
!718 = !{!719, !720}
!719 = !DIDerivedType(tag: DW_TAG_typedef, name: "value_type", scope: !713, file: !694, line: 60, baseType: !87)
!720 = !DIDerivedType(tag: DW_TAG_pointer_type, baseType: !721, size: 64, flags: DIFlagArtificial | DIFlagObjectPointer)
!721 = !DIDerivedType(tag: DW_TAG_const_type, baseType: !713)
!722 = !DISubprogram(name: "operator()", linkageName: "_ZNKSt17integral_constantIbLb0EEclEv", scope: !713, file: !694, line: 67, type: !717, scopeLine: 67, flags: DIFlagPrototyped, spFlags: 0)
!723 = !{!707, !724}
!724 = !DITemplateValueParameter(name: "__v", type: !87, value: i8 0)
!725 = !DISubprogram(name: "_S_use_relocate", linkageName: "_ZNSt6vectorIiSaIiEE15_S_use_relocateEv", scope: !475, file: !476, line: 444, type: !85, scopeLine: 444, flags: DIFlagPrototyped | DIFlagStaticMember, spFlags: 0)
!726 = !DISubprogram(name: "_S_do_relocate", linkageName: "_ZNSt6vectorIiSaIiEE14_S_do_relocateEPiS2_S2_RS0_St17integral_constantIbLb1EE", scope: !475, file: !476, line: 453, type: !727, scopeLine: 453, flags: DIFlagPrototyped | DIFlagStaticMember, spFlags: 0)
!727 = !DISubroutineType(types: !728)
!728 = !{!729, !729, !729, !729, !730, !693}
!729 = !DIDerivedType(tag: DW_TAG_typedef, name: "pointer", scope: !475, file: !476, line: 415, baseType: !599)
!730 = !DIDerivedType(tag: DW_TAG_reference_type, baseType: !731, size: 64)
!731 = !DIDerivedType(tag: DW_TAG_typedef, name: "_Tp_alloc_type", scope: !475, file: !476, line: 410, baseType: !485)
!732 = !DISubprogram(name: "_S_do_relocate", linkageName: "_ZNSt6vectorIiSaIiEE14_S_do_relocateEPiS2_S2_RS0_St17integral_constantIbLb0EE", scope: !475, file: !476, line: 460, type: !733, scopeLine: 460, flags: DIFlagPrototyped | DIFlagStaticMember, spFlags: 0)
!733 = !DISubroutineType(types: !734)
!734 = !{!729, !729, !729, !729, !730, !712}
!735 = !DISubprogram(name: "_S_relocate", linkageName: "_ZNSt6vectorIiSaIiEE11_S_relocateEPiS2_S2_RS0_", scope: !475, file: !476, line: 465, type: !736, scopeLine: 465, flags: DIFlagPrototyped | DIFlagStaticMember, spFlags: 0)
!736 = !DISubroutineType(types: !737)
!737 = !{!729, !729, !729, !729, !730}
!738 = !DISubprogram(name: "vector", scope: !475, file: !476, line: 487, type: !739, scopeLine: 487, flags: DIFlagPublic | DIFlagPrototyped, spFlags: 0)
!739 = !DISubroutineType(types: !740)
!740 = !{null, !741}
!741 = !DIDerivedType(tag: DW_TAG_pointer_type, baseType: !475, size: 64, flags: DIFlagArtificial | DIFlagObjectPointer)
!742 = !DISubprogram(name: "vector", scope: !475, file: !476, line: 497, type: !743, scopeLine: 497, flags: DIFlagPublic | DIFlagExplicit | DIFlagPrototyped, spFlags: 0)
!743 = !DISubroutineType(types: !744)
!744 = !{null, !741, !745}
!745 = !DIDerivedType(tag: DW_TAG_reference_type, baseType: !746, size: 64)
!746 = !DIDerivedType(tag: DW_TAG_const_type, baseType: !747)
!747 = !DIDerivedType(tag: DW_TAG_typedef, name: "allocator_type", scope: !475, file: !476, line: 426, baseType: !502)
!748 = !DISubprogram(name: "vector", scope: !475, file: !476, line: 510, type: !749, scopeLine: 510, flags: DIFlagPublic | DIFlagExplicit | DIFlagPrototyped, spFlags: 0)
!749 = !DISubroutineType(types: !750)
!750 = !{null, !741, !751, !745}
!751 = !DIDerivedType(tag: DW_TAG_typedef, name: "size_type", file: !476, line: 424, baseType: !63)
!752 = !DISubprogram(name: "vector", scope: !475, file: !476, line: 522, type: !753, scopeLine: 522, flags: DIFlagPublic | DIFlagPrototyped, spFlags: 0)
!753 = !DISubroutineType(types: !754)
!754 = !{null, !741, !751, !755, !745}
!755 = !DIDerivedType(tag: DW_TAG_reference_type, baseType: !756, size: 64)
!756 = !DIDerivedType(tag: DW_TAG_const_type, baseType: !757)
!757 = !DIDerivedType(tag: DW_TAG_typedef, name: "value_type", scope: !475, file: !476, line: 414, baseType: !11)
!758 = !DISubprogram(name: "vector", scope: !475, file: !476, line: 553, type: !759, scopeLine: 553, flags: DIFlagPublic | DIFlagPrototyped, spFlags: 0)
!759 = !DISubroutineType(types: !760)
!760 = !{null, !741, !761}
!761 = !DIDerivedType(tag: DW_TAG_reference_type, baseType: !762, size: 64)
!762 = !DIDerivedType(tag: DW_TAG_const_type, baseType: !475)
!763 = !DISubprogram(name: "vector", scope: !475, file: !476, line: 572, type: !764, scopeLine: 572, flags: DIFlagPublic | DIFlagPrototyped, spFlags: 0)
!764 = !DISubroutineType(types: !765)
!765 = !{null, !741, !766}
!766 = !DIDerivedType(tag: DW_TAG_rvalue_reference_type, baseType: !475, size: 64)
!767 = !DISubprogram(name: "vector", scope: !475, file: !476, line: 575, type: !768, scopeLine: 575, flags: DIFlagPublic | DIFlagPrototyped, spFlags: 0)
!768 = !DISubroutineType(types: !769)
!769 = !{null, !741, !761, !745}
!770 = !DISubprogram(name: "vector", scope: !475, file: !476, line: 585, type: !771, scopeLine: 585, flags: DIFlagPrototyped, spFlags: 0)
!771 = !DISubroutineType(types: !772)
!772 = !{null, !741, !766, !745, !693}
!773 = !DISubprogram(name: "vector", scope: !475, file: !476, line: 589, type: !774, scopeLine: 589, flags: DIFlagPrototyped, spFlags: 0)
!774 = !DISubroutineType(types: !775)
!775 = !{null, !741, !766, !745, !712}
!776 = !DISubprogram(name: "vector", scope: !475, file: !476, line: 607, type: !777, scopeLine: 607, flags: DIFlagPublic | DIFlagPrototyped, spFlags: 0)
!777 = !DISubroutineType(types: !778)
!778 = !{null, !741, !766, !745}
!779 = !DISubprogram(name: "vector", scope: !475, file: !476, line: 625, type: !780, scopeLine: 625, flags: DIFlagPublic | DIFlagPrototyped, spFlags: 0)
!780 = !DISubroutineType(types: !781)
!781 = !{null, !741, !782, !745}
!782 = !DICompositeType(tag: DW_TAG_class_type, name: "initializer_list<int>", scope: !49, file: !783, line: 47, flags: DIFlagFwdDecl, identifier: "_ZTSSt16initializer_listIiE")
!783 = !DIFile(filename: "/usr/lib/gcc/x86_64-linux-gnu/10/../../../../include/c++/10/initializer_list", directory: "")
!784 = !DISubprogram(name: "~vector", scope: !475, file: !476, line: 678, type: !739, scopeLine: 678, flags: DIFlagPublic | DIFlagPrototyped, spFlags: 0)
!785 = !DISubprogram(name: "operator=", linkageName: "_ZNSt6vectorIiSaIiEEaSERKS1_", scope: !475, file: !476, line: 695, type: !786, scopeLine: 695, flags: DIFlagPublic | DIFlagPrototyped, spFlags: 0)
!786 = !DISubroutineType(types: !787)
!787 = !{!788, !741, !761}
!788 = !DIDerivedType(tag: DW_TAG_reference_type, baseType: !475, size: 64)
!789 = !DISubprogram(name: "operator=", linkageName: "_ZNSt6vectorIiSaIiEEaSEOS1_", scope: !475, file: !476, line: 709, type: !790, scopeLine: 709, flags: DIFlagPublic | DIFlagPrototyped, spFlags: 0)
!790 = !DISubroutineType(types: !791)
!791 = !{!788, !741, !766}
!792 = !DISubprogram(name: "operator=", linkageName: "_ZNSt6vectorIiSaIiEEaSESt16initializer_listIiE", scope: !475, file: !476, line: 730, type: !793, scopeLine: 730, flags: DIFlagPublic | DIFlagPrototyped, spFlags: 0)
!793 = !DISubroutineType(types: !794)
!794 = !{!788, !741, !782}
!795 = !DISubprogram(name: "assign", linkageName: "_ZNSt6vectorIiSaIiEE6assignEmRKi", scope: !475, file: !476, line: 749, type: !796, scopeLine: 749, flags: DIFlagPublic | DIFlagPrototyped, spFlags: 0)
!796 = !DISubroutineType(types: !797)
!797 = !{null, !741, !751, !755}
!798 = !DISubprogram(name: "assign", linkageName: "_ZNSt6vectorIiSaIiEE6assignESt16initializer_listIiE", scope: !475, file: !476, line: 794, type: !799, scopeLine: 794, flags: DIFlagPublic | DIFlagPrototyped, spFlags: 0)
!799 = !DISubroutineType(types: !800)
!800 = !{null, !741, !782}
!801 = !DISubprogram(name: "begin", linkageName: "_ZNSt6vectorIiSaIiEE5beginEv", scope: !475, file: !476, line: 811, type: !802, scopeLine: 811, flags: DIFlagPublic | DIFlagPrototyped, spFlags: 0)
!802 = !DISubroutineType(types: !803)
!803 = !{!804, !741}
!804 = !DIDerivedType(tag: DW_TAG_typedef, name: "iterator", scope: !475, file: !476, line: 419, baseType: !805)
!805 = !DICompositeType(tag: DW_TAG_class_type, name: "__normal_iterator<int *, std::vector<int, std::allocator<int> > >", scope: !490, file: !48, line: 930, flags: DIFlagFwdDecl, identifier: "_ZTSN9__gnu_cxx17__normal_iteratorIPiSt6vectorIiSaIiEEEE")
!806 = !DISubprogram(name: "begin", linkageName: "_ZNKSt6vectorIiSaIiEE5beginEv", scope: !475, file: !476, line: 820, type: !807, scopeLine: 820, flags: DIFlagPublic | DIFlagPrototyped, spFlags: 0)
!807 = !DISubroutineType(types: !808)
!808 = !{!809, !811}
!809 = !DIDerivedType(tag: DW_TAG_typedef, name: "const_iterator", scope: !475, file: !476, line: 421, baseType: !810)
!810 = !DICompositeType(tag: DW_TAG_class_type, name: "__normal_iterator<const int *, std::vector<int, std::allocator<int> > >", scope: !490, file: !48, line: 930, flags: DIFlagFwdDecl, identifier: "_ZTSN9__gnu_cxx17__normal_iteratorIPKiSt6vectorIiSaIiEEEE")
!811 = !DIDerivedType(tag: DW_TAG_pointer_type, baseType: !762, size: 64, flags: DIFlagArtificial | DIFlagObjectPointer)
!812 = !DISubprogram(name: "end", linkageName: "_ZNSt6vectorIiSaIiEE3endEv", scope: !475, file: !476, line: 829, type: !802, scopeLine: 829, flags: DIFlagPublic | DIFlagPrototyped, spFlags: 0)
!813 = !DISubprogram(name: "end", linkageName: "_ZNKSt6vectorIiSaIiEE3endEv", scope: !475, file: !476, line: 838, type: !807, scopeLine: 838, flags: DIFlagPublic | DIFlagPrototyped, spFlags: 0)
!814 = !DISubprogram(name: "rbegin", linkageName: "_ZNSt6vectorIiSaIiEE6rbeginEv", scope: !475, file: !476, line: 847, type: !815, scopeLine: 847, flags: DIFlagPublic | DIFlagPrototyped, spFlags: 0)
!815 = !DISubroutineType(types: !816)
!816 = !{!817, !741}
!817 = !DIDerivedType(tag: DW_TAG_typedef, name: "reverse_iterator", scope: !475, file: !476, line: 423, baseType: !818)
!818 = !DICompositeType(tag: DW_TAG_class_type, name: "reverse_iterator<__gnu_cxx::__normal_iterator<int *, std::vector<int, std::allocator<int> > > >", scope: !49, file: !48, line: 125, flags: DIFlagFwdDecl, identifier: "_ZTSSt16reverse_iteratorIN9__gnu_cxx17__normal_iteratorIPiSt6vectorIiSaIiEEEEE")
!819 = !DISubprogram(name: "rbegin", linkageName: "_ZNKSt6vectorIiSaIiEE6rbeginEv", scope: !475, file: !476, line: 856, type: !820, scopeLine: 856, flags: DIFlagPublic | DIFlagPrototyped, spFlags: 0)
!820 = !DISubroutineType(types: !821)
!821 = !{!822, !811}
!822 = !DIDerivedType(tag: DW_TAG_typedef, name: "const_reverse_iterator", scope: !475, file: !476, line: 422, baseType: !823)
!823 = !DICompositeType(tag: DW_TAG_class_type, name: "reverse_iterator<__gnu_cxx::__normal_iterator<const int *, std::vector<int, std::allocator<int> > > >", scope: !49, file: !48, line: 125, flags: DIFlagFwdDecl, identifier: "_ZTSSt16reverse_iteratorIN9__gnu_cxx17__normal_iteratorIPKiSt6vectorIiSaIiEEEEE")
!824 = !DISubprogram(name: "rend", linkageName: "_ZNSt6vectorIiSaIiEE4rendEv", scope: !475, file: !476, line: 865, type: !815, scopeLine: 865, flags: DIFlagPublic | DIFlagPrototyped, spFlags: 0)
!825 = !DISubprogram(name: "rend", linkageName: "_ZNKSt6vectorIiSaIiEE4rendEv", scope: !475, file: !476, line: 874, type: !820, scopeLine: 874, flags: DIFlagPublic | DIFlagPrototyped, spFlags: 0)
!826 = !DISubprogram(name: "cbegin", linkageName: "_ZNKSt6vectorIiSaIiEE6cbeginEv", scope: !475, file: !476, line: 884, type: !807, scopeLine: 884, flags: DIFlagPublic | DIFlagPrototyped, spFlags: 0)
!827 = !DISubprogram(name: "cend", linkageName: "_ZNKSt6vectorIiSaIiEE4cendEv", scope: !475, file: !476, line: 893, type: !807, scopeLine: 893, flags: DIFlagPublic | DIFlagPrototyped, spFlags: 0)
!828 = !DISubprogram(name: "crbegin", linkageName: "_ZNKSt6vectorIiSaIiEE7crbeginEv", scope: !475, file: !476, line: 902, type: !820, scopeLine: 902, flags: DIFlagPublic | DIFlagPrototyped, spFlags: 0)
!829 = !DISubprogram(name: "crend", linkageName: "_ZNKSt6vectorIiSaIiEE5crendEv", scope: !475, file: !476, line: 911, type: !820, scopeLine: 911, flags: DIFlagPublic | DIFlagPrototyped, spFlags: 0)
!830 = !DISubprogram(name: "size", linkageName: "_ZNKSt6vectorIiSaIiEE4sizeEv", scope: !475, file: !476, line: 918, type: !831, scopeLine: 918, flags: DIFlagPublic | DIFlagPrototyped, spFlags: 0)
!831 = !DISubroutineType(types: !832)
!832 = !{!751, !811}
!833 = !DISubprogram(name: "max_size", linkageName: "_ZNKSt6vectorIiSaIiEE8max_sizeEv", scope: !475, file: !476, line: 923, type: !831, scopeLine: 923, flags: DIFlagPublic | DIFlagPrototyped, spFlags: 0)
!834 = !DISubprogram(name: "resize", linkageName: "_ZNSt6vectorIiSaIiEE6resizeEm", scope: !475, file: !476, line: 937, type: !835, scopeLine: 937, flags: DIFlagPublic | DIFlagPrototyped, spFlags: 0)
!835 = !DISubroutineType(types: !836)
!836 = !{null, !741, !751}
!837 = !DISubprogram(name: "resize", linkageName: "_ZNSt6vectorIiSaIiEE6resizeEmRKi", scope: !475, file: !476, line: 957, type: !796, scopeLine: 957, flags: DIFlagPublic | DIFlagPrototyped, spFlags: 0)
!838 = !DISubprogram(name: "shrink_to_fit", linkageName: "_ZNSt6vectorIiSaIiEE13shrink_to_fitEv", scope: !475, file: !476, line: 989, type: !739, scopeLine: 989, flags: DIFlagPublic | DIFlagPrototyped, spFlags: 0)
!839 = !DISubprogram(name: "capacity", linkageName: "_ZNKSt6vectorIiSaIiEE8capacityEv", scope: !475, file: !476, line: 998, type: !831, scopeLine: 998, flags: DIFlagPublic | DIFlagPrototyped, spFlags: 0)
!840 = !DISubprogram(name: "empty", linkageName: "_ZNKSt6vectorIiSaIiEE5emptyEv", scope: !475, file: !476, line: 1007, type: !841, scopeLine: 1007, flags: DIFlagPublic | DIFlagPrototyped, spFlags: 0)
!841 = !DISubroutineType(types: !842)
!842 = !{!87, !811}
!843 = !DISubprogram(name: "reserve", linkageName: "_ZNSt6vectorIiSaIiEE7reserveEm", scope: !475, file: !476, line: 1028, type: !835, scopeLine: 1028, flags: DIFlagPublic | DIFlagPrototyped, spFlags: 0)
!844 = !DISubprogram(name: "operator[]", linkageName: "_ZNSt6vectorIiSaIiEEixEm", scope: !475, file: !476, line: 1043, type: !845, scopeLine: 1043, flags: DIFlagPublic | DIFlagPrototyped, spFlags: 0)
!845 = !DISubroutineType(types: !846)
!846 = !{!847, !741, !751}
!847 = !DIDerivedType(tag: DW_TAG_typedef, name: "reference", scope: !475, file: !476, line: 417, baseType: !848)
!848 = !DIDerivedType(tag: DW_TAG_typedef, name: "reference", scope: !489, file: !487, line: 62, baseType: !849)
!849 = !DIDerivedType(tag: DW_TAG_reference_type, baseType: !850, size: 64)
!850 = !DIDerivedType(tag: DW_TAG_typedef, name: "value_type", scope: !489, file: !487, line: 56, baseType: !851)
!851 = !DIDerivedType(tag: DW_TAG_typedef, name: "value_type", scope: !493, file: !494, line: 413, baseType: !11)
!852 = !DISubprogram(name: "operator[]", linkageName: "_ZNKSt6vectorIiSaIiEEixEm", scope: !475, file: !476, line: 1061, type: !853, scopeLine: 1061, flags: DIFlagPublic | DIFlagPrototyped, spFlags: 0)
!853 = !DISubroutineType(types: !854)
!854 = !{!855, !811, !751}
!855 = !DIDerivedType(tag: DW_TAG_typedef, name: "const_reference", scope: !475, file: !476, line: 418, baseType: !856)
!856 = !DIDerivedType(tag: DW_TAG_typedef, name: "const_reference", scope: !489, file: !487, line: 63, baseType: !857)
!857 = !DIDerivedType(tag: DW_TAG_reference_type, baseType: !858, size: 64)
!858 = !DIDerivedType(tag: DW_TAG_const_type, baseType: !850)
!859 = !DISubprogram(name: "_M_range_check", linkageName: "_ZNKSt6vectorIiSaIiEE14_M_range_checkEm", scope: !475, file: !476, line: 1070, type: !860, scopeLine: 1070, flags: DIFlagProtected | DIFlagPrototyped, spFlags: 0)
!860 = !DISubroutineType(types: !861)
!861 = !{null, !811, !751}
!862 = !DISubprogram(name: "at", linkageName: "_ZNSt6vectorIiSaIiEE2atEm", scope: !475, file: !476, line: 1092, type: !845, scopeLine: 1092, flags: DIFlagPublic | DIFlagPrototyped, spFlags: 0)
!863 = !DISubprogram(name: "at", linkageName: "_ZNKSt6vectorIiSaIiEE2atEm", scope: !475, file: !476, line: 1110, type: !853, scopeLine: 1110, flags: DIFlagPublic | DIFlagPrototyped, spFlags: 0)
!864 = !DISubprogram(name: "front", linkageName: "_ZNSt6vectorIiSaIiEE5frontEv", scope: !475, file: !476, line: 1121, type: !865, scopeLine: 1121, flags: DIFlagPublic | DIFlagPrototyped, spFlags: 0)
!865 = !DISubroutineType(types: !866)
!866 = !{!847, !741}
!867 = !DISubprogram(name: "front", linkageName: "_ZNKSt6vectorIiSaIiEE5frontEv", scope: !475, file: !476, line: 1132, type: !868, scopeLine: 1132, flags: DIFlagPublic | DIFlagPrototyped, spFlags: 0)
!868 = !DISubroutineType(types: !869)
!869 = !{!855, !811}
!870 = !DISubprogram(name: "back", linkageName: "_ZNSt6vectorIiSaIiEE4backEv", scope: !475, file: !476, line: 1143, type: !865, scopeLine: 1143, flags: DIFlagPublic | DIFlagPrototyped, spFlags: 0)
!871 = !DISubprogram(name: "back", linkageName: "_ZNKSt6vectorIiSaIiEE4backEv", scope: !475, file: !476, line: 1154, type: !868, scopeLine: 1154, flags: DIFlagPublic | DIFlagPrototyped, spFlags: 0)
!872 = !DISubprogram(name: "data", linkageName: "_ZNSt6vectorIiSaIiEE4dataEv", scope: !475, file: !476, line: 1168, type: !873, scopeLine: 1168, flags: DIFlagPublic | DIFlagPrototyped, spFlags: 0)
!873 = !DISubroutineType(types: !874)
!874 = !{!125, !741}
!875 = !DISubprogram(name: "data", linkageName: "_ZNKSt6vectorIiSaIiEE4dataEv", scope: !475, file: !476, line: 1172, type: !876, scopeLine: 1172, flags: DIFlagPublic | DIFlagPrototyped, spFlags: 0)
!876 = !DISubroutineType(types: !877)
!877 = !{!131, !811}
!878 = !DISubprogram(name: "push_back", linkageName: "_ZNSt6vectorIiSaIiEE9push_backERKi", scope: !475, file: !476, line: 1187, type: !879, scopeLine: 1187, flags: DIFlagPublic | DIFlagPrototyped, spFlags: 0)
!879 = !DISubroutineType(types: !880)
!880 = !{null, !741, !755}
!881 = !DISubprogram(name: "push_back", linkageName: "_ZNSt6vectorIiSaIiEE9push_backEOi", scope: !475, file: !476, line: 1203, type: !882, scopeLine: 1203, flags: DIFlagPublic | DIFlagPrototyped, spFlags: 0)
!882 = !DISubroutineType(types: !883)
!883 = !{null, !741, !884}
!884 = !DIDerivedType(tag: DW_TAG_rvalue_reference_type, baseType: !757, size: 64)
!885 = !DISubprogram(name: "pop_back", linkageName: "_ZNSt6vectorIiSaIiEE8pop_backEv", scope: !475, file: !476, line: 1225, type: !739, scopeLine: 1225, flags: DIFlagPublic | DIFlagPrototyped, spFlags: 0)
!886 = !DISubprogram(name: "insert", linkageName: "_ZNSt6vectorIiSaIiEE6insertEN9__gnu_cxx17__normal_iteratorIPKiS1_EERS4_", scope: !475, file: !476, line: 1263, type: !887, scopeLine: 1263, flags: DIFlagPublic | DIFlagPrototyped, spFlags: 0)
!887 = !DISubroutineType(types: !888)
!888 = !{!804, !741, !809, !755}
!889 = !DISubprogram(name: "insert", linkageName: "_ZNSt6vectorIiSaIiEE6insertEN9__gnu_cxx17__normal_iteratorIPKiS1_EEOi", scope: !475, file: !476, line: 1293, type: !890, scopeLine: 1293, flags: DIFlagPublic | DIFlagPrototyped, spFlags: 0)
!890 = !DISubroutineType(types: !891)
!891 = !{!804, !741, !809, !884}
!892 = !DISubprogram(name: "insert", linkageName: "_ZNSt6vectorIiSaIiEE6insertEN9__gnu_cxx17__normal_iteratorIPKiS1_EESt16initializer_listIiE", scope: !475, file: !476, line: 1310, type: !893, scopeLine: 1310, flags: DIFlagPublic | DIFlagPrototyped, spFlags: 0)
!893 = !DISubroutineType(types: !894)
!894 = !{!804, !741, !809, !782}
!895 = !DISubprogram(name: "insert", linkageName: "_ZNSt6vectorIiSaIiEE6insertEN9__gnu_cxx17__normal_iteratorIPKiS1_EEmRS4_", scope: !475, file: !476, line: 1335, type: !896, scopeLine: 1335, flags: DIFlagPublic | DIFlagPrototyped, spFlags: 0)
!896 = !DISubroutineType(types: !897)
!897 = !{!804, !741, !809, !751, !755}
!898 = !DISubprogram(name: "erase", linkageName: "_ZNSt6vectorIiSaIiEE5eraseEN9__gnu_cxx17__normal_iteratorIPKiS1_EE", scope: !475, file: !476, line: 1430, type: !899, scopeLine: 1430, flags: DIFlagPublic | DIFlagPrototyped, spFlags: 0)
!899 = !DISubroutineType(types: !900)
!900 = !{!804, !741, !809}
!901 = !DISubprogram(name: "erase", linkageName: "_ZNSt6vectorIiSaIiEE5eraseEN9__gnu_cxx17__normal_iteratorIPKiS1_EES6_", scope: !475, file: !476, line: 1457, type: !902, scopeLine: 1457, flags: DIFlagPublic | DIFlagPrototyped, spFlags: 0)
!902 = !DISubroutineType(types: !903)
!903 = !{!804, !741, !809, !809}
!904 = !DISubprogram(name: "swap", linkageName: "_ZNSt6vectorIiSaIiEE4swapERS1_", scope: !475, file: !476, line: 1480, type: !905, scopeLine: 1480, flags: DIFlagPublic | DIFlagPrototyped, spFlags: 0)
!905 = !DISubroutineType(types: !906)
!906 = !{null, !741, !788}
!907 = !DISubprogram(name: "clear", linkageName: "_ZNSt6vectorIiSaIiEE5clearEv", scope: !475, file: !476, line: 1498, type: !739, scopeLine: 1498, flags: DIFlagPublic | DIFlagPrototyped, spFlags: 0)
!908 = !DISubprogram(name: "_M_fill_initialize", linkageName: "_ZNSt6vectorIiSaIiEE18_M_fill_initializeEmRKi", scope: !475, file: !476, line: 1593, type: !796, scopeLine: 1593, flags: DIFlagProtected | DIFlagPrototyped, spFlags: 0)
!909 = !DISubprogram(name: "_M_default_initialize", linkageName: "_ZNSt6vectorIiSaIiEE21_M_default_initializeEm", scope: !475, file: !476, line: 1603, type: !835, scopeLine: 1603, flags: DIFlagProtected | DIFlagPrototyped, spFlags: 0)
!910 = !DISubprogram(name: "_M_fill_assign", linkageName: "_ZNSt6vectorIiSaIiEE14_M_fill_assignEmRKi", scope: !475, file: !476, line: 1645, type: !796, scopeLine: 1645, flags: DIFlagProtected | DIFlagPrototyped, spFlags: 0)
!911 = !DISubprogram(name: "_M_fill_insert", linkageName: "_ZNSt6vectorIiSaIiEE14_M_fill_insertEN9__gnu_cxx17__normal_iteratorIPiS1_EEmRKi", scope: !475, file: !476, line: 1684, type: !912, scopeLine: 1684, flags: DIFlagProtected | DIFlagPrototyped, spFlags: 0)
!912 = !DISubroutineType(types: !913)
!913 = !{null, !741, !804, !751, !755}
!914 = !DISubprogram(name: "_M_default_append", linkageName: "_ZNSt6vectorIiSaIiEE17_M_default_appendEm", scope: !475, file: !476, line: 1689, type: !835, scopeLine: 1689, flags: DIFlagProtected | DIFlagPrototyped, spFlags: 0)
!915 = !DISubprogram(name: "_M_shrink_to_fit", linkageName: "_ZNSt6vectorIiSaIiEE16_M_shrink_to_fitEv", scope: !475, file: !476, line: 1692, type: !916, scopeLine: 1692, flags: DIFlagProtected | DIFlagPrototyped, spFlags: 0)
!916 = !DISubroutineType(types: !917)
!917 = !{!87, !741}
!918 = !DISubprogram(name: "_M_insert_rval", linkageName: "_ZNSt6vectorIiSaIiEE14_M_insert_rvalEN9__gnu_cxx17__normal_iteratorIPKiS1_EEOi", scope: !475, file: !476, line: 1741, type: !890, scopeLine: 1741, flags: DIFlagProtected | DIFlagPrototyped, spFlags: 0)
!919 = !DISubprogram(name: "_M_emplace_aux", linkageName: "_ZNSt6vectorIiSaIiEE14_M_emplace_auxEN9__gnu_cxx17__normal_iteratorIPKiS1_EEOi", scope: !475, file: !476, line: 1750, type: !890, scopeLine: 1750, flags: DIFlagProtected | DIFlagPrototyped, spFlags: 0)
!920 = !DISubprogram(name: "_M_check_len", linkageName: "_ZNKSt6vectorIiSaIiEE12_M_check_lenEmPKc", scope: !475, file: !476, line: 1756, type: !921, scopeLine: 1756, flags: DIFlagProtected | DIFlagPrototyped, spFlags: 0)
!921 = !DISubroutineType(types: !922)
!922 = !{!923, !811, !751, !924}
!923 = !DIDerivedType(tag: DW_TAG_typedef, name: "size_type", scope: !475, file: !476, line: 424, baseType: !63)
!924 = !DIDerivedType(tag: DW_TAG_pointer_type, baseType: !925, size: 64)
!925 = !DIDerivedType(tag: DW_TAG_const_type, baseType: !926)
!926 = !DIBasicType(name: "char", size: 8, encoding: DW_ATE_signed_char)
!927 = !DISubprogram(name: "_S_check_init_len", linkageName: "_ZNSt6vectorIiSaIiEE17_S_check_init_lenEmRKS0_", scope: !475, file: !476, line: 1767, type: !928, scopeLine: 1767, flags: DIFlagProtected | DIFlagPrototyped | DIFlagStaticMember, spFlags: 0)
!928 = !DISubroutineType(types: !929)
!929 = !{!923, !751, !745}
!930 = !DISubprogram(name: "_S_max_size", linkageName: "_ZNSt6vectorIiSaIiEE11_S_max_sizeERKS0_", scope: !475, file: !476, line: 1776, type: !931, scopeLine: 1776, flags: DIFlagProtected | DIFlagPrototyped | DIFlagStaticMember, spFlags: 0)
!931 = !DISubroutineType(types: !932)
!932 = !{!923, !933}
!933 = !DIDerivedType(tag: DW_TAG_reference_type, baseType: !934, size: 64)
!934 = !DIDerivedType(tag: DW_TAG_const_type, baseType: !731)
!935 = !DISubprogram(name: "_M_erase_at_end", linkageName: "_ZNSt6vectorIiSaIiEE15_M_erase_at_endEPi", scope: !475, file: !476, line: 1792, type: !936, scopeLine: 1792, flags: DIFlagProtected | DIFlagPrototyped, spFlags: 0)
!936 = !DISubroutineType(types: !937)
!937 = !{null, !741, !729}
!938 = !DISubprogram(name: "_M_erase", linkageName: "_ZNSt6vectorIiSaIiEE8_M_eraseEN9__gnu_cxx17__normal_iteratorIPiS1_EE", scope: !475, file: !476, line: 1804, type: !939, scopeLine: 1804, flags: DIFlagProtected | DIFlagPrototyped, spFlags: 0)
!939 = !DISubroutineType(types: !940)
!940 = !{!804, !741, !804}
!941 = !DISubprogram(name: "_M_erase", linkageName: "_ZNSt6vectorIiSaIiEE8_M_eraseEN9__gnu_cxx17__normal_iteratorIPiS1_EES5_", scope: !475, file: !476, line: 1807, type: !942, scopeLine: 1807, flags: DIFlagProtected | DIFlagPrototyped, spFlags: 0)
!942 = !DISubroutineType(types: !943)
!943 = !{!804, !741, !804, !804}
!944 = !DISubprogram(name: "_M_move_assign", linkageName: "_ZNSt6vectorIiSaIiEE14_M_move_assignEOS1_St17integral_constantIbLb1EE", scope: !475, file: !476, line: 1815, type: !945, scopeLine: 1815, flags: DIFlagPrototyped, spFlags: 0)
!945 = !DISubroutineType(types: !946)
!946 = !{null, !741, !766, !693}
!947 = !DISubprogram(name: "_M_move_assign", linkageName: "_ZNSt6vectorIiSaIiEE14_M_move_assignEOS1_St17integral_constantIbLb0EE", scope: !475, file: !476, line: 1826, type: !948, scopeLine: 1826, flags: DIFlagPrototyped, spFlags: 0)
!948 = !DISubroutineType(types: !949)
!949 = !{null, !741, !766, !712}
!950 = !DIDerivedType(tag: DW_TAG_member, name: "m_boardsize", scope: !7, file: !6, line: 164, baseType: !11, size: 32, offset: 64384, flags: DIFlagProtected)
!951 = !DISubprogram(name: "get_boardsize", linkageName: "_ZN9FastBoard13get_boardsizeEv", scope: !7, file: !6, line: 61, type: !952, scopeLine: 61, flags: DIFlagPublic | DIFlagPrototyped, spFlags: 0)
!952 = !DISubroutineType(types: !953)
!953 = !{!11, !954}
!954 = !DIDerivedType(tag: DW_TAG_pointer_type, baseType: !7, size: 64, flags: DIFlagArtificial | DIFlagObjectPointer)
!955 = !DISubprogram(name: "get_square", linkageName: "_ZN9FastBoard10get_squareEii", scope: !7, file: !6, line: 62, type: !956, scopeLine: 62, flags: DIFlagPublic | DIFlagPrototyped, spFlags: 0)
!956 = !DISubroutineType(types: !957)
!957 = !{!5, !954, !11, !11}
!958 = !DISubprogram(name: "get_square", linkageName: "_ZN9FastBoard10get_squareEi", scope: !7, file: !6, line: 63, type: !959, scopeLine: 63, flags: DIFlagPublic | DIFlagPrototyped, spFlags: 0)
!959 = !DISubroutineType(types: !960)
!960 = !{!5, !954, !11}
!961 = !DISubprogram(name: "get_vertex", linkageName: "_ZN9FastBoard10get_vertexEii", scope: !7, file: !6, line: 64, type: !962, scopeLine: 64, flags: DIFlagPublic | DIFlagPrototyped, spFlags: 0)
!962 = !DISubroutineType(types: !963)
!963 = !{!11, !954, !11, !11}
!964 = !DISubprogram(name: "set_square", linkageName: "_ZN9FastBoard10set_squareEiiNS_8square_tE", scope: !7, file: !6, line: 65, type: !965, scopeLine: 65, flags: DIFlagPublic | DIFlagPrototyped, spFlags: 0)
!965 = !DISubroutineType(types: !966)
!966 = !{null, !954, !11, !11, !5}
!967 = !DISubprogram(name: "set_square", linkageName: "_ZN9FastBoard10set_squareEiNS_8square_tE", scope: !7, file: !6, line: 66, type: !968, scopeLine: 66, flags: DIFlagPublic | DIFlagPrototyped, spFlags: 0)
!968 = !DISubroutineType(types: !969)
!969 = !{null, !954, !11, !5}
!970 = !DISubprogram(name: "get_xy", linkageName: "_ZN9FastBoard6get_xyEi", scope: !7, file: !6, line: 67, type: !971, scopeLine: 67, flags: DIFlagPublic | DIFlagPrototyped, spFlags: 0)
!971 = !DISubroutineType(types: !972)
!972 = !{!973, !954, !11}
!973 = distinct !DICompositeType(tag: DW_TAG_structure_type, name: "pair<int, int>", scope: !49, file: !974, line: 211, size: 64, flags: DIFlagTypePassByValue | DIFlagNonTrivial, elements: !975, templateParams: !1033, identifier: "_ZTSSt4pairIiiE")
!974 = !DIFile(filename: "/usr/lib/gcc/x86_64-linux-gnu/10/../../../../include/c++/10/bits/stl_pair.h", directory: "")
!975 = !{!976, !996, !997, !998, !1004, !1008, !1021, !1030}
!976 = !DIDerivedType(tag: DW_TAG_inheritance, scope: !973, baseType: !977, flags: DIFlagPrivate, extraData: i32 0)
!977 = distinct !DICompositeType(tag: DW_TAG_class_type, name: "__pair_base<int, int>", scope: !49, file: !974, line: 189, size: 8, flags: DIFlagTypePassByValue, elements: !978, templateParams: !993, identifier: "_ZTSSt11__pair_baseIiiE")
!978 = !{!979, !983, !984, !989}
!979 = !DISubprogram(name: "__pair_base", scope: !977, file: !974, line: 193, type: !980, scopeLine: 193, flags: DIFlagPrototyped, spFlags: 0)
!980 = !DISubroutineType(types: !981)
!981 = !{null, !982}
!982 = !DIDerivedType(tag: DW_TAG_pointer_type, baseType: !977, size: 64, flags: DIFlagArtificial | DIFlagObjectPointer)
!983 = !DISubprogram(name: "~__pair_base", scope: !977, file: !974, line: 194, type: !980, scopeLine: 194, flags: DIFlagPrototyped, spFlags: 0)
!984 = !DISubprogram(name: "__pair_base", scope: !977, file: !974, line: 195, type: !985, scopeLine: 195, flags: DIFlagPrototyped, spFlags: 0)
!985 = !DISubroutineType(types: !986)
!986 = !{null, !982, !987}
!987 = !DIDerivedType(tag: DW_TAG_reference_type, baseType: !988, size: 64)
!988 = !DIDerivedType(tag: DW_TAG_const_type, baseType: !977)
!989 = !DISubprogram(name: "operator=", linkageName: "_ZNSt11__pair_baseIiiEaSERKS0_", scope: !977, file: !974, line: 196, type: !990, scopeLine: 196, flags: DIFlagPrototyped, spFlags: DISPFlagDeleted)
!990 = !DISubroutineType(types: !991)
!991 = !{!992, !982, !987}
!992 = !DIDerivedType(tag: DW_TAG_reference_type, baseType: !977, size: 64)
!993 = !{!994, !995}
!994 = !DITemplateTypeParameter(name: "_U1", type: !11)
!995 = !DITemplateTypeParameter(name: "_U2", type: !11)
!996 = !DIDerivedType(tag: DW_TAG_member, name: "first", scope: !973, file: !974, line: 217, baseType: !11, size: 32)
!997 = !DIDerivedType(tag: DW_TAG_member, name: "second", scope: !973, file: !974, line: 218, baseType: !11, size: 32, offset: 32)
!998 = !DISubprogram(name: "pair", scope: !973, file: !974, line: 314, type: !999, scopeLine: 314, flags: DIFlagPrototyped, spFlags: 0)
!999 = !DISubroutineType(types: !1000)
!1000 = !{null, !1001, !1002}
!1001 = !DIDerivedType(tag: DW_TAG_pointer_type, baseType: !973, size: 64, flags: DIFlagArtificial | DIFlagObjectPointer)
!1002 = !DIDerivedType(tag: DW_TAG_reference_type, baseType: !1003, size: 64)
!1003 = !DIDerivedType(tag: DW_TAG_const_type, baseType: !973)
!1004 = !DISubprogram(name: "pair", scope: !973, file: !974, line: 315, type: !1005, scopeLine: 315, flags: DIFlagPrototyped, spFlags: 0)
!1005 = !DISubroutineType(types: !1006)
!1006 = !{null, !1001, !1007}
!1007 = !DIDerivedType(tag: DW_TAG_rvalue_reference_type, baseType: !973, size: 64)
!1008 = !DISubprogram(name: "operator=", linkageName: "_ZNSt4pairIiiEaSERKS0_", scope: !973, file: !974, line: 390, type: !1009, scopeLine: 390, flags: DIFlagPrototyped, spFlags: 0)
!1009 = !DISubroutineType(types: !1010)
!1010 = !{!1011, !1001, !1012}
!1011 = !DIDerivedType(tag: DW_TAG_reference_type, baseType: !973, size: 64)
!1012 = !DIDerivedType(tag: DW_TAG_typedef, name: "type", scope: !1013, file: !694, line: 2201, baseType: !1002)
!1013 = distinct !DICompositeType(tag: DW_TAG_structure_type, name: "conditional<true, const std::pair<int, int> &, const std::__nonesuch &>", scope: !49, file: !694, line: 2200, size: 8, flags: DIFlagTypePassByValue, elements: !593, templateParams: !1014, identifier: "_ZTSSt11conditionalILb1ERKSt4pairIiiERKSt10__nonesuchE")
!1014 = !{!1015, !1016, !1017}
!1015 = !DITemplateValueParameter(name: "_Cond", type: !87, value: i8 1)
!1016 = !DITemplateTypeParameter(name: "_Iftrue", type: !1002)
!1017 = !DITemplateTypeParameter(name: "_Iffalse", type: !1018)
!1018 = !DIDerivedType(tag: DW_TAG_reference_type, baseType: !1019, size: 64)
!1019 = !DIDerivedType(tag: DW_TAG_const_type, baseType: !1020)
!1020 = !DICompositeType(tag: DW_TAG_structure_type, name: "__nonesuch", scope: !49, file: !694, line: 2939, flags: DIFlagFwdDecl, identifier: "_ZTSSt10__nonesuch")
!1021 = !DISubprogram(name: "operator=", linkageName: "_ZNSt4pairIiiEaSEOS0_", scope: !973, file: !974, line: 401, type: !1022, scopeLine: 401, flags: DIFlagPrototyped, spFlags: 0)
!1022 = !DISubroutineType(types: !1023)
!1023 = !{!1011, !1001, !1024}
!1024 = !DIDerivedType(tag: DW_TAG_typedef, name: "type", scope: !1025, file: !694, line: 2201, baseType: !1007)
!1025 = distinct !DICompositeType(tag: DW_TAG_structure_type, name: "conditional<true, std::pair<int, int> &&, std::__nonesuch &&>", scope: !49, file: !694, line: 2200, size: 8, flags: DIFlagTypePassByValue, elements: !593, templateParams: !1026, identifier: "_ZTSSt11conditionalILb1EOSt4pairIiiEOSt10__nonesuchE")
!1026 = !{!1015, !1027, !1028}
!1027 = !DITemplateTypeParameter(name: "_Iftrue", type: !1007)
!1028 = !DITemplateTypeParameter(name: "_Iffalse", type: !1029)
!1029 = !DIDerivedType(tag: DW_TAG_rvalue_reference_type, baseType: !1020, size: 64)
!1030 = !DISubprogram(name: "swap", linkageName: "_ZNSt4pairIiiE4swapERS0_", scope: !973, file: !974, line: 439, type: !1031, scopeLine: 439, flags: DIFlagPrototyped, spFlags: 0)
!1031 = !DISubroutineType(types: !1032)
!1032 = !{null, !1001, !1011}
!1033 = !{!1034, !1035}
!1034 = !DITemplateTypeParameter(name: "_T1", type: !11)
!1035 = !DITemplateTypeParameter(name: "_T2", type: !11)
!1036 = !DISubprogram(name: "get_groupid", linkageName: "_ZN9FastBoard11get_groupidEi", scope: !7, file: !6, line: 68, type: !1037, scopeLine: 68, flags: DIFlagPublic | DIFlagPrototyped, spFlags: 0)
!1037 = !DISubroutineType(types: !1038)
!1038 = !{!11, !954, !11}
!1039 = !DISubprogram(name: "is_suicide", linkageName: "_ZN9FastBoard10is_suicideEii", scope: !7, file: !6, line: 70, type: !1040, scopeLine: 70, flags: DIFlagPublic | DIFlagPrototyped, spFlags: 0)
!1040 = !DISubroutineType(types: !1041)
!1041 = !{!87, !954, !11, !11}
!1042 = !DISubprogram(name: "fast_ss_suicide", linkageName: "_ZN9FastBoard15fast_ss_suicideEii", scope: !7, file: !6, line: 71, type: !1043, scopeLine: 71, flags: DIFlagPublic | DIFlagPrototyped, spFlags: 0)
!1043 = !DISubroutineType(types: !1044)
!1044 = !{!11, !954, !10, !10}
!1045 = !DISubprogram(name: "update_board_fast", linkageName: "_ZN9FastBoard17update_board_fastEii", scope: !7, file: !6, line: 72, type: !1043, scopeLine: 72, flags: DIFlagPublic | DIFlagPrototyped, spFlags: 0)
!1046 = !DISubprogram(name: "save_critical_neighbours", linkageName: "_ZN9FastBoard24save_critical_neighboursEiiRN5boost5arrayIiLm24EEERi", scope: !7, file: !6, line: 73, type: !1047, scopeLine: 73, flags: DIFlagPublic | DIFlagPrototyped, spFlags: 0)
!1047 = !DISubroutineType(types: !1048)
!1048 = !{null, !954, !11, !11, !1049, !151}
!1049 = !DIDerivedType(tag: DW_TAG_reference_type, baseType: !1050, size: 64)
!1050 = !DIDerivedType(tag: DW_TAG_typedef, name: "movelist_t", scope: !7, file: !6, line: 57, baseType: !1051)
!1051 = distinct !DICompositeType(tag: DW_TAG_class_type, name: "array<int, 24>", scope: !20, file: !19, line: 44, size: 768, flags: DIFlagTypePassByValue, elements: !1052, templateParams: !1116, identifier: "_ZTSN5boost5arrayIiLm24EEE")
!1052 = !{!1053, !1057, !1062, !1068, !1069, !1070, !1074, !1078, !1079, !1080, !1084, !1088, !1089, !1090, !1093, !1096, !1097, !1098, !1099, !1100, !1101, !1105, !1108, !1111, !1112, !1115}
!1053 = !DIDerivedType(tag: DW_TAG_member, name: "elems", scope: !1051, file: !19, line: 46, baseType: !1054, size: 768, flags: DIFlagPublic)
!1054 = !DICompositeType(tag: DW_TAG_array_type, baseType: !11, size: 768, elements: !1055)
!1055 = !{!1056}
!1056 = !DISubrange(count: 24)
!1057 = !DISubprogram(name: "begin", linkageName: "_ZN5boost5arrayIiLm24EE5beginEv", scope: !1051, file: !19, line: 59, type: !1058, scopeLine: 59, flags: DIFlagPublic | DIFlagPrototyped, spFlags: 0)
!1058 = !DISubroutineType(types: !1059)
!1059 = !{!1060, !1061}
!1060 = !DIDerivedType(tag: DW_TAG_typedef, name: "iterator", scope: !1051, file: !19, line: 51, baseType: !125)
!1061 = !DIDerivedType(tag: DW_TAG_pointer_type, baseType: !1051, size: 64, flags: DIFlagArtificial | DIFlagObjectPointer)
!1062 = !DISubprogram(name: "begin", linkageName: "_ZNK5boost5arrayIiLm24EE5beginEv", scope: !1051, file: !19, line: 60, type: !1063, scopeLine: 60, flags: DIFlagPublic | DIFlagPrototyped, spFlags: 0)
!1063 = !DISubroutineType(types: !1064)
!1064 = !{!1065, !1066}
!1065 = !DIDerivedType(tag: DW_TAG_typedef, name: "const_iterator", scope: !1051, file: !19, line: 52, baseType: !131)
!1066 = !DIDerivedType(tag: DW_TAG_pointer_type, baseType: !1067, size: 64, flags: DIFlagArtificial | DIFlagObjectPointer)
!1067 = !DIDerivedType(tag: DW_TAG_const_type, baseType: !1051)
!1068 = !DISubprogram(name: "end", linkageName: "_ZN5boost5arrayIiLm24EE3endEv", scope: !1051, file: !19, line: 61, type: !1058, scopeLine: 61, flags: DIFlagPublic | DIFlagPrototyped, spFlags: 0)
!1069 = !DISubprogram(name: "end", linkageName: "_ZNK5boost5arrayIiLm24EE3endEv", scope: !1051, file: !19, line: 62, type: !1063, scopeLine: 62, flags: DIFlagPublic | DIFlagPrototyped, spFlags: 0)
!1070 = !DISubprogram(name: "rbegin", linkageName: "_ZN5boost5arrayIiLm24EE6rbeginEv", scope: !1051, file: !19, line: 80, type: !1071, scopeLine: 80, flags: DIFlagPublic | DIFlagPrototyped, spFlags: 0)
!1071 = !DISubroutineType(types: !1072)
!1072 = !{!1073, !1061}
!1073 = !DIDerivedType(tag: DW_TAG_typedef, name: "reverse_iterator", scope: !1051, file: !19, line: 66, baseType: !139)
!1074 = !DISubprogram(name: "rbegin", linkageName: "_ZNK5boost5arrayIiLm24EE6rbeginEv", scope: !1051, file: !19, line: 81, type: !1075, scopeLine: 81, flags: DIFlagPublic | DIFlagPrototyped, spFlags: 0)
!1075 = !DISubroutineType(types: !1076)
!1076 = !{!1077, !1066}
!1077 = !DIDerivedType(tag: DW_TAG_typedef, name: "const_reverse_iterator", scope: !1051, file: !19, line: 67, baseType: !144)
!1078 = !DISubprogram(name: "rend", linkageName: "_ZN5boost5arrayIiLm24EE4rendEv", scope: !1051, file: !19, line: 84, type: !1071, scopeLine: 84, flags: DIFlagPublic | DIFlagPrototyped, spFlags: 0)
!1079 = !DISubprogram(name: "rend", linkageName: "_ZNK5boost5arrayIiLm24EE4rendEv", scope: !1051, file: !19, line: 85, type: !1075, scopeLine: 85, flags: DIFlagPublic | DIFlagPrototyped, spFlags: 0)
!1080 = !DISubprogram(name: "operator[]", linkageName: "_ZN5boost5arrayIiLm24EEixEm", scope: !1051, file: !19, line: 90, type: !1081, scopeLine: 90, flags: DIFlagPublic | DIFlagPrototyped, spFlags: 0)
!1081 = !DISubroutineType(types: !1082)
!1082 = !{!1083, !1061, !62}
!1083 = !DIDerivedType(tag: DW_TAG_typedef, name: "reference", scope: !1051, file: !19, line: 53, baseType: !151)
