; ModuleID = 'SGFTree.cpp'
source_filename = "SGFTree.cpp"
target datalayout = "e-m:e-p270:32:32-p271:32:32-p272:64:64-i64:64-f80:128-n8:16:32:64-S128"
target triple = "x86_64-unknown-linux-gnu"

%"class.std::ios_base::Init" = type { i8 }
%class.SGFTree = type { %class.KoState, %"class.std::vector.12", %"class.std::multimap" }
%class.KoState = type { %class.FastState.base, %"class.std::vector.7", %"class.std::vector.7" }
%class.FastState.base = type <{ %class.FullBoard, float, i32, i32, i32, i32, i32, i32, %"class.boost::array.5", %"class.boost::array.6" }>
%class.FullBoard = type { %class.FastBoard.base, i64, i64 }
%class.FastBoard.base = type <{ %"class.boost::array", %"class.boost::array", i32, i32, i32, %"class.boost::array.0", %"class.boost::array.1", %"class.boost::array.1", %"class.boost::array.1", %"class.boost::array.1", %"class.boost::array", [2 x i8], %"class.boost::array.2", %"class.boost::array.3", %"class.boost::array.4", %"class.boost::array.4", %"class.std::vector", i32 }>
%"class.boost::array.0" = type { [441 x i32] }
%"class.boost::array.1" = type { [442 x i16] }
%"class.boost::array" = type { [441 x i16] }
%"class.boost::array.2" = type { [4 x i32] }
%"class.boost::array.3" = type { [8 x i32] }
%"class.boost::array.4" = type { [2 x i32] }
%"class.std::vector" = type { %"struct.std::_Vector_base" }
%"struct.std::_Vector_base" = type { %"struct.std::_Vector_base<int, std::allocator<int> >::_Vector_impl" }
%"struct.std::_Vector_base<int, std::allocator<int> >::_Vector_impl" = type { %"struct.std::_Vector_base<int, std::allocator<int> >::_Vector_impl_data" }
%"struct.std::_Vector_base<int, std::allocator<int> >::_Vector_impl_data" = type { i32*, i32*, i32* }
%"class.boost::array.5" = type { [24 x i32] }
%"class.boost::array.6" = type { [24 x %"struct.std::pair"] }
%"struct.std::pair" = type { i32, i32 }
%"class.std::vector.7" = type { %"struct.std::_Vector_base.8" }
%"struct.std::_Vector_base.8" = type { %"struct.std::_Vector_base<unsigned long long, std::allocator<unsigned long long> >::_Vector_impl" }
%"struct.std::_Vector_base<unsigned long long, std::allocator<unsigned long long> >::_Vector_impl" = type { %"struct.std::_Vector_base<unsigned long long, std::allocator<unsigned long long> >::_Vector_impl_data" }
%"struct.std::_Vector_base<unsigned long long, std::allocator<unsigned long long> >::_Vector_impl_data" = type { i64*, i64*, i64* }
%"class.std::vector.12" = type { %"struct.std::_Vector_base.13" }
%"struct.std::_Vector_base.13" = type { %"struct.std::_Vector_base<SGFTree, std::allocator<SGFTree> >::_Vector_impl" }
%"struct.std::_Vector_base<SGFTree, std::allocator<SGFTree> >::_Vector_impl" = type { %"struct.std::_Vector_base<SGFTree, std::allocator<SGFTree> >::_Vector_impl_data" }
%"struct.std::_Vector_base<SGFTree, std::allocator<SGFTree> >::_Vector_impl_data" = type { %class.SGFTree*, %class.SGFTree*, %class.SGFTree* }
%"class.std::multimap" = type { %"class.std::_Rb_tree" }
%"class.std::_Rb_tree" = type { %"struct.std::_Rb_tree<std::__cxx11::basic_string<char>, std::pair<const std::__cxx11::basic_string<char>, std::__cxx11::basic_string<char> >, std::_Select1st<std::pair<const std::__cxx11::basic_string<char>, std::__cxx11::basic_string<char> > >, std::less<std::__cxx11::basic_string<char> >, std::allocator<std::pair<const std::__cxx11::basic_string<char>, std::__cxx11::basic_string<char> > > >::_Rb_tree_impl" }
%"struct.std::_Rb_tree<std::__cxx11::basic_string<char>, std::pair<const std::__cxx11::basic_string<char>, std::__cxx11::basic_string<char> >, std::_Select1st<std::pair<const std::__cxx11::basic_string<char>, std::__cxx11::basic_string<char> > >, std::less<std::__cxx11::basic_string<char> >, std::allocator<std::pair<const std::__cxx11::basic_string<char>, std::__cxx11::basic_string<char> > > >::_Rb_tree_impl" = type { %"struct.std::_Rb_tree_key_compare", %"struct.std::_Rb_tree_header" }
%"struct.std::_Rb_tree_key_compare" = type { %"struct.std::less" }
%"struct.std::less" = type { i8 }
%"struct.std::_Rb_tree_header" = type { %"struct.std::_Rb_tree_node_base", i64 }
%"struct.std::_Rb_tree_node_base" = type { i32, %"struct.std::_Rb_tree_node_base"*, %"struct.std::_Rb_tree_node_base"*, %"struct.std::_Rb_tree_node_base"* }
%class.FastState = type <{ %class.FullBoard, float, i32, i32, i32, i32, i32, i32, %"class.boost::array.5", %"class.boost::array.6", [4 x i8] }>
%class.GameState = type <{ %class.KoState, %"class.std::vector.20", %class.TimeControl, [4 x i8] }>
%"class.std::vector.20" = type { %"struct.std::_Vector_base.21" }
%"struct.std::_Vector_base.21" = type { %"struct.std::_Vector_base<KoState, std::allocator<KoState> >::_Vector_impl" }
%"struct.std::_Vector_base<KoState, std::allocator<KoState> >::_Vector_impl" = type { %"struct.std::_Vector_base<KoState, std::allocator<KoState> >::_Vector_impl_data" }
%"struct.std::_Vector_base<KoState, std::allocator<KoState> >::_Vector_impl_data" = type { %class.KoState*, %class.KoState*, %class.KoState* }
%class.TimeControl = type { i32, i32, i32, i32, %"class.boost::array.4", %"class.boost::array.4", %"class.boost::array.25", %"class.boost::array.26" }
%"class.boost::array.25" = type { [2 x i8] }
%"class.boost::array.26" = type { [2 x %class.Time] }
%class.Time = type { i32 }
%"class.std::__cxx11::basic_string" = type { %"struct.std::__cxx11::basic_string<char, std::char_traits<char>, std::allocator<char> >::_Alloc_hider", i64, %union.anon }
%"struct.std::__cxx11::basic_string<char, std::char_traits<char>, std::allocator<char> >::_Alloc_hider" = type { i8* }
%union.anon = type { i64, [8 x i8] }
%"struct.std::_Rb_tree_iterator" = type { %"struct.std::_Rb_tree_node_base"* }
%"struct.std::pair.30" = type { %"class.std::__cxx11::basic_string", %"class.std::__cxx11::basic_string" }
%"class.std::__cxx11::basic_istringstream" = type { %"class.std::basic_istream.base", %"class.std::__cxx11::basic_stringbuf", %"class.std::basic_ios" }
%"class.std::basic_istream.base" = type { i32 (...)**, i64 }
%"class.std::__cxx11::basic_stringbuf" = type { %"class.std::basic_streambuf", i32, %"class.std::__cxx11::basic_string" }
%"class.std::basic_streambuf" = type { i32 (...)**, i8*, i8*, i8*, i8*, i8*, i8*, %"class.std::locale" }
%"class.std::locale" = type { %"class.std::locale::_Impl"* }
%"class.std::locale::_Impl" = type { i32, %"class.std::locale::facet"**, i64, %"class.std::locale::facet"**, i8** }
%"class.std::locale::facet" = type <{ i32 (...)**, i32, [4 x i8] }>
%"class.std::basic_ios" = type { %"class.std::ios_base", %"class.std::basic_ostream"*, i8, i8, %"class.std::basic_streambuf"*, %"class.std::ctype"*, %"class.std::num_put"*, %"class.std::num_get"* }
%"class.std::ios_base" = type { i32 (...)**, i64, i64, i32, i32, i32, %"struct.std::ios_base::_Callback_list"*, %"struct.std::ios_base::_Words", [8 x %"struct.std::ios_base::_Words"], i32, %"struct.std::ios_base::_Words"*, %"class.std::locale" }
%"struct.std::ios_base::_Callback_list" = type { %"struct.std::ios_base::_Callback_list"*, void (i32, %"class.std::ios_base"*, i32)*, i32, i32 }
%"struct.std::ios_base::_Words" = type { i8*, i64 }
%"class.std::basic_ostream" = type { i32 (...)**, %"class.std::basic_ios" }
%"class.std::ctype" = type <{ %"class.std::locale::facet.base", [4 x i8], %struct.__locale_struct*, i8, [7 x i8], i32*, i32*, i16*, i8, [256 x i8], [256 x i8], i8, [6 x i8] }>
%"class.std::locale::facet.base" = type <{ i32 (...)**, i32 }>
%struct.__locale_struct = type { [13 x %struct.__locale_data*], i16*, i32*, i32*, [13 x i8*] }
%struct.__locale_data = type opaque
%"class.std::num_put" = type { %"class.std::locale::facet.base", [4 x i8] }
%"class.std::num_get" = type { %"class.std::locale::facet.base", [4 x i8] }
%"class.std::allocator.27" = type { i8 }
%"struct.std::pair.33" = type { %"struct.std::_Rb_tree_iterator", %"struct.std::_Rb_tree_iterator" }
%"class.__gnu_cxx::__normal_iterator" = type { %class.SGFTree* }
%"class.std::exception" = type { i32 (...)** }
%"class.std::basic_istream" = type { i32 (...)**, i64, %"class.std::basic_ios" }
%class.FastBoard = type <{ %"class.boost::array", %"class.boost::array", i32, i32, i32, %"class.boost::array.0", %"class.boost::array.1", %"class.boost::array.1", %"class.boost::array.1", %"class.boost::array.1", %"class.boost::array", [2 x i8], %"class.boost::array.2", %"class.boost::array.3", %"class.boost::array.4", %"class.boost::array.4", %"class.std::vector", i32, [4 x i8] }>
%"struct.std::_Rb_tree_node" = type { %"struct.std::_Rb_tree_node_base", %"struct.__gnu_cxx::__aligned_membuf" }
%"struct.__gnu_cxx::__aligned_membuf" = type { [64 x i8] }
%"struct.std::pair.36" = type { %"class.std::__cxx11::basic_string", %"class.std::__cxx11::basic_string" }
%"class.std::allocator.14" = type { i8 }
%"class.std::allocator" = type { i8 }
%"class.__gnu_cxx::new_allocator" = type { i8 }
%"class.std::__pair_base" = type { i8 }
%"class.std::allocator.9" = type { i8 }
%"class.__gnu_cxx::new_allocator.10" = type { i8 }
%"class.__gnu_cxx::new_allocator.15" = type { i8 }
%"class.std::allocator.17" = type { i8 }
%"class.__gnu_cxx::new_allocator.18" = type { i8 }
%"class.std::allocator.22" = type { i8 }
%"class.__gnu_cxx::new_allocator.23" = type { i8 }
%"class.__gnu_cxx::__normal_iterator.41" = type { i64* }
%"class.__gnu_cxx::__normal_iterator.42" = type { i64* }
%"class.__gnu_cxx::__normal_iterator.39" = type { i32* }
%"class.__gnu_cxx::__normal_iterator.40" = type { i32* }
%"class.std::__pair_base.37" = type { i8 }
%"struct.std::_Select1st" = type { i8 }
%"class.std::__pair_base.34" = type { i8 }
%"struct.std::pair.43" = type { %"struct.std::_Rb_tree_node_base"*, %"struct.std::_Rb_tree_node_base"* }
%"class.std::__pair_base.31" = type { i8 }
%"class.std::__pair_base.44" = type { i8 }
%"struct.std::integral_constant" = type { i8 }
%"class.__gnu_cxx::__normal_iterator.46" = type { %class.SGFTree* }
%"struct.std::_Rb_tree<std::__cxx11::basic_string<char>, std::pair<const std::__cxx11::basic_string<char>, std::__cxx11::basic_string<char> >, std::_Select1st<std::pair<const std::__cxx11::basic_string<char>, std::__cxx11::basic_string<char> > >, std::less<std::__cxx11::basic_string<char> >, std::allocator<std::pair<const std::__cxx11::basic_string<char>, std::__cxx11::basic_string<char> > > >::_Alloc_node" = type { %"class.std::_Rb_tree"* }

$_ZN7KoStateC2Ev = comdat any

$_ZNSt6vectorI7SGFTreeSaIS0_EEC2Ev = comdat any

$_ZNSt8multimapINSt7__cxx1112basic_stringIcSt11char_traitsIcESaIcEEES5_St4lessIS5_ESaISt4pairIKS5_S5_EEEC2Ev = comdat any

$_ZNKSt6vectorI7SGFTreeSaIS0_EE4sizeEv = comdat any

$_ZNSt6vectorI7SGFTreeSaIS0_EEixEm = comdat any

$_ZN9GameStateC2Ev = comdat any

$_ZN7KoStateaSERKS_ = comdat any

$_ZN9GameStateD2Ev = comdat any

$_ZNSt9exceptionC2Ev = comdat any

$_ZNSt17_Rb_tree_iteratorISt4pairIKNSt7__cxx1112basic_stringIcSt11char_traitsIcESaIcEEES6_EEC2Ev = comdat any

$_ZNSt8multimapINSt7__cxx1112basic_stringIcSt11char_traitsIcESaIcEEES5_St4lessIS5_ESaISt4pairIKS5_S5_EEE4findERS9_ = comdat any

$_ZStneRKSt17_Rb_tree_iteratorISt4pairIKNSt7__cxx1112basic_stringIcSt11char_traitsIcESaIcEEES6_EESB_ = comdat any

$_ZNSt8multimapINSt7__cxx1112basic_stringIcSt11char_traitsIcESaIcEEES5_St4lessIS5_ESaISt4pairIKS5_S5_EEE3endEv = comdat any

$_ZStneIcSt11char_traitsIcESaIcEEbRKNSt7__cxx1112basic_stringIT_T0_T1_EEPKS5_ = comdat any

$_ZNKSt17_Rb_tree_iteratorISt4pairIKNSt7__cxx1112basic_stringIcSt11char_traitsIcESaIcEEES6_EEptEv = comdat any

$_ZNSt8multimapINSt7__cxx1112basic_stringIcSt11char_traitsIcESaIcEEES5_St4lessIS5_ESaISt4pairIKS5_S5_EEE11equal_rangeERS9_ = comdat any

$_ZNSt17_Rb_tree_iteratorISt4pairIKNSt7__cxx1112basic_stringIcSt11char_traitsIcESaIcEEES6_EEppEv = comdat any

$_ZSteqIcSt11char_traitsIcESaIcEEbRKNSt7__cxx1112basic_stringIT_T0_T1_EEPKS5_ = comdat any

$_ZN9__gnu_cxx17__normal_iteratorIP7SGFTreeSt6vectorIS1_SaIS1_EEEC2Ev = comdat any

$_ZNSt6vectorI7SGFTreeSaIS0_EE5beginEv = comdat any

$_ZN9__gnu_cxxneIP7SGFTreeSt6vectorIS1_SaIS1_EEEEbRKNS_17__normal_iteratorIT_T0_EESB_ = comdat any

$_ZNSt6vectorI7SGFTreeSaIS0_EE3endEv = comdat any

$_ZNK9__gnu_cxx17__normal_iteratorIP7SGFTreeSt6vectorIS1_SaIS1_EEEptEv = comdat any

$_ZN9__gnu_cxx17__normal_iteratorIP7SGFTreeSt6vectorIS1_SaIS1_EEEppEv = comdat any

$_ZNSt8multimapINSt7__cxx1112basic_stringIcSt11char_traitsIcESaIcEEES5_St4lessIS5_ESaISt4pairIKS5_S5_EEE6insertIS8_IS5_S5_EEENSt9enable_ifIXsr16is_constructibleISA_T_EE5valueESt17_Rb_tree_iteratorISA_EE4typeEOSG_ = comdat any

$_ZSt9make_pairIRNSt7__cxx1112basic_stringIcSt11char_traitsIcESaIcEEES6_ESt4pairINSt25__strip_reference_wrapperINSt5decayIT_E4typeEE6__typeENS8_INS9_IT0_E4typeEE6__typeEEOSA_OSF_ = comdat any

$_ZNSt4pairINSt7__cxx1112basic_stringIcSt11char_traitsIcESaIcEEES5_ED2Ev = comdat any

$_ZNSt6vectorI7SGFTreeSaIS0_EE7reserveEm = comdat any

$_ZNSt6vectorI7SGFTreeSaIS0_EE9push_backERKS0_ = comdat any

$_ZNSt6vectorI7SGFTreeSaIS0_EE4backEv = comdat any

$_ZN9FastStateC2Ev = comdat any

$_ZNSt6vectorIySaIyEEC2Ev = comdat any

$_ZN9FullBoardC2Ev = comdat any

$_ZN5boost5arrayISt4pairIiiELm24EEC2Ev = comdat any

$_ZN9FullBoardD2Ev = comdat any

$_ZN9FastBoardC2Ev = comdat any

$_ZNSt6vectorIiSaIiEEC2Ev = comdat any

$_ZNSt12_Vector_baseIiSaIiEEC2Ev = comdat any

$_ZNSt12_Vector_baseIiSaIiEE12_Vector_implC2Ev = comdat any

$_ZNSaIiEC2Ev = comdat any

$_ZNSt12_Vector_baseIiSaIiEE17_Vector_impl_dataC2Ev = comdat any

$_ZN9__gnu_cxx13new_allocatorIiEC2Ev = comdat any

$_ZNSt4pairIiiEC2IiiLb1EEEv = comdat any

$_ZN9FastBoardD2Ev = comdat any

$_ZNSt6vectorIiSaIiEED2Ev = comdat any

$_ZSt8_DestroyIPiiEvT_S1_RSaIT0_E = comdat any

$_ZNSt12_Vector_baseIiSaIiEE19_M_get_Tp_allocatorEv = comdat any

$_ZNSt12_Vector_baseIiSaIiEED2Ev = comdat any

$__clang_call_terminate = comdat any

$_ZSt8_DestroyIPiEvT_S1_ = comdat any

$_ZNSt12_Destroy_auxILb1EE9__destroyIPiEEvT_S3_ = comdat any

$_ZNSt12_Vector_baseIiSaIiEE13_M_deallocateEPim = comdat any

$_ZNSt12_Vector_baseIiSaIiEE12_Vector_implD2Ev = comdat any

$_ZNSt16allocator_traitsISaIiEE10deallocateERS0_Pim = comdat any

$_ZN9__gnu_cxx13new_allocatorIiE10deallocateEPim = comdat any

$_ZN9__gnu_cxx13new_allocatorIiED2Ev = comdat any

$_ZNSt12_Vector_baseIySaIyEEC2Ev = comdat any

$_ZNSt12_Vector_baseIySaIyEE12_Vector_implC2Ev = comdat any

$_ZNSaIyEC2Ev = comdat any

$_ZNSt12_Vector_baseIySaIyEE17_Vector_impl_dataC2Ev = comdat any

$_ZN9__gnu_cxx13new_allocatorIyEC2Ev = comdat any

$_ZNSt12_Vector_baseI7SGFTreeSaIS0_EEC2Ev = comdat any

$_ZNSt12_Vector_baseI7SGFTreeSaIS0_EE12_Vector_implC2Ev = comdat any

$_ZNSaI7SGFTreeEC2Ev = comdat any

$_ZNSt12_Vector_baseI7SGFTreeSaIS0_EE17_Vector_impl_dataC2Ev = comdat any

$_ZN9__gnu_cxx13new_allocatorI7SGFTreeEC2Ev = comdat any

$_ZNSt8_Rb_treeINSt7__cxx1112basic_stringIcSt11char_traitsIcESaIcEEESt4pairIKS5_S5_ESt10_Select1stIS8_ESt4lessIS5_ESaIS8_EEC2Ev = comdat any

$_ZNSt8_Rb_treeINSt7__cxx1112basic_stringIcSt11char_traitsIcESaIcEEESt4pairIKS5_S5_ESt10_Select1stIS8_ESt4lessIS5_ESaIS8_EE13_Rb_tree_implISC_Lb1EEC2Ev = comdat any

$_ZNSaISt13_Rb_tree_nodeISt4pairIKNSt7__cxx1112basic_stringIcSt11char_traitsIcESaIcEEES6_EEEC2Ev = comdat any

$_ZNSt20_Rb_tree_key_compareISt4lessINSt7__cxx1112basic_stringIcSt11char_traitsIcESaIcEEEEEC2Ev = comdat any

$_ZNSt15_Rb_tree_headerC2Ev = comdat any

$_ZN9__gnu_cxx13new_allocatorISt13_Rb_tree_nodeISt4pairIKNSt7__cxx1112basic_stringIcSt11char_traitsIcESaIcEEES8_EEEC2Ev = comdat any

$_ZNSt15_Rb_tree_header8_M_resetEv = comdat any

$_ZNSt6vectorI7KoStateSaIS0_EEC2Ev = comdat any

$_ZNSt6vectorI7KoStateSaIS0_EED2Ev = comdat any

$_ZNSt12_Vector_baseI7KoStateSaIS0_EEC2Ev = comdat any

$_ZNSt12_Vector_baseI7KoStateSaIS0_EE12_Vector_implC2Ev = comdat any

$_ZNSaI7KoStateEC2Ev = comdat any

$_ZNSt12_Vector_baseI7KoStateSaIS0_EE17_Vector_impl_dataC2Ev = comdat any

$_ZN9__gnu_cxx13new_allocatorI7KoStateEC2Ev = comdat any

$_ZSt8_DestroyIP7KoStateS0_EvT_S2_RSaIT0_E = comdat any

$_ZNSt12_Vector_baseI7KoStateSaIS0_EE19_M_get_Tp_allocatorEv = comdat any

$_ZNSt12_Vector_baseI7KoStateSaIS0_EED2Ev = comdat any

$_ZSt8_DestroyIP7KoStateEvT_S2_ = comdat any

$_ZNSt12_Destroy_auxILb0EE9__destroyIP7KoStateEEvT_S4_ = comdat any

$_ZSt8_DestroyI7KoStateEvPT_ = comdat any

$_ZSt11__addressofI7KoStateEPT_RS1_ = comdat any

$_ZN7KoStateD2Ev = comdat any

$_ZNSt12_Vector_baseI7KoStateSaIS0_EE13_M_deallocateEPS0_m = comdat any

$_ZNSt12_Vector_baseI7KoStateSaIS0_EE12_Vector_implD2Ev = comdat any

$_ZNSt16allocator_traitsISaI7KoStateEE10deallocateERS1_PS0_m = comdat any

$_ZN9__gnu_cxx13new_allocatorI7KoStateE10deallocateEPS1_m = comdat any

$_ZNSaI7KoStateED2Ev = comdat any

$_ZN9__gnu_cxx13new_allocatorI7KoStateED2Ev = comdat any

$_ZNSt6vectorIySaIyEED2Ev = comdat any

$_ZN9FastStateD2Ev = comdat any

$_ZSt8_DestroyIPyyEvT_S1_RSaIT0_E = comdat any

$_ZNSt12_Vector_baseIySaIyEE19_M_get_Tp_allocatorEv = comdat any

$_ZNSt12_Vector_baseIySaIyEED2Ev = comdat any

$_ZSt8_DestroyIPyEvT_S1_ = comdat any

$_ZNSt12_Destroy_auxILb1EE9__destroyIPyEEvT_S3_ = comdat any

$_ZNSt12_Vector_baseIySaIyEE13_M_deallocateEPym = comdat any

$_ZNSt12_Vector_baseIySaIyEE12_Vector_implD2Ev = comdat any

$_ZNSt16allocator_traitsISaIyEE10deallocateERS0_Pym = comdat any

$_ZN9__gnu_cxx13new_allocatorIyE10deallocateEPym = comdat any

$_ZN9__gnu_cxx13new_allocatorIyED2Ev = comdat any

$_ZN9FastStateaSERKS_ = comdat any

$_ZNSt6vectorIySaIyEEaSERKS1_ = comdat any

$_ZN9FullBoardaSERKS_ = comdat any

$_ZN5boost5arrayISt4pairIiiELm24EEaSERKS3_ = comdat any

$_ZN9FastBoardaSERKS_ = comdat any

$_ZNSt6vectorIiSaIiEEaSERKS1_ = comdat any

$_ZNKSt6vectorIiSaIiEE4sizeEv = comdat any

$_ZNKSt6vectorIiSaIiEE8capacityEv = comdat any

$_ZNSt6vectorIiSaIiEE20_M_allocate_and_copyIN9__gnu_cxx17__normal_iteratorIPKiS1_EEEEPimT_S9_ = comdat any

$_ZNKSt6vectorIiSaIiEE5beginEv = comdat any

$_ZNKSt6vectorIiSaIiEE3endEv = comdat any

$_ZSt8_DestroyIN9__gnu_cxx17__normal_iteratorIPiSt6vectorIiSaIiEEEEiEvT_S7_RSaIT0_E = comdat any

$_ZSt4copyIN9__gnu_cxx17__normal_iteratorIPKiSt6vectorIiSaIiEEEENS1_IPiS6_EEET0_T_SB_SA_ = comdat any

$_ZNSt6vectorIiSaIiEE5beginEv = comdat any

$_ZNSt6vectorIiSaIiEE3endEv = comdat any

$_ZSt4copyIPiS0_ET0_T_S2_S1_ = comdat any

$_ZSt22__uninitialized_copy_aIPiS0_iET0_T_S2_S1_RSaIT1_E = comdat any

$_ZNSt12_Vector_baseIiSaIiEE11_M_allocateEm = comdat any

$_ZSt22__uninitialized_copy_aIN9__gnu_cxx17__normal_iteratorIPKiSt6vectorIiSaIiEEEEPiiET0_T_SA_S9_RSaIT1_E = comdat any

$_ZNSt16allocator_traitsISaIiEE8allocateERS0_m = comdat any

$_ZN9__gnu_cxx13new_allocatorIiE8allocateEmPKv = comdat any

$_ZNK9__gnu_cxx13new_allocatorIiE11_M_max_sizeEv = comdat any

$_ZSt18uninitialized_copyIN9__gnu_cxx17__normal_iteratorIPKiSt6vectorIiSaIiEEEEPiET0_T_SA_S9_ = comdat any

$_ZNSt20__uninitialized_copyILb1EE13__uninit_copyIN9__gnu_cxx17__normal_iteratorIPKiSt6vectorIiSaIiEEEEPiEET0_T_SC_SB_ = comdat any

$_ZSt4copyIN9__gnu_cxx17__normal_iteratorIPKiSt6vectorIiSaIiEEEEPiET0_T_SA_S9_ = comdat any

$_ZSt13__copy_move_aILb0EN9__gnu_cxx17__normal_iteratorIPKiSt6vectorIiSaIiEEEEPiET1_T0_SA_S9_ = comdat any

$_ZSt12__miter_baseIN9__gnu_cxx17__normal_iteratorIPKiSt6vectorIiSaIiEEEEET_S8_ = comdat any

$_ZSt12__niter_wrapIPiET_RKS1_S1_ = comdat any

$_ZSt14__copy_move_a1ILb0EPKiPiET1_T0_S4_S3_ = comdat any

$_ZSt12__niter_baseIPKiSt6vectorIiSaIiEEET_N9__gnu_cxx17__normal_iteratorIS5_T0_EE = comdat any

$_ZSt12__niter_baseIPiET_S1_ = comdat any

$_ZSt14__copy_move_a2ILb0EPKiPiET1_T0_S4_S3_ = comdat any

$_ZNSt11__copy_moveILb0ELb1ESt26random_access_iterator_tagE8__copy_mIiEEPT_PKS3_S6_S4_ = comdat any

$_ZNK9__gnu_cxx17__normal_iteratorIPKiSt6vectorIiSaIiEEE4baseEv = comdat any

$_ZN9__gnu_cxx17__normal_iteratorIPKiSt6vectorIiSaIiEEEC2ERKS2_ = comdat any

$_ZSt8_DestroyIN9__gnu_cxx17__normal_iteratorIPiSt6vectorIiSaIiEEEEEvT_S7_ = comdat any

$_ZNSt12_Destroy_auxILb1EE9__destroyIN9__gnu_cxx17__normal_iteratorIPiSt6vectorIiSaIiEEEEEEvT_S9_ = comdat any

$_ZSt13__copy_move_aILb0EN9__gnu_cxx17__normal_iteratorIPKiSt6vectorIiSaIiEEEENS1_IPiS6_EEET1_T0_SB_SA_ = comdat any

$_ZSt12__niter_wrapIN9__gnu_cxx17__normal_iteratorIPiSt6vectorIiSaIiEEEES2_ET_S7_T0_ = comdat any

$_ZSt12__niter_baseIPiSt6vectorIiSaIiEEET_N9__gnu_cxx17__normal_iteratorIS4_T0_EE = comdat any

$_ZNK9__gnu_cxx17__normal_iteratorIPiSt6vectorIiSaIiEEEplEl = comdat any

$_ZN9__gnu_cxx17__normal_iteratorIPiSt6vectorIiSaIiEEEC2ERKS1_ = comdat any

$_ZNK9__gnu_cxx17__normal_iteratorIPiSt6vectorIiSaIiEEE4baseEv = comdat any

$_ZSt13__copy_move_aILb0EPiS0_ET1_T0_S2_S1_ = comdat any

$_ZSt12__miter_baseIPiET_S1_ = comdat any

$_ZSt14__copy_move_a1ILb0EPiS0_ET1_T0_S2_S1_ = comdat any

$_ZSt14__copy_move_a2ILb0EPiS0_ET1_T0_S2_S1_ = comdat any

$_ZSt18uninitialized_copyIPiS0_ET0_T_S2_S1_ = comdat any

$_ZNSt20__uninitialized_copyILb1EE13__uninit_copyIPiS2_EET0_T_S4_S3_ = comdat any

$_ZNSt4pairIiiEaSERKS0_ = comdat any

$_ZNKSt6vectorIySaIyEE4sizeEv = comdat any

$_ZNKSt6vectorIySaIyEE8capacityEv = comdat any

$_ZNSt6vectorIySaIyEE20_M_allocate_and_copyIN9__gnu_cxx17__normal_iteratorIPKyS1_EEEEPymT_S9_ = comdat any

$_ZNKSt6vectorIySaIyEE5beginEv = comdat any

$_ZNKSt6vectorIySaIyEE3endEv = comdat any

$_ZSt8_DestroyIN9__gnu_cxx17__normal_iteratorIPySt6vectorIySaIyEEEEyEvT_S7_RSaIT0_E = comdat any

$_ZSt4copyIN9__gnu_cxx17__normal_iteratorIPKySt6vectorIySaIyEEEENS1_IPyS6_EEET0_T_SB_SA_ = comdat any

$_ZNSt6vectorIySaIyEE5beginEv = comdat any

$_ZNSt6vectorIySaIyEE3endEv = comdat any

$_ZSt4copyIPyS0_ET0_T_S2_S1_ = comdat any

$_ZSt22__uninitialized_copy_aIPyS0_yET0_T_S2_S1_RSaIT1_E = comdat any

$_ZNSt12_Vector_baseIySaIyEE11_M_allocateEm = comdat any

$_ZSt22__uninitialized_copy_aIN9__gnu_cxx17__normal_iteratorIPKySt6vectorIySaIyEEEEPyyET0_T_SA_S9_RSaIT1_E = comdat any

$_ZNSt16allocator_traitsISaIyEE8allocateERS0_m = comdat any

$_ZN9__gnu_cxx13new_allocatorIyE8allocateEmPKv = comdat any

$_ZNK9__gnu_cxx13new_allocatorIyE11_M_max_sizeEv = comdat any

$_ZSt18uninitialized_copyIN9__gnu_cxx17__normal_iteratorIPKySt6vectorIySaIyEEEEPyET0_T_SA_S9_ = comdat any

$_ZNSt20__uninitialized_copyILb1EE13__uninit_copyIN9__gnu_cxx17__normal_iteratorIPKySt6vectorIySaIyEEEEPyEET0_T_SC_SB_ = comdat any

$_ZSt4copyIN9__gnu_cxx17__normal_iteratorIPKySt6vectorIySaIyEEEEPyET0_T_SA_S9_ = comdat any

$_ZSt13__copy_move_aILb0EN9__gnu_cxx17__normal_iteratorIPKySt6vectorIySaIyEEEEPyET1_T0_SA_S9_ = comdat any

$_ZSt12__miter_baseIN9__gnu_cxx17__normal_iteratorIPKySt6vectorIySaIyEEEEET_S8_ = comdat any

$_ZSt12__niter_wrapIPyET_RKS1_S1_ = comdat any

$_ZSt14__copy_move_a1ILb0EPKyPyET1_T0_S4_S3_ = comdat any

$_ZSt12__niter_baseIPKySt6vectorIySaIyEEET_N9__gnu_cxx17__normal_iteratorIS5_T0_EE = comdat any

$_ZSt12__niter_baseIPyET_S1_ = comdat any

$_ZSt14__copy_move_a2ILb0EPKyPyET1_T0_S4_S3_ = comdat any

$_ZNSt11__copy_moveILb0ELb1ESt26random_access_iterator_tagE8__copy_mIyEEPT_PKS3_S6_S4_ = comdat any

$_ZNK9__gnu_cxx17__normal_iteratorIPKySt6vectorIySaIyEEE4baseEv = comdat any

$_ZN9__gnu_cxx17__normal_iteratorIPKySt6vectorIySaIyEEEC2ERKS2_ = comdat any

$_ZSt8_DestroyIN9__gnu_cxx17__normal_iteratorIPySt6vectorIySaIyEEEEEvT_S7_ = comdat any

$_ZNSt12_Destroy_auxILb1EE9__destroyIN9__gnu_cxx17__normal_iteratorIPySt6vectorIySaIyEEEEEEvT_S9_ = comdat any

$_ZSt13__copy_move_aILb0EN9__gnu_cxx17__normal_iteratorIPKySt6vectorIySaIyEEEENS1_IPyS6_EEET1_T0_SB_SA_ = comdat any

$_ZSt12__niter_wrapIN9__gnu_cxx17__normal_iteratorIPySt6vectorIySaIyEEEES2_ET_S7_T0_ = comdat any

$_ZSt12__niter_baseIPySt6vectorIySaIyEEET_N9__gnu_cxx17__normal_iteratorIS4_T0_EE = comdat any

$_ZNK9__gnu_cxx17__normal_iteratorIPySt6vectorIySaIyEEEplEl = comdat any

$_ZN9__gnu_cxx17__normal_iteratorIPySt6vectorIySaIyEEEC2ERKS1_ = comdat any

$_ZNK9__gnu_cxx17__normal_iteratorIPySt6vectorIySaIyEEE4baseEv = comdat any

$_ZSt13__copy_move_aILb0EPyS0_ET1_T0_S2_S1_ = comdat any

$_ZSt12__miter_baseIPyET_S1_ = comdat any

$_ZSt14__copy_move_a1ILb0EPyS0_ET1_T0_S2_S1_ = comdat any

$_ZSt14__copy_move_a2ILb0EPyS0_ET1_T0_S2_S1_ = comdat any

$_ZSt18uninitialized_copyIPyS0_ET0_T_S2_S1_ = comdat any

$_ZNSt20__uninitialized_copyILb1EE13__uninit_copyIPyS2_EET0_T_S4_S3_ = comdat any

$_ZSt7forwardIRNSt7__cxx1112basic_stringIcSt11char_traitsIcESaIcEEEEOT_RNSt16remove_referenceIS7_E4typeE = comdat any

$_ZNSt4pairINSt7__cxx1112basic_stringIcSt11char_traitsIcESaIcEEES5_EC2IRS5_S8_Lb1EEEOT_OT0_ = comdat any

$_ZNSt8_Rb_treeINSt7__cxx1112basic_stringIcSt11char_traitsIcESaIcEEESt4pairIKS5_S5_ESt10_Select1stIS8_ESt4lessIS5_ESaIS8_EE4findERS7_ = comdat any

$_ZNSt8_Rb_treeINSt7__cxx1112basic_stringIcSt11char_traitsIcESaIcEEESt4pairIKS5_S5_ESt10_Select1stIS8_ESt4lessIS5_ESaIS8_EE14_M_lower_boundEPSt13_Rb_tree_nodeIS8_EPSt18_Rb_tree_node_baseRS7_ = comdat any

$_ZNSt8_Rb_treeINSt7__cxx1112basic_stringIcSt11char_traitsIcESaIcEEESt4pairIKS5_S5_ESt10_Select1stIS8_ESt4lessIS5_ESaIS8_EE8_M_beginEv = comdat any

$_ZNSt8_Rb_treeINSt7__cxx1112basic_stringIcSt11char_traitsIcESaIcEEESt4pairIKS5_S5_ESt10_Select1stIS8_ESt4lessIS5_ESaIS8_EE6_M_endEv = comdat any

$_ZSteqRKSt17_Rb_tree_iteratorISt4pairIKNSt7__cxx1112basic_stringIcSt11char_traitsIcESaIcEEES6_EESB_ = comdat any

$_ZNSt8_Rb_treeINSt7__cxx1112basic_stringIcSt11char_traitsIcESaIcEEESt4pairIKS5_S5_ESt10_Select1stIS8_ESt4lessIS5_ESaIS8_EE3endEv = comdat any

$_ZNKSt4lessINSt7__cxx1112basic_stringIcSt11char_traitsIcESaIcEEEEclERKS5_S8_ = comdat any

$_ZNSt8_Rb_treeINSt7__cxx1112basic_stringIcSt11char_traitsIcESaIcEEESt4pairIKS5_S5_ESt10_Select1stIS8_ESt4lessIS5_ESaIS8_EE6_S_keyEPKSt18_Rb_tree_node_base = comdat any

$_ZNSt8_Rb_treeINSt7__cxx1112basic_stringIcSt11char_traitsIcESaIcEEESt4pairIKS5_S5_ESt10_Select1stIS8_ESt4lessIS5_ESaIS8_EE6_S_keyEPKSt13_Rb_tree_nodeIS8_E = comdat any

$_ZNSt8_Rb_treeINSt7__cxx1112basic_stringIcSt11char_traitsIcESaIcEEESt4pairIKS5_S5_ESt10_Select1stIS8_ESt4lessIS5_ESaIS8_EE7_S_leftEPSt18_Rb_tree_node_base = comdat any

$_ZNSt8_Rb_treeINSt7__cxx1112basic_stringIcSt11char_traitsIcESaIcEEESt4pairIKS5_S5_ESt10_Select1stIS8_ESt4lessIS5_ESaIS8_EE8_S_rightEPSt18_Rb_tree_node_base = comdat any

$_ZNSt17_Rb_tree_iteratorISt4pairIKNSt7__cxx1112basic_stringIcSt11char_traitsIcESaIcEEES6_EEC2EPSt18_Rb_tree_node_base = comdat any

$_ZNKSt10_Select1stISt4pairIKNSt7__cxx1112basic_stringIcSt11char_traitsIcESaIcEEES6_EEclERKS8_ = comdat any

$_ZNKSt13_Rb_tree_nodeISt4pairIKNSt7__cxx1112basic_stringIcSt11char_traitsIcESaIcEEES6_EE9_M_valptrEv = comdat any

$_ZNK9__gnu_cxx16__aligned_membufISt4pairIKNSt7__cxx1112basic_stringIcSt11char_traitsIcESaIcEEES7_EE6_M_ptrEv = comdat any

$_ZNK9__gnu_cxx16__aligned_membufISt4pairIKNSt7__cxx1112basic_stringIcSt11char_traitsIcESaIcEEES7_EE7_M_addrEv = comdat any

$_ZStltIcSt11char_traitsIcESaIcEEbRKNSt7__cxx1112basic_stringIT_T0_T1_EESA_ = comdat any

$_ZNSt13_Rb_tree_nodeISt4pairIKNSt7__cxx1112basic_stringIcSt11char_traitsIcESaIcEEES6_EE9_M_valptrEv = comdat any

$_ZN9__gnu_cxx16__aligned_membufISt4pairIKNSt7__cxx1112basic_stringIcSt11char_traitsIcESaIcEEES7_EE6_M_ptrEv = comdat any

$_ZN9__gnu_cxx16__aligned_membufISt4pairIKNSt7__cxx1112basic_stringIcSt11char_traitsIcESaIcEEES7_EE7_M_addrEv = comdat any

$_ZNSt8_Rb_treeINSt7__cxx1112basic_stringIcSt11char_traitsIcESaIcEEESt4pairIKS5_S5_ESt10_Select1stIS8_ESt4lessIS5_ESaIS8_EE11equal_rangeERS7_ = comdat any

$_ZNSt8_Rb_treeINSt7__cxx1112basic_stringIcSt11char_traitsIcESaIcEEESt4pairIKS5_S5_ESt10_Select1stIS8_ESt4lessIS5_ESaIS8_EE14_M_upper_boundEPSt13_Rb_tree_nodeIS8_EPSt18_Rb_tree_node_baseRS7_ = comdat any

$_ZNSt4pairISt17_Rb_tree_iteratorIS_IKNSt7__cxx1112basic_stringIcSt11char_traitsIcESaIcEEES6_EES9_EC2IS9_S9_Lb1EEEOT_OT0_ = comdat any

$_ZSt7forwardISt17_Rb_tree_iteratorISt4pairIKNSt7__cxx1112basic_stringIcSt11char_traitsIcESaIcEEES7_EEEOT_RNSt16remove_referenceISB_E4typeE = comdat any

$_ZN9__gnu_cxx17__normal_iteratorIP7SGFTreeSt6vectorIS1_SaIS1_EEEC2ERKS2_ = comdat any

$_ZNK9__gnu_cxx17__normal_iteratorIP7SGFTreeSt6vectorIS1_SaIS1_EEE4baseEv = comdat any

$_ZNSt8_Rb_treeINSt7__cxx1112basic_stringIcSt11char_traitsIcESaIcEEESt4pairIKS5_S5_ESt10_Select1stIS8_ESt4lessIS5_ESaIS8_EE16_M_emplace_equalIJS6_IS5_S5_EEEESt17_Rb_tree_iteratorIS8_EDpOT_ = comdat any

$_ZSt7forwardISt4pairINSt7__cxx1112basic_stringIcSt11char_traitsIcESaIcEEES6_EEOT_RNSt16remove_referenceIS8_E4typeE = comdat any

$_ZNSt8_Rb_treeINSt7__cxx1112basic_stringIcSt11char_traitsIcESaIcEEESt4pairIKS5_S5_ESt10_Select1stIS8_ESt4lessIS5_ESaIS8_EE14_M_create_nodeIJS6_IS5_S5_EEEEPSt13_Rb_tree_nodeIS8_EDpOT_ = comdat any

$_ZNSt8_Rb_treeINSt7__cxx1112basic_stringIcSt11char_traitsIcESaIcEEESt4pairIKS5_S5_ESt10_Select1stIS8_ESt4lessIS5_ESaIS8_EE23_M_get_insert_equal_posERS7_ = comdat any

$_ZNSt8_Rb_treeINSt7__cxx1112basic_stringIcSt11char_traitsIcESaIcEEESt4pairIKS5_S5_ESt10_Select1stIS8_ESt4lessIS5_ESaIS8_EE14_M_insert_nodeEPSt18_Rb_tree_node_baseSG_PSt13_Rb_tree_nodeIS8_E = comdat any

$_ZNSt8_Rb_treeINSt7__cxx1112basic_stringIcSt11char_traitsIcESaIcEEESt4pairIKS5_S5_ESt10_Select1stIS8_ESt4lessIS5_ESaIS8_EE12_M_drop_nodeEPSt13_Rb_tree_nodeIS8_E = comdat any

$_ZNSt8_Rb_treeINSt7__cxx1112basic_stringIcSt11char_traitsIcESaIcEEESt4pairIKS5_S5_ESt10_Select1stIS8_ESt4lessIS5_ESaIS8_EE11_M_get_nodeEv = comdat any

$_ZNSt8_Rb_treeINSt7__cxx1112basic_stringIcSt11char_traitsIcESaIcEEESt4pairIKS5_S5_ESt10_Select1stIS8_ESt4lessIS5_ESaIS8_EE17_M_construct_nodeIJS6_IS5_S5_EEEEvPSt13_Rb_tree_nodeIS8_EDpOT_ = comdat any

$_ZNSt16allocator_traitsISaISt13_Rb_tree_nodeISt4pairIKNSt7__cxx1112basic_stringIcSt11char_traitsIcESaIcEEES7_EEEE8allocateERSB_m = comdat any

$_ZNSt8_Rb_treeINSt7__cxx1112basic_stringIcSt11char_traitsIcESaIcEEESt4pairIKS5_S5_ESt10_Select1stIS8_ESt4lessIS5_ESaIS8_EE21_M_get_Node_allocatorEv = comdat any

$_ZN9__gnu_cxx13new_allocatorISt13_Rb_tree_nodeISt4pairIKNSt7__cxx1112basic_stringIcSt11char_traitsIcESaIcEEES8_EEE8allocateEmPKv = comdat any

$_ZNK9__gnu_cxx13new_allocatorISt13_Rb_tree_nodeISt4pairIKNSt7__cxx1112basic_stringIcSt11char_traitsIcESaIcEEES8_EEE11_M_max_sizeEv = comdat any

$_ZNSt16allocator_traitsISaISt13_Rb_tree_nodeISt4pairIKNSt7__cxx1112basic_stringIcSt11char_traitsIcESaIcEEES7_EEEE9constructIS9_JS1_IS7_S7_EEEEvRSB_PT_DpOT0_ = comdat any

$_ZNSt8_Rb_treeINSt7__cxx1112basic_stringIcSt11char_traitsIcESaIcEEESt4pairIKS5_S5_ESt10_Select1stIS8_ESt4lessIS5_ESaIS8_EE11_M_put_nodeEPSt13_Rb_tree_nodeIS8_E = comdat any

$_ZN9__gnu_cxx13new_allocatorISt13_Rb_tree_nodeISt4pairIKNSt7__cxx1112basic_stringIcSt11char_traitsIcESaIcEEES8_EEE9constructISA_JS2_IS8_S8_EEEEvPT_DpOT0_ = comdat any

$_ZNSt4pairIKNSt7__cxx1112basic_stringIcSt11char_traitsIcESaIcEEES5_EC2IS5_S5_Lb1EEEOS_IT_T0_E = comdat any

$_ZSt7forwardINSt7__cxx1112basic_stringIcSt11char_traitsIcESaIcEEEEOT_RNSt16remove_referenceIS6_E4typeE = comdat any

$_ZNSt16allocator_traitsISaISt13_Rb_tree_nodeISt4pairIKNSt7__cxx1112basic_stringIcSt11char_traitsIcESaIcEEES7_EEEE10deallocateERSB_PSA_m = comdat any

$_ZN9__gnu_cxx13new_allocatorISt13_Rb_tree_nodeISt4pairIKNSt7__cxx1112basic_stringIcSt11char_traitsIcESaIcEEES8_EEE10deallocateEPSB_m = comdat any

$_ZNSt4pairIPSt18_Rb_tree_node_baseS1_EC2IRPSt13_Rb_tree_nodeIS_IKNSt7__cxx1112basic_stringIcSt11char_traitsIcESaIcEEESA_EERS1_Lb1EEEOT_OT0_ = comdat any

$_ZSt7forwardIRPSt13_Rb_tree_nodeISt4pairIKNSt7__cxx1112basic_stringIcSt11char_traitsIcESaIcEEES7_EEEOT_RNSt16remove_referenceISD_E4typeE = comdat any

$_ZSt7forwardIRPSt18_Rb_tree_node_baseEOT_RNSt16remove_referenceIS3_E4typeE = comdat any

$_ZNSt8_Rb_treeINSt7__cxx1112basic_stringIcSt11char_traitsIcESaIcEEESt4pairIKS5_S5_ESt10_Select1stIS8_ESt4lessIS5_ESaIS8_EE15_M_destroy_nodeEPSt13_Rb_tree_nodeIS8_E = comdat any

$_ZNSt16allocator_traitsISaISt13_Rb_tree_nodeISt4pairIKNSt7__cxx1112basic_stringIcSt11char_traitsIcESaIcEEES7_EEEE7destroyIS9_EEvRSB_PT_ = comdat any

$_ZN9__gnu_cxx13new_allocatorISt13_Rb_tree_nodeISt4pairIKNSt7__cxx1112basic_stringIcSt11char_traitsIcESaIcEEES8_EEE7destroyISA_EEvPT_ = comdat any

$_ZNSt4pairIKNSt7__cxx1112basic_stringIcSt11char_traitsIcESaIcEEES5_ED2Ev = comdat any

$_ZNKSt6vectorI7SGFTreeSaIS0_EE8max_sizeEv = comdat any

$_ZNKSt6vectorI7SGFTreeSaIS0_EE8capacityEv = comdat any

$_ZNSt12_Vector_baseI7SGFTreeSaIS0_EE11_M_allocateEm = comdat any

$_ZNSt6vectorI7SGFTreeSaIS0_EE11_S_relocateEPS0_S3_S3_RS1_ = comdat any

$_ZNSt12_Vector_baseI7SGFTreeSaIS0_EE19_M_get_Tp_allocatorEv = comdat any

$_ZNSt12_Vector_baseI7SGFTreeSaIS0_EE13_M_deallocateEPS0_m = comdat any

$_ZNSt6vectorI7SGFTreeSaIS0_EE11_S_max_sizeERKS1_ = comdat any

$_ZNKSt12_Vector_baseI7SGFTreeSaIS0_EE19_M_get_Tp_allocatorEv = comdat any

$_ZNSt16allocator_traitsISaI7SGFTreeEE8max_sizeERKS1_ = comdat any

$_ZSt3minImERKT_S2_S2_ = comdat any

$_ZNK9__gnu_cxx13new_allocatorI7SGFTreeE8max_sizeEv = comdat any

$_ZNK9__gnu_cxx13new_allocatorI7SGFTreeE11_M_max_sizeEv = comdat any

$_ZNSt16allocator_traitsISaI7SGFTreeEE8allocateERS1_m = comdat any

$_ZN9__gnu_cxx13new_allocatorI7SGFTreeE8allocateEmPKv = comdat any

$_ZNSt6vectorI7SGFTreeSaIS0_EE14_S_do_relocateEPS0_S3_S3_RS1_St17integral_constantIbLb1EE = comdat any

$_ZSt12__relocate_aIP7SGFTreeS1_SaIS0_EET0_T_S4_S3_RT1_ = comdat any

$_ZSt14__relocate_a_1IP7SGFTreeS1_SaIS0_EET0_T_S4_S3_RT1_ = comdat any

$_ZSt12__niter_baseIP7SGFTreeET_S2_ = comdat any

$_ZSt19__relocate_object_aI7SGFTreeS0_SaIS0_EEvPT_PT0_RT1_ = comdat any

$_ZSt11__addressofI7SGFTreeEPT_RS1_ = comdat any

$_ZNSt16allocator_traitsISaI7SGFTreeEE9constructIS0_JS0_EEEvRS1_PT_DpOT0_ = comdat any

$_ZSt4moveIR7SGFTreeEONSt16remove_referenceIT_E4typeEOS3_ = comdat any

$_ZNSt16allocator_traitsISaI7SGFTreeEE7destroyIS0_EEvRS1_PT_ = comdat any

$_ZN9__gnu_cxx13new_allocatorI7SGFTreeE9constructIS1_JS1_EEEvPT_DpOT0_ = comdat any

$_ZSt7forwardI7SGFTreeEOT_RNSt16remove_referenceIS1_E4typeE = comdat any

$_ZN7SGFTreeC2EOS_ = comdat any

$_ZN7KoStateC2EOS_ = comdat any

$_ZNSt6vectorI7SGFTreeSaIS0_EEC2EOS2_ = comdat any

$_ZNSt8multimapINSt7__cxx1112basic_stringIcSt11char_traitsIcESaIcEEES5_St4lessIS5_ESaISt4pairIKS5_S5_EEEC2EOSC_ = comdat any

$_ZN9FastStateC2EOS_ = comdat any

$_ZNSt6vectorIySaIyEEC2EOS1_ = comdat any

$_ZN9FullBoardC2EOS_ = comdat any

$_ZN9FastBoardC2EOS_ = comdat any

$_ZNSt6vectorIiSaIiEEC2EOS1_ = comdat any

$_ZNSt12_Vector_baseIiSaIiEEC2EOS1_ = comdat any

$_ZNSt12_Vector_baseIiSaIiEE12_Vector_implC2EOS2_ = comdat any

$_ZSt4moveIRNSt12_Vector_baseIiSaIiEE12_Vector_implEEONSt16remove_referenceIT_E4typeEOS6_ = comdat any

$_ZNSt12_Vector_baseIiSaIiEE17_Vector_impl_dataC2EOS2_ = comdat any

$_ZN9__gnu_cxx13new_allocatorIiEC2ERKS1_ = comdat any

$_ZNSt12_Vector_baseIySaIyEEC2EOS1_ = comdat any

$_ZNSt12_Vector_baseIySaIyEE12_Vector_implC2EOS2_ = comdat any

$_ZSt4moveIRNSt12_Vector_baseIySaIyEE12_Vector_implEEONSt16remove_referenceIT_E4typeEOS6_ = comdat any

$_ZNSt12_Vector_baseIySaIyEE17_Vector_impl_dataC2EOS2_ = comdat any

$_ZN9__gnu_cxx13new_allocatorIyEC2ERKS1_ = comdat any

$_ZNSt12_Vector_baseI7SGFTreeSaIS0_EEC2EOS2_ = comdat any

$_ZNSt12_Vector_baseI7SGFTreeSaIS0_EE12_Vector_implC2EOS3_ = comdat any

$_ZSt4moveIRNSt12_Vector_baseI7SGFTreeSaIS1_EE12_Vector_implEEONSt16remove_referenceIT_E4typeEOS7_ = comdat any

$_ZNSt12_Vector_baseI7SGFTreeSaIS0_EE17_Vector_impl_dataC2EOS3_ = comdat any

$_ZN9__gnu_cxx13new_allocatorI7SGFTreeEC2ERKS2_ = comdat any

$_ZNSt8_Rb_treeINSt7__cxx1112basic_stringIcSt11char_traitsIcESaIcEEESt4pairIKS5_S5_ESt10_Select1stIS8_ESt4lessIS5_ESaIS8_EEC2EOSE_ = comdat any

$_ZNSt8_Rb_treeINSt7__cxx1112basic_stringIcSt11char_traitsIcESaIcEEESt4pairIKS5_S5_ESt10_Select1stIS8_ESt4lessIS5_ESaIS8_EE13_Rb_tree_implISC_Lb1EEC2EOSG_ = comdat any

$_ZNSt20_Rb_tree_key_compareISt4lessINSt7__cxx1112basic_stringIcSt11char_traitsIcESaIcEEEEEC2EOS8_ = comdat any

$_ZNSt15_Rb_tree_headerC2EOS_ = comdat any

$_ZN9__gnu_cxx13new_allocatorISt13_Rb_tree_nodeISt4pairIKNSt7__cxx1112basic_stringIcSt11char_traitsIcESaIcEEES8_EEEC2ERKSC_ = comdat any

$_ZNSt15_Rb_tree_header12_M_move_dataERS_ = comdat any

$_ZN9__gnu_cxx13new_allocatorI7SGFTreeE7destroyIS1_EEvPT_ = comdat any

$_ZN7SGFTreeD2Ev = comdat any

$_ZNSt8multimapINSt7__cxx1112basic_stringIcSt11char_traitsIcESaIcEEES5_St4lessIS5_ESaISt4pairIKS5_S5_EEED2Ev = comdat any

$_ZNSt6vectorI7SGFTreeSaIS0_EED2Ev = comdat any

$_ZNSt8_Rb_treeINSt7__cxx1112basic_stringIcSt11char_traitsIcESaIcEEESt4pairIKS5_S5_ESt10_Select1stIS8_ESt4lessIS5_ESaIS8_EED2Ev = comdat any

$_ZNSt8_Rb_treeINSt7__cxx1112basic_stringIcSt11char_traitsIcESaIcEEESt4pairIKS5_S5_ESt10_Select1stIS8_ESt4lessIS5_ESaIS8_EE8_M_eraseEPSt13_Rb_tree_nodeIS8_E = comdat any

$_ZNSt8_Rb_treeINSt7__cxx1112basic_stringIcSt11char_traitsIcESaIcEEESt4pairIKS5_S5_ESt10_Select1stIS8_ESt4lessIS5_ESaIS8_EE13_Rb_tree_implISC_Lb1EED2Ev = comdat any

$_ZN9__gnu_cxx13new_allocatorISt13_Rb_tree_nodeISt4pairIKNSt7__cxx1112basic_stringIcSt11char_traitsIcESaIcEEES8_EEED2Ev = comdat any

$_ZSt8_DestroyIP7SGFTreeS0_EvT_S2_RSaIT0_E = comdat any

$_ZNSt12_Vector_baseI7SGFTreeSaIS0_EED2Ev = comdat any

$_ZSt8_DestroyIP7SGFTreeEvT_S2_ = comdat any

$_ZNSt12_Destroy_auxILb0EE9__destroyIP7SGFTreeEEvT_S4_ = comdat any

$_ZSt8_DestroyI7SGFTreeEvPT_ = comdat any

$_ZNSt12_Vector_baseI7SGFTreeSaIS0_EE12_Vector_implD2Ev = comdat any

$_ZN9__gnu_cxx13new_allocatorI7SGFTreeED2Ev = comdat any

$_ZNSt16allocator_traitsISaI7SGFTreeEE10deallocateERS1_PS0_m = comdat any

$_ZN9__gnu_cxx13new_allocatorI7SGFTreeE10deallocateEPS1_m = comdat any

$_ZNSt16allocator_traitsISaI7SGFTreeEE9constructIS0_JRKS0_EEEvRS1_PT_DpOT0_ = comdat any

$_ZNSt6vectorI7SGFTreeSaIS0_EE17_M_realloc_insertIJRKS0_EEEvN9__gnu_cxx17__normal_iteratorIPS0_S2_EEDpOT_ = comdat any

$_ZN9__gnu_cxx13new_allocatorI7SGFTreeE9constructIS1_JRKS1_EEEvPT_DpOT0_ = comdat any

$_ZSt7forwardIRK7SGFTreeEOT_RNSt16remove_referenceIS3_E4typeE = comdat any

$_ZN7SGFTreeC2ERKS_ = comdat any

$_ZN7KoStateC2ERKS_ = comdat any

$_ZNSt6vectorI7SGFTreeSaIS0_EEC2ERKS2_ = comdat any

$_ZNSt8multimapINSt7__cxx1112basic_stringIcSt11char_traitsIcESaIcEEES5_St4lessIS5_ESaISt4pairIKS5_S5_EEEC2ERKSC_ = comdat any

$_ZN9FastStateC2ERKS_ = comdat any

$_ZNSt6vectorIySaIyEEC2ERKS1_ = comdat any

$_ZN9FullBoardC2ERKS_ = comdat any

$_ZN9FastBoardC2ERKS_ = comdat any

$_ZNSt6vectorIiSaIiEEC2ERKS1_ = comdat any

$_ZN9__gnu_cxx14__alloc_traitsISaIiEiE17_S_select_on_copyERKS1_ = comdat any

$_ZNKSt12_Vector_baseIiSaIiEE19_M_get_Tp_allocatorEv = comdat any

$_ZNSt12_Vector_baseIiSaIiEEC2EmRKS0_ = comdat any

$_ZNSaIiED2Ev = comdat any

$_ZNSt16allocator_traitsISaIiEE37select_on_container_copy_constructionERKS0_ = comdat any

$_ZNSaIiEC2ERKS_ = comdat any

$_ZNSt12_Vector_baseIiSaIiEE12_Vector_implC2ERKS0_ = comdat any

$_ZNSt12_Vector_baseIiSaIiEE17_M_create_storageEm = comdat any

$_ZN9__gnu_cxx14__alloc_traitsISaIyEyE17_S_select_on_copyERKS1_ = comdat any

$_ZNKSt12_Vector_baseIySaIyEE19_M_get_Tp_allocatorEv = comdat any

$_ZNSt12_Vector_baseIySaIyEEC2EmRKS0_ = comdat any

$_ZNSaIyED2Ev = comdat any

$_ZNSt16allocator_traitsISaIyEE37select_on_container_copy_constructionERKS0_ = comdat any

$_ZNSaIyEC2ERKS_ = comdat any

$_ZNSt12_Vector_baseIySaIyEE12_Vector_implC2ERKS0_ = comdat any

$_ZNSt12_Vector_baseIySaIyEE17_M_create_storageEm = comdat any

$_ZN9__gnu_cxx14__alloc_traitsISaI7SGFTreeES1_E17_S_select_on_copyERKS2_ = comdat any

$_ZNSt12_Vector_baseI7SGFTreeSaIS0_EEC2EmRKS1_ = comdat any

$_ZNSaI7SGFTreeED2Ev = comdat any

$_ZSt22__uninitialized_copy_aIN9__gnu_cxx17__normal_iteratorIPK7SGFTreeSt6vectorIS2_SaIS2_EEEEPS2_S2_ET0_T_SB_SA_RSaIT1_E = comdat any

$_ZNKSt6vectorI7SGFTreeSaIS0_EE5beginEv = comdat any

$_ZNKSt6vectorI7SGFTreeSaIS0_EE3endEv = comdat any

$_ZNSt16allocator_traitsISaI7SGFTreeEE37select_on_container_copy_constructionERKS1_ = comdat any

$_ZNSaI7SGFTreeEC2ERKS0_ = comdat any

$_ZNSt12_Vector_baseI7SGFTreeSaIS0_EE12_Vector_implC2ERKS1_ = comdat any

$_ZNSt12_Vector_baseI7SGFTreeSaIS0_EE17_M_create_storageEm = comdat any

$_ZSt18uninitialized_copyIN9__gnu_cxx17__normal_iteratorIPK7SGFTreeSt6vectorIS2_SaIS2_EEEEPS2_ET0_T_SB_SA_ = comdat any

$_ZNSt20__uninitialized_copyILb0EE13__uninit_copyIN9__gnu_cxx17__normal_iteratorIPK7SGFTreeSt6vectorIS4_SaIS4_EEEEPS4_EET0_T_SD_SC_ = comdat any

$_ZN9__gnu_cxxneIPK7SGFTreeSt6vectorIS1_SaIS1_EEEEbRKNS_17__normal_iteratorIT_T0_EESC_ = comdat any

$_ZSt10_ConstructI7SGFTreeJRKS0_EEvPT_DpOT0_ = comdat any

$_ZNK9__gnu_cxx17__normal_iteratorIPK7SGFTreeSt6vectorIS1_SaIS1_EEEdeEv = comdat any

$_ZN9__gnu_cxx17__normal_iteratorIPK7SGFTreeSt6vectorIS1_SaIS1_EEEppEv = comdat any

$_ZNK9__gnu_cxx17__normal_iteratorIPK7SGFTreeSt6vectorIS1_SaIS1_EEE4baseEv = comdat any

$_ZN9__gnu_cxx17__normal_iteratorIPK7SGFTreeSt6vectorIS1_SaIS1_EEEC2ERKS3_ = comdat any

$_ZNSt8_Rb_treeINSt7__cxx1112basic_stringIcSt11char_traitsIcESaIcEEESt4pairIKS5_S5_ESt10_Select1stIS8_ESt4lessIS5_ESaIS8_EEC2ERKSE_ = comdat any

$_ZNSt8_Rb_treeINSt7__cxx1112basic_stringIcSt11char_traitsIcESaIcEEESt4pairIKS5_S5_ESt10_Select1stIS8_ESt4lessIS5_ESaIS8_EE13_Rb_tree_implISC_Lb1EEC2ERKSG_ = comdat any

$_ZNKSt8_Rb_treeINSt7__cxx1112basic_stringIcSt11char_traitsIcESaIcEEESt4pairIKS5_S5_ESt10_Select1stIS8_ESt4lessIS5_ESaIS8_EE7_M_rootEv = comdat any

$_ZNSt8_Rb_treeINSt7__cxx1112basic_stringIcSt11char_traitsIcESaIcEEESt4pairIKS5_S5_ESt10_Select1stIS8_ESt4lessIS5_ESaIS8_EE7_M_copyERKSE_ = comdat any

$_ZNSt8_Rb_treeINSt7__cxx1112basic_stringIcSt11char_traitsIcESaIcEEESt4pairIKS5_S5_ESt10_Select1stIS8_ESt4lessIS5_ESaIS8_EE7_M_rootEv = comdat any

$_ZN9__gnu_cxx14__alloc_traitsISaISt13_Rb_tree_nodeISt4pairIKNSt7__cxx1112basic_stringIcSt11char_traitsIcESaIcEEES8_EEESB_E17_S_select_on_copyERKSC_ = comdat any

$_ZNSaISt13_Rb_tree_nodeISt4pairIKNSt7__cxx1112basic_stringIcSt11char_traitsIcESaIcEEES6_EEED2Ev = comdat any

$_ZNSt20_Rb_tree_key_compareISt4lessINSt7__cxx1112basic_stringIcSt11char_traitsIcESaIcEEEEEC2ERKS7_ = comdat any

$_ZNSt16allocator_traitsISaISt13_Rb_tree_nodeISt4pairIKNSt7__cxx1112basic_stringIcSt11char_traitsIcESaIcEEES7_EEEE37select_on_container_copy_constructionERKSB_ = comdat any

$_ZNSaISt13_Rb_tree_nodeISt4pairIKNSt7__cxx1112basic_stringIcSt11char_traitsIcESaIcEEES6_EEEC2ERKSA_ = comdat any

$_ZNSt8_Rb_treeINSt7__cxx1112basic_stringIcSt11char_traitsIcESaIcEEESt4pairIKS5_S5_ESt10_Select1stIS8_ESt4lessIS5_ESaIS8_EE11_Alloc_nodeC2ERSE_ = comdat any

$_ZNSt8_Rb_treeINSt7__cxx1112basic_stringIcSt11char_traitsIcESaIcEEESt4pairIKS5_S5_ESt10_Select1stIS8_ESt4lessIS5_ESaIS8_EE7_M_copyINSE_11_Alloc_nodeEEEPSt13_Rb_tree_nodeIS8_ERKSE_RT_ = comdat any

$_ZNSt8_Rb_treeINSt7__cxx1112basic_stringIcSt11char_traitsIcESaIcEEESt4pairIKS5_S5_ESt10_Select1stIS8_ESt4lessIS5_ESaIS8_EE7_M_copyINSE_11_Alloc_nodeEEEPSt13_Rb_tree_nodeIS8_EPKSI_PSt18_Rb_tree_node_baseRT_ = comdat any

$_ZNKSt8_Rb_treeINSt7__cxx1112basic_stringIcSt11char_traitsIcESaIcEEESt4pairIKS5_S5_ESt10_Select1stIS8_ESt4lessIS5_ESaIS8_EE8_M_beginEv = comdat any

$_ZNSt8_Rb_treeINSt7__cxx1112basic_stringIcSt11char_traitsIcESaIcEEESt4pairIKS5_S5_ESt10_Select1stIS8_ESt4lessIS5_ESaIS8_EE10_S_minimumEPSt18_Rb_tree_node_base = comdat any

$_ZNSt8_Rb_treeINSt7__cxx1112basic_stringIcSt11char_traitsIcESaIcEEESt4pairIKS5_S5_ESt10_Select1stIS8_ESt4lessIS5_ESaIS8_EE11_M_leftmostEv = comdat any

$_ZNSt8_Rb_treeINSt7__cxx1112basic_stringIcSt11char_traitsIcESaIcEEESt4pairIKS5_S5_ESt10_Select1stIS8_ESt4lessIS5_ESaIS8_EE10_S_maximumEPSt18_Rb_tree_node_base = comdat any

$_ZNSt8_Rb_treeINSt7__cxx1112basic_stringIcSt11char_traitsIcESaIcEEESt4pairIKS5_S5_ESt10_Select1stIS8_ESt4lessIS5_ESaIS8_EE12_M_rightmostEv = comdat any

$_ZNSt8_Rb_treeINSt7__cxx1112basic_stringIcSt11char_traitsIcESaIcEEESt4pairIKS5_S5_ESt10_Select1stIS8_ESt4lessIS5_ESaIS8_EE13_M_clone_nodeINSE_11_Alloc_nodeEEEPSt13_Rb_tree_nodeIS8_EPKSI_RT_ = comdat any

$_ZNSt8_Rb_treeINSt7__cxx1112basic_stringIcSt11char_traitsIcESaIcEEESt4pairIKS5_S5_ESt10_Select1stIS8_ESt4lessIS5_ESaIS8_EE8_S_rightEPKSt18_Rb_tree_node_base = comdat any

$_ZNSt8_Rb_treeINSt7__cxx1112basic_stringIcSt11char_traitsIcESaIcEEESt4pairIKS5_S5_ESt10_Select1stIS8_ESt4lessIS5_ESaIS8_EE7_S_leftEPKSt18_Rb_tree_node_base = comdat any

$_ZNKSt8_Rb_treeINSt7__cxx1112basic_stringIcSt11char_traitsIcESaIcEEESt4pairIKS5_S5_ESt10_Select1stIS8_ESt4lessIS5_ESaIS8_EE11_Alloc_nodeclIRKS8_EEPSt13_Rb_tree_nodeIS8_EOT_ = comdat any

$_ZNSt8_Rb_treeINSt7__cxx1112basic_stringIcSt11char_traitsIcESaIcEEESt4pairIKS5_S5_ESt10_Select1stIS8_ESt4lessIS5_ESaIS8_EE14_M_create_nodeIJRKS8_EEEPSt13_Rb_tree_nodeIS8_EDpOT_ = comdat any

$_ZSt7forwardIRKSt4pairIKNSt7__cxx1112basic_stringIcSt11char_traitsIcESaIcEEES6_EEOT_RNSt16remove_referenceISB_E4typeE = comdat any

$_ZNSt8_Rb_treeINSt7__cxx1112basic_stringIcSt11char_traitsIcESaIcEEESt4pairIKS5_S5_ESt10_Select1stIS8_ESt4lessIS5_ESaIS8_EE17_M_construct_nodeIJRKS8_EEEvPSt13_Rb_tree_nodeIS8_EDpOT_ = comdat any

$_ZNSt16allocator_traitsISaISt13_Rb_tree_nodeISt4pairIKNSt7__cxx1112basic_stringIcSt11char_traitsIcESaIcEEES7_EEEE9constructIS9_JRKS9_EEEvRSB_PT_DpOT0_ = comdat any

$_ZN9__gnu_cxx13new_allocatorISt13_Rb_tree_nodeISt4pairIKNSt7__cxx1112basic_stringIcSt11char_traitsIcESaIcEEES8_EEE9constructISA_JRKSA_EEEvPT_DpOT0_ = comdat any

$_ZNSt4pairIKNSt7__cxx1112basic_stringIcSt11char_traitsIcESaIcEEES5_EC2ERKS7_ = comdat any

$_ZNSt18_Rb_tree_node_base10_S_minimumEPS_ = comdat any

$_ZNSt18_Rb_tree_node_base10_S_maximumEPS_ = comdat any

$_ZNKSt6vectorI7SGFTreeSaIS0_EE12_M_check_lenEmPKc = comdat any

$_ZN9__gnu_cxxmiIP7SGFTreeSt6vectorIS1_SaIS1_EEEENS_17__normal_iteratorIT_T0_E15difference_typeERKS9_SC_ = comdat any

$_ZSt3maxImERKT_S2_S2_ = comdat any

$_ZNK9__gnu_cxx17__normal_iteratorIP7SGFTreeSt6vectorIS1_SaIS1_EEEmiEl = comdat any

$_ZNK9__gnu_cxx17__normal_iteratorIP7SGFTreeSt6vectorIS1_SaIS1_EEEdeEv = comdat any

@_ZStL8__ioinit = internal global %"class.std::ios_base::Init" zeroinitializer, align 1, !dbg !0
@__dso_handle = external hidden global i8
@_ZTISt9exception = external dso_local constant i8*
@.str = private unnamed_addr constant [3 x i8] c"GM\00", align 1
@.str.1 = private unnamed_addr constant [2 x i8] c"1\00", align 1
@.str.2 = private unnamed_addr constant [3 x i8] c"SZ\00", align 1
@.str.3 = private unnamed_addr constant [3 x i8] c"KM\00", align 1
@.str.4 = private unnamed_addr constant [3 x i8] c"AB\00", align 1
@.str.5 = private unnamed_addr constant [3 x i8] c"AW\00", align 1
@.str.6 = private unnamed_addr constant [3 x i8] c"PL\00", align 1
@.str.7 = private unnamed_addr constant [2 x i8] c"W\00", align 1
@.str.8 = private unnamed_addr constant [2 x i8] c"B\00", align 1
@.str.9 = private unnamed_addr constant [3 x i8] c"tt\00", align 1
@_ZTVSt9exception = external dso_local unnamed_addr constant { [5 x i8*] }, align 8
@.str.10 = private unnamed_addr constant [16 x i8] c"vector::reserve\00", align 1
@.str.11 = private unnamed_addr constant [26 x i8] c"vector::_M_realloc_insert\00", align 1
@llvm.global_ctors = appending global [1 x { i32, void ()*, i8* }] [{ i32, void ()*, i8* } { i32 65535, void ()* @_GLOBAL__sub_I_SGFTree.cpp, i8* null }]

@_ZN7SGFTreeC1Ev = dso_local unnamed_addr alias void (%class.SGFTree*), void (%class.SGFTree*)* @_ZN7SGFTreeC2Ev

; Function Attrs: noinline uwtable
define internal void @__cxx_global_var_init() #0 section ".text.startup" !dbg !5239 {
entry:
  call void @_ZNSt8ios_base4InitC1Ev(%"class.std::ios_base::Init"* @_ZStL8__ioinit), !dbg !5240
  %0 = call i32 @__cxa_atexit(void (i8*)* bitcast (void (%"class.std::ios_base::Init"*)* @_ZNSt8ios_base4InitD1Ev to void (i8*)*), i8* getelementptr inbounds (%"class.std::ios_base::Init", %"class.std::ios_base::Init"* @_ZStL8__ioinit, i32 0, i32 0), i8* @__dso_handle) #3, !dbg !5240
  ret void, !dbg !5240
}

declare dso_local void @_ZNSt8ios_base4InitC1Ev(%"class.std::ios_base::Init"*) unnamed_addr #1

; Function Attrs: nounwind
declare dso_local void @_ZNSt8ios_base4InitD1Ev(%"class.std::ios_base::Init"*) unnamed_addr #2

; Function Attrs: nounwind
declare dso_local i32 @__cxa_atexit(void (i8*)*, i8*, i8*) #3

; Function Attrs: noinline uwtable
define dso_local void @_ZN7SGFTreeC2Ev(%class.SGFTree* %this) unnamed_addr #0 align 2 !dbg !5241 {
entry:
  %this.addr = alloca %class.SGFTree*, align 8
  store %class.SGFTree* %this, %class.SGFTree** %this.addr, align 8
  call void @llvm.dbg.declare(metadata %class.SGFTree** %this.addr, metadata !5242, metadata !DIExpression()), !dbg !5243
  %this1 = load %class.SGFTree*, %class.SGFTree** %this.addr, align 8
  %m_state = getelementptr inbounds %class.SGFTree, %class.SGFTree* %this1, i32 0, i32 0, !dbg !5244
  call void @_ZN7KoStateC2Ev(%class.KoState* %m_state), !dbg !5244
  %m_children = getelementptr inbounds %class.SGFTree, %class.SGFTree* %this1, i32 0, i32 1, !dbg !5244
  call void @_ZNSt6vectorI7SGFTreeSaIS0_EEC2Ev(%"class.std::vector.12"* %m_children) #3, !dbg !5244
  %m_properties = getelementptr inbounds %class.SGFTree, %class.SGFTree* %this1, i32 0, i32 2, !dbg !5244
  call void @_ZNSt8multimapINSt7__cxx1112basic_stringIcSt11char_traitsIcESaIcEEES5_St4lessIS5_ESaISt4pairIKS5_S5_EEEC2Ev(%"class.std::multimap"* %m_properties) #3, !dbg !5244
  ret void, !dbg !5245
}

; Function Attrs: nounwind readnone speculatable willreturn
declare void @llvm.dbg.declare(metadata, metadata, metadata) #4

; Function Attrs: noinline uwtable
define linkonce_odr dso_local void @_ZN7KoStateC2Ev(%class.KoState* %this) unnamed_addr #0 comdat align 2 !dbg !5246 {
entry:
  %this.addr = alloca %class.KoState*, align 8
  store %class.KoState* %this, %class.KoState** %this.addr, align 8
  call void @llvm.dbg.declare(metadata %class.KoState** %this.addr, metadata !5248, metadata !DIExpression()), !dbg !5249
  %this1 = load %class.KoState*, %class.KoState** %this.addr, align 8
  %0 = bitcast %class.KoState* %this1 to %class.FastState*, !dbg !5250
  call void @_ZN9FastStateC2Ev(%class.FastState* %0), !dbg !5250
  %ko_hash_history = getelementptr inbounds %class.KoState, %class.KoState* %this1, i32 0, i32 1, !dbg !5250
  call void @_ZNSt6vectorIySaIyEEC2Ev(%"class.std::vector.7"* %ko_hash_history) #3, !dbg !5250
  %hash_history = getelementptr inbounds %class.KoState, %class.KoState* %this1, i32 0, i32 2, !dbg !5250
  call void @_ZNSt6vectorIySaIyEEC2Ev(%"class.std::vector.7"* %hash_history) #3, !dbg !5250
  ret void, !dbg !5250
}

; Function Attrs: noinline nounwind uwtable
define linkonce_odr dso_local void @_ZNSt6vectorI7SGFTreeSaIS0_EEC2Ev(%"class.std::vector.12"* %this) unnamed_addr #5 comdat align 2 !dbg !5251 {
entry:
  %this.addr = alloca %"class.std::vector.12"*, align 8
  store %"class.std::vector.12"* %this, %"class.std::vector.12"** %this.addr, align 8
  call void @llvm.dbg.declare(metadata %"class.std::vector.12"** %this.addr, metadata !5252, metadata !DIExpression()), !dbg !5254
  %this1 = load %"class.std::vector.12"*, %"class.std::vector.12"** %this.addr, align 8
  %0 = bitcast %"class.std::vector.12"* %this1 to %"struct.std::_Vector_base.13"*, !dbg !5255
  call void @_ZNSt12_Vector_baseI7SGFTreeSaIS0_EEC2Ev(%"struct.std::_Vector_base.13"* %0) #3, !dbg !5256
  ret void, !dbg !5255
}

; Function Attrs: noinline nounwind uwtable
define linkonce_odr dso_local void @_ZNSt8multimapINSt7__cxx1112basic_stringIcSt11char_traitsIcESaIcEEES5_St4lessIS5_ESaISt4pairIKS5_S5_EEEC2Ev(%"class.std::multimap"* %this) unnamed_addr #5 comdat align 2 !dbg !5257 {
entry:
  %this.addr = alloca %"class.std::multimap"*, align 8
  store %"class.std::multimap"* %this, %"class.std::multimap"** %this.addr, align 8
  call void @llvm.dbg.declare(metadata %"class.std::multimap"** %this.addr, metadata !5258, metadata !DIExpression()), !dbg !5260
  %this1 = load %"class.std::multimap"*, %"class.std::multimap"** %this.addr, align 8
  %_M_t = getelementptr inbounds %"class.std::multimap", %"class.std::multimap"* %this1, i32 0, i32 0, !dbg !5261
  call void @_ZNSt8_Rb_treeINSt7__cxx1112basic_stringIcSt11char_traitsIcESaIcEEESt4pairIKS5_S5_ESt10_Select1stIS8_ESt4lessIS5_ESaIS8_EEC2Ev(%"class.std::_Rb_tree"* %_M_t) #3, !dbg !5261
  ret void, !dbg !5262
}

; Function Attrs: noinline nounwind uwtable
define dso_local %class.KoState* @_ZN7SGFTree9get_stateEv(%class.SGFTree* %this) #5 align 2 !dbg !5263 {
entry:
  %this.addr = alloca %class.SGFTree*, align 8
  store %class.SGFTree* %this, %class.SGFTree** %this.addr, align 8
  call void @llvm.dbg.declare(metadata %class.SGFTree** %this.addr, metadata !5264, metadata !DIExpression()), !dbg !5265
  %this1 = load %class.SGFTree*, %class.SGFTree** %this.addr, align 8
  %m_state = getelementptr inbounds %class.SGFTree, %class.SGFTree* %this1, i32 0, i32 0, !dbg !5266
  ret %class.KoState* %m_state, !dbg !5267
}

; Function Attrs: noinline nounwind uwtable
define dso_local %class.SGFTree* @_ZN7SGFTree9get_childEj(%class.SGFTree* %this, i32 %count) #5 align 2 !dbg !5268 {
entry:
  %retval = alloca %class.SGFTree*, align 8
  %this.addr = alloca %class.SGFTree*, align 8
  %count.addr = alloca i32, align 4
  store %class.SGFTree* %this, %class.SGFTree** %this.addr, align 8
  call void @llvm.dbg.declare(metadata %class.SGFTree** %this.addr, metadata !5269, metadata !DIExpression()), !dbg !5270
  store i32 %count, i32* %count.addr, align 4
  call void @llvm.dbg.declare(metadata i32* %count.addr, metadata !5271, metadata !DIExpression()), !dbg !5272
  %this1 = load %class.SGFTree*, %class.SGFTree** %this.addr, align 8
  %0 = load i32, i32* %count.addr, align 4, !dbg !5273
  %conv = zext i32 %0 to i64, !dbg !5273
  %m_children = getelementptr inbounds %class.SGFTree, %class.SGFTree* %this1, i32 0, i32 1, !dbg !5275
  %call = call i64 @_ZNKSt6vectorI7SGFTreeSaIS0_EE4sizeEv(%"class.std::vector.12"* %m_children) #3, !dbg !5276
  %cmp = icmp ult i64 %conv, %call, !dbg !5277
  br i1 %cmp, label %if.then, label %if.else, !dbg !5278

if.then:                                          ; preds = %entry
  %m_children2 = getelementptr inbounds %class.SGFTree, %class.SGFTree* %this1, i32 0, i32 1, !dbg !5279
  %1 = load i32, i32* %count.addr, align 4, !dbg !5281
  %conv3 = zext i32 %1 to i64, !dbg !5281
  %call4 = call dereferenceable(8512) %class.SGFTree* @_ZNSt6vectorI7SGFTreeSaIS0_EEixEm(%"class.std::vector.12"* %m_children2, i64 %conv3) #3, !dbg !5279
  store %class.SGFTree* %call4, %class.SGFTree** %retval, align 8, !dbg !5282
  br label %return, !dbg !5282

if.else:                                          ; preds = %entry
  store %class.SGFTree* null, %class.SGFTree** %retval, align 8, !dbg !5283
  br label %return, !dbg !5283

return:                                           ; preds = %if.else, %if.then
  %2 = load %class.SGFTree*, %class.SGFTree** %retval, align 8, !dbg !5285
  ret %class.SGFTree* %2, !dbg !5285
}

; Function Attrs: noinline nounwind uwtable
define linkonce_odr dso_local i64 @_ZNKSt6vectorI7SGFTreeSaIS0_EE4sizeEv(%"class.std::vector.12"* %this) #5 comdat align 2 !dbg !5286 {
entry:
  %this.addr = alloca %"class.std::vector.12"*, align 8
  store %"class.std::vector.12"* %this, %"class.std::vector.12"** %this.addr, align 8
  call void @llvm.dbg.declare(metadata %"class.std::vector.12"** %this.addr, metadata !5287, metadata !DIExpression()), !dbg !5289
  %this1 = load %"class.std::vector.12"*, %"class.std::vector.12"** %this.addr, align 8
  %0 = bitcast %"class.std::vector.12"* %this1 to %"struct.std::_Vector_base.13"*, !dbg !5290
  %_M_impl = getelementptr inbounds %"struct.std::_Vector_base.13", %"struct.std::_Vector_base.13"* %0, i32 0, i32 0, !dbg !5290
  %1 = bitcast %"struct.std::_Vector_base<SGFTree, std::allocator<SGFTree> >::_Vector_impl"* %_M_impl to %"struct.std::_Vector_base<SGFTree, std::allocator<SGFTree> >::_Vector_impl_data"*, !dbg !5291
  %_M_finish = getelementptr inbounds %"struct.std::_Vector_base<SGFTree, std::allocator<SGFTree> >::_Vector_impl_data", %"struct.std::_Vector_base<SGFTree, std::allocator<SGFTree> >::_Vector_impl_data"* %1, i32 0, i32 1, !dbg !5292
  %2 = load %class.SGFTree*, %class.SGFTree** %_M_finish, align 8, !dbg !5292
  %3 = bitcast %"class.std::vector.12"* %this1 to %"struct.std::_Vector_base.13"*, !dbg !5293
  %_M_impl2 = getelementptr inbounds %"struct.std::_Vector_base.13", %"struct.std::_Vector_base.13"* %3, i32 0, i32 0, !dbg !5293
  %4 = bitcast %"struct.std::_Vector_base<SGFTree, std::allocator<SGFTree> >::_Vector_impl"* %_M_impl2 to %"struct.std::_Vector_base<SGFTree, std::allocator<SGFTree> >::_Vector_impl_data"*, !dbg !5294
  %_M_start = getelementptr inbounds %"struct.std::_Vector_base<SGFTree, std::allocator<SGFTree> >::_Vector_impl_data", %"struct.std::_Vector_base<SGFTree, std::allocator<SGFTree> >::_Vector_impl_data"* %4, i32 0, i32 0, !dbg !5295
  %5 = load %class.SGFTree*, %class.SGFTree** %_M_start, align 8, !dbg !5295
  %sub.ptr.lhs.cast = ptrtoint %class.SGFTree* %2 to i64, !dbg !5296
  %sub.ptr.rhs.cast = ptrtoint %class.SGFTree* %5 to i64, !dbg !5296
  %sub.ptr.sub = sub i64 %sub.ptr.lhs.cast, %sub.ptr.rhs.cast, !dbg !5296
  %sub.ptr.div = sdiv exact i64 %sub.ptr.sub, 8512, !dbg !5296
  ret i64 %sub.ptr.div, !dbg !5297
}

; Function Attrs: noinline nounwind uwtable
define linkonce_odr dso_local dereferenceable(8512) %class.SGFTree* @_ZNSt6vectorI7SGFTreeSaIS0_EEixEm(%"class.std::vector.12"* %this, i64 %__n) #5 comdat align 2 !dbg !5298 {
entry:
  %this.addr = alloca %"class.std::vector.12"*, align 8
  %__n.addr = alloca i64, align 8
  store %"class.std::vector.12"* %this, %"class.std::vector.12"** %this.addr, align 8
  call void @llvm.dbg.declare(metadata %"class.std::vector.12"** %this.addr, metadata !5299, metadata !DIExpression()), !dbg !5300
  store i64 %__n, i64* %__n.addr, align 8
  call void @llvm.dbg.declare(metadata i64* %__n.addr, metadata !5301, metadata !DIExpression()), !dbg !5302
  %this1 = load %"class.std::vector.12"*, %"class.std::vector.12"** %this.addr, align 8
  %0 = bitcast %"class.std::vector.12"* %this1 to %"struct.std::_Vector_base.13"*, !dbg !5303
  %_M_impl = getelementptr inbounds %"struct.std::_Vector_base.13", %"struct.std::_Vector_base.13"* %0, i32 0, i32 0, !dbg !5303
  %1 = bitcast %"struct.std::_Vector_base<SGFTree, std::allocator<SGFTree> >::_Vector_impl"* %_M_impl to %"struct.std::_Vector_base<SGFTree, std::allocator<SGFTree> >::_Vector_impl_data"*, !dbg !5304
  %_M_start = getelementptr inbounds %"struct.std::_Vector_base<SGFTree, std::allocator<SGFTree> >::_Vector_impl_data", %"struct.std::_Vector_base<SGFTree, std::allocator<SGFTree> >::_Vector_impl_data"* %1, i32 0, i32 0, !dbg !5305
  %2 = load %class.SGFTree*, %class.SGFTree** %_M_start, align 8, !dbg !5305
  %3 = load i64, i64* %__n.addr, align 8, !dbg !5306
  %add.ptr = getelementptr inbounds %class.SGFTree, %class.SGFTree* %2, i64 %3, !dbg !5307
  ret %class.SGFTree* %add.ptr, !dbg !5308
}

; Function Attrs: noinline uwtable
define dso_local void @_ZN7SGFTree12get_mainlineEj(%class.GameState* noalias sret %agg.result, %class.SGFTree* %this, i32 %movenum) #0 align 2 personality i8* bitcast (i32 (...)* @__gxx_personality_v0 to i8*) !dbg !5309 {
entry:
  %result.ptr = alloca i8*, align 8
  %this.addr = alloca %class.SGFTree*, align 8
  %movenum.addr = alloca i32, align 4
  %nrvo = alloca i1, align 1
  %link = alloca %class.SGFTree*, align 8
  %helper = alloca %class.KoState*, align 8
  %exn.slot = alloca i8*
  %ehselector.slot = alloca i32
  %tomove = alloca i32, align 4
  %i = alloca i32, align 4
  %move = alloca i32, align 4
  %0 = bitcast %class.GameState* %agg.result to i8*
  store i8* %0, i8** %result.ptr, align 8
  store %class.SGFTree* %this, %class.SGFTree** %this.addr, align 8
  call void @llvm.dbg.declare(metadata %class.SGFTree** %this.addr, metadata !5310, metadata !DIExpression()), !dbg !5311
  store i32 %movenum, i32* %movenum.addr, align 4
  call void @llvm.dbg.declare(metadata i32* %movenum.addr, metadata !5312, metadata !DIExpression()), !dbg !5313
  %this1 = load %class.SGFTree*, %class.SGFTree** %this.addr, align 8
  store i1 false, i1* %nrvo, align 1, !dbg !5314
  call void @llvm.dbg.declare(metadata i8** %result.ptr, metadata !5315, metadata !DIExpression(DW_OP_deref)), !dbg !5316
  call void @_ZN9GameStateC2Ev(%class.GameState* %agg.result), !dbg !5316
  call void @llvm.dbg.declare(metadata %class.SGFTree** %link, metadata !5317, metadata !DIExpression()), !dbg !5318
  store %class.SGFTree* %this1, %class.SGFTree** %link, align 8, !dbg !5318
  call void @llvm.dbg.declare(metadata %class.KoState** %helper, metadata !5319, metadata !DIExpression()), !dbg !5320
  %1 = bitcast %class.GameState* %agg.result to %class.KoState*, !dbg !5321
  store %class.KoState* %1, %class.KoState** %helper, align 8, !dbg !5320
  %call = invoke %class.KoState* @_ZN7SGFTree9get_stateEv(%class.SGFTree* %this1)
          to label %invoke.cont unwind label %lpad, !dbg !5322

invoke.cont:                                      ; preds = %entry
  %2 = load %class.KoState*, %class.KoState** %helper, align 8, !dbg !5323
  %call3 = invoke dereferenceable(8440) %class.KoState* @_ZN7KoStateaSERKS_(%class.KoState* %2, %class.KoState* dereferenceable(8440) %call)
          to label %invoke.cont2 unwind label %lpad, !dbg !5324

invoke.cont2:                                     ; preds = %invoke.cont
  invoke void @_ZN9GameState19anchor_game_historyEv(%class.GameState* %agg.result)
          to label %invoke.cont4 unwind label %lpad, !dbg !5325

invoke.cont4:                                     ; preds = %invoke.cont2
  call void @llvm.dbg.declare(metadata i32* %tomove, metadata !5326, metadata !DIExpression()), !dbg !5327
  %3 = bitcast %class.GameState* %agg.result to %class.FastState*, !dbg !5328
  %call6 = invoke i32 @_ZN9FastState11get_to_moveEv(%class.FastState* %3)
          to label %invoke.cont5 unwind label %lpad, !dbg !5329

invoke.cont5:                                     ; preds = %invoke.cont4
  store i32 %call6, i32* %tomove, align 4, !dbg !5327
  call void @llvm.dbg.declare(metadata i32* %i, metadata !5330, metadata !DIExpression()), !dbg !5332
  store i32 0, i32* %i, align 4, !dbg !5332
  br label %for.cond, !dbg !5333

for.cond:                                         ; preds = %for.inc, %invoke.cont5
  %4 = load i32, i32* %i, align 4, !dbg !5334
  %5 = load i32, i32* %movenum.addr, align 4, !dbg !5336
  %cmp = icmp ule i32 %4, %5, !dbg !5337
  br i1 %cmp, label %land.rhs, label %land.end, !dbg !5338

land.rhs:                                         ; preds = %for.cond
  %6 = load %class.SGFTree*, %class.SGFTree** %link, align 8, !dbg !5339
  %cmp7 = icmp ne %class.SGFTree* %6, null, !dbg !5340
  br label %land.end

land.end:                                         ; preds = %land.rhs, %for.cond
  %7 = phi i1 [ false, %for.cond ], [ %cmp7, %land.rhs ], !dbg !5341
  br i1 %7, label %for.body, label %for.end, !dbg !5342

for.body:                                         ; preds = %land.end
  %8 = load i32, i32* %i, align 4, !dbg !5343
  %cmp8 = icmp ne i32 %8, 0, !dbg !5346
  br i1 %cmp8, label %if.then, label %if.end14, !dbg !5347

if.then:                                          ; preds = %for.body
  call void @llvm.dbg.declare(metadata i32* %move, metadata !5348, metadata !DIExpression()), !dbg !5350
  %9 = load %class.SGFTree*, %class.SGFTree** %link, align 8, !dbg !5351
  %10 = load i32, i32* %tomove, align 4, !dbg !5352
  %call10 = invoke i32 @_ZN7SGFTree8get_moveEi(%class.SGFTree* %9, i32 %10)
          to label %invoke.cont9 unwind label %lpad, !dbg !5353

invoke.cont9:                                     ; preds = %if.then
  store i32 %call10, i32* %move, align 4, !dbg !5350
  %11 = load i32, i32* %move, align 4, !dbg !5354
  %cmp11 = icmp ne i32 %11, 0, !dbg !5356
  br i1 %cmp11, label %if.then12, label %if.end, !dbg !5357

if.then12:                                        ; preds = %invoke.cont9
  %12 = load i32, i32* %move, align 4, !dbg !5358
  invoke void @_ZN9GameState9play_moveEi(%class.GameState* %agg.result, i32 %12)
          to label %invoke.cont13 unwind label %lpad, !dbg !5360

invoke.cont13:                                    ; preds = %if.then12
  %13 = load i32, i32* %tomove, align 4, !dbg !5361
  %tobool = icmp ne i32 %13, 0, !dbg !5361
  %lnot = xor i1 %tobool, true, !dbg !5362
  %conv = zext i1 %lnot to i32, !dbg !5362
  store i32 %conv, i32* %tomove, align 4, !dbg !5363
  br label %if.end, !dbg !5364

lpad:                                             ; preds = %if.end14, %if.then12, %if.then, %invoke.cont4, %invoke.cont2, %invoke.cont, %entry
  %14 = landingpad { i8*, i32 }
          cleanup, !dbg !5365
  %15 = extractvalue { i8*, i32 } %14, 0, !dbg !5365
  store i8* %15, i8** %exn.slot, align 8, !dbg !5365
  %16 = extractvalue { i8*, i32 } %14, 1, !dbg !5365
  store i32 %16, i32* %ehselector.slot, align 4, !dbg !5365
  call void @_ZN9GameStateD2Ev(%class.GameState* %agg.result) #3, !dbg !5365
  br label %eh.resume, !dbg !5365

if.end:                                           ; preds = %invoke.cont13, %invoke.cont9
  br label %if.end14, !dbg !5366

if.end14:                                         ; preds = %if.end, %for.body
  %17 = load %class.SGFTree*, %class.SGFTree** %link, align 8, !dbg !5367
  %call16 = invoke %class.SGFTree* @_ZN7SGFTree9get_childEj(%class.SGFTree* %17, i32 0)
          to label %invoke.cont15 unwind label %lpad, !dbg !5368

invoke.cont15:                                    ; preds = %if.end14
  store %class.SGFTree* %call16, %class.SGFTree** %link, align 8, !dbg !5369
  br label %for.inc, !dbg !5370

for.inc:                                          ; preds = %invoke.cont15
  %18 = load i32, i32* %i, align 4, !dbg !5371
  %inc = add i32 %18, 1, !dbg !5371
  store i32 %inc, i32* %i, align 4, !dbg !5371
  br label %for.cond, !dbg !5372, !llvm.loop !5373

for.end:                                          ; preds = %land.end
  store i1 true, i1* %nrvo, align 1, !dbg !5375
  %nrvo.val = load i1, i1* %nrvo, align 1, !dbg !5365
  br i1 %nrvo.val, label %nrvo.skipdtor, label %nrvo.unused, !dbg !5365

nrvo.unused:                                      ; preds = %for.end
  call void @_ZN9GameStateD2Ev(%class.GameState* %agg.result) #3, !dbg !5365
  br label %nrvo.skipdtor, !dbg !5365

nrvo.skipdtor:                                    ; preds = %nrvo.unused, %for.end
  ret void, !dbg !5365

eh.resume:                                        ; preds = %lpad
  %exn = load i8*, i8** %exn.slot, align 8, !dbg !5365
  %sel = load i32, i32* %ehselector.slot, align 4, !dbg !5365
  %lpad.val = insertvalue { i8*, i32 } undef, i8* %exn, 0, !dbg !5365
  %lpad.val17 = insertvalue { i8*, i32 } %lpad.val, i32 %sel, 1, !dbg !5365
  resume { i8*, i32 } %lpad.val17, !dbg !5365
}

; Function Attrs: noinline uwtable
define linkonce_odr dso_local void @_ZN9GameStateC2Ev(%class.GameState* %this) unnamed_addr #0 comdat align 2 personality i8* bitcast (i32 (...)* @__gxx_personality_v0 to i8*) !dbg !5376 {
entry:
  %this.addr = alloca %class.GameState*, align 8
  %exn.slot = alloca i8*
  %ehselector.slot = alloca i32
  store %class.GameState* %this, %class.GameState** %this.addr, align 8
  call void @llvm.dbg.declare(metadata %class.GameState** %this.addr, metadata !5378, metadata !DIExpression()), !dbg !5380
  %this1 = load %class.GameState*, %class.GameState** %this.addr, align 8
  %0 = bitcast %class.GameState* %this1 to %class.KoState*, !dbg !5381
  call void @_ZN7KoStateC2Ev(%class.KoState* %0), !dbg !5381
  %game_history = getelementptr inbounds %class.GameState, %class.GameState* %this1, i32 0, i32 1, !dbg !5381
  call void @_ZNSt6vectorI7KoStateSaIS0_EEC2Ev(%"class.std::vector.20"* %game_history) #3, !dbg !5381
  %m_timecontrol = getelementptr inbounds %class.GameState, %class.GameState* %this1, i32 0, i32 2, !dbg !5381
  invoke void @_ZN11TimeControlC1Eiiii(%class.TimeControl* %m_timecontrol, i32 9, i32 30000, i32 0, i32 25)
          to label %invoke.cont unwind label %lpad, !dbg !5381

invoke.cont:                                      ; preds = %entry
  ret void, !dbg !5381

lpad:                                             ; preds = %entry
  %1 = landingpad { i8*, i32 }
          cleanup, !dbg !5381
  %2 = extractvalue { i8*, i32 } %1, 0, !dbg !5381
  store i8* %2, i8** %exn.slot, align 8, !dbg !5381
  %3 = extractvalue { i8*, i32 } %1, 1, !dbg !5381
  store i32 %3, i32* %ehselector.slot, align 4, !dbg !5381
  call void @_ZNSt6vectorI7KoStateSaIS0_EED2Ev(%"class.std::vector.20"* %game_history) #3, !dbg !5382
  %4 = bitcast %class.GameState* %this1 to %class.KoState*, !dbg !5382
  call void @_ZN7KoStateD2Ev(%class.KoState* %4) #3, !dbg !5382
  br label %eh.resume, !dbg !5382

eh.resume:                                        ; preds = %lpad
  %exn = load i8*, i8** %exn.slot, align 8, !dbg !5382
  %sel = load i32, i32* %ehselector.slot, align 4, !dbg !5382
  %lpad.val = insertvalue { i8*, i32 } undef, i8* %exn, 0, !dbg !5382
  %lpad.val2 = insertvalue { i8*, i32 } %lpad.val, i32 %sel, 1, !dbg !5382
  resume { i8*, i32 } %lpad.val2, !dbg !5382
}

declare dso_local i32 @__gxx_personality_v0(...)

; Function Attrs: noinline uwtable
define linkonce_odr dso_local dereferenceable(8440) %class.KoState* @_ZN7KoStateaSERKS_(%class.KoState* %this, %class.KoState* dereferenceable(8440) %0) #0 comdat align 2 !dbg !5384 {
entry:
  %this.addr = alloca %class.KoState*, align 8
  %.addr = alloca %class.KoState*, align 8
  store %class.KoState* %this, %class.KoState** %this.addr, align 8
  call void @llvm.dbg.declare(metadata %class.KoState** %this.addr, metadata !5388, metadata !DIExpression()), !dbg !5389
  store %class.KoState* %0, %class.KoState** %.addr, align 8
  call void @llvm.dbg.declare(metadata %class.KoState** %.addr, metadata !5390, metadata !DIExpression()), !dbg !5389
  %this1 = load %class.KoState*, %class.KoState** %this.addr, align 8
  %1 = bitcast %class.KoState* %this1 to %class.FastState*, !dbg !5391
  %2 = load %class.KoState*, %class.KoState** %.addr, align 8, !dbg !5391
  %3 = bitcast %class.KoState* %2 to %class.FastState*, !dbg !5391
  %call = call dereferenceable(8392) %class.FastState* @_ZN9FastStateaSERKS_(%class.FastState* %1, %class.FastState* dereferenceable(8392) %3), !dbg !5391
  %ko_hash_history = getelementptr inbounds %class.KoState, %class.KoState* %this1, i32 0, i32 1, !dbg !5391
  %4 = load %class.KoState*, %class.KoState** %.addr, align 8, !dbg !5391
  %ko_hash_history2 = getelementptr inbounds %class.KoState, %class.KoState* %4, i32 0, i32 1, !dbg !5391
  %call3 = call dereferenceable(24) %"class.std::vector.7"* @_ZNSt6vectorIySaIyEEaSERKS1_(%"class.std::vector.7"* %ko_hash_history, %"class.std::vector.7"* dereferenceable(24) %ko_hash_history2), !dbg !5391
  %hash_history = getelementptr inbounds %class.KoState, %class.KoState* %this1, i32 0, i32 2, !dbg !5391
  %5 = load %class.KoState*, %class.KoState** %.addr, align 8, !dbg !5391
  %hash_history4 = getelementptr inbounds %class.KoState, %class.KoState* %5, i32 0, i32 2, !dbg !5391
  %call5 = call dereferenceable(24) %"class.std::vector.7"* @_ZNSt6vectorIySaIyEEaSERKS1_(%"class.std::vector.7"* %hash_history, %"class.std::vector.7"* dereferenceable(24) %hash_history4), !dbg !5391
  ret %class.KoState* %this1, !dbg !5391
}

declare dso_local void @_ZN9GameState19anchor_game_historyEv(%class.GameState*) #1

declare dso_local i32 @_ZN9FastState11get_to_moveEv(%class.FastState*) #1

; Function Attrs: noinline uwtable
define dso_local i32 @_ZN7SGFTree8get_moveEi(%class.SGFTree* %this, i32 %tomove) #0 align 2 personality i8* bitcast (i32 (...)* @__gxx_personality_v0 to i8*) !dbg !5393 {
entry:
  %retval = alloca i32, align 4
  %this.addr = alloca %class.SGFTree*, align 8
  %tomove.addr = alloca i32, align 4
  %movestring = alloca %"class.std::__cxx11::basic_string", align 8
  %exn.slot = alloca i8*
  %ehselector.slot = alloca i32
  %it = alloca %"struct.std::_Rb_tree_iterator", align 8
  %ref.tmp = alloca %"struct.std::_Rb_tree_iterator", align 8
  %ref.tmp6 = alloca %"struct.std::_Rb_tree_iterator", align 8
  %movestring12 = alloca %"class.std::__cxx11::basic_string", align 8
  %agg.tmp = alloca %"class.std::__cxx11::basic_string", align 8
  %cleanup.dest.slot = alloca i32, align 4
  store %class.SGFTree* %this, %class.SGFTree** %this.addr, align 8
  call void @llvm.dbg.declare(metadata %class.SGFTree** %this.addr, metadata !5394, metadata !DIExpression()), !dbg !5395
  store i32 %tomove, i32* %tomove.addr, align 4
  call void @llvm.dbg.declare(metadata i32* %tomove.addr, metadata !5396, metadata !DIExpression()), !dbg !5397
  %this1 = load %class.SGFTree*, %class.SGFTree** %this.addr, align 8
  call void @llvm.dbg.declare(metadata %"class.std::__cxx11::basic_string"* %movestring, metadata !5398, metadata !DIExpression()), !dbg !5399
  call void @_ZNSt7__cxx1112basic_stringIcSt11char_traitsIcESaIcEEC1Ev(%"class.std::__cxx11::basic_string"* %movestring) #3, !dbg !5399
  %0 = load i32, i32* %tomove.addr, align 4, !dbg !5400
  %cmp = icmp eq i32 %0, 0, !dbg !5402
  br i1 %cmp, label %if.then, label %if.else, !dbg !5403

if.then:                                          ; preds = %entry
  %call = invoke dereferenceable(32) %"class.std::__cxx11::basic_string"* @_ZNSt7__cxx1112basic_stringIcSt11char_traitsIcESaIcEEaSEPKc(%"class.std::__cxx11::basic_string"* %movestring, i8* getelementptr inbounds ([2 x i8], [2 x i8]* @.str.8, i64 0, i64 0))
          to label %invoke.cont unwind label %lpad, !dbg !5404

invoke.cont:                                      ; preds = %if.then
  br label %if.end, !dbg !5406

lpad:                                             ; preds = %if.then11, %if.end, %if.else, %if.then
  %1 = landingpad { i8*, i32 }
          cleanup, !dbg !5407
  %2 = extractvalue { i8*, i32 } %1, 0, !dbg !5407
  store i8* %2, i8** %exn.slot, align 8, !dbg !5407
  %3 = extractvalue { i8*, i32 } %1, 1, !dbg !5407
  store i32 %3, i32* %ehselector.slot, align 4, !dbg !5407
  br label %ehcleanup21, !dbg !5407

if.else:                                          ; preds = %entry
  %call3 = invoke dereferenceable(32) %"class.std::__cxx11::basic_string"* @_ZNSt7__cxx1112basic_stringIcSt11char_traitsIcESaIcEEaSEPKc(%"class.std::__cxx11::basic_string"* %movestring, i8* getelementptr inbounds ([2 x i8], [2 x i8]* @.str.7, i64 0, i64 0))
          to label %invoke.cont2 unwind label %lpad, !dbg !5408

invoke.cont2:                                     ; preds = %if.else
  br label %if.end

if.end:                                           ; preds = %invoke.cont2, %invoke.cont
  call void @llvm.dbg.declare(metadata %"struct.std::_Rb_tree_iterator"* %it, metadata !5410, metadata !DIExpression()), !dbg !5411
  call void @_ZNSt17_Rb_tree_iteratorISt4pairIKNSt7__cxx1112basic_stringIcSt11char_traitsIcESaIcEEES6_EEC2Ev(%"struct.std::_Rb_tree_iterator"* %it) #3, !dbg !5411
  %m_properties = getelementptr inbounds %class.SGFTree, %class.SGFTree* %this1, i32 0, i32 2, !dbg !5412
  %call5 = invoke %"struct.std::_Rb_tree_node_base"* @_ZNSt8multimapINSt7__cxx1112basic_stringIcSt11char_traitsIcESaIcEEES5_St4lessIS5_ESaISt4pairIKS5_S5_EEE4findERS9_(%"class.std::multimap"* %m_properties, %"class.std::__cxx11::basic_string"* dereferenceable(32) %movestring)
          to label %invoke.cont4 unwind label %lpad, !dbg !5413

invoke.cont4:                                     ; preds = %if.end
  %coerce.dive = getelementptr inbounds %"struct.std::_Rb_tree_iterator", %"struct.std::_Rb_tree_iterator"* %ref.tmp, i32 0, i32 0, !dbg !5413
  store %"struct.std::_Rb_tree_node_base"* %call5, %"struct.std::_Rb_tree_node_base"** %coerce.dive, align 8, !dbg !5413
  %4 = bitcast %"struct.std::_Rb_tree_iterator"* %it to i8*, !dbg !5414
  %5 = bitcast %"struct.std::_Rb_tree_iterator"* %ref.tmp to i8*, !dbg !5414
  call void @llvm.memcpy.p0i8.p0i8.i64(i8* align 8 %4, i8* align 8 %5, i64 8, i1 false), !dbg !5414
  %m_properties7 = getelementptr inbounds %class.SGFTree, %class.SGFTree* %this1, i32 0, i32 2, !dbg !5415
  %call8 = call %"struct.std::_Rb_tree_node_base"* @_ZNSt8multimapINSt7__cxx1112basic_stringIcSt11char_traitsIcESaIcEEES5_St4lessIS5_ESaISt4pairIKS5_S5_EEE3endEv(%"class.std::multimap"* %m_properties7) #3, !dbg !5417
  %coerce.dive9 = getelementptr inbounds %"struct.std::_Rb_tree_iterator", %"struct.std::_Rb_tree_iterator"* %ref.tmp6, i32 0, i32 0, !dbg !5417
  store %"struct.std::_Rb_tree_node_base"* %call8, %"struct.std::_Rb_tree_node_base"** %coerce.dive9, align 8, !dbg !5417
  %call10 = call zeroext i1 @_ZStneRKSt17_Rb_tree_iteratorISt4pairIKNSt7__cxx1112basic_stringIcSt11char_traitsIcESaIcEEES6_EESB_(%"struct.std::_Rb_tree_iterator"* dereferenceable(8) %it, %"struct.std::_Rb_tree_iterator"* dereferenceable(8) %ref.tmp6) #3, !dbg !5418
  br i1 %call10, label %if.then11, label %if.end20, !dbg !5419

if.then11:                                        ; preds = %invoke.cont4
  call void @llvm.dbg.declare(metadata %"class.std::__cxx11::basic_string"* %movestring12, metadata !5420, metadata !DIExpression()), !dbg !5422
  %call13 = call %"struct.std::pair.30"* @_ZNKSt17_Rb_tree_iteratorISt4pairIKNSt7__cxx1112basic_stringIcSt11char_traitsIcESaIcEEES6_EEptEv(%"struct.std::_Rb_tree_iterator"* %it) #3, !dbg !5423
  %second = getelementptr inbounds %"struct.std::pair.30", %"struct.std::pair.30"* %call13, i32 0, i32 1, !dbg !5424
  invoke void @_ZNSt7__cxx1112basic_stringIcSt11char_traitsIcESaIcEEC1ERKS4_(%"class.std::__cxx11::basic_string"* %movestring12, %"class.std::__cxx11::basic_string"* dereferenceable(32) %second)
          to label %invoke.cont14 unwind label %lpad, !dbg !5423

invoke.cont14:                                    ; preds = %if.then11
  invoke void @_ZNSt7__cxx1112basic_stringIcSt11char_traitsIcESaIcEEC1ERKS4_(%"class.std::__cxx11::basic_string"* %agg.tmp, %"class.std::__cxx11::basic_string"* dereferenceable(32) %movestring12)
          to label %invoke.cont16 unwind label %lpad15, !dbg !5425

invoke.cont16:                                    ; preds = %invoke.cont14
  %call19 = invoke i32 @_ZN7SGFTree16string_to_vertexENSt7__cxx1112basic_stringIcSt11char_traitsIcESaIcEEE(%class.SGFTree* %this1, %"class.std::__cxx11::basic_string"* %agg.tmp)
          to label %invoke.cont18 unwind label %lpad17, !dbg !5426

invoke.cont18:                                    ; preds = %invoke.cont16
  store i32 %call19, i32* %retval, align 4, !dbg !5427
  call void @_ZNSt7__cxx1112basic_stringIcSt11char_traitsIcESaIcEED1Ev(%"class.std::__cxx11::basic_string"* %agg.tmp) #3, !dbg !5427
  store i32 1, i32* %cleanup.dest.slot, align 4
  call void @_ZNSt7__cxx1112basic_stringIcSt11char_traitsIcESaIcEED1Ev(%"class.std::__cxx11::basic_string"* %movestring12) #3, !dbg !5428
  br label %cleanup

lpad15:                                           ; preds = %invoke.cont14
  %6 = landingpad { i8*, i32 }
          cleanup, !dbg !5429
  %7 = extractvalue { i8*, i32 } %6, 0, !dbg !5429
  store i8* %7, i8** %exn.slot, align 8, !dbg !5429
  %8 = extractvalue { i8*, i32 } %6, 1, !dbg !5429
  store i32 %8, i32* %ehselector.slot, align 4, !dbg !5429
  br label %ehcleanup, !dbg !5429

lpad17:                                           ; preds = %invoke.cont16
  %9 = landingpad { i8*, i32 }
          cleanup, !dbg !5429
  %10 = extractvalue { i8*, i32 } %9, 0, !dbg !5429
  store i8* %10, i8** %exn.slot, align 8, !dbg !5429
  %11 = extractvalue { i8*, i32 } %9, 1, !dbg !5429
  store i32 %11, i32* %ehselector.slot, align 4, !dbg !5429
  call void @_ZNSt7__cxx1112basic_stringIcSt11char_traitsIcESaIcEED1Ev(%"class.std::__cxx11::basic_string"* %agg.tmp) #3, !dbg !5427
  br label %ehcleanup, !dbg !5427

ehcleanup:                                        ; preds = %lpad17, %lpad15
  call void @_ZNSt7__cxx1112basic_stringIcSt11char_traitsIcESaIcEED1Ev(%"class.std::__cxx11::basic_string"* %movestring12) #3, !dbg !5428
  br label %ehcleanup21, !dbg !5428

if.end20:                                         ; preds = %invoke.cont4
  store i32 0, i32* %retval, align 4, !dbg !5430
  store i32 1, i32* %cleanup.dest.slot, align 4
  br label %cleanup, !dbg !5430

cleanup:                                          ; preds = %if.end20, %invoke.cont18
  call void @_ZNSt7__cxx1112basic_stringIcSt11char_traitsIcESaIcEED1Ev(%"class.std::__cxx11::basic_string"* %movestring) #3, !dbg !5431
  %12 = load i32, i32* %retval, align 4, !dbg !5431
  ret i32 %12, !dbg !5431

ehcleanup21:                                      ; preds = %ehcleanup, %lpad
  call void @_ZNSt7__cxx1112basic_stringIcSt11char_traitsIcESaIcEED1Ev(%"class.std::__cxx11::basic_string"* %movestring) #3, !dbg !5431
  br label %eh.resume, !dbg !5431

eh.resume:                                        ; preds = %ehcleanup21
  %exn = load i8*, i8** %exn.slot, align 8, !dbg !5431
  %sel = load i32, i32* %ehselector.slot, align 4, !dbg !5431
  %lpad.val = insertvalue { i8*, i32 } undef, i8* %exn, 0, !dbg !5431
  %lpad.val22 = insertvalue { i8*, i32 } %lpad.val, i32 %sel, 1, !dbg !5431
  resume { i8*, i32 } %lpad.val22, !dbg !5431
}

declare dso_local void @_ZN9GameState9play_moveEi(%class.GameState*, i32) #1

; Function Attrs: noinline nounwind uwtable
define linkonce_odr dso_local void @_ZN9GameStateD2Ev(%class.GameState* %this) unnamed_addr #5 comdat align 2 !dbg !5432 {
entry:
  %this.addr = alloca %class.GameState*, align 8
  store %class.GameState* %this, %class.GameState** %this.addr, align 8
  call void @llvm.dbg.declare(metadata %class.GameState** %this.addr, metadata !5434, metadata !DIExpression()), !dbg !5435
  %this1 = load %class.GameState*, %class.GameState** %this.addr, align 8
  %game_history = getelementptr inbounds %class.GameState, %class.GameState* %this1, i32 0, i32 1, !dbg !5436
  call void @_ZNSt6vectorI7KoStateSaIS0_EED2Ev(%"class.std::vector.20"* %game_history) #3, !dbg !5436
  %0 = bitcast %class.GameState* %this1 to %class.KoState*, !dbg !5436
  call void @_ZN7KoStateD2Ev(%class.KoState* %0) #3, !dbg !5436
  ret void, !dbg !5438
}

; Function Attrs: noinline nounwind uwtable
define dso_local %class.KoState* @_ZN7SGFTree23get_state_from_mainlineEj(%class.SGFTree* %this, i32 %movenum) #5 align 2 !dbg !5439 {
entry:
  %retval = alloca %class.KoState*, align 8
  %this.addr = alloca %class.SGFTree*, align 8
  %movenum.addr = alloca i32, align 4
  %link = alloca %class.SGFTree*, align 8
  %last = alloca %class.SGFTree*, align 8
  %i = alloca i32, align 4
  store %class.SGFTree* %this, %class.SGFTree** %this.addr, align 8
  call void @llvm.dbg.declare(metadata %class.SGFTree** %this.addr, metadata !5440, metadata !DIExpression()), !dbg !5441
  store i32 %movenum, i32* %movenum.addr, align 4
  call void @llvm.dbg.declare(metadata i32* %movenum.addr, metadata !5442, metadata !DIExpression()), !dbg !5443
  %this1 = load %class.SGFTree*, %class.SGFTree** %this.addr, align 8
  call void @llvm.dbg.declare(metadata %class.SGFTree** %link, metadata !5444, metadata !DIExpression()), !dbg !5445
  store %class.SGFTree* %this1, %class.SGFTree** %link, align 8, !dbg !5445
  call void @llvm.dbg.declare(metadata %class.SGFTree** %last, metadata !5446, metadata !DIExpression()), !dbg !5447
  store %class.SGFTree* %this1, %class.SGFTree** %last, align 8, !dbg !5447
  call void @llvm.dbg.declare(metadata i32* %i, metadata !5448, metadata !DIExpression()), !dbg !5450
  store i32 0, i32* %i, align 4, !dbg !5450
  br label %for.cond, !dbg !5451

for.cond:                                         ; preds = %for.inc, %entry
  %0 = load i32, i32* %i, align 4, !dbg !5452
  %1 = load i32, i32* %movenum.addr, align 4, !dbg !5454
  %cmp = icmp ule i32 %0, %1, !dbg !5455
  br i1 %cmp, label %land.rhs, label %land.end, !dbg !5456

land.rhs:                                         ; preds = %for.cond
  %2 = load %class.SGFTree*, %class.SGFTree** %link, align 8, !dbg !5457
  %cmp2 = icmp ne %class.SGFTree* %2, null, !dbg !5458
  br label %land.end

land.end:                                         ; preds = %land.rhs, %for.cond
  %3 = phi i1 [ false, %for.cond ], [ %cmp2, %land.rhs ], !dbg !5459
  br i1 %3, label %for.body, label %for.end, !dbg !5460

for.body:                                         ; preds = %land.end
  %4 = load %class.SGFTree*, %class.SGFTree** %link, align 8, !dbg !5461
  %call = call %class.SGFTree* @_ZN7SGFTree9get_childEj(%class.SGFTree* %4, i32 0), !dbg !5463
  store %class.SGFTree* %call, %class.SGFTree** %link, align 8, !dbg !5464
  %5 = load %class.SGFTree*, %class.SGFTree** %link, align 8, !dbg !5465
  %cmp3 = icmp eq %class.SGFTree* %5, null, !dbg !5467
  br i1 %cmp3, label %if.then, label %if.else, !dbg !5468

if.then:                                          ; preds = %for.body
  %6 = load %class.SGFTree*, %class.SGFTree** %last, align 8, !dbg !5469
  %call4 = call %class.KoState* @_ZN7SGFTree9get_stateEv(%class.SGFTree* %6), !dbg !5471
  store %class.KoState* %call4, %class.KoState** %retval, align 8, !dbg !5472
  br label %return, !dbg !5472

if.else:                                          ; preds = %for.body
  %7 = load %class.SGFTree*, %class.SGFTree** %link, align 8, !dbg !5473
  store %class.SGFTree* %7, %class.SGFTree** %last, align 8, !dbg !5475
  br label %if.end

if.end:                                           ; preds = %if.else
  br label %for.inc, !dbg !5476

for.inc:                                          ; preds = %if.end
  %8 = load i32, i32* %i, align 4, !dbg !5477
  %inc = add i32 %8, 1, !dbg !5477
  store i32 %inc, i32* %i, align 4, !dbg !5477
  br label %for.cond, !dbg !5478, !llvm.loop !5479

for.end:                                          ; preds = %land.end
  %9 = load %class.SGFTree*, %class.SGFTree** %link, align 8, !dbg !5481
  %call5 = call %class.KoState* @_ZN7SGFTree9get_stateEv(%class.SGFTree* %9), !dbg !5482
  store %class.KoState* %call5, %class.KoState** %retval, align 8, !dbg !5483
  br label %return, !dbg !5483

return:                                           ; preds = %for.end, %if.then
  %10 = load %class.KoState*, %class.KoState** %retval, align 8, !dbg !5484
  ret %class.KoState* %10, !dbg !5484
}

; Function Attrs: noinline nounwind uwtable
define dso_local i32 @_ZN7SGFTree20count_mainline_movesEv(%class.SGFTree* %this) #5 align 2 !dbg !5485 {
entry:
  %this.addr = alloca %class.SGFTree*, align 8
  %link = alloca %class.SGFTree*, align 8
  %count = alloca i32, align 4
  store %class.SGFTree* %this, %class.SGFTree** %this.addr, align 8
  call void @llvm.dbg.declare(metadata %class.SGFTree** %this.addr, metadata !5486, metadata !DIExpression()), !dbg !5487
  %this1 = load %class.SGFTree*, %class.SGFTree** %this.addr, align 8
  call void @llvm.dbg.declare(metadata %class.SGFTree** %link, metadata !5488, metadata !DIExpression()), !dbg !5489
  store %class.SGFTree* %this1, %class.SGFTree** %link, align 8, !dbg !5489
  call void @llvm.dbg.declare(metadata i32* %count, metadata !5490, metadata !DIExpression()), !dbg !5491
  store i32 -1, i32* %count, align 4, !dbg !5491
  br label %while.cond, !dbg !5492

while.cond:                                       ; preds = %while.body, %entry
  %0 = load %class.SGFTree*, %class.SGFTree** %link, align 8, !dbg !5493
  %cmp = icmp ne %class.SGFTree* %0, null, !dbg !5494
  br i1 %cmp, label %while.body, label %while.end, !dbg !5492

while.body:                                       ; preds = %while.cond
  %1 = load %class.SGFTree*, %class.SGFTree** %link, align 8, !dbg !5495
  %call = call %class.SGFTree* @_ZN7SGFTree9get_childEj(%class.SGFTree* %1, i32 0), !dbg !5497
  store %class.SGFTree* %call, %class.SGFTree** %link, align 8, !dbg !5498
  %2 = load i32, i32* %count, align 4, !dbg !5499
  %inc = add nsw i32 %2, 1, !dbg !5499
  store i32 %inc, i32* %count, align 4, !dbg !5499
  br label %while.cond, !dbg !5492, !llvm.loop !5500

while.end:                                        ; preds = %while.cond
  %3 = load i32, i32* %count, align 4, !dbg !5502
  ret i32 %3, !dbg !5503
}

; Function Attrs: noinline uwtable
define dso_local void @_ZN7SGFTree16load_from_stringENSt7__cxx1112basic_stringIcSt11char_traitsIcESaIcEEE(%class.SGFTree* %this, %"class.std::__cxx11::basic_string"* %gamebuff) #0 align 2 personality i8* bitcast (i32 (...)* @__gxx_personality_v0 to i8*) !dbg !5504 {
entry:
  %this.addr = alloca %class.SGFTree*, align 8
  %pstream = alloca %"class.std::__cxx11::basic_istringstream", align 8
  %exn.slot = alloca i8*
  %ehselector.slot = alloca i32
  store %class.SGFTree* %this, %class.SGFTree** %this.addr, align 8
  call void @llvm.dbg.declare(metadata %class.SGFTree** %this.addr, metadata !5505, metadata !DIExpression()), !dbg !5506
  call void @llvm.dbg.declare(metadata %"class.std::__cxx11::basic_string"* %gamebuff, metadata !5507, metadata !DIExpression()), !dbg !5508
  %this1 = load %class.SGFTree*, %class.SGFTree** %this.addr, align 8
  call void @llvm.dbg.declare(metadata %"class.std::__cxx11::basic_istringstream"* %pstream, metadata !5509, metadata !DIExpression()), !dbg !5514
  call void @_ZNSt7__cxx1119basic_istringstreamIcSt11char_traitsIcESaIcEEC1ERKNS_12basic_stringIcS2_S3_EESt13_Ios_Openmode(%"class.std::__cxx11::basic_istringstream"* %pstream, %"class.std::__cxx11::basic_string"* dereferenceable(32) %gamebuff, i32 8), !dbg !5514
  %m_state = getelementptr inbounds %class.SGFTree, %class.SGFTree* %this1, i32 0, i32 0, !dbg !5515
  invoke void @_ZN7KoState9init_gameEif(%class.KoState* %m_state, i32 19, float 7.500000e+00)
          to label %invoke.cont unwind label %lpad, !dbg !5516

invoke.cont:                                      ; preds = %entry
  invoke void @_ZN9SGFParser5parseERNSt7__cxx1119basic_istringstreamIcSt11char_traitsIcESaIcEEEP7SGFTree(%"class.std::__cxx11::basic_istringstream"* dereferenceable(384) %pstream, %class.SGFTree* %this1)
          to label %invoke.cont2 unwind label %lpad, !dbg !5517

invoke.cont2:                                     ; preds = %invoke.cont
  invoke void @_ZN7SGFTree15populate_statesEv(%class.SGFTree* %this1)
          to label %invoke.cont3 unwind label %lpad, !dbg !5518

invoke.cont3:                                     ; preds = %invoke.cont2
  call void @_ZNSt7__cxx1119basic_istringstreamIcSt11char_traitsIcESaIcEED1Ev(%"class.std::__cxx11::basic_istringstream"* %pstream) #3, !dbg !5519
  ret void, !dbg !5519

lpad:                                             ; preds = %invoke.cont2, %invoke.cont, %entry
  %0 = landingpad { i8*, i32 }
          cleanup, !dbg !5519
  %1 = extractvalue { i8*, i32 } %0, 0, !dbg !5519
  store i8* %1, i8** %exn.slot, align 8, !dbg !5519
  %2 = extractvalue { i8*, i32 } %0, 1, !dbg !5519
  store i32 %2, i32* %ehselector.slot, align 4, !dbg !5519
  call void @_ZNSt7__cxx1119basic_istringstreamIcSt11char_traitsIcESaIcEED1Ev(%"class.std::__cxx11::basic_istringstream"* %pstream) #3, !dbg !5519
  br label %eh.resume, !dbg !5519

eh.resume:                                        ; preds = %lpad
  %exn = load i8*, i8** %exn.slot, align 8, !dbg !5519
  %sel = load i32, i32* %ehselector.slot, align 4, !dbg !5519
  %lpad.val = insertvalue { i8*, i32 } undef, i8* %exn, 0, !dbg !5519
  %lpad.val4 = insertvalue { i8*, i32 } %lpad.val, i32 %sel, 1, !dbg !5519
  resume { i8*, i32 } %lpad.val4, !dbg !5519
}

declare dso_local void @_ZNSt7__cxx1119basic_istringstreamIcSt11char_traitsIcESaIcEEC1ERKNS_12basic_stringIcS2_S3_EESt13_Ios_Openmode(%"class.std::__cxx11::basic_istringstream"*, %"class.std::__cxx11::basic_string"* dereferenceable(32), i32) unnamed_addr #1

declare dso_local void @_ZN7KoState9init_gameEif(%class.KoState*, i32, float) #1

declare dso_local void @_ZN9SGFParser5parseERNSt7__cxx1119basic_istringstreamIcSt11char_traitsIcESaIcEEEP7SGFTree(%"class.std::__cxx11::basic_istringstream"* dereferenceable(384), %class.SGFTree*) #1

; Function Attrs: noinline uwtable
define dso_local void @_ZN7SGFTree15populate_statesEv(%class.SGFTree* %this) #0 align 2 personality i8* bitcast (i32 (...)* @__gxx_personality_v0 to i8*) !dbg !5520 {
entry:
  %this.addr = alloca %class.SGFTree*, align 8
  %it = alloca %"struct.std::_Rb_tree_iterator", align 8
  %ref.tmp = alloca %"struct.std::_Rb_tree_iterator", align 8
  %ref.tmp2 = alloca %"class.std::__cxx11::basic_string", align 8
  %ref.tmp3 = alloca %"class.std::allocator.27", align 1
  %exn.slot = alloca i8*
  %ehselector.slot = alloca i32
  %ref.tmp6 = alloca %"struct.std::_Rb_tree_iterator", align 8
  %ref.tmp15 = alloca %"struct.std::_Rb_tree_iterator", align 8
  %ref.tmp17 = alloca %"class.std::__cxx11::basic_string", align 8
  %ref.tmp18 = alloca %"class.std::allocator.27", align 1
  %ref.tmp27 = alloca %"struct.std::_Rb_tree_iterator", align 8
  %size = alloca %"class.std::__cxx11::basic_string", align 8
  %strm = alloca %"class.std::__cxx11::basic_istringstream", align 8
  %bsize = alloca i32, align 4
  %ref.tmp47 = alloca %"struct.std::_Rb_tree_iterator", align 8
  %ref.tmp49 = alloca %"class.std::__cxx11::basic_string", align 8
  %ref.tmp50 = alloca %"class.std::allocator.27", align 1
  %ref.tmp59 = alloca %"struct.std::_Rb_tree_iterator", align 8
  %size65 = alloca %"class.std::__cxx11::basic_string", align 8
  %strm68 = alloca %"class.std::__cxx11::basic_istringstream", align 8
  %komi = alloca float, align 4
  %abrange = alloca %"struct.std::pair.33", align 8
  %ref.tmp83 = alloca %"class.std::__cxx11::basic_string", align 8
  %ref.tmp84 = alloca %"class.std::allocator.27", align 1
  %move = alloca %"class.std::__cxx11::basic_string", align 8
  %vtx = alloca i32, align 4
  %agg.tmp = alloca %"class.std::__cxx11::basic_string", align 8
  %awrange = alloca %"struct.std::pair.33", align 8
  %ref.tmp106 = alloca %"class.std::__cxx11::basic_string", align 8
  %ref.tmp107 = alloca %"class.std::allocator.27", align 1
  %move120 = alloca %"class.std::__cxx11::basic_string", align 8
  %vtx123 = alloca i32, align 4
  %agg.tmp124 = alloca %"class.std::__cxx11::basic_string", align 8
  %ref.tmp136 = alloca %"struct.std::_Rb_tree_iterator", align 8
  %ref.tmp138 = alloca %"class.std::__cxx11::basic_string", align 8
  %ref.tmp139 = alloca %"class.std::allocator.27", align 1
  %ref.tmp148 = alloca %"struct.std::_Rb_tree_iterator", align 8
  %who = alloca %"class.std::__cxx11::basic_string", align 8
  %stateit = alloca %"class.__gnu_cxx::__normal_iterator", align 8
  %ref.tmp172 = alloca %"class.__gnu_cxx::__normal_iterator", align 8
  %ref.tmp176 = alloca %"class.__gnu_cxx::__normal_iterator", align 8
  %move184 = alloca i32, align 4
  store %class.SGFTree* %this, %class.SGFTree** %this.addr, align 8
  call void @llvm.dbg.declare(metadata %class.SGFTree** %this.addr, metadata !5521, metadata !DIExpression()), !dbg !5522
  %this1 = load %class.SGFTree*, %class.SGFTree** %this.addr, align 8
  call void @llvm.dbg.declare(metadata %"struct.std::_Rb_tree_iterator"* %it, metadata !5523, metadata !DIExpression()), !dbg !5524
  call void @_ZNSt17_Rb_tree_iteratorISt4pairIKNSt7__cxx1112basic_stringIcSt11char_traitsIcESaIcEEES6_EEC2Ev(%"struct.std::_Rb_tree_iterator"* %it) #3, !dbg !5524
  %m_properties = getelementptr inbounds %class.SGFTree, %class.SGFTree* %this1, i32 0, i32 2, !dbg !5525
  call void @_ZNSaIcEC1Ev(%"class.std::allocator.27"* %ref.tmp3) #3, !dbg !5526
  invoke void @_ZNSt7__cxx1112basic_stringIcSt11char_traitsIcESaIcEEC1EPKcRKS3_(%"class.std::__cxx11::basic_string"* %ref.tmp2, i8* getelementptr inbounds ([3 x i8], [3 x i8]* @.str, i64 0, i64 0), %"class.std::allocator.27"* dereferenceable(1) %ref.tmp3)
          to label %invoke.cont unwind label %lpad, !dbg !5526

invoke.cont:                                      ; preds = %entry
  %call = invoke %"struct.std::_Rb_tree_node_base"* @_ZNSt8multimapINSt7__cxx1112basic_stringIcSt11char_traitsIcESaIcEEES5_St4lessIS5_ESaISt4pairIKS5_S5_EEE4findERS9_(%"class.std::multimap"* %m_properties, %"class.std::__cxx11::basic_string"* dereferenceable(32) %ref.tmp2)
          to label %invoke.cont5 unwind label %lpad4, !dbg !5527

invoke.cont5:                                     ; preds = %invoke.cont
  %coerce.dive = getelementptr inbounds %"struct.std::_Rb_tree_iterator", %"struct.std::_Rb_tree_iterator"* %ref.tmp, i32 0, i32 0, !dbg !5527
  store %"struct.std::_Rb_tree_node_base"* %call, %"struct.std::_Rb_tree_node_base"** %coerce.dive, align 8, !dbg !5527
  %0 = bitcast %"struct.std::_Rb_tree_iterator"* %it to i8*, !dbg !5528
  %1 = bitcast %"struct.std::_Rb_tree_iterator"* %ref.tmp to i8*, !dbg !5528
  call void @llvm.memcpy.p0i8.p0i8.i64(i8* align 8 %0, i8* align 8 %1, i64 8, i1 false), !dbg !5528
  call void @_ZNSt7__cxx1112basic_stringIcSt11char_traitsIcESaIcEED1Ev(%"class.std::__cxx11::basic_string"* %ref.tmp2) #3, !dbg !5529
  call void @_ZNSaIcED1Ev(%"class.std::allocator.27"* %ref.tmp3) #3, !dbg !5529
  %m_properties7 = getelementptr inbounds %class.SGFTree, %class.SGFTree* %this1, i32 0, i32 2, !dbg !5530
  %call8 = call %"struct.std::_Rb_tree_node_base"* @_ZNSt8multimapINSt7__cxx1112basic_stringIcSt11char_traitsIcESaIcEEES5_St4lessIS5_ESaISt4pairIKS5_S5_EEE3endEv(%"class.std::multimap"* %m_properties7) #3, !dbg !5532
  %coerce.dive9 = getelementptr inbounds %"struct.std::_Rb_tree_iterator", %"struct.std::_Rb_tree_iterator"* %ref.tmp6, i32 0, i32 0, !dbg !5532
  store %"struct.std::_Rb_tree_node_base"* %call8, %"struct.std::_Rb_tree_node_base"** %coerce.dive9, align 8, !dbg !5532
  %call10 = call zeroext i1 @_ZStneRKSt17_Rb_tree_iteratorISt4pairIKNSt7__cxx1112basic_stringIcSt11char_traitsIcESaIcEEES6_EESB_(%"struct.std::_Rb_tree_iterator"* dereferenceable(8) %it, %"struct.std::_Rb_tree_iterator"* dereferenceable(8) %ref.tmp6) #3, !dbg !5533
  br i1 %call10, label %if.then, label %if.end14, !dbg !5534

if.then:                                          ; preds = %invoke.cont5
  %call11 = call %"struct.std::pair.30"* @_ZNKSt17_Rb_tree_iteratorISt4pairIKNSt7__cxx1112basic_stringIcSt11char_traitsIcESaIcEEES6_EEptEv(%"struct.std::_Rb_tree_iterator"* %it) #3, !dbg !5535
  %second = getelementptr inbounds %"struct.std::pair.30", %"struct.std::pair.30"* %call11, i32 0, i32 1, !dbg !5538
  %call12 = call zeroext i1 @_ZStneIcSt11char_traitsIcESaIcEEbRKNSt7__cxx1112basic_stringIT_T0_T1_EEPKS5_(%"class.std::__cxx11::basic_string"* dereferenceable(32) %second, i8* getelementptr inbounds ([2 x i8], [2 x i8]* @.str.1, i64 0, i64 0)), !dbg !5539
  br i1 %call12, label %if.then13, label %if.end, !dbg !5540

if.then13:                                        ; preds = %if.then
  %exception = call i8* @__cxa_allocate_exception(i64 8) #3, !dbg !5541
  %2 = bitcast i8* %exception to %"class.std::exception"*, !dbg !5541
  call void @_ZNSt9exceptionC2Ev(%"class.std::exception"* %2) #3, !dbg !5543
  call void @__cxa_throw(i8* %exception, i8* bitcast (i8** @_ZTISt9exception to i8*), i8* bitcast (void (%"class.std::exception"*)* @_ZNSt9exceptionD1Ev to i8*)) #13, !dbg !5541
  unreachable, !dbg !5541

lpad:                                             ; preds = %entry
  %3 = landingpad { i8*, i32 }
          cleanup, !dbg !5544
  %4 = extractvalue { i8*, i32 } %3, 0, !dbg !5544
  store i8* %4, i8** %exn.slot, align 8, !dbg !5544
  %5 = extractvalue { i8*, i32 } %3, 1, !dbg !5544
  store i32 %5, i32* %ehselector.slot, align 4, !dbg !5544
  br label %ehcleanup, !dbg !5544

lpad4:                                            ; preds = %invoke.cont
  %6 = landingpad { i8*, i32 }
          cleanup, !dbg !5544
  %7 = extractvalue { i8*, i32 } %6, 0, !dbg !5544
  store i8* %7, i8** %exn.slot, align 8, !dbg !5544
  %8 = extractvalue { i8*, i32 } %6, 1, !dbg !5544
  store i32 %8, i32* %ehselector.slot, align 4, !dbg !5544
  call void @_ZNSt7__cxx1112basic_stringIcSt11char_traitsIcESaIcEED1Ev(%"class.std::__cxx11::basic_string"* %ref.tmp2) #3, !dbg !5529
  br label %ehcleanup, !dbg !5529

ehcleanup:                                        ; preds = %lpad4, %lpad
  call void @_ZNSaIcED1Ev(%"class.std::allocator.27"* %ref.tmp3) #3, !dbg !5529
  br label %eh.resume, !dbg !5529

if.end:                                           ; preds = %if.then
  br label %if.end14, !dbg !5545

if.end14:                                         ; preds = %if.end, %invoke.cont5
  %m_properties16 = getelementptr inbounds %class.SGFTree, %class.SGFTree* %this1, i32 0, i32 2, !dbg !5546
  call void @_ZNSaIcEC1Ev(%"class.std::allocator.27"* %ref.tmp18) #3, !dbg !5547
  invoke void @_ZNSt7__cxx1112basic_stringIcSt11char_traitsIcESaIcEEC1EPKcRKS3_(%"class.std::__cxx11::basic_string"* %ref.tmp17, i8* getelementptr inbounds ([3 x i8], [3 x i8]* @.str.2, i64 0, i64 0), %"class.std::allocator.27"* dereferenceable(1) %ref.tmp18)
          to label %invoke.cont20 unwind label %lpad19, !dbg !5547

invoke.cont20:                                    ; preds = %if.end14
  %call23 = invoke %"struct.std::_Rb_tree_node_base"* @_ZNSt8multimapINSt7__cxx1112basic_stringIcSt11char_traitsIcESaIcEEES5_St4lessIS5_ESaISt4pairIKS5_S5_EEE4findERS9_(%"class.std::multimap"* %m_properties16, %"class.std::__cxx11::basic_string"* dereferenceable(32) %ref.tmp17)
          to label %invoke.cont22 unwind label %lpad21, !dbg !5548

invoke.cont22:                                    ; preds = %invoke.cont20
  %coerce.dive24 = getelementptr inbounds %"struct.std::_Rb_tree_iterator", %"struct.std::_Rb_tree_iterator"* %ref.tmp15, i32 0, i32 0, !dbg !5548
  store %"struct.std::_Rb_tree_node_base"* %call23, %"struct.std::_Rb_tree_node_base"** %coerce.dive24, align 8, !dbg !5548
  %9 = bitcast %"struct.std::_Rb_tree_iterator"* %it to i8*, !dbg !5549
  %10 = bitcast %"struct.std::_Rb_tree_iterator"* %ref.tmp15 to i8*, !dbg !5549
  call void @llvm.memcpy.p0i8.p0i8.i64(i8* align 8 %9, i8* align 8 %10, i64 8, i1 false), !dbg !5549
  call void @_ZNSt7__cxx1112basic_stringIcSt11char_traitsIcESaIcEED1Ev(%"class.std::__cxx11::basic_string"* %ref.tmp17) #3, !dbg !5550
  call void @_ZNSaIcED1Ev(%"class.std::allocator.27"* %ref.tmp18) #3, !dbg !5550
  %m_properties28 = getelementptr inbounds %class.SGFTree, %class.SGFTree* %this1, i32 0, i32 2, !dbg !5551
  %call29 = call %"struct.std::_Rb_tree_node_base"* @_ZNSt8multimapINSt7__cxx1112basic_stringIcSt11char_traitsIcESaIcEEES5_St4lessIS5_ESaISt4pairIKS5_S5_EEE3endEv(%"class.std::multimap"* %m_properties28) #3, !dbg !5553
  %coerce.dive30 = getelementptr inbounds %"struct.std::_Rb_tree_iterator", %"struct.std::_Rb_tree_iterator"* %ref.tmp27, i32 0, i32 0, !dbg !5553
  store %"struct.std::_Rb_tree_node_base"* %call29, %"struct.std::_Rb_tree_node_base"** %coerce.dive30, align 8, !dbg !5553
  %call31 = call zeroext i1 @_ZStneRKSt17_Rb_tree_iteratorISt4pairIKNSt7__cxx1112basic_stringIcSt11char_traitsIcESaIcEEES6_EESB_(%"struct.std::_Rb_tree_iterator"* dereferenceable(8) %it, %"struct.std::_Rb_tree_iterator"* dereferenceable(8) %ref.tmp27) #3, !dbg !5554
  br i1 %call31, label %if.then32, label %if.end46, !dbg !5555

if.then32:                                        ; preds = %invoke.cont22
  call void @llvm.dbg.declare(metadata %"class.std::__cxx11::basic_string"* %size, metadata !5556, metadata !DIExpression()), !dbg !5558
  %call33 = call %"struct.std::pair.30"* @_ZNKSt17_Rb_tree_iteratorISt4pairIKNSt7__cxx1112basic_stringIcSt11char_traitsIcESaIcEEES6_EEptEv(%"struct.std::_Rb_tree_iterator"* %it) #3, !dbg !5559
  %second34 = getelementptr inbounds %"struct.std::pair.30", %"struct.std::pair.30"* %call33, i32 0, i32 1, !dbg !5560
  call void @_ZNSt7__cxx1112basic_stringIcSt11char_traitsIcESaIcEEC1ERKS4_(%"class.std::__cxx11::basic_string"* %size, %"class.std::__cxx11::basic_string"* dereferenceable(32) %second34), !dbg !5559
  call void @llvm.dbg.declare(metadata %"class.std::__cxx11::basic_istringstream"* %strm, metadata !5561, metadata !DIExpression()), !dbg !5562
  invoke void @_ZNSt7__cxx1119basic_istringstreamIcSt11char_traitsIcESaIcEEC1ERKNS_12basic_stringIcS2_S3_EESt13_Ios_Openmode(%"class.std::__cxx11::basic_istringstream"* %strm, %"class.std::__cxx11::basic_string"* dereferenceable(32) %size, i32 8)
          to label %invoke.cont36 unwind label %lpad35, !dbg !5562

invoke.cont36:                                    ; preds = %if.then32
  call void @llvm.dbg.declare(metadata i32* %bsize, metadata !5563, metadata !DIExpression()), !dbg !5564
  %11 = bitcast %"class.std::__cxx11::basic_istringstream"* %strm to %"class.std::basic_istream"*, !dbg !5565
  %call39 = invoke dereferenceable(280) %"class.std::basic_istream"* @_ZNSirsERi(%"class.std::basic_istream"* %11, i32* dereferenceable(4) %bsize)
          to label %invoke.cont38 unwind label %lpad37, !dbg !5566

invoke.cont38:                                    ; preds = %invoke.cont36
  %12 = load i32, i32* %bsize, align 4, !dbg !5567
  %cmp = icmp sle i32 %12, 19, !dbg !5569
  br i1 %cmp, label %if.then40, label %if.else, !dbg !5570

if.then40:                                        ; preds = %invoke.cont38
  %m_state = getelementptr inbounds %class.SGFTree, %class.SGFTree* %this1, i32 0, i32 0, !dbg !5571
  %13 = load i32, i32* %bsize, align 4, !dbg !5573
  invoke void @_ZN7KoState9init_gameEif(%class.KoState* %m_state, i32 %13, float 7.500000e+00)
          to label %invoke.cont41 unwind label %lpad37, !dbg !5574

invoke.cont41:                                    ; preds = %if.then40
  br label %if.end43, !dbg !5575

lpad19:                                           ; preds = %if.end14
  %14 = landingpad { i8*, i32 }
          cleanup, !dbg !5544
  %15 = extractvalue { i8*, i32 } %14, 0, !dbg !5544
  store i8* %15, i8** %exn.slot, align 8, !dbg !5544
  %16 = extractvalue { i8*, i32 } %14, 1, !dbg !5544
  store i32 %16, i32* %ehselector.slot, align 4, !dbg !5544
  br label %ehcleanup26, !dbg !5544

lpad21:                                           ; preds = %invoke.cont20
  %17 = landingpad { i8*, i32 }
          cleanup, !dbg !5544
  %18 = extractvalue { i8*, i32 } %17, 0, !dbg !5544
  store i8* %18, i8** %exn.slot, align 8, !dbg !5544
  %19 = extractvalue { i8*, i32 } %17, 1, !dbg !5544
  store i32 %19, i32* %ehselector.slot, align 4, !dbg !5544
  call void @_ZNSt7__cxx1112basic_stringIcSt11char_traitsIcESaIcEED1Ev(%"class.std::__cxx11::basic_string"* %ref.tmp17) #3, !dbg !5550
  br label %ehcleanup26, !dbg !5550

ehcleanup26:                                      ; preds = %lpad21, %lpad19
  call void @_ZNSaIcED1Ev(%"class.std::allocator.27"* %ref.tmp18) #3, !dbg !5550
  br label %eh.resume, !dbg !5550

lpad35:                                           ; preds = %if.then32
  %20 = landingpad { i8*, i32 }
          cleanup, !dbg !5576
  %21 = extractvalue { i8*, i32 } %20, 0, !dbg !5576
  store i8* %21, i8** %exn.slot, align 8, !dbg !5576
  %22 = extractvalue { i8*, i32 } %20, 1, !dbg !5576
  store i32 %22, i32* %ehselector.slot, align 4, !dbg !5576
  br label %ehcleanup45, !dbg !5576

lpad37:                                           ; preds = %if.else, %if.then40, %invoke.cont36
  %23 = landingpad { i8*, i32 }
          cleanup, !dbg !5576
  %24 = extractvalue { i8*, i32 } %23, 0, !dbg !5576
  store i8* %24, i8** %exn.slot, align 8, !dbg !5576
  %25 = extractvalue { i8*, i32 } %23, 1, !dbg !5576
  store i32 %25, i32* %ehselector.slot, align 4, !dbg !5576
  call void @_ZNSt7__cxx1119basic_istringstreamIcSt11char_traitsIcESaIcEED1Ev(%"class.std::__cxx11::basic_istringstream"* %strm) #3, !dbg !5577
  br label %ehcleanup45, !dbg !5577

if.else:                                          ; preds = %invoke.cont38
  %exception42 = call i8* @__cxa_allocate_exception(i64 8) #3, !dbg !5578
  %26 = bitcast i8* %exception42 to %"class.std::exception"*, !dbg !5578
  call void @_ZNSt9exceptionC2Ev(%"class.std::exception"* %26) #3, !dbg !5580
  invoke void @__cxa_throw(i8* %exception42, i8* bitcast (i8** @_ZTISt9exception to i8*), i8* bitcast (void (%"class.std::exception"*)* @_ZNSt9exceptionD1Ev to i8*)) #13
          to label %unreachable unwind label %lpad37, !dbg !5578

if.end43:                                         ; preds = %invoke.cont41
  call void @_ZNSt7__cxx1119basic_istringstreamIcSt11char_traitsIcESaIcEED1Ev(%"class.std::__cxx11::basic_istringstream"* %strm) #3, !dbg !5577
  call void @_ZNSt7__cxx1112basic_stringIcSt11char_traitsIcESaIcEED1Ev(%"class.std::__cxx11::basic_string"* %size) #3, !dbg !5577
  br label %if.end46, !dbg !5581

ehcleanup45:                                      ; preds = %lpad37, %lpad35
  call void @_ZNSt7__cxx1112basic_stringIcSt11char_traitsIcESaIcEED1Ev(%"class.std::__cxx11::basic_string"* %size) #3, !dbg !5577
  br label %eh.resume, !dbg !5577

if.end46:                                         ; preds = %if.end43, %invoke.cont22
  %m_properties48 = getelementptr inbounds %class.SGFTree, %class.SGFTree* %this1, i32 0, i32 2, !dbg !5582
  call void @_ZNSaIcEC1Ev(%"class.std::allocator.27"* %ref.tmp50) #3, !dbg !5583
  invoke void @_ZNSt7__cxx1112basic_stringIcSt11char_traitsIcESaIcEEC1EPKcRKS3_(%"class.std::__cxx11::basic_string"* %ref.tmp49, i8* getelementptr inbounds ([3 x i8], [3 x i8]* @.str.3, i64 0, i64 0), %"class.std::allocator.27"* dereferenceable(1) %ref.tmp50)
          to label %invoke.cont52 unwind label %lpad51, !dbg !5583

invoke.cont52:                                    ; preds = %if.end46
  %call55 = invoke %"struct.std::_Rb_tree_node_base"* @_ZNSt8multimapINSt7__cxx1112basic_stringIcSt11char_traitsIcESaIcEEES5_St4lessIS5_ESaISt4pairIKS5_S5_EEE4findERS9_(%"class.std::multimap"* %m_properties48, %"class.std::__cxx11::basic_string"* dereferenceable(32) %ref.tmp49)
          to label %invoke.cont54 unwind label %lpad53, !dbg !5584

invoke.cont54:                                    ; preds = %invoke.cont52
  %coerce.dive56 = getelementptr inbounds %"struct.std::_Rb_tree_iterator", %"struct.std::_Rb_tree_iterator"* %ref.tmp47, i32 0, i32 0, !dbg !5584
  store %"struct.std::_Rb_tree_node_base"* %call55, %"struct.std::_Rb_tree_node_base"** %coerce.dive56, align 8, !dbg !5584
  %27 = bitcast %"struct.std::_Rb_tree_iterator"* %it to i8*, !dbg !5585
  %28 = bitcast %"struct.std::_Rb_tree_iterator"* %ref.tmp47 to i8*, !dbg !5585
  call void @llvm.memcpy.p0i8.p0i8.i64(i8* align 8 %27, i8* align 8 %28, i64 8, i1 false), !dbg !5585
  call void @_ZNSt7__cxx1112basic_stringIcSt11char_traitsIcESaIcEED1Ev(%"class.std::__cxx11::basic_string"* %ref.tmp49) #3, !dbg !5586
  call void @_ZNSaIcED1Ev(%"class.std::allocator.27"* %ref.tmp50) #3, !dbg !5586
  %m_properties60 = getelementptr inbounds %class.SGFTree, %class.SGFTree* %this1, i32 0, i32 2, !dbg !5587
  %call61 = call %"struct.std::_Rb_tree_node_base"* @_ZNSt8multimapINSt7__cxx1112basic_stringIcSt11char_traitsIcESaIcEEES5_St4lessIS5_ESaISt4pairIKS5_S5_EEE3endEv(%"class.std::multimap"* %m_properties60) #3, !dbg !5589
  %coerce.dive62 = getelementptr inbounds %"struct.std::_Rb_tree_iterator", %"struct.std::_Rb_tree_iterator"* %ref.tmp59, i32 0, i32 0, !dbg !5589
  store %"struct.std::_Rb_tree_node_base"* %call61, %"struct.std::_Rb_tree_node_base"** %coerce.dive62, align 8, !dbg !5589
  %call63 = call zeroext i1 @_ZStneRKSt17_Rb_tree_iteratorISt4pairIKNSt7__cxx1112basic_stringIcSt11char_traitsIcESaIcEEES6_EESB_(%"struct.std::_Rb_tree_iterator"* dereferenceable(8) %it, %"struct.std::_Rb_tree_iterator"* dereferenceable(8) %ref.tmp59) #3, !dbg !5590
  br i1 %call63, label %if.then64, label %if.end81, !dbg !5591

if.then64:                                        ; preds = %invoke.cont54
  call void @llvm.dbg.declare(metadata %"class.std::__cxx11::basic_string"* %size65, metadata !5592, metadata !DIExpression()), !dbg !5594
  %call66 = call %"struct.std::pair.30"* @_ZNKSt17_Rb_tree_iteratorISt4pairIKNSt7__cxx1112basic_stringIcSt11char_traitsIcESaIcEEES6_EEptEv(%"struct.std::_Rb_tree_iterator"* %it) #3, !dbg !5595
  %second67 = getelementptr inbounds %"struct.std::pair.30", %"struct.std::pair.30"* %call66, i32 0, i32 1, !dbg !5596
  call void @_ZNSt7__cxx1112basic_stringIcSt11char_traitsIcESaIcEEC1ERKS4_(%"class.std::__cxx11::basic_string"* %size65, %"class.std::__cxx11::basic_string"* dereferenceable(32) %second67), !dbg !5595
  call void @llvm.dbg.declare(metadata %"class.std::__cxx11::basic_istringstream"* %strm68, metadata !5597, metadata !DIExpression()), !dbg !5598
  invoke void @_ZNSt7__cxx1119basic_istringstreamIcSt11char_traitsIcESaIcEEC1ERKNS_12basic_stringIcS2_S3_EESt13_Ios_Openmode(%"class.std::__cxx11::basic_istringstream"* %strm68, %"class.std::__cxx11::basic_string"* dereferenceable(32) %size65, i32 8)
          to label %invoke.cont70 unwind label %lpad69, !dbg !5598

invoke.cont70:                                    ; preds = %if.then64
  call void @llvm.dbg.declare(metadata float* %komi, metadata !5599, metadata !DIExpression()), !dbg !5600
  %29 = bitcast %"class.std::__cxx11::basic_istringstream"* %strm68 to %"class.std::basic_istream"*, !dbg !5601
  %call73 = invoke dereferenceable(280) %"class.std::basic_istream"* @_ZNSirsERf(%"class.std::basic_istream"* %29, float* dereferenceable(4) %komi)
          to label %invoke.cont72 unwind label %lpad71, !dbg !5602

invoke.cont72:                                    ; preds = %invoke.cont70
  %m_state74 = getelementptr inbounds %class.SGFTree, %class.SGFTree* %this1, i32 0, i32 0, !dbg !5603
  %m_state75 = getelementptr inbounds %class.SGFTree, %class.SGFTree* %this1, i32 0, i32 0, !dbg !5604
  %30 = bitcast %class.KoState* %m_state75 to %class.FastState*, !dbg !5604
  %board = getelementptr inbounds %class.FastState, %class.FastState* %30, i32 0, i32 0, !dbg !5605
  %31 = bitcast %class.FullBoard* %board to %class.FastBoard*, !dbg !5604
  %call77 = invoke i32 @_ZN9FastBoard13get_boardsizeEv(%class.FastBoard* %31)
          to label %invoke.cont76 unwind label %lpad71, !dbg !5606

invoke.cont76:                                    ; preds = %invoke.cont72
  %32 = load float, float* %komi, align 4, !dbg !5607
  invoke void @_ZN7KoState9init_gameEif(%class.KoState* %m_state74, i32 %call77, float %32)
          to label %invoke.cont78 unwind label %lpad71, !dbg !5608

invoke.cont78:                                    ; preds = %invoke.cont76
  call void @_ZNSt7__cxx1119basic_istringstreamIcSt11char_traitsIcESaIcEED1Ev(%"class.std::__cxx11::basic_istringstream"* %strm68) #3, !dbg !5609
  call void @_ZNSt7__cxx1112basic_stringIcSt11char_traitsIcESaIcEED1Ev(%"class.std::__cxx11::basic_string"* %size65) #3, !dbg !5609
  br label %if.end81, !dbg !5610

lpad51:                                           ; preds = %if.end46
  %33 = landingpad { i8*, i32 }
          cleanup, !dbg !5544
  %34 = extractvalue { i8*, i32 } %33, 0, !dbg !5544
  store i8* %34, i8** %exn.slot, align 8, !dbg !5544
  %35 = extractvalue { i8*, i32 } %33, 1, !dbg !5544
  store i32 %35, i32* %ehselector.slot, align 4, !dbg !5544
  br label %ehcleanup58, !dbg !5544

lpad53:                                           ; preds = %invoke.cont52
  %36 = landingpad { i8*, i32 }
          cleanup, !dbg !5544
  %37 = extractvalue { i8*, i32 } %36, 0, !dbg !5544
  store i8* %37, i8** %exn.slot, align 8, !dbg !5544
  %38 = extractvalue { i8*, i32 } %36, 1, !dbg !5544
  store i32 %38, i32* %ehselector.slot, align 4, !dbg !5544
  call void @_ZNSt7__cxx1112basic_stringIcSt11char_traitsIcESaIcEED1Ev(%"class.std::__cxx11::basic_string"* %ref.tmp49) #3, !dbg !5586
  br label %ehcleanup58, !dbg !5586

ehcleanup58:                                      ; preds = %lpad53, %lpad51
  call void @_ZNSaIcED1Ev(%"class.std::allocator.27"* %ref.tmp50) #3, !dbg !5586
  br label %eh.resume, !dbg !5586

lpad69:                                           ; preds = %if.then64
  %39 = landingpad { i8*, i32 }
          cleanup, !dbg !5611
  %40 = extractvalue { i8*, i32 } %39, 0, !dbg !5611
  store i8* %40, i8** %exn.slot, align 8, !dbg !5611
  %41 = extractvalue { i8*, i32 } %39, 1, !dbg !5611
  store i32 %41, i32* %ehselector.slot, align 4, !dbg !5611
  br label %ehcleanup80, !dbg !5611

lpad71:                                           ; preds = %invoke.cont76, %invoke.cont72, %invoke.cont70
  %42 = landingpad { i8*, i32 }
          cleanup, !dbg !5611
  %43 = extractvalue { i8*, i32 } %42, 0, !dbg !5611
  store i8* %43, i8** %exn.slot, align 8, !dbg !5611
  %44 = extractvalue { i8*, i32 } %42, 1, !dbg !5611
  store i32 %44, i32* %ehselector.slot, align 4, !dbg !5611
  call void @_ZNSt7__cxx1119basic_istringstreamIcSt11char_traitsIcESaIcEED1Ev(%"class.std::__cxx11::basic_istringstream"* %strm68) #3, !dbg !5609
  br label %ehcleanup80, !dbg !5609

ehcleanup80:                                      ; preds = %lpad71, %lpad69
  call void @_ZNSt7__cxx1112basic_stringIcSt11char_traitsIcESaIcEED1Ev(%"class.std::__cxx11::basic_string"* %size65) #3, !dbg !5609
  br label %eh.resume, !dbg !5609

if.end81:                                         ; preds = %invoke.cont78, %invoke.cont54
  call void @llvm.dbg.declare(metadata %"struct.std::pair.33"* %abrange, metadata !5612, metadata !DIExpression()), !dbg !5613
  %m_properties82 = getelementptr inbounds %class.SGFTree, %class.SGFTree* %this1, i32 0, i32 2, !dbg !5614
  call void @_ZNSaIcEC1Ev(%"class.std::allocator.27"* %ref.tmp84) #3, !dbg !5615
  invoke void @_ZNSt7__cxx1112basic_stringIcSt11char_traitsIcESaIcEEC1EPKcRKS3_(%"class.std::__cxx11::basic_string"* %ref.tmp83, i8* getelementptr inbounds ([3 x i8], [3 x i8]* @.str.4, i64 0, i64 0), %"class.std::allocator.27"* dereferenceable(1) %ref.tmp84)
          to label %invoke.cont86 unwind label %lpad85, !dbg !5615

invoke.cont86:                                    ; preds = %if.end81
  %call89 = invoke { %"struct.std::_Rb_tree_node_base"*, %"struct.std::_Rb_tree_node_base"* } @_ZNSt8multimapINSt7__cxx1112basic_stringIcSt11char_traitsIcESaIcEEES5_St4lessIS5_ESaISt4pairIKS5_S5_EEE11equal_rangeERS9_(%"class.std::multimap"* %m_properties82, %"class.std::__cxx11::basic_string"* dereferenceable(32) %ref.tmp83)
          to label %invoke.cont88 unwind label %lpad87, !dbg !5616

invoke.cont88:                                    ; preds = %invoke.cont86
  %45 = bitcast %"struct.std::pair.33"* %abrange to { %"struct.std::_Rb_tree_node_base"*, %"struct.std::_Rb_tree_node_base"* }*, !dbg !5616
  %46 = getelementptr inbounds { %"struct.std::_Rb_tree_node_base"*, %"struct.std::_Rb_tree_node_base"* }, { %"struct.std::_Rb_tree_node_base"*, %"struct.std::_Rb_tree_node_base"* }* %45, i32 0, i32 0, !dbg !5616
  %47 = extractvalue { %"struct.std::_Rb_tree_node_base"*, %"struct.std::_Rb_tree_node_base"* } %call89, 0, !dbg !5616
  store %"struct.std::_Rb_tree_node_base"* %47, %"struct.std::_Rb_tree_node_base"** %46, align 8, !dbg !5616
  %48 = getelementptr inbounds { %"struct.std::_Rb_tree_node_base"*, %"struct.std::_Rb_tree_node_base"* }, { %"struct.std::_Rb_tree_node_base"*, %"struct.std::_Rb_tree_node_base"* }* %45, i32 0, i32 1, !dbg !5616
  %49 = extractvalue { %"struct.std::_Rb_tree_node_base"*, %"struct.std::_Rb_tree_node_base"* } %call89, 1, !dbg !5616
  store %"struct.std::_Rb_tree_node_base"* %49, %"struct.std::_Rb_tree_node_base"** %48, align 8, !dbg !5616
  call void @_ZNSt7__cxx1112basic_stringIcSt11char_traitsIcESaIcEED1Ev(%"class.std::__cxx11::basic_string"* %ref.tmp83) #3, !dbg !5614
  call void @_ZNSaIcED1Ev(%"class.std::allocator.27"* %ref.tmp84) #3, !dbg !5614
  %first = getelementptr inbounds %"struct.std::pair.33", %"struct.std::pair.33"* %abrange, i32 0, i32 0, !dbg !5617
  %50 = bitcast %"struct.std::_Rb_tree_iterator"* %it to i8*, !dbg !5619
  %51 = bitcast %"struct.std::_Rb_tree_iterator"* %first to i8*, !dbg !5619
  call void @llvm.memcpy.p0i8.p0i8.i64(i8* align 8 %50, i8* align 8 %51, i64 8, i1 false), !dbg !5619
  br label %for.cond, !dbg !5620

for.cond:                                         ; preds = %for.inc, %invoke.cont88
  %second92 = getelementptr inbounds %"struct.std::pair.33", %"struct.std::pair.33"* %abrange, i32 0, i32 1, !dbg !5621
  %call93 = call zeroext i1 @_ZStneRKSt17_Rb_tree_iteratorISt4pairIKNSt7__cxx1112basic_stringIcSt11char_traitsIcESaIcEEES6_EESB_(%"struct.std::_Rb_tree_iterator"* dereferenceable(8) %it, %"struct.std::_Rb_tree_iterator"* dereferenceable(8) %second92) #3, !dbg !5623
  br i1 %call93, label %for.body, label %for.end, !dbg !5624

for.body:                                         ; preds = %for.cond
  call void @llvm.dbg.declare(metadata %"class.std::__cxx11::basic_string"* %move, metadata !5625, metadata !DIExpression()), !dbg !5627
  %call94 = call %"struct.std::pair.30"* @_ZNKSt17_Rb_tree_iteratorISt4pairIKNSt7__cxx1112basic_stringIcSt11char_traitsIcESaIcEEES6_EEptEv(%"struct.std::_Rb_tree_iterator"* %it) #3, !dbg !5628
  %second95 = getelementptr inbounds %"struct.std::pair.30", %"struct.std::pair.30"* %call94, i32 0, i32 1, !dbg !5629
  call void @_ZNSt7__cxx1112basic_stringIcSt11char_traitsIcESaIcEEC1ERKS4_(%"class.std::__cxx11::basic_string"* %move, %"class.std::__cxx11::basic_string"* dereferenceable(32) %second95), !dbg !5628
  call void @llvm.dbg.declare(metadata i32* %vtx, metadata !5630, metadata !DIExpression()), !dbg !5631
  invoke void @_ZNSt7__cxx1112basic_stringIcSt11char_traitsIcESaIcEEC1ERKS4_(%"class.std::__cxx11::basic_string"* %agg.tmp, %"class.std::__cxx11::basic_string"* dereferenceable(32) %move)
          to label %invoke.cont97 unwind label %lpad96, !dbg !5632

invoke.cont97:                                    ; preds = %for.body
  %call100 = invoke i32 @_ZN7SGFTree16string_to_vertexENSt7__cxx1112basic_stringIcSt11char_traitsIcESaIcEEE(%class.SGFTree* %this1, %"class.std::__cxx11::basic_string"* %agg.tmp)
          to label %invoke.cont99 unwind label %lpad98, !dbg !5633

invoke.cont99:                                    ; preds = %invoke.cont97
  call void @_ZNSt7__cxx1112basic_stringIcSt11char_traitsIcESaIcEED1Ev(%"class.std::__cxx11::basic_string"* %agg.tmp) #3, !dbg !5633
  store i32 %call100, i32* %vtx, align 4, !dbg !5631
  %52 = load i32, i32* %vtx, align 4, !dbg !5634
  invoke void @_ZN7SGFTree10apply_moveEii(%class.SGFTree* %this1, i32 0, i32 %52)
          to label %invoke.cont102 unwind label %lpad96, !dbg !5635

invoke.cont102:                                   ; preds = %invoke.cont99
  call void @_ZNSt7__cxx1112basic_stringIcSt11char_traitsIcESaIcEED1Ev(%"class.std::__cxx11::basic_string"* %move) #3, !dbg !5636
  br label %for.inc, !dbg !5637

for.inc:                                          ; preds = %invoke.cont102
  %call104 = call dereferenceable(8) %"struct.std::_Rb_tree_iterator"* @_ZNSt17_Rb_tree_iteratorISt4pairIKNSt7__cxx1112basic_stringIcSt11char_traitsIcESaIcEEES6_EEppEv(%"struct.std::_Rb_tree_iterator"* %it) #3, !dbg !5638
  br label %for.cond, !dbg !5639, !llvm.loop !5640

lpad85:                                           ; preds = %if.end81
  %53 = landingpad { i8*, i32 }
          cleanup, !dbg !5544
  %54 = extractvalue { i8*, i32 } %53, 0, !dbg !5544
  store i8* %54, i8** %exn.slot, align 8, !dbg !5544
  %55 = extractvalue { i8*, i32 } %53, 1, !dbg !5544
  store i32 %55, i32* %ehselector.slot, align 4, !dbg !5544
  br label %ehcleanup91, !dbg !5544

lpad87:                                           ; preds = %invoke.cont86
  %56 = landingpad { i8*, i32 }
          cleanup, !dbg !5544
  %57 = extractvalue { i8*, i32 } %56, 0, !dbg !5544
  store i8* %57, i8** %exn.slot, align 8, !dbg !5544
  %58 = extractvalue { i8*, i32 } %56, 1, !dbg !5544
  store i32 %58, i32* %ehselector.slot, align 4, !dbg !5544
  call void @_ZNSt7__cxx1112basic_stringIcSt11char_traitsIcESaIcEED1Ev(%"class.std::__cxx11::basic_string"* %ref.tmp83) #3, !dbg !5614
  br label %ehcleanup91, !dbg !5614

ehcleanup91:                                      ; preds = %lpad87, %lpad85
  call void @_ZNSaIcED1Ev(%"class.std::allocator.27"* %ref.tmp84) #3, !dbg !5614
  br label %eh.resume, !dbg !5614

lpad96:                                           ; preds = %invoke.cont99, %for.body
  %59 = landingpad { i8*, i32 }
          cleanup, !dbg !5642
  %60 = extractvalue { i8*, i32 } %59, 0, !dbg !5642
  store i8* %60, i8** %exn.slot, align 8, !dbg !5642
  %61 = extractvalue { i8*, i32 } %59, 1, !dbg !5642
  store i32 %61, i32* %ehselector.slot, align 4, !dbg !5642
  br label %ehcleanup103, !dbg !5642

lpad98:                                           ; preds = %invoke.cont97
  %62 = landingpad { i8*, i32 }
          cleanup, !dbg !5642
  %63 = extractvalue { i8*, i32 } %62, 0, !dbg !5642
  store i8* %63, i8** %exn.slot, align 8, !dbg !5642
  %64 = extractvalue { i8*, i32 } %62, 1, !dbg !5642
  store i32 %64, i32* %ehselector.slot, align 4, !dbg !5642
  call void @_ZNSt7__cxx1112basic_stringIcSt11char_traitsIcESaIcEED1Ev(%"class.std::__cxx11::basic_string"* %agg.tmp) #3, !dbg !5633
  br label %ehcleanup103, !dbg !5633

ehcleanup103:                                     ; preds = %lpad98, %lpad96
  call void @_ZNSt7__cxx1112basic_stringIcSt11char_traitsIcESaIcEED1Ev(%"class.std::__cxx11::basic_string"* %move) #3, !dbg !5636
  br label %eh.resume, !dbg !5636

for.end:                                          ; preds = %for.cond
  call void @llvm.dbg.declare(metadata %"struct.std::pair.33"* %awrange, metadata !5643, metadata !DIExpression()), !dbg !5644
  %m_properties105 = getelementptr inbounds %class.SGFTree, %class.SGFTree* %this1, i32 0, i32 2, !dbg !5645
  call void @_ZNSaIcEC1Ev(%"class.std::allocator.27"* %ref.tmp107) #3, !dbg !5646
  invoke void @_ZNSt7__cxx1112basic_stringIcSt11char_traitsIcESaIcEEC1EPKcRKS3_(%"class.std::__cxx11::basic_string"* %ref.tmp106, i8* getelementptr inbounds ([3 x i8], [3 x i8]* @.str.5, i64 0, i64 0), %"class.std::allocator.27"* dereferenceable(1) %ref.tmp107)
          to label %invoke.cont109 unwind label %lpad108, !dbg !5646

invoke.cont109:                                   ; preds = %for.end
  %call112 = invoke { %"struct.std::_Rb_tree_node_base"*, %"struct.std::_Rb_tree_node_base"* } @_ZNSt8multimapINSt7__cxx1112basic_stringIcSt11char_traitsIcESaIcEEES5_St4lessIS5_ESaISt4pairIKS5_S5_EEE11equal_rangeERS9_(%"class.std::multimap"* %m_properties105, %"class.std::__cxx11::basic_string"* dereferenceable(32) %ref.tmp106)
          to label %invoke.cont111 unwind label %lpad110, !dbg !5647

invoke.cont111:                                   ; preds = %invoke.cont109
  %65 = bitcast %"struct.std::pair.33"* %awrange to { %"struct.std::_Rb_tree_node_base"*, %"struct.std::_Rb_tree_node_base"* }*, !dbg !5647
  %66 = getelementptr inbounds { %"struct.std::_Rb_tree_node_base"*, %"struct.std::_Rb_tree_node_base"* }, { %"struct.std::_Rb_tree_node_base"*, %"struct.std::_Rb_tree_node_base"* }* %65, i32 0, i32 0, !dbg !5647
  %67 = extractvalue { %"struct.std::_Rb_tree_node_base"*, %"struct.std::_Rb_tree_node_base"* } %call112, 0, !dbg !5647
  store %"struct.std::_Rb_tree_node_base"* %67, %"struct.std::_Rb_tree_node_base"** %66, align 8, !dbg !5647
  %68 = getelementptr inbounds { %"struct.std::_Rb_tree_node_base"*, %"struct.std::_Rb_tree_node_base"* }, { %"struct.std::_Rb_tree_node_base"*, %"struct.std::_Rb_tree_node_base"* }* %65, i32 0, i32 1, !dbg !5647
  %69 = extractvalue { %"struct.std::_Rb_tree_node_base"*, %"struct.std::_Rb_tree_node_base"* } %call112, 1, !dbg !5647
  store %"struct.std::_Rb_tree_node_base"* %69, %"struct.std::_Rb_tree_node_base"** %68, align 8, !dbg !5647
  call void @_ZNSt7__cxx1112basic_stringIcSt11char_traitsIcESaIcEED1Ev(%"class.std::__cxx11::basic_string"* %ref.tmp106) #3, !dbg !5645
  call void @_ZNSaIcED1Ev(%"class.std::allocator.27"* %ref.tmp107) #3, !dbg !5645
  %first115 = getelementptr inbounds %"struct.std::pair.33", %"struct.std::pair.33"* %awrange, i32 0, i32 0, !dbg !5648
  %70 = bitcast %"struct.std::_Rb_tree_iterator"* %it to i8*, !dbg !5650
  %71 = bitcast %"struct.std::_Rb_tree_iterator"* %first115 to i8*, !dbg !5650
  call void @llvm.memcpy.p0i8.p0i8.i64(i8* align 8 %70, i8* align 8 %71, i64 8, i1 false), !dbg !5650
  br label %for.cond116, !dbg !5651

for.cond116:                                      ; preds = %for.inc133, %invoke.cont111
  %second117 = getelementptr inbounds %"struct.std::pair.33", %"struct.std::pair.33"* %awrange, i32 0, i32 1, !dbg !5652
  %call118 = call zeroext i1 @_ZStneRKSt17_Rb_tree_iteratorISt4pairIKNSt7__cxx1112basic_stringIcSt11char_traitsIcESaIcEEES6_EESB_(%"struct.std::_Rb_tree_iterator"* dereferenceable(8) %it, %"struct.std::_Rb_tree_iterator"* dereferenceable(8) %second117) #3, !dbg !5654
  br i1 %call118, label %for.body119, label %for.end135, !dbg !5655

for.body119:                                      ; preds = %for.cond116
  call void @llvm.dbg.declare(metadata %"class.std::__cxx11::basic_string"* %move120, metadata !5656, metadata !DIExpression()), !dbg !5658
  %call121 = call %"struct.std::pair.30"* @_ZNKSt17_Rb_tree_iteratorISt4pairIKNSt7__cxx1112basic_stringIcSt11char_traitsIcESaIcEEES6_EEptEv(%"struct.std::_Rb_tree_iterator"* %it) #3, !dbg !5659
  %second122 = getelementptr inbounds %"struct.std::pair.30", %"struct.std::pair.30"* %call121, i32 0, i32 1, !dbg !5660
  call void @_ZNSt7__cxx1112basic_stringIcSt11char_traitsIcESaIcEEC1ERKS4_(%"class.std::__cxx11::basic_string"* %move120, %"class.std::__cxx11::basic_string"* dereferenceable(32) %second122), !dbg !5659
  call void @llvm.dbg.declare(metadata i32* %vtx123, metadata !5661, metadata !DIExpression()), !dbg !5662
  invoke void @_ZNSt7__cxx1112basic_stringIcSt11char_traitsIcESaIcEEC1ERKS4_(%"class.std::__cxx11::basic_string"* %agg.tmp124, %"class.std::__cxx11::basic_string"* dereferenceable(32) %move120)
          to label %invoke.cont126 unwind label %lpad125, !dbg !5663

invoke.cont126:                                   ; preds = %for.body119
  %call129 = invoke i32 @_ZN7SGFTree16string_to_vertexENSt7__cxx1112basic_stringIcSt11char_traitsIcESaIcEEE(%class.SGFTree* %this1, %"class.std::__cxx11::basic_string"* %agg.tmp124)
          to label %invoke.cont128 unwind label %lpad127, !dbg !5664

invoke.cont128:                                   ; preds = %invoke.cont126
  call void @_ZNSt7__cxx1112basic_stringIcSt11char_traitsIcESaIcEED1Ev(%"class.std::__cxx11::basic_string"* %agg.tmp124) #3, !dbg !5664
  store i32 %call129, i32* %vtx123, align 4, !dbg !5662
  %72 = load i32, i32* %vtx123, align 4, !dbg !5665
  invoke void @_ZN7SGFTree10apply_moveEii(%class.SGFTree* %this1, i32 1, i32 %72)
          to label %invoke.cont131 unwind label %lpad125, !dbg !5666

invoke.cont131:                                   ; preds = %invoke.cont128
  call void @_ZNSt7__cxx1112basic_stringIcSt11char_traitsIcESaIcEED1Ev(%"class.std::__cxx11::basic_string"* %move120) #3, !dbg !5667
  br label %for.inc133, !dbg !5668

for.inc133:                                       ; preds = %invoke.cont131
  %call134 = call dereferenceable(8) %"struct.std::_Rb_tree_iterator"* @_ZNSt17_Rb_tree_iteratorISt4pairIKNSt7__cxx1112basic_stringIcSt11char_traitsIcESaIcEEES6_EEppEv(%"struct.std::_Rb_tree_iterator"* %it) #3, !dbg !5669
  br label %for.cond116, !dbg !5670, !llvm.loop !5671

lpad108:                                          ; preds = %for.end
  %73 = landingpad { i8*, i32 }
          cleanup, !dbg !5544
  %74 = extractvalue { i8*, i32 } %73, 0, !dbg !5544
  store i8* %74, i8** %exn.slot, align 8, !dbg !5544
  %75 = extractvalue { i8*, i32 } %73, 1, !dbg !5544
  store i32 %75, i32* %ehselector.slot, align 4, !dbg !5544
  br label %ehcleanup114, !dbg !5544

lpad110:                                          ; preds = %invoke.cont109
  %76 = landingpad { i8*, i32 }
          cleanup, !dbg !5544
  %77 = extractvalue { i8*, i32 } %76, 0, !dbg !5544
  store i8* %77, i8** %exn.slot, align 8, !dbg !5544
  %78 = extractvalue { i8*, i32 } %76, 1, !dbg !5544
  store i32 %78, i32* %ehselector.slot, align 4, !dbg !5544
  call void @_ZNSt7__cxx1112basic_stringIcSt11char_traitsIcESaIcEED1Ev(%"class.std::__cxx11::basic_string"* %ref.tmp106) #3, !dbg !5645
  br label %ehcleanup114, !dbg !5645

ehcleanup114:                                     ; preds = %lpad110, %lpad108
  call void @_ZNSaIcED1Ev(%"class.std::allocator.27"* %ref.tmp107) #3, !dbg !5645
  br label %eh.resume, !dbg !5645

lpad125:                                          ; preds = %invoke.cont128, %for.body119
  %79 = landingpad { i8*, i32 }
          cleanup, !dbg !5673
  %80 = extractvalue { i8*, i32 } %79, 0, !dbg !5673
  store i8* %80, i8** %exn.slot, align 8, !dbg !5673
  %81 = extractvalue { i8*, i32 } %79, 1, !dbg !5673
  store i32 %81, i32* %ehselector.slot, align 4, !dbg !5673
  br label %ehcleanup132, !dbg !5673

lpad127:                                          ; preds = %invoke.cont126
  %82 = landingpad { i8*, i32 }
          cleanup, !dbg !5673
  %83 = extractvalue { i8*, i32 } %82, 0, !dbg !5673
  store i8* %83, i8** %exn.slot, align 8, !dbg !5673
  %84 = extractvalue { i8*, i32 } %82, 1, !dbg !5673
  store i32 %84, i32* %ehselector.slot, align 4, !dbg !5673
  call void @_ZNSt7__cxx1112basic_stringIcSt11char_traitsIcESaIcEED1Ev(%"class.std::__cxx11::basic_string"* %agg.tmp124) #3, !dbg !5664
  br label %ehcleanup132, !dbg !5664

ehcleanup132:                                     ; preds = %lpad127, %lpad125
  call void @_ZNSt7__cxx1112basic_stringIcSt11char_traitsIcESaIcEED1Ev(%"class.std::__cxx11::basic_string"* %move120) #3, !dbg !5667
  br label %eh.resume, !dbg !5667

for.end135:                                       ; preds = %for.cond116
  %m_properties137 = getelementptr inbounds %class.SGFTree, %class.SGFTree* %this1, i32 0, i32 2, !dbg !5674
  call void @_ZNSaIcEC1Ev(%"class.std::allocator.27"* %ref.tmp139) #3, !dbg !5675
  invoke void @_ZNSt7__cxx1112basic_stringIcSt11char_traitsIcESaIcEEC1EPKcRKS3_(%"class.std::__cxx11::basic_string"* %ref.tmp138, i8* getelementptr inbounds ([3 x i8], [3 x i8]* @.str.6, i64 0, i64 0), %"class.std::allocator.27"* dereferenceable(1) %ref.tmp139)
          to label %invoke.cont141 unwind label %lpad140, !dbg !5675

invoke.cont141:                                   ; preds = %for.end135
  %call144 = invoke %"struct.std::_Rb_tree_node_base"* @_ZNSt8multimapINSt7__cxx1112basic_stringIcSt11char_traitsIcESaIcEEES5_St4lessIS5_ESaISt4pairIKS5_S5_EEE4findERS9_(%"class.std::multimap"* %m_properties137, %"class.std::__cxx11::basic_string"* dereferenceable(32) %ref.tmp138)
          to label %invoke.cont143 unwind label %lpad142, !dbg !5676

invoke.cont143:                                   ; preds = %invoke.cont141
  %coerce.dive145 = getelementptr inbounds %"struct.std::_Rb_tree_iterator", %"struct.std::_Rb_tree_iterator"* %ref.tmp136, i32 0, i32 0, !dbg !5676
  store %"struct.std::_Rb_tree_node_base"* %call144, %"struct.std::_Rb_tree_node_base"** %coerce.dive145, align 8, !dbg !5676
  %85 = bitcast %"struct.std::_Rb_tree_iterator"* %it to i8*, !dbg !5677
  %86 = bitcast %"struct.std::_Rb_tree_iterator"* %ref.tmp136 to i8*, !dbg !5677
  call void @llvm.memcpy.p0i8.p0i8.i64(i8* align 8 %85, i8* align 8 %86, i64 8, i1 false), !dbg !5677
  call void @_ZNSt7__cxx1112basic_stringIcSt11char_traitsIcESaIcEED1Ev(%"class.std::__cxx11::basic_string"* %ref.tmp138) #3, !dbg !5678
  call void @_ZNSaIcED1Ev(%"class.std::allocator.27"* %ref.tmp139) #3, !dbg !5678
  %m_properties149 = getelementptr inbounds %class.SGFTree, %class.SGFTree* %this1, i32 0, i32 2, !dbg !5679
  %call150 = call %"struct.std::_Rb_tree_node_base"* @_ZNSt8multimapINSt7__cxx1112basic_stringIcSt11char_traitsIcESaIcEEES5_St4lessIS5_ESaISt4pairIKS5_S5_EEE3endEv(%"class.std::multimap"* %m_properties149) #3, !dbg !5681
  %coerce.dive151 = getelementptr inbounds %"struct.std::_Rb_tree_iterator", %"struct.std::_Rb_tree_iterator"* %ref.tmp148, i32 0, i32 0, !dbg !5681
  store %"struct.std::_Rb_tree_node_base"* %call150, %"struct.std::_Rb_tree_node_base"** %coerce.dive151, align 8, !dbg !5681
  %call152 = call zeroext i1 @_ZStneRKSt17_Rb_tree_iteratorISt4pairIKNSt7__cxx1112basic_stringIcSt11char_traitsIcESaIcEEES6_EESB_(%"struct.std::_Rb_tree_iterator"* dereferenceable(8) %it, %"struct.std::_Rb_tree_iterator"* dereferenceable(8) %ref.tmp148) #3, !dbg !5682
  br i1 %call152, label %if.then153, label %if.end171, !dbg !5683

if.then153:                                       ; preds = %invoke.cont143
  call void @llvm.dbg.declare(metadata %"class.std::__cxx11::basic_string"* %who, metadata !5684, metadata !DIExpression()), !dbg !5686
  %call154 = call %"struct.std::pair.30"* @_ZNKSt17_Rb_tree_iteratorISt4pairIKNSt7__cxx1112basic_stringIcSt11char_traitsIcESaIcEEES6_EEptEv(%"struct.std::_Rb_tree_iterator"* %it) #3, !dbg !5687
  %second155 = getelementptr inbounds %"struct.std::pair.30", %"struct.std::pair.30"* %call154, i32 0, i32 1, !dbg !5688
  call void @_ZNSt7__cxx1112basic_stringIcSt11char_traitsIcESaIcEEC1ERKS4_(%"class.std::__cxx11::basic_string"* %who, %"class.std::__cxx11::basic_string"* dereferenceable(32) %second155), !dbg !5687
  %call158 = invoke zeroext i1 @_ZSteqIcSt11char_traitsIcESaIcEEbRKNSt7__cxx1112basic_stringIT_T0_T1_EEPKS5_(%"class.std::__cxx11::basic_string"* dereferenceable(32) %who, i8* getelementptr inbounds ([2 x i8], [2 x i8]* @.str.7, i64 0, i64 0))
          to label %invoke.cont157 unwind label %lpad156, !dbg !5689

invoke.cont157:                                   ; preds = %if.then153
  br i1 %call158, label %if.then159, label %if.else162, !dbg !5691

if.then159:                                       ; preds = %invoke.cont157
  %m_state160 = getelementptr inbounds %class.SGFTree, %class.SGFTree* %this1, i32 0, i32 0, !dbg !5692
  %87 = bitcast %class.KoState* %m_state160 to %class.FastState*, !dbg !5692
  invoke void @_ZN9FastState11set_to_moveEi(%class.FastState* %87, i32 1)
          to label %invoke.cont161 unwind label %lpad156, !dbg !5694

invoke.cont161:                                   ; preds = %if.then159
  br label %if.end169, !dbg !5695

lpad140:                                          ; preds = %for.end135
  %88 = landingpad { i8*, i32 }
          cleanup, !dbg !5544
  %89 = extractvalue { i8*, i32 } %88, 0, !dbg !5544
  store i8* %89, i8** %exn.slot, align 8, !dbg !5544
  %90 = extractvalue { i8*, i32 } %88, 1, !dbg !5544
  store i32 %90, i32* %ehselector.slot, align 4, !dbg !5544
  br label %ehcleanup147, !dbg !5544

lpad142:                                          ; preds = %invoke.cont141
  %91 = landingpad { i8*, i32 }
          cleanup, !dbg !5544
  %92 = extractvalue { i8*, i32 } %91, 0, !dbg !5544
  store i8* %92, i8** %exn.slot, align 8, !dbg !5544
  %93 = extractvalue { i8*, i32 } %91, 1, !dbg !5544
  store i32 %93, i32* %ehselector.slot, align 4, !dbg !5544
  call void @_ZNSt7__cxx1112basic_stringIcSt11char_traitsIcESaIcEED1Ev(%"class.std::__cxx11::basic_string"* %ref.tmp138) #3, !dbg !5678
  br label %ehcleanup147, !dbg !5678

ehcleanup147:                                     ; preds = %lpad142, %lpad140
  call void @_ZNSaIcED1Ev(%"class.std::allocator.27"* %ref.tmp139) #3, !dbg !5678
  br label %eh.resume, !dbg !5678

lpad156:                                          ; preds = %if.then165, %if.else162, %if.then159, %if.then153
  %94 = landingpad { i8*, i32 }
          cleanup, !dbg !5696
  %95 = extractvalue { i8*, i32 } %94, 0, !dbg !5696
  store i8* %95, i8** %exn.slot, align 8, !dbg !5696
  %96 = extractvalue { i8*, i32 } %94, 1, !dbg !5696
  store i32 %96, i32* %ehselector.slot, align 4, !dbg !5696
  call void @_ZNSt7__cxx1112basic_stringIcSt11char_traitsIcESaIcEED1Ev(%"class.std::__cxx11::basic_string"* %who) #3, !dbg !5697
  br label %eh.resume, !dbg !5697

if.else162:                                       ; preds = %invoke.cont157
  %call164 = invoke zeroext i1 @_ZSteqIcSt11char_traitsIcESaIcEEbRKNSt7__cxx1112basic_stringIT_T0_T1_EEPKS5_(%"class.std::__cxx11::basic_string"* dereferenceable(32) %who, i8* getelementptr inbounds ([2 x i8], [2 x i8]* @.str.8, i64 0, i64 0))
          to label %invoke.cont163 unwind label %lpad156, !dbg !5698

invoke.cont163:                                   ; preds = %if.else162
  br i1 %call164, label %if.then165, label %if.end168, !dbg !5700

if.then165:                                       ; preds = %invoke.cont163
  %m_state166 = getelementptr inbounds %class.SGFTree, %class.SGFTree* %this1, i32 0, i32 0, !dbg !5701
  %97 = bitcast %class.KoState* %m_state166 to %class.FastState*, !dbg !5701
  invoke void @_ZN9FastState11set_to_moveEi(%class.FastState* %97, i32 0)
          to label %invoke.cont167 unwind label %lpad156, !dbg !5703

invoke.cont167:                                   ; preds = %if.then165
  br label %if.end168, !dbg !5704

if.end168:                                        ; preds = %invoke.cont167, %invoke.cont163
  br label %if.end169

if.end169:                                        ; preds = %if.end168, %invoke.cont161
  call void @_ZNSt7__cxx1112basic_stringIcSt11char_traitsIcESaIcEED1Ev(%"class.std::__cxx11::basic_string"* %who) #3, !dbg !5697
  br label %if.end171, !dbg !5705

if.end171:                                        ; preds = %if.end169, %invoke.cont143
  call void @llvm.dbg.declare(metadata %"class.__gnu_cxx::__normal_iterator"* %stateit, metadata !5706, metadata !DIExpression()), !dbg !5707
  call void @_ZN9__gnu_cxx17__normal_iteratorIP7SGFTreeSt6vectorIS1_SaIS1_EEEC2Ev(%"class.__gnu_cxx::__normal_iterator"* %stateit) #3, !dbg !5707
  %m_children = getelementptr inbounds %class.SGFTree, %class.SGFTree* %this1, i32 0, i32 1, !dbg !5708
  %call173 = call %class.SGFTree* @_ZNSt6vectorI7SGFTreeSaIS0_EE5beginEv(%"class.std::vector.12"* %m_children) #3, !dbg !5710
  %coerce.dive174 = getelementptr inbounds %"class.__gnu_cxx::__normal_iterator", %"class.__gnu_cxx::__normal_iterator"* %ref.tmp172, i32 0, i32 0, !dbg !5710
  store %class.SGFTree* %call173, %class.SGFTree** %coerce.dive174, align 8, !dbg !5710
  %98 = bitcast %"class.__gnu_cxx::__normal_iterator"* %stateit to i8*, !dbg !5711
  %99 = bitcast %"class.__gnu_cxx::__normal_iterator"* %ref.tmp172 to i8*, !dbg !5711
  call void @llvm.memcpy.p0i8.p0i8.i64(i8* align 8 %98, i8* align 8 %99, i64 8, i1 false), !dbg !5711
  br label %for.cond175, !dbg !5712

for.cond175:                                      ; preds = %for.inc194, %if.end171
  %m_children177 = getelementptr inbounds %class.SGFTree, %class.SGFTree* %this1, i32 0, i32 1, !dbg !5713
  %call178 = call %class.SGFTree* @_ZNSt6vectorI7SGFTreeSaIS0_EE3endEv(%"class.std::vector.12"* %m_children177) #3, !dbg !5715
  %coerce.dive179 = getelementptr inbounds %"class.__gnu_cxx::__normal_iterator", %"class.__gnu_cxx::__normal_iterator"* %ref.tmp176, i32 0, i32 0, !dbg !5715
  store %class.SGFTree* %call178, %class.SGFTree** %coerce.dive179, align 8, !dbg !5715
  %call180 = call zeroext i1 @_ZN9__gnu_cxxneIP7SGFTreeSt6vectorIS1_SaIS1_EEEEbRKNS_17__normal_iteratorIT_T0_EESB_(%"class.__gnu_cxx::__normal_iterator"* dereferenceable(8) %stateit, %"class.__gnu_cxx::__normal_iterator"* dereferenceable(8) %ref.tmp176) #3, !dbg !5716
  br i1 %call180, label %for.body181, label %for.end196, !dbg !5717

for.body181:                                      ; preds = %for.cond175
  %call182 = call %class.SGFTree* @_ZNK9__gnu_cxx17__normal_iteratorIP7SGFTreeSt6vectorIS1_SaIS1_EEEptEv(%"class.__gnu_cxx::__normal_iterator"* %stateit) #3, !dbg !5718
  %m_state183 = getelementptr inbounds %class.SGFTree, %class.SGFTree* %this1, i32 0, i32 0, !dbg !5720
  call void @_ZN7SGFTree9set_stateER7KoState(%class.SGFTree* %call182, %class.KoState* dereferenceable(8440) %m_state183), !dbg !5721
  call void @llvm.dbg.declare(metadata i32* %move184, metadata !5722, metadata !DIExpression()), !dbg !5723
  %call185 = call %class.SGFTree* @_ZNK9__gnu_cxx17__normal_iteratorIP7SGFTreeSt6vectorIS1_SaIS1_EEEptEv(%"class.__gnu_cxx::__normal_iterator"* %stateit) #3, !dbg !5724
  %m_state186 = getelementptr inbounds %class.SGFTree, %class.SGFTree* %this1, i32 0, i32 0, !dbg !5725
  %100 = bitcast %class.KoState* %m_state186 to %class.FastState*, !dbg !5725
  %call187 = call i32 @_ZN9FastState11get_to_moveEv(%class.FastState* %100), !dbg !5726
  %call188 = call i32 @_ZN7SGFTree8get_moveEi(%class.SGFTree* %call185, i32 %call187), !dbg !5727
  store i32 %call188, i32* %move184, align 4, !dbg !5723
  %101 = load i32, i32* %move184, align 4, !dbg !5728
  %cmp189 = icmp ne i32 %101, 0, !dbg !5730
  br i1 %cmp189, label %if.then190, label %if.end192, !dbg !5731

if.then190:                                       ; preds = %for.body181
  %call191 = call %class.SGFTree* @_ZNK9__gnu_cxx17__normal_iteratorIP7SGFTreeSt6vectorIS1_SaIS1_EEEptEv(%"class.__gnu_cxx::__normal_iterator"* %stateit) #3, !dbg !5732
  %102 = load i32, i32* %move184, align 4, !dbg !5734
  call void @_ZN7SGFTree10apply_moveEi(%class.SGFTree* %call191, i32 %102), !dbg !5735
  br label %if.end192, !dbg !5736

if.end192:                                        ; preds = %if.then190, %for.body181
  %call193 = call %class.SGFTree* @_ZNK9__gnu_cxx17__normal_iteratorIP7SGFTreeSt6vectorIS1_SaIS1_EEEptEv(%"class.__gnu_cxx::__normal_iterator"* %stateit) #3, !dbg !5737
  call void @_ZN7SGFTree15populate_statesEv(%class.SGFTree* %call193), !dbg !5738
  br label %for.inc194, !dbg !5739

for.inc194:                                       ; preds = %if.end192
  %call195 = call dereferenceable(8) %"class.__gnu_cxx::__normal_iterator"* @_ZN9__gnu_cxx17__normal_iteratorIP7SGFTreeSt6vectorIS1_SaIS1_EEEppEv(%"class.__gnu_cxx::__normal_iterator"* %stateit) #3, !dbg !5740
  br label %for.cond175, !dbg !5741, !llvm.loop !5742

for.end196:                                       ; preds = %for.cond175
  ret void, !dbg !5544

eh.resume:                                        ; preds = %lpad156, %ehcleanup147, %ehcleanup132, %ehcleanup114, %ehcleanup103, %ehcleanup91, %ehcleanup80, %ehcleanup58, %ehcleanup45, %ehcleanup26, %ehcleanup
  %exn = load i8*, i8** %exn.slot, align 8, !dbg !5529
  %sel = load i32, i32* %ehselector.slot, align 4, !dbg !5529
  %lpad.val = insertvalue { i8*, i32 } undef, i8* %exn, 0, !dbg !5529
  %lpad.val197 = insertvalue { i8*, i32 } %lpad.val, i32 %sel, 1, !dbg !5529
  resume { i8*, i32 } %lpad.val197, !dbg !5529

unreachable:                                      ; preds = %if.else
  unreachable
}

; Function Attrs: nounwind
declare dso_local void @_ZNSt7__cxx1119basic_istringstreamIcSt11char_traitsIcESaIcEED1Ev(%"class.std::__cxx11::basic_istringstream"*) unnamed_addr #2

; Function Attrs: noinline uwtable
define dso_local void @_ZN7SGFTree14load_from_fileENSt7__cxx1112basic_stringIcSt11char_traitsIcESaIcEEEi(%class.SGFTree* %this, %"class.std::__cxx11::basic_string"* %filename, i32 %index) #0 align 2 personality i8* bitcast (i32 (...)* @__gxx_personality_v0 to i8*) !dbg !5744 {
entry:
  %this.addr = alloca %class.SGFTree*, align 8
  %index.addr = alloca i32, align 4
  %gamebuff = alloca %"class.std::__cxx11::basic_string", align 8
  %agg.tmp = alloca %"class.std::__cxx11::basic_string", align 8
  %exn.slot = alloca i8*
  %ehselector.slot = alloca i32
  %agg.tmp3 = alloca %"class.std::__cxx11::basic_string", align 8
  store %class.SGFTree* %this, %class.SGFTree** %this.addr, align 8
  call void @llvm.dbg.declare(metadata %class.SGFTree** %this.addr, metadata !5745, metadata !DIExpression()), !dbg !5746
  call void @llvm.dbg.declare(metadata %"class.std::__cxx11::basic_string"* %filename, metadata !5747, metadata !DIExpression()), !dbg !5748
  store i32 %index, i32* %index.addr, align 4
  call void @llvm.dbg.declare(metadata i32* %index.addr, metadata !5749, metadata !DIExpression()), !dbg !5750
  %this1 = load %class.SGFTree*, %class.SGFTree** %this.addr, align 8
  call void @llvm.dbg.declare(metadata %"class.std::__cxx11::basic_string"* %gamebuff, metadata !5751, metadata !DIExpression()), !dbg !5752
  call void @_ZNSt7__cxx1112basic_stringIcSt11char_traitsIcESaIcEEC1ERKS4_(%"class.std::__cxx11::basic_string"* %agg.tmp, %"class.std::__cxx11::basic_string"* dereferenceable(32) %filename), !dbg !5753
  %0 = load i32, i32* %index.addr, align 4, !dbg !5754
  invoke void @_ZN9SGFParser14chop_from_fileENSt7__cxx1112basic_stringIcSt11char_traitsIcESaIcEEEi(%"class.std::__cxx11::basic_string"* sret %gamebuff, %"class.std::__cxx11::basic_string"* %agg.tmp, i32 %0)
          to label %invoke.cont unwind label %lpad, !dbg !5755

invoke.cont:                                      ; preds = %entry
  call void @_ZNSt7__cxx1112basic_stringIcSt11char_traitsIcESaIcEED1Ev(%"class.std::__cxx11::basic_string"* %agg.tmp) #3, !dbg !5755
  %call = call zeroext i1 @_ZNKSt7__cxx1112basic_stringIcSt11char_traitsIcESaIcEE5emptyEv(%"class.std::__cxx11::basic_string"* %gamebuff) #3, !dbg !5756
  br i1 %call, label %if.then, label %if.end, !dbg !5758

if.then:                                          ; preds = %invoke.cont
  %exception = call i8* @__cxa_allocate_exception(i64 8) #3, !dbg !5759
  %1 = bitcast i8* %exception to %"class.std::exception"*, !dbg !5759
  call void @_ZNSt9exceptionC2Ev(%"class.std::exception"* %1) #3, !dbg !5761
  invoke void @__cxa_throw(i8* %exception, i8* bitcast (i8** @_ZTISt9exception to i8*), i8* bitcast (void (%"class.std::exception"*)* @_ZNSt9exceptionD1Ev to i8*)) #13
          to label %unreachable unwind label %lpad2, !dbg !5759

lpad:                                             ; preds = %entry
  %2 = landingpad { i8*, i32 }
          cleanup, !dbg !5762
  %3 = extractvalue { i8*, i32 } %2, 0, !dbg !5762
  store i8* %3, i8** %exn.slot, align 8, !dbg !5762
  %4 = extractvalue { i8*, i32 } %2, 1, !dbg !5762
  store i32 %4, i32* %ehselector.slot, align 4, !dbg !5762
  call void @_ZNSt7__cxx1112basic_stringIcSt11char_traitsIcESaIcEED1Ev(%"class.std::__cxx11::basic_string"* %agg.tmp) #3, !dbg !5755
  br label %eh.resume, !dbg !5755

lpad2:                                            ; preds = %if.end, %if.then
  %5 = landingpad { i8*, i32 }
          cleanup, !dbg !5763
  %6 = extractvalue { i8*, i32 } %5, 0, !dbg !5763
  store i8* %6, i8** %exn.slot, align 8, !dbg !5763
  %7 = extractvalue { i8*, i32 } %5, 1, !dbg !5763
  store i32 %7, i32* %ehselector.slot, align 4, !dbg !5763
  br label %ehcleanup, !dbg !5763

if.end:                                           ; preds = %invoke.cont
  invoke void @_ZNSt7__cxx1112basic_stringIcSt11char_traitsIcESaIcEEC1ERKS4_(%"class.std::__cxx11::basic_string"* %agg.tmp3, %"class.std::__cxx11::basic_string"* dereferenceable(32) %gamebuff)
          to label %invoke.cont4 unwind label %lpad2, !dbg !5764

invoke.cont4:                                     ; preds = %if.end
  invoke void @_ZN7SGFTree16load_from_stringENSt7__cxx1112basic_stringIcSt11char_traitsIcESaIcEEE(%class.SGFTree* %this1, %"class.std::__cxx11::basic_string"* %agg.tmp3)
          to label %invoke.cont6 unwind label %lpad5, !dbg !5765

invoke.cont6:                                     ; preds = %invoke.cont4
  call void @_ZNSt7__cxx1112basic_stringIcSt11char_traitsIcESaIcEED1Ev(%"class.std::__cxx11::basic_string"* %agg.tmp3) #3, !dbg !5765
  call void @_ZNSt7__cxx1112basic_stringIcSt11char_traitsIcESaIcEED1Ev(%"class.std::__cxx11::basic_string"* %gamebuff) #3, !dbg !5762
  ret void, !dbg !5762

lpad5:                                            ; preds = %invoke.cont4
  %8 = landingpad { i8*, i32 }
          cleanup, !dbg !5762
  %9 = extractvalue { i8*, i32 } %8, 0, !dbg !5762
  store i8* %9, i8** %exn.slot, align 8, !dbg !5762
  %10 = extractvalue { i8*, i32 } %8, 1, !dbg !5762
  store i32 %10, i32* %ehselector.slot, align 4, !dbg !5762
  call void @_ZNSt7__cxx1112basic_stringIcSt11char_traitsIcESaIcEED1Ev(%"class.std::__cxx11::basic_string"* %agg.tmp3) #3, !dbg !5765
  br label %ehcleanup, !dbg !5765

ehcleanup:                                        ; preds = %lpad5, %lpad2
  call void @_ZNSt7__cxx1112basic_stringIcSt11char_traitsIcESaIcEED1Ev(%"class.std::__cxx11::basic_string"* %gamebuff) #3, !dbg !5762
  br label %eh.resume, !dbg !5762

eh.resume:                                        ; preds = %ehcleanup, %lpad
  %exn = load i8*, i8** %exn.slot, align 8, !dbg !5755
  %sel = load i32, i32* %ehselector.slot, align 4, !dbg !5755
  %lpad.val = insertvalue { i8*, i32 } undef, i8* %exn, 0, !dbg !5755
  %lpad.val7 = insertvalue { i8*, i32 } %lpad.val, i32 %sel, 1, !dbg !5755
  resume { i8*, i32 } %lpad.val7, !dbg !5755

unreachable:                                      ; preds = %if.then
  unreachable
}

declare dso_local void @_ZN9SGFParser14chop_from_fileENSt7__cxx1112basic_stringIcSt11char_traitsIcESaIcEEEi(%"class.std::__cxx11::basic_string"* sret, %"class.std::__cxx11::basic_string"*, i32) #1

declare dso_local void @_ZNSt7__cxx1112basic_stringIcSt11char_traitsIcESaIcEEC1ERKS4_(%"class.std::__cxx11::basic_string"*, %"class.std::__cxx11::basic_string"* dereferenceable(32)) unnamed_addr #1

; Function Attrs: nounwind
declare dso_local void @_ZNSt7__cxx1112basic_stringIcSt11char_traitsIcESaIcEED1Ev(%"class.std::__cxx11::basic_string"*) unnamed_addr #2

; Function Attrs: nounwind
declare dso_local zeroext i1 @_ZNKSt7__cxx1112basic_stringIcSt11char_traitsIcESaIcEE5emptyEv(%"class.std::__cxx11::basic_string"*) #2

declare dso_local i8* @__cxa_allocate_exception(i64)

; Function Attrs: noinline nounwind uwtable
define linkonce_odr dso_local void @_ZNSt9exceptionC2Ev(%"class.std::exception"* %this) unnamed_addr #5 comdat align 2 !dbg !5766 {
entry:
  %this.addr = alloca %"class.std::exception"*, align 8
  store %"class.std::exception"* %this, %"class.std::exception"** %this.addr, align 8
  call void @llvm.dbg.declare(metadata %"class.std::exception"** %this.addr, metadata !5773, metadata !DIExpression()), !dbg !5775
  %this1 = load %"class.std::exception"*, %"class.std::exception"** %this.addr, align 8
  %0 = bitcast %"class.std::exception"* %this1 to i32 (...)***, !dbg !5776
  store i32 (...)** bitcast (i8** getelementptr inbounds ({ [5 x i8*] }, { [5 x i8*] }* @_ZTVSt9exception, i32 0, inrange i32 0, i32 2) to i32 (...)**), i32 (...)*** %0, align 8, !dbg !5776
  ret void, !dbg !5777
}

; Function Attrs: nounwind
declare dso_local void @_ZNSt9exceptionD1Ev(%"class.std::exception"*) unnamed_addr #2

declare dso_local void @__cxa_throw(i8*, i8*, i8*)

; Function Attrs: noinline nounwind uwtable
define linkonce_odr dso_local void @_ZNSt17_Rb_tree_iteratorISt4pairIKNSt7__cxx1112basic_stringIcSt11char_traitsIcESaIcEEES6_EEC2Ev(%"struct.std::_Rb_tree_iterator"* %this) unnamed_addr #5 comdat align 2 !dbg !5778 {
entry:
  %this.addr = alloca %"struct.std::_Rb_tree_iterator"*, align 8
  store %"struct.std::_Rb_tree_iterator"* %this, %"struct.std::_Rb_tree_iterator"** %this.addr, align 8
  call void @llvm.dbg.declare(metadata %"struct.std::_Rb_tree_iterator"** %this.addr, metadata !5779, metadata !DIExpression()), !dbg !5781
  %this1 = load %"struct.std::_Rb_tree_iterator"*, %"struct.std::_Rb_tree_iterator"** %this.addr, align 8
  %_M_node = getelementptr inbounds %"struct.std::_Rb_tree_iterator", %"struct.std::_Rb_tree_iterator"* %this1, i32 0, i32 0, !dbg !5782
  store %"struct.std::_Rb_tree_node_base"* null, %"struct.std::_Rb_tree_node_base"** %_M_node, align 8, !dbg !5782
  ret void, !dbg !5783
}

; Function Attrs: noinline uwtable
define linkonce_odr dso_local %"struct.std::_Rb_tree_node_base"* @_ZNSt8multimapINSt7__cxx1112basic_stringIcSt11char_traitsIcESaIcEEES5_St4lessIS5_ESaISt4pairIKS5_S5_EEE4findERS9_(%"class.std::multimap"* %this, %"class.std::__cxx11::basic_string"* dereferenceable(32) %__x) #0 comdat align 2 !dbg !5784 {
entry:
  %retval = alloca %"struct.std::_Rb_tree_iterator", align 8
  %this.addr = alloca %"class.std::multimap"*, align 8
  %__x.addr = alloca %"class.std::__cxx11::basic_string"*, align 8
  store %"class.std::multimap"* %this, %"class.std::multimap"** %this.addr, align 8
  call void @llvm.dbg.declare(metadata %"class.std::multimap"** %this.addr, metadata !5785, metadata !DIExpression()), !dbg !5786
  store %"class.std::__cxx11::basic_string"* %__x, %"class.std::__cxx11::basic_string"** %__x.addr, align 8
  call void @llvm.dbg.declare(metadata %"class.std::__cxx11::basic_string"** %__x.addr, metadata !5787, metadata !DIExpression()), !dbg !5788
  %this1 = load %"class.std::multimap"*, %"class.std::multimap"** %this.addr, align 8
  %_M_t = getelementptr inbounds %"class.std::multimap", %"class.std::multimap"* %this1, i32 0, i32 0, !dbg !5789
  %0 = load %"class.std::__cxx11::basic_string"*, %"class.std::__cxx11::basic_string"** %__x.addr, align 8, !dbg !5790
  %call = call %"struct.std::_Rb_tree_node_base"* @_ZNSt8_Rb_treeINSt7__cxx1112basic_stringIcSt11char_traitsIcESaIcEEESt4pairIKS5_S5_ESt10_Select1stIS8_ESt4lessIS5_ESaIS8_EE4findERS7_(%"class.std::_Rb_tree"* %_M_t, %"class.std::__cxx11::basic_string"* dereferenceable(32) %0), !dbg !5791
  %coerce.dive = getelementptr inbounds %"struct.std::_Rb_tree_iterator", %"struct.std::_Rb_tree_iterator"* %retval, i32 0, i32 0, !dbg !5791
  store %"struct.std::_Rb_tree_node_base"* %call, %"struct.std::_Rb_tree_node_base"** %coerce.dive, align 8, !dbg !5791
  %coerce.dive2 = getelementptr inbounds %"struct.std::_Rb_tree_iterator", %"struct.std::_Rb_tree_iterator"* %retval, i32 0, i32 0, !dbg !5792
  %1 = load %"struct.std::_Rb_tree_node_base"*, %"struct.std::_Rb_tree_node_base"** %coerce.dive2, align 8, !dbg !5792
  ret %"struct.std::_Rb_tree_node_base"* %1, !dbg !5792
}

; Function Attrs: nounwind
declare dso_local void @_ZNSaIcEC1Ev(%"class.std::allocator.27"*) unnamed_addr #2

declare dso_local void @_ZNSt7__cxx1112basic_stringIcSt11char_traitsIcESaIcEEC1EPKcRKS3_(%"class.std::__cxx11::basic_string"*, i8*, %"class.std::allocator.27"* dereferenceable(1)) unnamed_addr #1

; Function Attrs: argmemonly nounwind willreturn
declare void @llvm.memcpy.p0i8.p0i8.i64(i8* noalias nocapture writeonly, i8* noalias nocapture readonly, i64, i1 immarg) #6

; Function Attrs: nounwind
declare dso_local void @_ZNSaIcED1Ev(%"class.std::allocator.27"*) unnamed_addr #2

; Function Attrs: noinline nounwind uwtable
define linkonce_odr dso_local zeroext i1 @_ZStneRKSt17_Rb_tree_iteratorISt4pairIKNSt7__cxx1112basic_stringIcSt11char_traitsIcESaIcEEES6_EESB_(%"struct.std::_Rb_tree_iterator"* dereferenceable(8) %__x, %"struct.std::_Rb_tree_iterator"* dereferenceable(8) %__y) #5 comdat !dbg !5793 {
entry:
  %__x.addr = alloca %"struct.std::_Rb_tree_iterator"*, align 8
  %__y.addr = alloca %"struct.std::_Rb_tree_iterator"*, align 8
  store %"struct.std::_Rb_tree_iterator"* %__x, %"struct.std::_Rb_tree_iterator"** %__x.addr, align 8
  call void @llvm.dbg.declare(metadata %"struct.std::_Rb_tree_iterator"** %__x.addr, metadata !5798, metadata !DIExpression()), !dbg !5799
  store %"struct.std::_Rb_tree_iterator"* %__y, %"struct.std::_Rb_tree_iterator"** %__y.addr, align 8
  call void @llvm.dbg.declare(metadata %"struct.std::_Rb_tree_iterator"** %__y.addr, metadata !5800, metadata !DIExpression()), !dbg !5801
  %0 = load %"struct.std::_Rb_tree_iterator"*, %"struct.std::_Rb_tree_iterator"** %__x.addr, align 8, !dbg !5802
  %_M_node = getelementptr inbounds %"struct.std::_Rb_tree_iterator", %"struct.std::_Rb_tree_iterator"* %0, i32 0, i32 0, !dbg !5803
  %1 = load %"struct.std::_Rb_tree_node_base"*, %"struct.std::_Rb_tree_node_base"** %_M_node, align 8, !dbg !5803
  %2 = load %"struct.std::_Rb_tree_iterator"*, %"struct.std::_Rb_tree_iterator"** %__y.addr, align 8, !dbg !5804
  %_M_node1 = getelementptr inbounds %"struct.std::_Rb_tree_iterator", %"struct.std::_Rb_tree_iterator"* %2, i32 0, i32 0, !dbg !5805
  %3 = load %"struct.std::_Rb_tree_node_base"*, %"struct.std::_Rb_tree_node_base"** %_M_node1, align 8, !dbg !5805
  %cmp = icmp ne %"struct.std::_Rb_tree_node_base"* %1, %3, !dbg !5806
  ret i1 %cmp, !dbg !5807
}

; Function Attrs: noinline nounwind uwtable
define linkonce_odr dso_local %"struct.std::_Rb_tree_node_base"* @_ZNSt8multimapINSt7__cxx1112basic_stringIcSt11char_traitsIcESaIcEEES5_St4lessIS5_ESaISt4pairIKS5_S5_EEE3endEv(%"class.std::multimap"* %this) #5 comdat align 2 !dbg !5808 {
entry:
  %retval = alloca %"struct.std::_Rb_tree_iterator", align 8
  %this.addr = alloca %"class.std::multimap"*, align 8
  store %"class.std::multimap"* %this, %"class.std::multimap"** %this.addr, align 8
  call void @llvm.dbg.declare(metadata %"class.std::multimap"** %this.addr, metadata !5809, metadata !DIExpression()), !dbg !5810
  %this1 = load %"class.std::multimap"*, %"class.std::multimap"** %this.addr, align 8
  %_M_t = getelementptr inbounds %"class.std::multimap", %"class.std::multimap"* %this1, i32 0, i32 0, !dbg !5811
  %call = call %"struct.std::_Rb_tree_node_base"* @_ZNSt8_Rb_treeINSt7__cxx1112basic_stringIcSt11char_traitsIcESaIcEEESt4pairIKS5_S5_ESt10_Select1stIS8_ESt4lessIS5_ESaIS8_EE3endEv(%"class.std::_Rb_tree"* %_M_t) #3, !dbg !5812
  %coerce.dive = getelementptr inbounds %"struct.std::_Rb_tree_iterator", %"struct.std::_Rb_tree_iterator"* %retval, i32 0, i32 0, !dbg !5812
  store %"struct.std::_Rb_tree_node_base"* %call, %"struct.std::_Rb_tree_node_base"** %coerce.dive, align 8, !dbg !5812
  %coerce.dive2 = getelementptr inbounds %"struct.std::_Rb_tree_iterator", %"struct.std::_Rb_tree_iterator"* %retval, i32 0, i32 0, !dbg !5813
  %0 = load %"struct.std::_Rb_tree_node_base"*, %"struct.std::_Rb_tree_node_base"** %coerce.dive2, align 8, !dbg !5813
  ret %"struct.std::_Rb_tree_node_base"* %0, !dbg !5813
}

; Function Attrs: noinline uwtable
define linkonce_odr dso_local zeroext i1 @_ZStneIcSt11char_traitsIcESaIcEEbRKNSt7__cxx1112basic_stringIT_T0_T1_EEPKS5_(%"class.std::__cxx11::basic_string"* dereferenceable(32) %__lhs, i8* %__rhs) #0 comdat !dbg !5814 {
entry:
  %__lhs.addr = alloca %"class.std::__cxx11::basic_string"*, align 8
  %__rhs.addr = alloca i8*, align 8
  store %"class.std::__cxx11::basic_string"* %__lhs, %"class.std::__cxx11::basic_string"** %__lhs.addr, align 8
  call void @llvm.dbg.declare(metadata %"class.std::__cxx11::basic_string"** %__lhs.addr, metadata !5874, metadata !DIExpression()), !dbg !5875
  store i8* %__rhs, i8** %__rhs.addr, align 8
  call void @llvm.dbg.declare(metadata i8** %__rhs.addr, metadata !5876, metadata !DIExpression()), !dbg !5877
  %0 = load %"class.std::__cxx11::basic_string"*, %"class.std::__cxx11::basic_string"** %__lhs.addr, align 8, !dbg !5878
  %1 = load i8*, i8** %__rhs.addr, align 8, !dbg !5879
  %call = call zeroext i1 @_ZSteqIcSt11char_traitsIcESaIcEEbRKNSt7__cxx1112basic_stringIT_T0_T1_EEPKS5_(%"class.std::__cxx11::basic_string"* dereferenceable(32) %0, i8* %1), !dbg !5880
  %lnot = xor i1 %call, true, !dbg !5881
  ret i1 %lnot, !dbg !5882
}

; Function Attrs: noinline nounwind uwtable
define linkonce_odr dso_local %"struct.std::pair.30"* @_ZNKSt17_Rb_tree_iteratorISt4pairIKNSt7__cxx1112basic_stringIcSt11char_traitsIcESaIcEEES6_EEptEv(%"struct.std::_Rb_tree_iterator"* %this) #5 comdat align 2 personality i8* bitcast (i32 (...)* @__gxx_personality_v0 to i8*) !dbg !5883 {
entry:
  %this.addr = alloca %"struct.std::_Rb_tree_iterator"*, align 8
  store %"struct.std::_Rb_tree_iterator"* %this, %"struct.std::_Rb_tree_iterator"** %this.addr, align 8
  call void @llvm.dbg.declare(metadata %"struct.std::_Rb_tree_iterator"** %this.addr, metadata !5884, metadata !DIExpression()), !dbg !5886
  %this1 = load %"struct.std::_Rb_tree_iterator"*, %"struct.std::_Rb_tree_iterator"** %this.addr, align 8
  %_M_node = getelementptr inbounds %"struct.std::_Rb_tree_iterator", %"struct.std::_Rb_tree_iterator"* %this1, i32 0, i32 0, !dbg !5887
  %0 = load %"struct.std::_Rb_tree_node_base"*, %"struct.std::_Rb_tree_node_base"** %_M_node, align 8, !dbg !5887
  %1 = bitcast %"struct.std::_Rb_tree_node_base"* %0 to %"struct.std::_Rb_tree_node"*, !dbg !5888
  %call = invoke %"struct.std::pair.30"* @_ZNSt13_Rb_tree_nodeISt4pairIKNSt7__cxx1112basic_stringIcSt11char_traitsIcESaIcEEES6_EE9_M_valptrEv(%"struct.std::_Rb_tree_node"* %1)
          to label %invoke.cont unwind label %terminate.lpad, !dbg !5889

invoke.cont:                                      ; preds = %entry
  ret %"struct.std::pair.30"* %call, !dbg !5890

terminate.lpad:                                   ; preds = %entry
  %2 = landingpad { i8*, i32 }
          catch i8* null, !dbg !5889
  %3 = extractvalue { i8*, i32 } %2, 0, !dbg !5889
  call void @__clang_call_terminate(i8* %3) #14, !dbg !5889
  unreachable, !dbg !5889
}

declare dso_local dereferenceable(280) %"class.std::basic_istream"* @_ZNSirsERi(%"class.std::basic_istream"*, i32* dereferenceable(4)) #1

declare dso_local dereferenceable(280) %"class.std::basic_istream"* @_ZNSirsERf(%"class.std::basic_istream"*, float* dereferenceable(4)) #1

declare dso_local i32 @_ZN9FastBoard13get_boardsizeEv(%class.FastBoard*) #1

; Function Attrs: noinline uwtable
define linkonce_odr dso_local { %"struct.std::_Rb_tree_node_base"*, %"struct.std::_Rb_tree_node_base"* } @_ZNSt8multimapINSt7__cxx1112basic_stringIcSt11char_traitsIcESaIcEEES5_St4lessIS5_ESaISt4pairIKS5_S5_EEE11equal_rangeERS9_(%"class.std::multimap"* %this, %"class.std::__cxx11::basic_string"* dereferenceable(32) %__x) #0 comdat align 2 !dbg !5891 {
entry:
  %retval = alloca %"struct.std::pair.33", align 8
  %this.addr = alloca %"class.std::multimap"*, align 8
  %__x.addr = alloca %"class.std::__cxx11::basic_string"*, align 8
  store %"class.std::multimap"* %this, %"class.std::multimap"** %this.addr, align 8
  call void @llvm.dbg.declare(metadata %"class.std::multimap"** %this.addr, metadata !5892, metadata !DIExpression()), !dbg !5893
  store %"class.std::__cxx11::basic_string"* %__x, %"class.std::__cxx11::basic_string"** %__x.addr, align 8
  call void @llvm.dbg.declare(metadata %"class.std::__cxx11::basic_string"** %__x.addr, metadata !5894, metadata !DIExpression()), !dbg !5895
  %this1 = load %"class.std::multimap"*, %"class.std::multimap"** %this.addr, align 8
  %_M_t = getelementptr inbounds %"class.std::multimap", %"class.std::multimap"* %this1, i32 0, i32 0, !dbg !5896
  %0 = load %"class.std::__cxx11::basic_string"*, %"class.std::__cxx11::basic_string"** %__x.addr, align 8, !dbg !5897
  %call = call { %"struct.std::_Rb_tree_node_base"*, %"struct.std::_Rb_tree_node_base"* } @_ZNSt8_Rb_treeINSt7__cxx1112basic_stringIcSt11char_traitsIcESaIcEEESt4pairIKS5_S5_ESt10_Select1stIS8_ESt4lessIS5_ESaIS8_EE11equal_rangeERS7_(%"class.std::_Rb_tree"* %_M_t, %"class.std::__cxx11::basic_string"* dereferenceable(32) %0), !dbg !5898
  %1 = bitcast %"struct.std::pair.33"* %retval to { %"struct.std::_Rb_tree_node_base"*, %"struct.std::_Rb_tree_node_base"* }*, !dbg !5898
  %2 = getelementptr inbounds { %"struct.std::_Rb_tree_node_base"*, %"struct.std::_Rb_tree_node_base"* }, { %"struct.std::_Rb_tree_node_base"*, %"struct.std::_Rb_tree_node_base"* }* %1, i32 0, i32 0, !dbg !5898
  %3 = extractvalue { %"struct.std::_Rb_tree_node_base"*, %"struct.std::_Rb_tree_node_base"* } %call, 0, !dbg !5898
  store %"struct.std::_Rb_tree_node_base"* %3, %"struct.std::_Rb_tree_node_base"** %2, align 8, !dbg !5898
  %4 = getelementptr inbounds { %"struct.std::_Rb_tree_node_base"*, %"struct.std::_Rb_tree_node_base"* }, { %"struct.std::_Rb_tree_node_base"*, %"struct.std::_Rb_tree_node_base"* }* %1, i32 0, i32 1, !dbg !5898
  %5 = extractvalue { %"struct.std::_Rb_tree_node_base"*, %"struct.std::_Rb_tree_node_base"* } %call, 1, !dbg !5898
  store %"struct.std::_Rb_tree_node_base"* %5, %"struct.std::_Rb_tree_node_base"** %4, align 8, !dbg !5898
  %6 = bitcast %"struct.std::pair.33"* %retval to { %"struct.std::_Rb_tree_node_base"*, %"struct.std::_Rb_tree_node_base"* }*, !dbg !5899
  %7 = load { %"struct.std::_Rb_tree_node_base"*, %"struct.std::_Rb_tree_node_base"* }, { %"struct.std::_Rb_tree_node_base"*, %"struct.std::_Rb_tree_node_base"* }* %6, align 8, !dbg !5899
  ret { %"struct.std::_Rb_tree_node_base"*, %"struct.std::_Rb_tree_node_base"* } %7, !dbg !5899
}

; Function Attrs: noinline uwtable
define dso_local i32 @_ZN7SGFTree16string_to_vertexENSt7__cxx1112basic_stringIcSt11char_traitsIcESaIcEEE(%class.SGFTree* %this, %"class.std::__cxx11::basic_string"* %movestring) #0 align 2 !dbg !5900 {
entry:
  %retval = alloca i32, align 4
  %this.addr = alloca %class.SGFTree*, align 8
  %bsize = alloca i32, align 4
  %c1 = alloca i8, align 1
  %c2 = alloca i8, align 1
  %cc1 = alloca i32, align 4
  %cc2 = alloca i32, align 4
  %vtx = alloca i32, align 4
  store %class.SGFTree* %this, %class.SGFTree** %this.addr, align 8
  call void @llvm.dbg.declare(metadata %class.SGFTree** %this.addr, metadata !5901, metadata !DIExpression()), !dbg !5902
  call void @llvm.dbg.declare(metadata %"class.std::__cxx11::basic_string"* %movestring, metadata !5903, metadata !DIExpression()), !dbg !5904
  %this1 = load %class.SGFTree*, %class.SGFTree** %this.addr, align 8
  %call = call i64 @_ZNKSt7__cxx1112basic_stringIcSt11char_traitsIcESaIcEE4sizeEv(%"class.std::__cxx11::basic_string"* %movestring) #3, !dbg !5905
  %cmp = icmp eq i64 %call, 0, !dbg !5907
  br i1 %cmp, label %if.then, label %if.end, !dbg !5908

if.then:                                          ; preds = %entry
  store i32 -1, i32* %retval, align 4, !dbg !5909
  br label %return, !dbg !5909

if.end:                                           ; preds = %entry
  %m_state = getelementptr inbounds %class.SGFTree, %class.SGFTree* %this1, i32 0, i32 0, !dbg !5911
  %0 = bitcast %class.KoState* %m_state to %class.FastState*, !dbg !5911
  %board = getelementptr inbounds %class.FastState, %class.FastState* %0, i32 0, i32 0, !dbg !5913
  %1 = bitcast %class.FullBoard* %board to %class.FastBoard*, !dbg !5911
  %call2 = call i32 @_ZN9FastBoard13get_boardsizeEv(%class.FastBoard* %1), !dbg !5914
  %cmp3 = icmp sle i32 %call2, 19, !dbg !5915
  br i1 %cmp3, label %if.then4, label %if.end8, !dbg !5916

if.then4:                                         ; preds = %if.end
  %call5 = call zeroext i1 @_ZSteqIcSt11char_traitsIcESaIcEEbRKNSt7__cxx1112basic_stringIT_T0_T1_EEPKS5_(%"class.std::__cxx11::basic_string"* dereferenceable(32) %movestring, i8* getelementptr inbounds ([3 x i8], [3 x i8]* @.str.9, i64 0, i64 0)), !dbg !5917
  br i1 %call5, label %if.then6, label %if.end7, !dbg !5920

if.then6:                                         ; preds = %if.then4
  store i32 -1, i32* %retval, align 4, !dbg !5921
  br label %return, !dbg !5921

if.end7:                                          ; preds = %if.then4
  br label %if.end8, !dbg !5923

if.end8:                                          ; preds = %if.end7, %if.end
  call void @llvm.dbg.declare(metadata i32* %bsize, metadata !5924, metadata !DIExpression()), !dbg !5925
  %m_state9 = getelementptr inbounds %class.SGFTree, %class.SGFTree* %this1, i32 0, i32 0, !dbg !5926
  %2 = bitcast %class.KoState* %m_state9 to %class.FastState*, !dbg !5926
  %board10 = getelementptr inbounds %class.FastState, %class.FastState* %2, i32 0, i32 0, !dbg !5927
  %3 = bitcast %class.FullBoard* %board10 to %class.FastBoard*, !dbg !5926
  %call11 = call i32 @_ZN9FastBoard13get_boardsizeEv(%class.FastBoard* %3), !dbg !5928
  store i32 %call11, i32* %bsize, align 4, !dbg !5925
  call void @llvm.dbg.declare(metadata i8* %c1, metadata !5929, metadata !DIExpression()), !dbg !5930
  %call12 = call dereferenceable(1) i8* @_ZNSt7__cxx1112basic_stringIcSt11char_traitsIcESaIcEEixEm(%"class.std::__cxx11::basic_string"* %movestring, i64 0), !dbg !5931
  %4 = load i8, i8* %call12, align 1, !dbg !5931
  store i8 %4, i8* %c1, align 1, !dbg !5930
  call void @llvm.dbg.declare(metadata i8* %c2, metadata !5932, metadata !DIExpression()), !dbg !5933
  %call13 = call dereferenceable(1) i8* @_ZNSt7__cxx1112basic_stringIcSt11char_traitsIcESaIcEEixEm(%"class.std::__cxx11::basic_string"* %movestring, i64 1), !dbg !5934
  %5 = load i8, i8* %call13, align 1, !dbg !5934
  store i8 %5, i8* %c2, align 1, !dbg !5933
  call void @llvm.dbg.declare(metadata i32* %cc1, metadata !5935, metadata !DIExpression()), !dbg !5936
  %6 = load i8, i8* %c1, align 1, !dbg !5937
  %conv = sext i8 %6 to i32, !dbg !5937
  %sub = sub nsw i32 %conv, 97, !dbg !5938
  store i32 %sub, i32* %cc1, align 4, !dbg !5936
  call void @llvm.dbg.declare(metadata i32* %cc2, metadata !5939, metadata !DIExpression()), !dbg !5940
  %7 = load i32, i32* %bsize, align 4, !dbg !5941
  %8 = load i8, i8* %c2, align 1, !dbg !5942
  %conv14 = sext i8 %8 to i32, !dbg !5942
  %sub15 = sub nsw i32 %conv14, 97, !dbg !5943
  %sub16 = sub nsw i32 %7, %sub15, !dbg !5944
  %sub17 = sub nsw i32 %sub16, 1, !dbg !5945
  store i32 %sub17, i32* %cc2, align 4, !dbg !5940
  %9 = load i32, i32* %cc1, align 4, !dbg !5946
  %cmp18 = icmp slt i32 %9, 0, !dbg !5948
  br i1 %cmp18, label %if.then24, label %lor.lhs.false, !dbg !5949

lor.lhs.false:                                    ; preds = %if.end8
  %10 = load i32, i32* %cc1, align 4, !dbg !5950
  %11 = load i32, i32* %bsize, align 4, !dbg !5951
  %cmp19 = icmp sge i32 %10, %11, !dbg !5952
  br i1 %cmp19, label %if.then24, label %lor.lhs.false20, !dbg !5953

lor.lhs.false20:                                  ; preds = %lor.lhs.false
  %12 = load i32, i32* %cc2, align 4, !dbg !5954
  %cmp21 = icmp slt i32 %12, 0, !dbg !5955
  br i1 %cmp21, label %if.then24, label %lor.lhs.false22, !dbg !5956

lor.lhs.false22:                                  ; preds = %lor.lhs.false20
  %13 = load i32, i32* %cc2, align 4, !dbg !5957
  %14 = load i32, i32* %bsize, align 4, !dbg !5958
  %cmp23 = icmp sge i32 %13, %14, !dbg !5959
  br i1 %cmp23, label %if.then24, label %if.end25, !dbg !5960

if.then24:                                        ; preds = %lor.lhs.false22, %lor.lhs.false20, %lor.lhs.false, %if.end8
  %exception = call i8* @__cxa_allocate_exception(i64 8) #3, !dbg !5961
  %15 = bitcast i8* %exception to %"class.std::exception"*, !dbg !5961
  call void @_ZNSt9exceptionC2Ev(%"class.std::exception"* %15) #3, !dbg !5963
  call void @__cxa_throw(i8* %exception, i8* bitcast (i8** @_ZTISt9exception to i8*), i8* bitcast (void (%"class.std::exception"*)* @_ZNSt9exceptionD1Ev to i8*)) #13, !dbg !5961
  unreachable, !dbg !5961

if.end25:                                         ; preds = %lor.lhs.false22
  call void @llvm.dbg.declare(metadata i32* %vtx, metadata !5964, metadata !DIExpression()), !dbg !5965
  %m_state26 = getelementptr inbounds %class.SGFTree, %class.SGFTree* %this1, i32 0, i32 0, !dbg !5966
  %16 = bitcast %class.KoState* %m_state26 to %class.FastState*, !dbg !5966
  %board27 = getelementptr inbounds %class.FastState, %class.FastState* %16, i32 0, i32 0, !dbg !5967
  %17 = bitcast %class.FullBoard* %board27 to %class.FastBoard*, !dbg !5966
  %18 = load i32, i32* %cc1, align 4, !dbg !5968
  %19 = load i32, i32* %cc2, align 4, !dbg !5969
  %call28 = call i32 @_ZN9FastBoard10get_vertexEii(%class.FastBoard* %17, i32 %18, i32 %19), !dbg !5970
  store i32 %call28, i32* %vtx, align 4, !dbg !5965
  %20 = load i32, i32* %vtx, align 4, !dbg !5971
  store i32 %20, i32* %retval, align 4, !dbg !5972
  br label %return, !dbg !5972

return:                                           ; preds = %if.end25, %if.then6, %if.then
  %21 = load i32, i32* %retval, align 4, !dbg !5973
  ret i32 %21, !dbg !5973
}

; Function Attrs: noinline uwtable
define dso_local void @_ZN7SGFTree10apply_moveEii(%class.SGFTree* %this, i32 %color, i32 %move) #0 align 2 !dbg !5974 {
entry:
  %this.addr = alloca %class.SGFTree*, align 8
  %color.addr = alloca i32, align 4
  %move.addr = alloca i32, align 4
  store %class.SGFTree* %this, %class.SGFTree** %this.addr, align 8
  call void @llvm.dbg.declare(metadata %class.SGFTree** %this.addr, metadata !5975, metadata !DIExpression()), !dbg !5976
  store i32 %color, i32* %color.addr, align 4
  call void @llvm.dbg.declare(metadata i32* %color.addr, metadata !5977, metadata !DIExpression()), !dbg !5978
  store i32 %move, i32* %move.addr, align 4
  call void @llvm.dbg.declare(metadata i32* %move.addr, metadata !5979, metadata !DIExpression()), !dbg !5980
  %this1 = load %class.SGFTree*, %class.SGFTree** %this.addr, align 8
  %0 = load i32, i32* %move.addr, align 4, !dbg !5981
  %cmp = icmp ne i32 %0, -1, !dbg !5983
  br i1 %cmp, label %land.lhs.true, label %if.end, !dbg !5984

land.lhs.true:                                    ; preds = %entry
  %m_state = getelementptr inbounds %class.SGFTree, %class.SGFTree* %this1, i32 0, i32 0, !dbg !5985
  %1 = bitcast %class.KoState* %m_state to %class.FastState*, !dbg !5985
  %board = getelementptr inbounds %class.FastState, %class.FastState* %1, i32 0, i32 0, !dbg !5986
  %2 = bitcast %class.FullBoard* %board to %class.FastBoard*, !dbg !5985
  %3 = load i32, i32* %move.addr, align 4, !dbg !5987
  %call = call i32 @_ZN9FastBoard10get_squareEi(%class.FastBoard* %2, i32 %3), !dbg !5988
  %cmp2 = icmp ne i32 %call, 2, !dbg !5989
  br i1 %cmp2, label %if.then, label %if.end, !dbg !5990

if.then:                                          ; preds = %land.lhs.true
  %exception = call i8* @__cxa_allocate_exception(i64 8) #3, !dbg !5991
  %4 = bitcast i8* %exception to %"class.std::exception"*, !dbg !5991
  call void @_ZNSt9exceptionC2Ev(%"class.std::exception"* %4) #3, !dbg !5993
  call void @__cxa_throw(i8* %exception, i8* bitcast (i8** @_ZTISt9exception to i8*), i8* bitcast (void (%"class.std::exception"*)* @_ZNSt9exceptionD1Ev to i8*)) #13, !dbg !5991
  unreachable, !dbg !5991

if.end:                                           ; preds = %land.lhs.true, %entry
  %m_state3 = getelementptr inbounds %class.SGFTree, %class.SGFTree* %this1, i32 0, i32 0, !dbg !5994
  %5 = load i32, i32* %color.addr, align 4, !dbg !5995
  %6 = load i32, i32* %move.addr, align 4, !dbg !5996
  call void @_ZN7KoState9play_moveEii(%class.KoState* %m_state3, i32 %5, i32 %6), !dbg !5997
  ret void, !dbg !5998
}

; Function Attrs: noinline nounwind uwtable
define linkonce_odr dso_local dereferenceable(8) %"struct.std::_Rb_tree_iterator"* @_ZNSt17_Rb_tree_iteratorISt4pairIKNSt7__cxx1112basic_stringIcSt11char_traitsIcESaIcEEES6_EEppEv(%"struct.std::_Rb_tree_iterator"* %this) #5 comdat align 2 !dbg !5999 {
entry:
  %this.addr = alloca %"struct.std::_Rb_tree_iterator"*, align 8
  store %"struct.std::_Rb_tree_iterator"* %this, %"struct.std::_Rb_tree_iterator"** %this.addr, align 8
  call void @llvm.dbg.declare(metadata %"struct.std::_Rb_tree_iterator"** %this.addr, metadata !6000, metadata !DIExpression()), !dbg !6001
  %this1 = load %"struct.std::_Rb_tree_iterator"*, %"struct.std::_Rb_tree_iterator"** %this.addr, align 8
  %_M_node = getelementptr inbounds %"struct.std::_Rb_tree_iterator", %"struct.std::_Rb_tree_iterator"* %this1, i32 0, i32 0, !dbg !6002
  %0 = load %"struct.std::_Rb_tree_node_base"*, %"struct.std::_Rb_tree_node_base"** %_M_node, align 8, !dbg !6002
  %call = call %"struct.std::_Rb_tree_node_base"* @_ZSt18_Rb_tree_incrementPSt18_Rb_tree_node_base(%"struct.std::_Rb_tree_node_base"* %0) #15, !dbg !6003
  %_M_node2 = getelementptr inbounds %"struct.std::_Rb_tree_iterator", %"struct.std::_Rb_tree_iterator"* %this1, i32 0, i32 0, !dbg !6004
  store %"struct.std::_Rb_tree_node_base"* %call, %"struct.std::_Rb_tree_node_base"** %_M_node2, align 8, !dbg !6005
  ret %"struct.std::_Rb_tree_iterator"* %this1, !dbg !6006
}

; Function Attrs: noinline nounwind uwtable
define linkonce_odr dso_local zeroext i1 @_ZSteqIcSt11char_traitsIcESaIcEEbRKNSt7__cxx1112basic_stringIT_T0_T1_EEPKS5_(%"class.std::__cxx11::basic_string"* dereferenceable(32) %__lhs, i8* %__rhs) #5 comdat !dbg !6007 {
entry:
  %__lhs.addr = alloca %"class.std::__cxx11::basic_string"*, align 8
  %__rhs.addr = alloca i8*, align 8
  store %"class.std::__cxx11::basic_string"* %__lhs, %"class.std::__cxx11::basic_string"** %__lhs.addr, align 8
  call void @llvm.dbg.declare(metadata %"class.std::__cxx11::basic_string"** %__lhs.addr, metadata !6008, metadata !DIExpression()), !dbg !6009
  store i8* %__rhs, i8** %__rhs.addr, align 8
  call void @llvm.dbg.declare(metadata i8** %__rhs.addr, metadata !6010, metadata !DIExpression()), !dbg !6011
  %0 = load %"class.std::__cxx11::basic_string"*, %"class.std::__cxx11::basic_string"** %__lhs.addr, align 8, !dbg !6012
  %1 = load i8*, i8** %__rhs.addr, align 8, !dbg !6013
  %call = call i32 @_ZNKSt7__cxx1112basic_stringIcSt11char_traitsIcESaIcEE7compareEPKc(%"class.std::__cxx11::basic_string"* %0, i8* %1) #3, !dbg !6014
  %cmp = icmp eq i32 %call, 0, !dbg !6015
  ret i1 %cmp, !dbg !6016
}

declare dso_local void @_ZN9FastState11set_to_moveEi(%class.FastState*, i32) #1

; Function Attrs: noinline nounwind uwtable
define linkonce_odr dso_local void @_ZN9__gnu_cxx17__normal_iteratorIP7SGFTreeSt6vectorIS1_SaIS1_EEEC2Ev(%"class.__gnu_cxx::__normal_iterator"* %this) unnamed_addr #5 comdat align 2 !dbg !6017 {
entry:
  %this.addr = alloca %"class.__gnu_cxx::__normal_iterator"*, align 8
  store %"class.__gnu_cxx::__normal_iterator"* %this, %"class.__gnu_cxx::__normal_iterator"** %this.addr, align 8
  call void @llvm.dbg.declare(metadata %"class.__gnu_cxx::__normal_iterator"** %this.addr, metadata !6018, metadata !DIExpression()), !dbg !6020
  %this1 = load %"class.__gnu_cxx::__normal_iterator"*, %"class.__gnu_cxx::__normal_iterator"** %this.addr, align 8
  %_M_current = getelementptr inbounds %"class.__gnu_cxx::__normal_iterator", %"class.__gnu_cxx::__normal_iterator"* %this1, i32 0, i32 0, !dbg !6021
  store %class.SGFTree* null, %class.SGFTree** %_M_current, align 8, !dbg !6021
  ret void, !dbg !6022
}

; Function Attrs: noinline nounwind uwtable
define linkonce_odr dso_local %class.SGFTree* @_ZNSt6vectorI7SGFTreeSaIS0_EE5beginEv(%"class.std::vector.12"* %this) #5 comdat align 2 !dbg !6023 {
entry:
  %retval = alloca %"class.__gnu_cxx::__normal_iterator", align 8
  %this.addr = alloca %"class.std::vector.12"*, align 8
  store %"class.std::vector.12"* %this, %"class.std::vector.12"** %this.addr, align 8
  call void @llvm.dbg.declare(metadata %"class.std::vector.12"** %this.addr, metadata !6024, metadata !DIExpression()), !dbg !6025
  %this1 = load %"class.std::vector.12"*, %"class.std::vector.12"** %this.addr, align 8
  %0 = bitcast %"class.std::vector.12"* %this1 to %"struct.std::_Vector_base.13"*, !dbg !6026
  %_M_impl = getelementptr inbounds %"struct.std::_Vector_base.13", %"struct.std::_Vector_base.13"* %0, i32 0, i32 0, !dbg !6026
  %1 = bitcast %"struct.std::_Vector_base<SGFTree, std::allocator<SGFTree> >::_Vector_impl"* %_M_impl to %"struct.std::_Vector_base<SGFTree, std::allocator<SGFTree> >::_Vector_impl_data"*, !dbg !6027
  %_M_start = getelementptr inbounds %"struct.std::_Vector_base<SGFTree, std::allocator<SGFTree> >::_Vector_impl_data", %"struct.std::_Vector_base<SGFTree, std::allocator<SGFTree> >::_Vector_impl_data"* %1, i32 0, i32 0, !dbg !6028
  call void @_ZN9__gnu_cxx17__normal_iteratorIP7SGFTreeSt6vectorIS1_SaIS1_EEEC2ERKS2_(%"class.__gnu_cxx::__normal_iterator"* %retval, %class.SGFTree** dereferenceable(8) %_M_start) #3, !dbg !6029
  %coerce.dive = getelementptr inbounds %"class.__gnu_cxx::__normal_iterator", %"class.__gnu_cxx::__normal_iterator"* %retval, i32 0, i32 0, !dbg !6030
  %2 = load %class.SGFTree*, %class.SGFTree** %coerce.dive, align 8, !dbg !6030
  ret %class.SGFTree* %2, !dbg !6030
}

; Function Attrs: noinline nounwind uwtable
define linkonce_odr dso_local zeroext i1 @_ZN9__gnu_cxxneIP7SGFTreeSt6vectorIS1_SaIS1_EEEEbRKNS_17__normal_iteratorIT_T0_EESB_(%"class.__gnu_cxx::__normal_iterator"* dereferenceable(8) %__lhs, %"class.__gnu_cxx::__normal_iterator"* dereferenceable(8) %__rhs) #5 comdat !dbg !6031 {
entry:
  %__lhs.addr = alloca %"class.__gnu_cxx::__normal_iterator"*, align 8
  %__rhs.addr = alloca %"class.__gnu_cxx::__normal_iterator"*, align 8
  store %"class.__gnu_cxx::__normal_iterator"* %__lhs, %"class.__gnu_cxx::__normal_iterator"** %__lhs.addr, align 8
  call void @llvm.dbg.declare(metadata %"class.__gnu_cxx::__normal_iterator"** %__lhs.addr, metadata !6035, metadata !DIExpression()), !dbg !6036
  store %"class.__gnu_cxx::__normal_iterator"* %__rhs, %"class.__gnu_cxx::__normal_iterator"** %__rhs.addr, align 8
  call void @llvm.dbg.declare(metadata %"class.__gnu_cxx::__normal_iterator"** %__rhs.addr, metadata !6037, metadata !DIExpression()), !dbg !6038
  %0 = load %"class.__gnu_cxx::__normal_iterator"*, %"class.__gnu_cxx::__normal_iterator"** %__lhs.addr, align 8, !dbg !6039
  %call = call dereferenceable(8) %class.SGFTree** @_ZNK9__gnu_cxx17__normal_iteratorIP7SGFTreeSt6vectorIS1_SaIS1_EEE4baseEv(%"class.__gnu_cxx::__normal_iterator"* %0) #3, !dbg !6040
  %1 = load %class.SGFTree*, %class.SGFTree** %call, align 8, !dbg !6040
  %2 = load %"class.__gnu_cxx::__normal_iterator"*, %"class.__gnu_cxx::__normal_iterator"** %__rhs.addr, align 8, !dbg !6041
  %call1 = call dereferenceable(8) %class.SGFTree** @_ZNK9__gnu_cxx17__normal_iteratorIP7SGFTreeSt6vectorIS1_SaIS1_EEE4baseEv(%"class.__gnu_cxx::__normal_iterator"* %2) #3, !dbg !6042
  %3 = load %class.SGFTree*, %class.SGFTree** %call1, align 8, !dbg !6042
  %cmp = icmp ne %class.SGFTree* %1, %3, !dbg !6043
  ret i1 %cmp, !dbg !6044
}

; Function Attrs: noinline nounwind uwtable
define linkonce_odr dso_local %class.SGFTree* @_ZNSt6vectorI7SGFTreeSaIS0_EE3endEv(%"class.std::vector.12"* %this) #5 comdat align 2 !dbg !6045 {
entry:
  %retval = alloca %"class.__gnu_cxx::__normal_iterator", align 8
  %this.addr = alloca %"class.std::vector.12"*, align 8
  store %"class.std::vector.12"* %this, %"class.std::vector.12"** %this.addr, align 8
  call void @llvm.dbg.declare(metadata %"class.std::vector.12"** %this.addr, metadata !6046, metadata !DIExpression()), !dbg !6047
  %this1 = load %"class.std::vector.12"*, %"class.std::vector.12"** %this.addr, align 8
  %0 = bitcast %"class.std::vector.12"* %this1 to %"struct.std::_Vector_base.13"*, !dbg !6048
  %_M_impl = getelementptr inbounds %"struct.std::_Vector_base.13", %"struct.std::_Vector_base.13"* %0, i32 0, i32 0, !dbg !6048
  %1 = bitcast %"struct.std::_Vector_base<SGFTree, std::allocator<SGFTree> >::_Vector_impl"* %_M_impl to %"struct.std::_Vector_base<SGFTree, std::allocator<SGFTree> >::_Vector_impl_data"*, !dbg !6049
  %_M_finish = getelementptr inbounds %"struct.std::_Vector_base<SGFTree, std::allocator<SGFTree> >::_Vector_impl_data", %"struct.std::_Vector_base<SGFTree, std::allocator<SGFTree> >::_Vector_impl_data"* %1, i32 0, i32 1, !dbg !6050
  call void @_ZN9__gnu_cxx17__normal_iteratorIP7SGFTreeSt6vectorIS1_SaIS1_EEEC2ERKS2_(%"class.__gnu_cxx::__normal_iterator"* %retval, %class.SGFTree** dereferenceable(8) %_M_finish) #3, !dbg !6051
  %coerce.dive = getelementptr inbounds %"class.__gnu_cxx::__normal_iterator", %"class.__gnu_cxx::__normal_iterator"* %retval, i32 0, i32 0, !dbg !6052
  %2 = load %class.SGFTree*, %class.SGFTree** %coerce.dive, align 8, !dbg !6052
  ret %class.SGFTree* %2, !dbg !6052
}

; Function Attrs: noinline nounwind uwtable
define linkonce_odr dso_local %class.SGFTree* @_ZNK9__gnu_cxx17__normal_iteratorIP7SGFTreeSt6vectorIS1_SaIS1_EEEptEv(%"class.__gnu_cxx::__normal_iterator"* %this) #5 comdat align 2 !dbg !6053 {
entry:
  %this.addr = alloca %"class.__gnu_cxx::__normal_iterator"*, align 8
  store %"class.__gnu_cxx::__normal_iterator"* %this, %"class.__gnu_cxx::__normal_iterator"** %this.addr, align 8
  call void @llvm.dbg.declare(metadata %"class.__gnu_cxx::__normal_iterator"** %this.addr, metadata !6054, metadata !DIExpression()), !dbg !6056
  %this1 = load %"class.__gnu_cxx::__normal_iterator"*, %"class.__gnu_cxx::__normal_iterator"** %this.addr, align 8
  %_M_current = getelementptr inbounds %"class.__gnu_cxx::__normal_iterator", %"class.__gnu_cxx::__normal_iterator"* %this1, i32 0, i32 0, !dbg !6057
  %0 = load %class.SGFTree*, %class.SGFTree** %_M_current, align 8, !dbg !6057
  ret %class.SGFTree* %0, !dbg !6058
}

; Function Attrs: noinline uwtable
define dso_local void @_ZN7SGFTree9set_stateER7KoState(%class.SGFTree* %this, %class.KoState* dereferenceable(8440) %state) #0 align 2 !dbg !6059 {
entry:
  %this.addr = alloca %class.SGFTree*, align 8
  %state.addr = alloca %class.KoState*, align 8
  store %class.SGFTree* %this, %class.SGFTree** %this.addr, align 8
  call void @llvm.dbg.declare(metadata %class.SGFTree** %this.addr, metadata !6060, metadata !DIExpression()), !dbg !6061
  store %class.KoState* %state, %class.KoState** %state.addr, align 8
  call void @llvm.dbg.declare(metadata %class.KoState** %state.addr, metadata !6062, metadata !DIExpression()), !dbg !6063
  %this1 = load %class.SGFTree*, %class.SGFTree** %this.addr, align 8
  %0 = load %class.KoState*, %class.KoState** %state.addr, align 8, !dbg !6064
  %m_state = getelementptr inbounds %class.SGFTree, %class.SGFTree* %this1, i32 0, i32 0, !dbg !6065
  %call = call dereferenceable(8440) %class.KoState* @_ZN7KoStateaSERKS_(%class.KoState* %m_state, %class.KoState* dereferenceable(8440) %0), !dbg !6066
  ret void, !dbg !6067
}

; Function Attrs: noinline uwtable
define dso_local void @_ZN7SGFTree10apply_moveEi(%class.SGFTree* %this, i32 %move) #0 align 2 !dbg !6068 {
entry:
  %this.addr = alloca %class.SGFTree*, align 8
  %move.addr = alloca i32, align 4
  %color = alloca i32, align 4
  store %class.SGFTree* %this, %class.SGFTree** %this.addr, align 8
  call void @llvm.dbg.declare(metadata %class.SGFTree** %this.addr, metadata !6069, metadata !DIExpression()), !dbg !6070
  store i32 %move, i32* %move.addr, align 4
  call void @llvm.dbg.declare(metadata i32* %move.addr, metadata !6071, metadata !DIExpression()), !dbg !6072
  %this1 = load %class.SGFTree*, %class.SGFTree** %this.addr, align 8
  call void @llvm.dbg.declare(metadata i32* %color, metadata !6073, metadata !DIExpression()), !dbg !6074
  %m_state = getelementptr inbounds %class.SGFTree, %class.SGFTree* %this1, i32 0, i32 0, !dbg !6075
  %0 = bitcast %class.KoState* %m_state to %class.FastState*, !dbg !6075
  %call = call i32 @_ZN9FastState11get_to_moveEv(%class.FastState* %0), !dbg !6076
  store i32 %call, i32* %color, align 4, !dbg !6074
  %1 = load i32, i32* %color, align 4, !dbg !6077
  %2 = load i32, i32* %move.addr, align 4, !dbg !6078
  call void @_ZN7SGFTree10apply_moveEii(%class.SGFTree* %this1, i32 %1, i32 %2), !dbg !6079
  ret void, !dbg !6080
}

; Function Attrs: noinline nounwind uwtable
define linkonce_odr dso_local dereferenceable(8) %"class.__gnu_cxx::__normal_iterator"* @_ZN9__gnu_cxx17__normal_iteratorIP7SGFTreeSt6vectorIS1_SaIS1_EEEppEv(%"class.__gnu_cxx::__normal_iterator"* %this) #5 comdat align 2 !dbg !6081 {
entry:
  %this.addr = alloca %"class.__gnu_cxx::__normal_iterator"*, align 8
  store %"class.__gnu_cxx::__normal_iterator"* %this, %"class.__gnu_cxx::__normal_iterator"** %this.addr, align 8
  call void @llvm.dbg.declare(metadata %"class.__gnu_cxx::__normal_iterator"** %this.addr, metadata !6082, metadata !DIExpression()), !dbg !6083
  %this1 = load %"class.__gnu_cxx::__normal_iterator"*, %"class.__gnu_cxx::__normal_iterator"** %this.addr, align 8
  %_M_current = getelementptr inbounds %"class.__gnu_cxx::__normal_iterator", %"class.__gnu_cxx::__normal_iterator"* %this1, i32 0, i32 0, !dbg !6084
  %0 = load %class.SGFTree*, %class.SGFTree** %_M_current, align 8, !dbg !6085
  %incdec.ptr = getelementptr inbounds %class.SGFTree, %class.SGFTree* %0, i32 1, !dbg !6085
  store %class.SGFTree* %incdec.ptr, %class.SGFTree** %_M_current, align 8, !dbg !6085
  ret %"class.__gnu_cxx::__normal_iterator"* %this1, !dbg !6086
}

declare dso_local i32 @_ZN9FastBoard10get_squareEi(%class.FastBoard*, i32) #1

declare dso_local void @_ZN7KoState9play_moveEii(%class.KoState*, i32, i32) #1

; Function Attrs: noinline uwtable
define dso_local void @_ZN7SGFTree12add_propertyENSt7__cxx1112basic_stringIcSt11char_traitsIcESaIcEEES5_(%class.SGFTree* %this, %"class.std::__cxx11::basic_string"* %property, %"class.std::__cxx11::basic_string"* %value) #0 align 2 personality i8* bitcast (i32 (...)* @__gxx_personality_v0 to i8*) !dbg !6087 {
entry:
  %this.addr = alloca %class.SGFTree*, align 8
  %ref.tmp = alloca %"struct.std::pair.36", align 8
  %exn.slot = alloca i8*
  %ehselector.slot = alloca i32
  %coerce = alloca %"struct.std::_Rb_tree_iterator", align 8
  store %class.SGFTree* %this, %class.SGFTree** %this.addr, align 8
  call void @llvm.dbg.declare(metadata %class.SGFTree** %this.addr, metadata !6088, metadata !DIExpression()), !dbg !6089
  call void @llvm.dbg.declare(metadata %"class.std::__cxx11::basic_string"* %property, metadata !6090, metadata !DIExpression()), !dbg !6091
  call void @llvm.dbg.declare(metadata %"class.std::__cxx11::basic_string"* %value, metadata !6092, metadata !DIExpression()), !dbg !6093
  %this1 = load %class.SGFTree*, %class.SGFTree** %this.addr, align 8
  %m_properties = getelementptr inbounds %class.SGFTree, %class.SGFTree* %this1, i32 0, i32 2, !dbg !6094
  call void @_ZSt9make_pairIRNSt7__cxx1112basic_stringIcSt11char_traitsIcESaIcEEES6_ESt4pairINSt25__strip_reference_wrapperINSt5decayIT_E4typeEE6__typeENS8_INS9_IT0_E4typeEE6__typeEEOSA_OSF_(%"struct.std::pair.36"* sret %ref.tmp, %"class.std::__cxx11::basic_string"* dereferenceable(32) %property, %"class.std::__cxx11::basic_string"* dereferenceable(32) %value), !dbg !6095
  %call = invoke %"struct.std::_Rb_tree_node_base"* @_ZNSt8multimapINSt7__cxx1112basic_stringIcSt11char_traitsIcESaIcEEES5_St4lessIS5_ESaISt4pairIKS5_S5_EEE6insertIS8_IS5_S5_EEENSt9enable_ifIXsr16is_constructibleISA_T_EE5valueESt17_Rb_tree_iteratorISA_EE4typeEOSG_(%"class.std::multimap"* %m_properties, %"struct.std::pair.36"* dereferenceable(64) %ref.tmp)
          to label %invoke.cont unwind label %lpad, !dbg !6096

invoke.cont:                                      ; preds = %entry
  %coerce.dive = getelementptr inbounds %"struct.std::_Rb_tree_iterator", %"struct.std::_Rb_tree_iterator"* %coerce, i32 0, i32 0, !dbg !6096
  store %"struct.std::_Rb_tree_node_base"* %call, %"struct.std::_Rb_tree_node_base"** %coerce.dive, align 8, !dbg !6096
  call void @_ZNSt4pairINSt7__cxx1112basic_stringIcSt11char_traitsIcESaIcEEES5_ED2Ev(%"struct.std::pair.36"* %ref.tmp) #3, !dbg !6094
  ret void, !dbg !6097

lpad:                                             ; preds = %entry
  %0 = landingpad { i8*, i32 }
          cleanup, !dbg !6097
  %1 = extractvalue { i8*, i32 } %0, 0, !dbg !6097
  store i8* %1, i8** %exn.slot, align 8, !dbg !6097
  %2 = extractvalue { i8*, i32 } %0, 1, !dbg !6097
  store i32 %2, i32* %ehselector.slot, align 4, !dbg !6097
  call void @_ZNSt4pairINSt7__cxx1112basic_stringIcSt11char_traitsIcESaIcEEES5_ED2Ev(%"struct.std::pair.36"* %ref.tmp) #3, !dbg !6094
  br label %eh.resume, !dbg !6094

eh.resume:                                        ; preds = %lpad
  %exn = load i8*, i8** %exn.slot, align 8, !dbg !6094
  %sel = load i32, i32* %ehselector.slot, align 4, !dbg !6094
  %lpad.val = insertvalue { i8*, i32 } undef, i8* %exn, 0, !dbg !6094
  %lpad.val2 = insertvalue { i8*, i32 } %lpad.val, i32 %sel, 1, !dbg !6094
  resume { i8*, i32 } %lpad.val2, !dbg !6094
}

; Function Attrs: noinline uwtable
define linkonce_odr dso_local %"struct.std::_Rb_tree_node_base"* @_ZNSt8multimapINSt7__cxx1112basic_stringIcSt11char_traitsIcESaIcEEES5_St4lessIS5_ESaISt4pairIKS5_S5_EEE6insertIS8_IS5_S5_EEENSt9enable_ifIXsr16is_constructibleISA_T_EE5valueESt17_Rb_tree_iteratorISA_EE4typeEOSG_(%"class.std::multimap"* %this, %"struct.std::pair.36"* dereferenceable(64) %__x) #0 comdat align 2 !dbg !6098 {
entry:
  %retval = alloca %"struct.std::_Rb_tree_iterator", align 8
  %this.addr = alloca %"class.std::multimap"*, align 8
  %__x.addr = alloca %"struct.std::pair.36"*, align 8
  store %"class.std::multimap"* %this, %"class.std::multimap"** %this.addr, align 8
  call void @llvm.dbg.declare(metadata %"class.std::multimap"** %this.addr, metadata !6162, metadata !DIExpression()), !dbg !6163
  store %"struct.std::pair.36"* %__x, %"struct.std::pair.36"** %__x.addr, align 8
  call void @llvm.dbg.declare(metadata %"struct.std::pair.36"** %__x.addr, metadata !6164, metadata !DIExpression()), !dbg !6165
  %this1 = load %"class.std::multimap"*, %"class.std::multimap"** %this.addr, align 8
  %_M_t = getelementptr inbounds %"class.std::multimap", %"class.std::multimap"* %this1, i32 0, i32 0, !dbg !6166
  %0 = load %"struct.std::pair.36"*, %"struct.std::pair.36"** %__x.addr, align 8, !dbg !6167
  %call = call dereferenceable(64) %"struct.std::pair.36"* @_ZSt7forwardISt4pairINSt7__cxx1112basic_stringIcSt11char_traitsIcESaIcEEES6_EEOT_RNSt16remove_referenceIS8_E4typeE(%"struct.std::pair.36"* dereferenceable(64) %0) #3, !dbg !6168
  %call2 = call %"struct.std::_Rb_tree_node_base"* @_ZNSt8_Rb_treeINSt7__cxx1112basic_stringIcSt11char_traitsIcESaIcEEESt4pairIKS5_S5_ESt10_Select1stIS8_ESt4lessIS5_ESaIS8_EE16_M_emplace_equalIJS6_IS5_S5_EEEESt17_Rb_tree_iteratorIS8_EDpOT_(%"class.std::_Rb_tree"* %_M_t, %"struct.std::pair.36"* dereferenceable(64) %call), !dbg !6169
  %coerce.dive = getelementptr inbounds %"struct.std::_Rb_tree_iterator", %"struct.std::_Rb_tree_iterator"* %retval, i32 0, i32 0, !dbg !6169
  store %"struct.std::_Rb_tree_node_base"* %call2, %"struct.std::_Rb_tree_node_base"** %coerce.dive, align 8, !dbg !6169
  %coerce.dive3 = getelementptr inbounds %"struct.std::_Rb_tree_iterator", %"struct.std::_Rb_tree_iterator"* %retval, i32 0, i32 0, !dbg !6170
  %1 = load %"struct.std::_Rb_tree_node_base"*, %"struct.std::_Rb_tree_node_base"** %coerce.dive3, align 8, !dbg !6170
  ret %"struct.std::_Rb_tree_node_base"* %1, !dbg !6170
}

; Function Attrs: noinline uwtable
define linkonce_odr dso_local void @_ZSt9make_pairIRNSt7__cxx1112basic_stringIcSt11char_traitsIcESaIcEEES6_ESt4pairINSt25__strip_reference_wrapperINSt5decayIT_E4typeEE6__typeENS8_INS9_IT0_E4typeEE6__typeEEOSA_OSF_(%"struct.std::pair.36"* noalias sret %agg.result, %"class.std::__cxx11::basic_string"* dereferenceable(32) %__x, %"class.std::__cxx11::basic_string"* dereferenceable(32) %__y) #0 comdat !dbg !6171 {
entry:
  %result.ptr = alloca i8*, align 8
  %__x.addr = alloca %"class.std::__cxx11::basic_string"*, align 8
  %__y.addr = alloca %"class.std::__cxx11::basic_string"*, align 8
  %0 = bitcast %"struct.std::pair.36"* %agg.result to i8*
  store i8* %0, i8** %result.ptr, align 8
  store %"class.std::__cxx11::basic_string"* %__x, %"class.std::__cxx11::basic_string"** %__x.addr, align 8
  call void @llvm.dbg.declare(metadata %"class.std::__cxx11::basic_string"** %__x.addr, metadata !6178, metadata !DIExpression()), !dbg !6179
  store %"class.std::__cxx11::basic_string"* %__y, %"class.std::__cxx11::basic_string"** %__y.addr, align 8
  call void @llvm.dbg.declare(metadata %"class.std::__cxx11::basic_string"** %__y.addr, metadata !6180, metadata !DIExpression()), !dbg !6181
  %1 = load %"class.std::__cxx11::basic_string"*, %"class.std::__cxx11::basic_string"** %__x.addr, align 8, !dbg !6182
  %call = call dereferenceable(32) %"class.std::__cxx11::basic_string"* @_ZSt7forwardIRNSt7__cxx1112basic_stringIcSt11char_traitsIcESaIcEEEEOT_RNSt16remove_referenceIS7_E4typeE(%"class.std::__cxx11::basic_string"* dereferenceable(32) %1) #3, !dbg !6183
  %2 = load %"class.std::__cxx11::basic_string"*, %"class.std::__cxx11::basic_string"** %__y.addr, align 8, !dbg !6184
  %call1 = call dereferenceable(32) %"class.std::__cxx11::basic_string"* @_ZSt7forwardIRNSt7__cxx1112basic_stringIcSt11char_traitsIcESaIcEEEEOT_RNSt16remove_referenceIS7_E4typeE(%"class.std::__cxx11::basic_string"* dereferenceable(32) %2) #3, !dbg !6185
  call void @_ZNSt4pairINSt7__cxx1112basic_stringIcSt11char_traitsIcESaIcEEES5_EC2IRS5_S8_Lb1EEEOT_OT0_(%"struct.std::pair.36"* %agg.result, %"class.std::__cxx11::basic_string"* dereferenceable(32) %call, %"class.std::__cxx11::basic_string"* dereferenceable(32) %call1), !dbg !6186
  ret void, !dbg !6187
}

; Function Attrs: noinline nounwind uwtable
define linkonce_odr dso_local void @_ZNSt4pairINSt7__cxx1112basic_stringIcSt11char_traitsIcESaIcEEES5_ED2Ev(%"struct.std::pair.36"* %this) unnamed_addr #5 comdat align 2 !dbg !6188 {
entry:
  %this.addr = alloca %"struct.std::pair.36"*, align 8
  store %"struct.std::pair.36"* %this, %"struct.std::pair.36"** %this.addr, align 8
  call void @llvm.dbg.declare(metadata %"struct.std::pair.36"** %this.addr, metadata !6192, metadata !DIExpression()), !dbg !6194
  %this1 = load %"struct.std::pair.36"*, %"struct.std::pair.36"** %this.addr, align 8
  %second = getelementptr inbounds %"struct.std::pair.36", %"struct.std::pair.36"* %this1, i32 0, i32 1, !dbg !6195
  call void @_ZNSt7__cxx1112basic_stringIcSt11char_traitsIcESaIcEED1Ev(%"class.std::__cxx11::basic_string"* %second) #3, !dbg !6195
  %first = getelementptr inbounds %"struct.std::pair.36", %"struct.std::pair.36"* %this1, i32 0, i32 0, !dbg !6195
  call void @_ZNSt7__cxx1112basic_stringIcSt11char_traitsIcESaIcEED1Ev(%"class.std::__cxx11::basic_string"* %first) #3, !dbg !6195
  ret void, !dbg !6197
}

; Function Attrs: noinline uwtable
define dso_local %class.SGFTree* @_ZN7SGFTree9add_childES_(%class.SGFTree* %this, %class.SGFTree* %child) #0 align 2 !dbg !6198 {
entry:
  %this.addr = alloca %class.SGFTree*, align 8
  store %class.SGFTree* %this, %class.SGFTree** %this.addr, align 8
  call void @llvm.dbg.declare(metadata %class.SGFTree** %this.addr, metadata !6199, metadata !DIExpression()), !dbg !6200
  call void @llvm.dbg.declare(metadata %class.SGFTree* %child, metadata !6201, metadata !DIExpression()), !dbg !6202
  %this1 = load %class.SGFTree*, %class.SGFTree** %this.addr, align 8
  %m_children = getelementptr inbounds %class.SGFTree, %class.SGFTree* %this1, i32 0, i32 1, !dbg !6203
  %call = call i64 @_ZNKSt6vectorI7SGFTreeSaIS0_EE4sizeEv(%"class.std::vector.12"* %m_children) #3, !dbg !6205
  %cmp = icmp eq i64 %call, 0, !dbg !6206
  br i1 %cmp, label %if.then, label %if.end, !dbg !6207

if.then:                                          ; preds = %entry
  %m_children2 = getelementptr inbounds %class.SGFTree, %class.SGFTree* %this1, i32 0, i32 1, !dbg !6208
  call void @_ZNSt6vectorI7SGFTreeSaIS0_EE7reserveEm(%"class.std::vector.12"* %m_children2, i64 1), !dbg !6210
  br label %if.end, !dbg !6211

if.end:                                           ; preds = %if.then, %entry
  %m_children3 = getelementptr inbounds %class.SGFTree, %class.SGFTree* %this1, i32 0, i32 1, !dbg !6212
  call void @_ZNSt6vectorI7SGFTreeSaIS0_EE9push_backERKS0_(%"class.std::vector.12"* %m_children3, %class.SGFTree* dereferenceable(8512) %child), !dbg !6213
  %m_children4 = getelementptr inbounds %class.SGFTree, %class.SGFTree* %this1, i32 0, i32 1, !dbg !6214
  %call5 = call dereferenceable(8512) %class.SGFTree* @_ZNSt6vectorI7SGFTreeSaIS0_EE4backEv(%"class.std::vector.12"* %m_children4) #3, !dbg !6215
  ret %class.SGFTree* %call5, !dbg !6216
}

; Function Attrs: noinline uwtable
define linkonce_odr dso_local void @_ZNSt6vectorI7SGFTreeSaIS0_EE7reserveEm(%"class.std::vector.12"* %this, i64 %__n) #0 comdat align 2 !dbg !6217 {
entry:
  %this.addr = alloca %"class.std::vector.12"*, align 8
  %__n.addr = alloca i64, align 8
  %__old_size = alloca i64, align 8
  %__tmp = alloca %class.SGFTree*, align 8
  store %"class.std::vector.12"* %this, %"class.std::vector.12"** %this.addr, align 8
  call void @llvm.dbg.declare(metadata %"class.std::vector.12"** %this.addr, metadata !6219, metadata !DIExpression()), !dbg !6220
  store i64 %__n, i64* %__n.addr, align 8
  call void @llvm.dbg.declare(metadata i64* %__n.addr, metadata !6221, metadata !DIExpression()), !dbg !6222
  %this1 = load %"class.std::vector.12"*, %"class.std::vector.12"** %this.addr, align 8
  %0 = load i64, i64* %__n.addr, align 8, !dbg !6223
  %call = call i64 @_ZNKSt6vectorI7SGFTreeSaIS0_EE8max_sizeEv(%"class.std::vector.12"* %this1) #3, !dbg !6225
  %cmp = icmp ugt i64 %0, %call, !dbg !6226
  br i1 %cmp, label %if.then, label %if.end, !dbg !6227

if.then:                                          ; preds = %entry
  call void @_ZSt20__throw_length_errorPKc(i8* getelementptr inbounds ([16 x i8], [16 x i8]* @.str.10, i64 0, i64 0)) #13, !dbg !6228
  unreachable, !dbg !6228

if.end:                                           ; preds = %entry
  %call2 = call i64 @_ZNKSt6vectorI7SGFTreeSaIS0_EE8capacityEv(%"class.std::vector.12"* %this1) #3, !dbg !6229
  %1 = load i64, i64* %__n.addr, align 8, !dbg !6231
  %cmp3 = icmp ult i64 %call2, %1, !dbg !6232
  br i1 %cmp3, label %if.then4, label %if.end24, !dbg !6233

if.then4:                                         ; preds = %if.end
  call void @llvm.dbg.declare(metadata i64* %__old_size, metadata !6234, metadata !DIExpression()), !dbg !6237
  %call5 = call i64 @_ZNKSt6vectorI7SGFTreeSaIS0_EE4sizeEv(%"class.std::vector.12"* %this1) #3, !dbg !6238
  store i64 %call5, i64* %__old_size, align 8, !dbg !6237
  call void @llvm.dbg.declare(metadata %class.SGFTree** %__tmp, metadata !6239, metadata !DIExpression()), !dbg !6240
  %2 = bitcast %"class.std::vector.12"* %this1 to %"struct.std::_Vector_base.13"*, !dbg !6241
  %3 = load i64, i64* %__n.addr, align 8, !dbg !6244
  %call6 = call %class.SGFTree* @_ZNSt12_Vector_baseI7SGFTreeSaIS0_EE11_M_allocateEm(%"struct.std::_Vector_base.13"* %2, i64 %3), !dbg !6241
  store %class.SGFTree* %call6, %class.SGFTree** %__tmp, align 8, !dbg !6245
  %4 = bitcast %"class.std::vector.12"* %this1 to %"struct.std::_Vector_base.13"*, !dbg !6246
  %_M_impl = getelementptr inbounds %"struct.std::_Vector_base.13", %"struct.std::_Vector_base.13"* %4, i32 0, i32 0, !dbg !6246
  %5 = bitcast %"struct.std::_Vector_base<SGFTree, std::allocator<SGFTree> >::_Vector_impl"* %_M_impl to %"struct.std::_Vector_base<SGFTree, std::allocator<SGFTree> >::_Vector_impl_data"*, !dbg !6247
  %_M_start = getelementptr inbounds %"struct.std::_Vector_base<SGFTree, std::allocator<SGFTree> >::_Vector_impl_data", %"struct.std::_Vector_base<SGFTree, std::allocator<SGFTree> >::_Vector_impl_data"* %5, i32 0, i32 0, !dbg !6248
  %6 = load %class.SGFTree*, %class.SGFTree** %_M_start, align 8, !dbg !6248
  %7 = bitcast %"class.std::vector.12"* %this1 to %"struct.std::_Vector_base.13"*, !dbg !6249
  %_M_impl7 = getelementptr inbounds %"struct.std::_Vector_base.13", %"struct.std::_Vector_base.13"* %7, i32 0, i32 0, !dbg !6249
  %8 = bitcast %"struct.std::_Vector_base<SGFTree, std::allocator<SGFTree> >::_Vector_impl"* %_M_impl7 to %"struct.std::_Vector_base<SGFTree, std::allocator<SGFTree> >::_Vector_impl_data"*, !dbg !6250
  %_M_finish = getelementptr inbounds %"struct.std::_Vector_base<SGFTree, std::allocator<SGFTree> >::_Vector_impl_data", %"struct.std::_Vector_base<SGFTree, std::allocator<SGFTree> >::_Vector_impl_data"* %8, i32 0, i32 1, !dbg !6251
  %9 = load %class.SGFTree*, %class.SGFTree** %_M_finish, align 8, !dbg !6251
  %10 = load %class.SGFTree*, %class.SGFTree** %__tmp, align 8, !dbg !6252
  %11 = bitcast %"class.std::vector.12"* %this1 to %"struct.std::_Vector_base.13"*, !dbg !6253
  %call8 = call dereferenceable(1) %"class.std::allocator.14"* @_ZNSt12_Vector_baseI7SGFTreeSaIS0_EE19_M_get_Tp_allocatorEv(%"struct.std::_Vector_base.13"* %11) #3, !dbg !6253
  %call9 = call %class.SGFTree* @_ZNSt6vectorI7SGFTreeSaIS0_EE11_S_relocateEPS0_S3_S3_RS1_(%class.SGFTree* %6, %class.SGFTree* %9, %class.SGFTree* %10, %"class.std::allocator.14"* dereferenceable(1) %call8) #3, !dbg !6254
  %12 = bitcast %"class.std::vector.12"* %this1 to %"struct.std::_Vector_base.13"*, !dbg !6255
  %13 = bitcast %"class.std::vector.12"* %this1 to %"struct.std::_Vector_base.13"*, !dbg !6256
  %_M_impl10 = getelementptr inbounds %"struct.std::_Vector_base.13", %"struct.std::_Vector_base.13"* %13, i32 0, i32 0, !dbg !6256
  %14 = bitcast %"struct.std::_Vector_base<SGFTree, std::allocator<SGFTree> >::_Vector_impl"* %_M_impl10 to %"struct.std::_Vector_base<SGFTree, std::allocator<SGFTree> >::_Vector_impl_data"*, !dbg !6257
  %_M_start11 = getelementptr inbounds %"struct.std::_Vector_base<SGFTree, std::allocator<SGFTree> >::_Vector_impl_data", %"struct.std::_Vector_base<SGFTree, std::allocator<SGFTree> >::_Vector_impl_data"* %14, i32 0, i32 0, !dbg !6258
  %15 = load %class.SGFTree*, %class.SGFTree** %_M_start11, align 8, !dbg !6258
  %16 = bitcast %"class.std::vector.12"* %this1 to %"struct.std::_Vector_base.13"*, !dbg !6259
  %_M_impl12 = getelementptr inbounds %"struct.std::_Vector_base.13", %"struct.std::_Vector_base.13"* %16, i32 0, i32 0, !dbg !6259
  %17 = bitcast %"struct.std::_Vector_base<SGFTree, std::allocator<SGFTree> >::_Vector_impl"* %_M_impl12 to %"struct.std::_Vector_base<SGFTree, std::allocator<SGFTree> >::_Vector_impl_data"*, !dbg !6260
  %_M_end_of_storage = getelementptr inbounds %"struct.std::_Vector_base<SGFTree, std::allocator<SGFTree> >::_Vector_impl_data", %"struct.std::_Vector_base<SGFTree, std::allocator<SGFTree> >::_Vector_impl_data"* %17, i32 0, i32 2, !dbg !6261
  %18 = load %class.SGFTree*, %class.SGFTree** %_M_end_of_storage, align 8, !dbg !6261
  %19 = bitcast %"class.std::vector.12"* %this1 to %"struct.std::_Vector_base.13"*, !dbg !6262
  %_M_impl13 = getelementptr inbounds %"struct.std::_Vector_base.13", %"struct.std::_Vector_base.13"* %19, i32 0, i32 0, !dbg !6262
  %20 = bitcast %"struct.std::_Vector_base<SGFTree, std::allocator<SGFTree> >::_Vector_impl"* %_M_impl13 to %"struct.std::_Vector_base<SGFTree, std::allocator<SGFTree> >::_Vector_impl_data"*, !dbg !6263
  %_M_start14 = getelementptr inbounds %"struct.std::_Vector_base<SGFTree, std::allocator<SGFTree> >::_Vector_impl_data", %"struct.std::_Vector_base<SGFTree, std::allocator<SGFTree> >::_Vector_impl_data"* %20, i32 0, i32 0, !dbg !6264
  %21 = load %class.SGFTree*, %class.SGFTree** %_M_start14, align 8, !dbg !6264
  %sub.ptr.lhs.cast = ptrtoint %class.SGFTree* %18 to i64, !dbg !6265
  %sub.ptr.rhs.cast = ptrtoint %class.SGFTree* %21 to i64, !dbg !6265
  %sub.ptr.sub = sub i64 %sub.ptr.lhs.cast, %sub.ptr.rhs.cast, !dbg !6265
  %sub.ptr.div = sdiv exact i64 %sub.ptr.sub, 8512, !dbg !6265
  call void @_ZNSt12_Vector_baseI7SGFTreeSaIS0_EE13_M_deallocateEPS0_m(%"struct.std::_Vector_base.13"* %12, %class.SGFTree* %15, i64 %sub.ptr.div), !dbg !6255
  %22 = load %class.SGFTree*, %class.SGFTree** %__tmp, align 8, !dbg !6266
  %23 = bitcast %"class.std::vector.12"* %this1 to %"struct.std::_Vector_base.13"*, !dbg !6267
  %_M_impl15 = getelementptr inbounds %"struct.std::_Vector_base.13", %"struct.std::_Vector_base.13"* %23, i32 0, i32 0, !dbg !6267
  %24 = bitcast %"struct.std::_Vector_base<SGFTree, std::allocator<SGFTree> >::_Vector_impl"* %_M_impl15 to %"struct.std::_Vector_base<SGFTree, std::allocator<SGFTree> >::_Vector_impl_data"*, !dbg !6268
  %_M_start16 = getelementptr inbounds %"struct.std::_Vector_base<SGFTree, std::allocator<SGFTree> >::_Vector_impl_data", %"struct.std::_Vector_base<SGFTree, std::allocator<SGFTree> >::_Vector_impl_data"* %24, i32 0, i32 0, !dbg !6269
  store %class.SGFTree* %22, %class.SGFTree** %_M_start16, align 8, !dbg !6270
  %25 = load %class.SGFTree*, %class.SGFTree** %__tmp, align 8, !dbg !6271
  %26 = load i64, i64* %__old_size, align 8, !dbg !6272
  %add.ptr = getelementptr inbounds %class.SGFTree, %class.SGFTree* %25, i64 %26, !dbg !6273
  %27 = bitcast %"class.std::vector.12"* %this1 to %"struct.std::_Vector_base.13"*, !dbg !6274
  %_M_impl17 = getelementptr inbounds %"struct.std::_Vector_base.13", %"struct.std::_Vector_base.13"* %27, i32 0, i32 0, !dbg !6274
  %28 = bitcast %"struct.std::_Vector_base<SGFTree, std::allocator<SGFTree> >::_Vector_impl"* %_M_impl17 to %"struct.std::_Vector_base<SGFTree, std::allocator<SGFTree> >::_Vector_impl_data"*, !dbg !6275
  %_M_finish18 = getelementptr inbounds %"struct.std::_Vector_base<SGFTree, std::allocator<SGFTree> >::_Vector_impl_data", %"struct.std::_Vector_base<SGFTree, std::allocator<SGFTree> >::_Vector_impl_data"* %28, i32 0, i32 1, !dbg !6276
  store %class.SGFTree* %add.ptr, %class.SGFTree** %_M_finish18, align 8, !dbg !6277
  %29 = bitcast %"class.std::vector.12"* %this1 to %"struct.std::_Vector_base.13"*, !dbg !6278
  %_M_impl19 = getelementptr inbounds %"struct.std::_Vector_base.13", %"struct.std::_Vector_base.13"* %29, i32 0, i32 0, !dbg !6278
  %30 = bitcast %"struct.std::_Vector_base<SGFTree, std::allocator<SGFTree> >::_Vector_impl"* %_M_impl19 to %"struct.std::_Vector_base<SGFTree, std::allocator<SGFTree> >::_Vector_impl_data"*, !dbg !6279
  %_M_start20 = getelementptr inbounds %"struct.std::_Vector_base<SGFTree, std::allocator<SGFTree> >::_Vector_impl_data", %"struct.std::_Vector_base<SGFTree, std::allocator<SGFTree> >::_Vector_impl_data"* %30, i32 0, i32 0, !dbg !6280
  %31 = load %class.SGFTree*, %class.SGFTree** %_M_start20, align 8, !dbg !6280
  %32 = load i64, i64* %__n.addr, align 8, !dbg !6281
  %add.ptr21 = getelementptr inbounds %class.SGFTree, %class.SGFTree* %31, i64 %32, !dbg !6282
  %33 = bitcast %"class.std::vector.12"* %this1 to %"struct.std::_Vector_base.13"*, !dbg !6283
  %_M_impl22 = getelementptr inbounds %"struct.std::_Vector_base.13", %"struct.std::_Vector_base.13"* %33, i32 0, i32 0, !dbg !6283
  %34 = bitcast %"struct.std::_Vector_base<SGFTree, std::allocator<SGFTree> >::_Vector_impl"* %_M_impl22 to %"struct.std::_Vector_base<SGFTree, std::allocator<SGFTree> >::_Vector_impl_data"*, !dbg !6284
  %_M_end_of_storage23 = getelementptr inbounds %"struct.std::_Vector_base<SGFTree, std::allocator<SGFTree> >::_Vector_impl_data", %"struct.std::_Vector_base<SGFTree, std::allocator<SGFTree> >::_Vector_impl_data"* %34, i32 0, i32 2, !dbg !6285
  store %class.SGFTree* %add.ptr21, %class.SGFTree** %_M_end_of_storage23, align 8, !dbg !6286
  br label %if.end24, !dbg !6287

if.end24:                                         ; preds = %if.then4, %if.end
  ret void, !dbg !6288
}

; Function Attrs: noinline uwtable
define linkonce_odr dso_local void @_ZNSt6vectorI7SGFTreeSaIS0_EE9push_backERKS0_(%"class.std::vector.12"* %this, %class.SGFTree* dereferenceable(8512) %__x) #0 comdat align 2 !dbg !6289 {
entry:
  %this.addr = alloca %"class.std::vector.12"*, align 8
  %__x.addr = alloca %class.SGFTree*, align 8
  %agg.tmp = alloca %"class.__gnu_cxx::__normal_iterator", align 8
  store %"class.std::vector.12"* %this, %"class.std::vector.12"** %this.addr, align 8
  call void @llvm.dbg.declare(metadata %"class.std::vector.12"** %this.addr, metadata !6290, metadata !DIExpression()), !dbg !6291
  store %class.SGFTree* %__x, %class.SGFTree** %__x.addr, align 8
  call void @llvm.dbg.declare(metadata %class.SGFTree** %__x.addr, metadata !6292, metadata !DIExpression()), !dbg !6293
  %this1 = load %"class.std::vector.12"*, %"class.std::vector.12"** %this.addr, align 8
  %0 = bitcast %"class.std::vector.12"* %this1 to %"struct.std::_Vector_base.13"*, !dbg !6294
  %_M_impl = getelementptr inbounds %"struct.std::_Vector_base.13", %"struct.std::_Vector_base.13"* %0, i32 0, i32 0, !dbg !6294
  %1 = bitcast %"struct.std::_Vector_base<SGFTree, std::allocator<SGFTree> >::_Vector_impl"* %_M_impl to %"struct.std::_Vector_base<SGFTree, std::allocator<SGFTree> >::_Vector_impl_data"*, !dbg !6296
  %_M_finish = getelementptr inbounds %"struct.std::_Vector_base<SGFTree, std::allocator<SGFTree> >::_Vector_impl_data", %"struct.std::_Vector_base<SGFTree, std::allocator<SGFTree> >::_Vector_impl_data"* %1, i32 0, i32 1, !dbg !6297
  %2 = load %class.SGFTree*, %class.SGFTree** %_M_finish, align 8, !dbg !6297
  %3 = bitcast %"class.std::vector.12"* %this1 to %"struct.std::_Vector_base.13"*, !dbg !6298
  %_M_impl2 = getelementptr inbounds %"struct.std::_Vector_base.13", %"struct.std::_Vector_base.13"* %3, i32 0, i32 0, !dbg !6298
  %4 = bitcast %"struct.std::_Vector_base<SGFTree, std::allocator<SGFTree> >::_Vector_impl"* %_M_impl2 to %"struct.std::_Vector_base<SGFTree, std::allocator<SGFTree> >::_Vector_impl_data"*, !dbg !6299
  %_M_end_of_storage = getelementptr inbounds %"struct.std::_Vector_base<SGFTree, std::allocator<SGFTree> >::_Vector_impl_data", %"struct.std::_Vector_base<SGFTree, std::allocator<SGFTree> >::_Vector_impl_data"* %4, i32 0, i32 2, !dbg !6300
  %5 = load %class.SGFTree*, %class.SGFTree** %_M_end_of_storage, align 8, !dbg !6300
  %cmp = icmp ne %class.SGFTree* %2, %5, !dbg !6301
  br i1 %cmp, label %if.then, label %if.else, !dbg !6302

if.then:                                          ; preds = %entry
  %6 = bitcast %"class.std::vector.12"* %this1 to %"struct.std::_Vector_base.13"*, !dbg !6303
  %_M_impl3 = getelementptr inbounds %"struct.std::_Vector_base.13", %"struct.std::_Vector_base.13"* %6, i32 0, i32 0, !dbg !6303
  %7 = bitcast %"struct.std::_Vector_base<SGFTree, std::allocator<SGFTree> >::_Vector_impl"* %_M_impl3 to %"class.std::allocator.14"*, !dbg !6305
  %8 = bitcast %"class.std::vector.12"* %this1 to %"struct.std::_Vector_base.13"*, !dbg !6306
  %_M_impl4 = getelementptr inbounds %"struct.std::_Vector_base.13", %"struct.std::_Vector_base.13"* %8, i32 0, i32 0, !dbg !6306
  %9 = bitcast %"struct.std::_Vector_base<SGFTree, std::allocator<SGFTree> >::_Vector_impl"* %_M_impl4 to %"struct.std::_Vector_base<SGFTree, std::allocator<SGFTree> >::_Vector_impl_data"*, !dbg !6307
  %_M_finish5 = getelementptr inbounds %"struct.std::_Vector_base<SGFTree, std::allocator<SGFTree> >::_Vector_impl_data", %"struct.std::_Vector_base<SGFTree, std::allocator<SGFTree> >::_Vector_impl_data"* %9, i32 0, i32 1, !dbg !6308
  %10 = load %class.SGFTree*, %class.SGFTree** %_M_finish5, align 8, !dbg !6308
  %11 = load %class.SGFTree*, %class.SGFTree** %__x.addr, align 8, !dbg !6309
  call void @_ZNSt16allocator_traitsISaI7SGFTreeEE9constructIS0_JRKS0_EEEvRS1_PT_DpOT0_(%"class.std::allocator.14"* dereferenceable(1) %7, %class.SGFTree* %10, %class.SGFTree* dereferenceable(8512) %11), !dbg !6310
  %12 = bitcast %"class.std::vector.12"* %this1 to %"struct.std::_Vector_base.13"*, !dbg !6311
  %_M_impl6 = getelementptr inbounds %"struct.std::_Vector_base.13", %"struct.std::_Vector_base.13"* %12, i32 0, i32 0, !dbg !6311
  %13 = bitcast %"struct.std::_Vector_base<SGFTree, std::allocator<SGFTree> >::_Vector_impl"* %_M_impl6 to %"struct.std::_Vector_base<SGFTree, std::allocator<SGFTree> >::_Vector_impl_data"*, !dbg !6312
  %_M_finish7 = getelementptr inbounds %"struct.std::_Vector_base<SGFTree, std::allocator<SGFTree> >::_Vector_impl_data", %"struct.std::_Vector_base<SGFTree, std::allocator<SGFTree> >::_Vector_impl_data"* %13, i32 0, i32 1, !dbg !6313
  %14 = load %class.SGFTree*, %class.SGFTree** %_M_finish7, align 8, !dbg !6314
  %incdec.ptr = getelementptr inbounds %class.SGFTree, %class.SGFTree* %14, i32 1, !dbg !6314
  store %class.SGFTree* %incdec.ptr, %class.SGFTree** %_M_finish7, align 8, !dbg !6314
  br label %if.end, !dbg !6315

if.else:                                          ; preds = %entry
  %call = call %class.SGFTree* @_ZNSt6vectorI7SGFTreeSaIS0_EE3endEv(%"class.std::vector.12"* %this1) #3, !dbg !6316
  %coerce.dive = getelementptr inbounds %"class.__gnu_cxx::__normal_iterator", %"class.__gnu_cxx::__normal_iterator"* %agg.tmp, i32 0, i32 0, !dbg !6316
  store %class.SGFTree* %call, %class.SGFTree** %coerce.dive, align 8, !dbg !6316
  %15 = load %class.SGFTree*, %class.SGFTree** %__x.addr, align 8, !dbg !6317
  %coerce.dive8 = getelementptr inbounds %"class.__gnu_cxx::__normal_iterator", %"class.__gnu_cxx::__normal_iterator"* %agg.tmp, i32 0, i32 0, !dbg !6318
  %16 = load %class.SGFTree*, %class.SGFTree** %coerce.dive8, align 8, !dbg !6318
  call void @_ZNSt6vectorI7SGFTreeSaIS0_EE17_M_realloc_insertIJRKS0_EEEvN9__gnu_cxx17__normal_iteratorIPS0_S2_EEDpOT_(%"class.std::vector.12"* %this1, %class.SGFTree* %16, %class.SGFTree* dereferenceable(8512) %15), !dbg !6318
  br label %if.end

if.end:                                           ; preds = %if.else, %if.then
  ret void, !dbg !6319
}

; Function Attrs: noinline nounwind uwtable
define linkonce_odr dso_local dereferenceable(8512) %class.SGFTree* @_ZNSt6vectorI7SGFTreeSaIS0_EE4backEv(%"class.std::vector.12"* %this) #5 comdat align 2 !dbg !6320 {
entry:
  %this.addr = alloca %"class.std::vector.12"*, align 8
  %ref.tmp = alloca %"class.__gnu_cxx::__normal_iterator", align 8
  %ref.tmp2 = alloca %"class.__gnu_cxx::__normal_iterator", align 8
  store %"class.std::vector.12"* %this, %"class.std::vector.12"** %this.addr, align 8
  call void @llvm.dbg.declare(metadata %"class.std::vector.12"** %this.addr, metadata !6321, metadata !DIExpression()), !dbg !6322
  %this1 = load %"class.std::vector.12"*, %"class.std::vector.12"** %this.addr, align 8
  %call = call %class.SGFTree* @_ZNSt6vectorI7SGFTreeSaIS0_EE3endEv(%"class.std::vector.12"* %this1) #3, !dbg !6323
  %coerce.dive = getelementptr inbounds %"class.__gnu_cxx::__normal_iterator", %"class.__gnu_cxx::__normal_iterator"* %ref.tmp2, i32 0, i32 0, !dbg !6323
  store %class.SGFTree* %call, %class.SGFTree** %coerce.dive, align 8, !dbg !6323
  %call3 = call %class.SGFTree* @_ZNK9__gnu_cxx17__normal_iteratorIP7SGFTreeSt6vectorIS1_SaIS1_EEEmiEl(%"class.__gnu_cxx::__normal_iterator"* %ref.tmp2, i64 1) #3, !dbg !6324
  %coerce.dive4 = getelementptr inbounds %"class.__gnu_cxx::__normal_iterator", %"class.__gnu_cxx::__normal_iterator"* %ref.tmp, i32 0, i32 0, !dbg !6324
  store %class.SGFTree* %call3, %class.SGFTree** %coerce.dive4, align 8, !dbg !6324
  %call5 = call dereferenceable(8512) %class.SGFTree* @_ZNK9__gnu_cxx17__normal_iteratorIP7SGFTreeSt6vectorIS1_SaIS1_EEEdeEv(%"class.__gnu_cxx::__normal_iterator"* %ref.tmp) #3, !dbg !6325
  ret %class.SGFTree* %call5, !dbg !6326
}

; Function Attrs: nounwind
declare dso_local i64 @_ZNKSt7__cxx1112basic_stringIcSt11char_traitsIcESaIcEE4sizeEv(%"class.std::__cxx11::basic_string"*) #2

declare dso_local dereferenceable(1) i8* @_ZNSt7__cxx1112basic_stringIcSt11char_traitsIcESaIcEEixEm(%"class.std::__cxx11::basic_string"*, i64) #1

declare dso_local i32 @_ZN9FastBoard10get_vertexEii(%class.FastBoard*, i32, i32) #1

; Function Attrs: nounwind
declare dso_local void @_ZNSt7__cxx1112basic_stringIcSt11char_traitsIcESaIcEEC1Ev(%"class.std::__cxx11::basic_string"*) unnamed_addr #2

declare dso_local dereferenceable(32) %"class.std::__cxx11::basic_string"* @_ZNSt7__cxx1112basic_stringIcSt11char_traitsIcESaIcEEaSEPKc(%"class.std::__cxx11::basic_string"*, i8*) #1

; Function Attrs: noinline uwtable
define linkonce_odr dso_local void @_ZN9FastStateC2Ev(%class.FastState* %this) unnamed_addr #0 comdat align 2 personality i8* bitcast (i32 (...)* @__gxx_personality_v0 to i8*) !dbg !6327 {
entry:
  %this.addr = alloca %class.FastState*, align 8
  %exn.slot = alloca i8*
  %ehselector.slot = alloca i32
  store %class.FastState* %this, %class.FastState** %this.addr, align 8
  call void @llvm.dbg.declare(metadata %class.FastState** %this.addr, metadata !6329, metadata !DIExpression()), !dbg !6331
  %this1 = load %class.FastState*, %class.FastState** %this.addr, align 8
  %board = getelementptr inbounds %class.FastState, %class.FastState* %this1, i32 0, i32 0, !dbg !6332
  call void @_ZN9FullBoardC2Ev(%class.FullBoard* %board) #3, !dbg !6332
  %moves = getelementptr inbounds %class.FastState, %class.FastState* %this1, i32 0, i32 8, !dbg !6332
  %scoredmoves = getelementptr inbounds %class.FastState, %class.FastState* %this1, i32 0, i32 9, !dbg !6332
  invoke void @_ZN5boost5arrayISt4pairIiiELm24EEC2Ev(%"class.boost::array.6"* %scoredmoves)
          to label %invoke.cont unwind label %lpad, !dbg !6332

invoke.cont:                                      ; preds = %entry
  ret void, !dbg !6332

lpad:                                             ; preds = %entry
  %0 = landingpad { i8*, i32 }
          cleanup, !dbg !6332
  %1 = extractvalue { i8*, i32 } %0, 0, !dbg !6332
  store i8* %1, i8** %exn.slot, align 8, !dbg !6332
  %2 = extractvalue { i8*, i32 } %0, 1, !dbg !6332
  store i32 %2, i32* %ehselector.slot, align 4, !dbg !6332
  call void @_ZN9FullBoardD2Ev(%class.FullBoard* %board) #3, !dbg !6333
  br label %eh.resume, !dbg !6333

eh.resume:                                        ; preds = %lpad
  %exn = load i8*, i8** %exn.slot, align 8, !dbg !6333
  %sel = load i32, i32* %ehselector.slot, align 4, !dbg !6333
  %lpad.val = insertvalue { i8*, i32 } undef, i8* %exn, 0, !dbg !6333
  %lpad.val2 = insertvalue { i8*, i32 } %lpad.val, i32 %sel, 1, !dbg !6333
  resume { i8*, i32 } %lpad.val2, !dbg !6333
}

; Function Attrs: noinline nounwind uwtable
define linkonce_odr dso_local void @_ZNSt6vectorIySaIyEEC2Ev(%"class.std::vector.7"* %this) unnamed_addr #5 comdat align 2 !dbg !6335 {
entry:
  %this.addr = alloca %"class.std::vector.7"*, align 8
  store %"class.std::vector.7"* %this, %"class.std::vector.7"** %this.addr, align 8
  call void @llvm.dbg.declare(metadata %"class.std::vector.7"** %this.addr, metadata !6336, metadata !DIExpression()), !dbg !6338
  %this1 = load %"class.std::vector.7"*, %"class.std::vector.7"** %this.addr, align 8
  %0 = bitcast %"class.std::vector.7"* %this1 to %"struct.std::_Vector_base.8"*, !dbg !6339
  call void @_ZNSt12_Vector_baseIySaIyEEC2Ev(%"struct.std::_Vector_base.8"* %0) #3, !dbg !6340
  ret void, !dbg !6339
}

; Function Attrs: noinline nounwind uwtable
define linkonce_odr dso_local void @_ZN9FullBoardC2Ev(%class.FullBoard* %this) unnamed_addr #5 comdat align 2 !dbg !6341 {
entry:
  %this.addr = alloca %class.FullBoard*, align 8
  store %class.FullBoard* %this, %class.FullBoard** %this.addr, align 8
  call void @llvm.dbg.declare(metadata %class.FullBoard** %this.addr, metadata !6345, metadata !DIExpression()), !dbg !6347
  %this1 = load %class.FullBoard*, %class.FullBoard** %this.addr, align 8
  %0 = bitcast %class.FullBoard* %this1 to %class.FastBoard*, !dbg !6348
  call void @_ZN9FastBoardC2Ev(%class.FastBoard* %0) #3, !dbg !6348
  ret void, !dbg !6348
}

; Function Attrs: noinline uwtable
define linkonce_odr dso_local void @_ZN5boost5arrayISt4pairIiiELm24EEC2Ev(%"class.boost::array.6"* %this) unnamed_addr #0 comdat align 2 !dbg !6349 {
entry:
  %this.addr = alloca %"class.boost::array.6"*, align 8
  store %"class.boost::array.6"* %this, %"class.boost::array.6"** %this.addr, align 8
  call void @llvm.dbg.declare(metadata %"class.boost::array.6"** %this.addr, metadata !6353, metadata !DIExpression()), !dbg !6355
  %this1 = load %"class.boost::array.6"*, %"class.boost::array.6"** %this.addr, align 8
  %elems = getelementptr inbounds %"class.boost::array.6", %"class.boost::array.6"* %this1, i32 0, i32 0, !dbg !6356
  %array.begin = getelementptr inbounds [24 x %"struct.std::pair"], [24 x %"struct.std::pair"]* %elems, i32 0, i32 0, !dbg !6356
  %arrayctor.end = getelementptr inbounds %"struct.std::pair", %"struct.std::pair"* %array.begin, i64 24, !dbg !6356
  br label %arrayctor.loop, !dbg !6356

arrayctor.loop:                                   ; preds = %arrayctor.loop, %entry
  %arrayctor.cur = phi %"struct.std::pair"* [ %array.begin, %entry ], [ %arrayctor.next, %arrayctor.loop ], !dbg !6356
  call void @_ZNSt4pairIiiEC2IiiLb1EEEv(%"struct.std::pair"* %arrayctor.cur), !dbg !6356
  %arrayctor.next = getelementptr inbounds %"struct.std::pair", %"struct.std::pair"* %arrayctor.cur, i64 1, !dbg !6356
  %arrayctor.done = icmp eq %"struct.std::pair"* %arrayctor.next, %arrayctor.end, !dbg !6356
  br i1 %arrayctor.done, label %arrayctor.cont, label %arrayctor.loop, !dbg !6356

arrayctor.cont:                                   ; preds = %arrayctor.loop
  ret void, !dbg !6356
}

; Function Attrs: noinline nounwind uwtable
define linkonce_odr dso_local void @_ZN9FullBoardD2Ev(%class.FullBoard* %this) unnamed_addr #5 comdat align 2 !dbg !6357 {
entry:
  %this.addr = alloca %class.FullBoard*, align 8
  store %class.FullBoard* %this, %class.FullBoard** %this.addr, align 8
  call void @llvm.dbg.declare(metadata %class.FullBoard** %this.addr, metadata !6359, metadata !DIExpression()), !dbg !6360
  %this1 = load %class.FullBoard*, %class.FullBoard** %this.addr, align 8
  %0 = bitcast %class.FullBoard* %this1 to %class.FastBoard*, !dbg !6361
  call void @_ZN9FastBoardD2Ev(%class.FastBoard* %0) #3, !dbg !6361
  ret void, !dbg !6363
}

; Function Attrs: noinline nounwind uwtable
define linkonce_odr dso_local void @_ZN9FastBoardC2Ev(%class.FastBoard* %this) unnamed_addr #5 comdat align 2 !dbg !6364 {
entry:
  %this.addr = alloca %class.FastBoard*, align 8
  store %class.FastBoard* %this, %class.FastBoard** %this.addr, align 8
  call void @llvm.dbg.declare(metadata %class.FastBoard** %this.addr, metadata !6368, metadata !DIExpression()), !dbg !6370
  %this1 = load %class.FastBoard*, %class.FastBoard** %this.addr, align 8
  %m_empty = getelementptr inbounds %class.FastBoard, %class.FastBoard* %this1, i32 0, i32 0, !dbg !6371
  %m_empty_idx = getelementptr inbounds %class.FastBoard, %class.FastBoard* %this1, i32 0, i32 1, !dbg !6371
  %m_square = getelementptr inbounds %class.FastBoard, %class.FastBoard* %this1, i32 0, i32 5, !dbg !6371
  %m_next = getelementptr inbounds %class.FastBoard, %class.FastBoard* %this1, i32 0, i32 6, !dbg !6371
  %m_parent = getelementptr inbounds %class.FastBoard, %class.FastBoard* %this1, i32 0, i32 7, !dbg !6371
  %m_libs = getelementptr inbounds %class.FastBoard, %class.FastBoard* %this1, i32 0, i32 8, !dbg !6371
  %m_stones = getelementptr inbounds %class.FastBoard, %class.FastBoard* %this1, i32 0, i32 9, !dbg !6371
  %m_neighbours = getelementptr inbounds %class.FastBoard, %class.FastBoard* %this1, i32 0, i32 10, !dbg !6371
  %m_dirs = getelementptr inbounds %class.FastBoard, %class.FastBoard* %this1, i32 0, i32 12, !dbg !6371
  %m_extradirs = getelementptr inbounds %class.FastBoard, %class.FastBoard* %this1, i32 0, i32 13, !dbg !6371
  %m_prisoners = getelementptr inbounds %class.FastBoard, %class.FastBoard* %this1, i32 0, i32 14, !dbg !6371
  %m_totalstones = getelementptr inbounds %class.FastBoard, %class.FastBoard* %this1, i32 0, i32 15, !dbg !6371
  %m_critical = getelementptr inbounds %class.FastBoard, %class.FastBoard* %this1, i32 0, i32 16, !dbg !6371
  call void @_ZNSt6vectorIiSaIiEEC2Ev(%"class.std::vector"* %m_critical) #3, !dbg !6371
  ret void, !dbg !6371
}

; Function Attrs: noinline nounwind uwtable
define linkonce_odr dso_local void @_ZNSt6vectorIiSaIiEEC2Ev(%"class.std::vector"* %this) unnamed_addr #5 comdat align 2 !dbg !6372 {
entry:
  %this.addr = alloca %"class.std::vector"*, align 8
  store %"class.std::vector"* %this, %"class.std::vector"** %this.addr, align 8
  call void @llvm.dbg.declare(metadata %"class.std::vector"** %this.addr, metadata !6373, metadata !DIExpression()), !dbg !6375
  %this1 = load %"class.std::vector"*, %"class.std::vector"** %this.addr, align 8
  %0 = bitcast %"class.std::vector"* %this1 to %"struct.std::_Vector_base"*, !dbg !6376
  call void @_ZNSt12_Vector_baseIiSaIiEEC2Ev(%"struct.std::_Vector_base"* %0) #3, !dbg !6377
  ret void, !dbg !6376
}

; Function Attrs: noinline nounwind uwtable
define linkonce_odr dso_local void @_ZNSt12_Vector_baseIiSaIiEEC2Ev(%"struct.std::_Vector_base"* %this) unnamed_addr #5 comdat align 2 !dbg !6378 {
entry:
  %this.addr = alloca %"struct.std::_Vector_base"*, align 8
  store %"struct.std::_Vector_base"* %this, %"struct.std::_Vector_base"** %this.addr, align 8
  call void @llvm.dbg.declare(metadata %"struct.std::_Vector_base"** %this.addr, metadata !6379, metadata !DIExpression()), !dbg !6381
  %this1 = load %"struct.std::_Vector_base"*, %"struct.std::_Vector_base"** %this.addr, align 8
  %_M_impl = getelementptr inbounds %"struct.std::_Vector_base", %"struct.std::_Vector_base"* %this1, i32 0, i32 0, !dbg !6382
  call void @_ZNSt12_Vector_baseIiSaIiEE12_Vector_implC2Ev(%"struct.std::_Vector_base<int, std::allocator<int> >::_Vector_impl"* %_M_impl) #3, !dbg !6382
  ret void, !dbg !6383
}

; Function Attrs: noinline nounwind uwtable
define linkonce_odr dso_local void @_ZNSt12_Vector_baseIiSaIiEE12_Vector_implC2Ev(%"struct.std::_Vector_base<int, std::allocator<int> >::_Vector_impl"* %this) unnamed_addr #5 comdat align 2 !dbg !6384 {
entry:
  %this.addr = alloca %"struct.std::_Vector_base<int, std::allocator<int> >::_Vector_impl"*, align 8
  store %"struct.std::_Vector_base<int, std::allocator<int> >::_Vector_impl"* %this, %"struct.std::_Vector_base<int, std::allocator<int> >::_Vector_impl"** %this.addr, align 8
  call void @llvm.dbg.declare(metadata %"struct.std::_Vector_base<int, std::allocator<int> >::_Vector_impl"** %this.addr, metadata !6385, metadata !DIExpression()), !dbg !6387
  %this1 = load %"struct.std::_Vector_base<int, std::allocator<int> >::_Vector_impl"*, %"struct.std::_Vector_base<int, std::allocator<int> >::_Vector_impl"** %this.addr, align 8
  %0 = bitcast %"struct.std::_Vector_base<int, std::allocator<int> >::_Vector_impl"* %this1 to %"class.std::allocator"*, !dbg !6388
  call void @_ZNSaIiEC2Ev(%"class.std::allocator"* %0) #3, !dbg !6389
  %1 = bitcast %"struct.std::_Vector_base<int, std::allocator<int> >::_Vector_impl"* %this1 to %"struct.std::_Vector_base<int, std::allocator<int> >::_Vector_impl_data"*, !dbg !6388
  call void @_ZNSt12_Vector_baseIiSaIiEE17_Vector_impl_dataC2Ev(%"struct.std::_Vector_base<int, std::allocator<int> >::_Vector_impl_data"* %1) #3, !dbg !6390
  ret void, !dbg !6391
}

; Function Attrs: noinline nounwind uwtable
define linkonce_odr dso_local void @_ZNSaIiEC2Ev(%"class.std::allocator"* %this) unnamed_addr #5 comdat align 2 !dbg !6392 {
entry:
  %this.addr = alloca %"class.std::allocator"*, align 8
  store %"class.std::allocator"* %this, %"class.std::allocator"** %this.addr, align 8
  call void @llvm.dbg.declare(metadata %"class.std::allocator"** %this.addr, metadata !6393, metadata !DIExpression()), !dbg !6395
  %this1 = load %"class.std::allocator"*, %"class.std::allocator"** %this.addr, align 8
  %0 = bitcast %"class.std::allocator"* %this1 to %"class.__gnu_cxx::new_allocator"*, !dbg !6396
  call void @_ZN9__gnu_cxx13new_allocatorIiEC2Ev(%"class.__gnu_cxx::new_allocator"* %0) #3, !dbg !6397
  ret void, !dbg !6398
}

; Function Attrs: noinline nounwind uwtable
define linkonce_odr dso_local void @_ZNSt12_Vector_baseIiSaIiEE17_Vector_impl_dataC2Ev(%"struct.std::_Vector_base<int, std::allocator<int> >::_Vector_impl_data"* %this) unnamed_addr #5 comdat align 2 !dbg !6399 {
entry:
  %this.addr = alloca %"struct.std::_Vector_base<int, std::allocator<int> >::_Vector_impl_data"*, align 8
  store %"struct.std::_Vector_base<int, std::allocator<int> >::_Vector_impl_data"* %this, %"struct.std::_Vector_base<int, std::allocator<int> >::_Vector_impl_data"** %this.addr, align 8
  call void @llvm.dbg.declare(metadata %"struct.std::_Vector_base<int, std::allocator<int> >::_Vector_impl_data"** %this.addr, metadata !6400, metadata !DIExpression()), !dbg !6402
  %this1 = load %"struct.std::_Vector_base<int, std::allocator<int> >::_Vector_impl_data"*, %"struct.std::_Vector_base<int, std::allocator<int> >::_Vector_impl_data"** %this.addr, align 8
  %_M_start = getelementptr inbounds %"struct.std::_Vector_base<int, std::allocator<int> >::_Vector_impl_data", %"struct.std::_Vector_base<int, std::allocator<int> >::_Vector_impl_data"* %this1, i32 0, i32 0, !dbg !6403
  store i32* null, i32** %_M_start, align 8, !dbg !6403
  %_M_finish = getelementptr inbounds %"struct.std::_Vector_base<int, std::allocator<int> >::_Vector_impl_data", %"struct.std::_Vector_base<int, std::allocator<int> >::_Vector_impl_data"* %this1, i32 0, i32 1, !dbg !6404
  store i32* null, i32** %_M_finish, align 8, !dbg !6404
  %_M_end_of_storage = getelementptr inbounds %"struct.std::_Vector_base<int, std::allocator<int> >::_Vector_impl_data", %"struct.std::_Vector_base<int, std::allocator<int> >::_Vector_impl_data"* %this1, i32 0, i32 2, !dbg !6405
  store i32* null, i32** %_M_end_of_storage, align 8, !dbg !6405
  ret void, !dbg !6406
}

; Function Attrs: noinline nounwind uwtable
define linkonce_odr dso_local void @_ZN9__gnu_cxx13new_allocatorIiEC2Ev(%"class.__gnu_cxx::new_allocator"* %this) unnamed_addr #5 comdat align 2 !dbg !6407 {
entry:
  %this.addr = alloca %"class.__gnu_cxx::new_allocator"*, align 8
  store %"class.__gnu_cxx::new_allocator"* %this, %"class.__gnu_cxx::new_allocator"** %this.addr, align 8
  call void @llvm.dbg.declare(metadata %"class.__gnu_cxx::new_allocator"** %this.addr, metadata !6408, metadata !DIExpression()), !dbg !6410
  %this1 = load %"class.__gnu_cxx::new_allocator"*, %"class.__gnu_cxx::new_allocator"** %this.addr, align 8
  ret void, !dbg !6411
}

; Function Attrs: noinline nounwind uwtable
define linkonce_odr dso_local void @_ZNSt4pairIiiEC2IiiLb1EEEv(%"struct.std::pair"* %this) unnamed_addr #5 comdat align 2 !dbg !6412 {
entry:
  %this.addr = alloca %"struct.std::pair"*, align 8
  store %"struct.std::pair"* %this, %"struct.std::pair"** %this.addr, align 8
  call void @llvm.dbg.declare(metadata %"struct.std::pair"** %this.addr, metadata !6417, metadata !DIExpression()), !dbg !6418
  %this1 = load %"struct.std::pair"*, %"struct.std::pair"** %this.addr, align 8
  %0 = bitcast %"struct.std::pair"* %this1 to %"class.std::__pair_base"*, !dbg !6419
  %first = getelementptr inbounds %"struct.std::pair", %"struct.std::pair"* %this1, i32 0, i32 0, !dbg !6420
  store i32 0, i32* %first, align 4, !dbg !6420
  %second = getelementptr inbounds %"struct.std::pair", %"struct.std::pair"* %this1, i32 0, i32 1, !dbg !6421
  store i32 0, i32* %second, align 4, !dbg !6421
  ret void, !dbg !6422
}

; Function Attrs: noinline nounwind uwtable
define linkonce_odr dso_local void @_ZN9FastBoardD2Ev(%class.FastBoard* %this) unnamed_addr #5 comdat align 2 !dbg !6423 {
entry:
  %this.addr = alloca %class.FastBoard*, align 8
  store %class.FastBoard* %this, %class.FastBoard** %this.addr, align 8
  call void @llvm.dbg.declare(metadata %class.FastBoard** %this.addr, metadata !6425, metadata !DIExpression()), !dbg !6426
  %this1 = load %class.FastBoard*, %class.FastBoard** %this.addr, align 8
  %m_critical = getelementptr inbounds %class.FastBoard, %class.FastBoard* %this1, i32 0, i32 16, !dbg !6427
  call void @_ZNSt6vectorIiSaIiEED2Ev(%"class.std::vector"* %m_critical) #3, !dbg !6427
  ret void, !dbg !6429
}

; Function Attrs: noinline nounwind uwtable
define linkonce_odr dso_local void @_ZNSt6vectorIiSaIiEED2Ev(%"class.std::vector"* %this) unnamed_addr #5 comdat align 2 personality i8* bitcast (i32 (...)* @__gxx_personality_v0 to i8*) !dbg !6430 {
entry:
  %this.addr = alloca %"class.std::vector"*, align 8
  %exn.slot = alloca i8*
  %ehselector.slot = alloca i32
  store %"class.std::vector"* %this, %"class.std::vector"** %this.addr, align 8
  call void @llvm.dbg.declare(metadata %"class.std::vector"** %this.addr, metadata !6431, metadata !DIExpression()), !dbg !6432
  %this1 = load %"class.std::vector"*, %"class.std::vector"** %this.addr, align 8
  %0 = bitcast %"class.std::vector"* %this1 to %"struct.std::_Vector_base"*, !dbg !6433
  %_M_impl = getelementptr inbounds %"struct.std::_Vector_base", %"struct.std::_Vector_base"* %0, i32 0, i32 0, !dbg !6433
  %1 = bitcast %"struct.std::_Vector_base<int, std::allocator<int> >::_Vector_impl"* %_M_impl to %"struct.std::_Vector_base<int, std::allocator<int> >::_Vector_impl_data"*, !dbg !6435
  %_M_start = getelementptr inbounds %"struct.std::_Vector_base<int, std::allocator<int> >::_Vector_impl_data", %"struct.std::_Vector_base<int, std::allocator<int> >::_Vector_impl_data"* %1, i32 0, i32 0, !dbg !6436
  %2 = load i32*, i32** %_M_start, align 8, !dbg !6436
  %3 = bitcast %"class.std::vector"* %this1 to %"struct.std::_Vector_base"*, !dbg !6437
  %_M_impl2 = getelementptr inbounds %"struct.std::_Vector_base", %"struct.std::_Vector_base"* %3, i32 0, i32 0, !dbg !6437
  %4 = bitcast %"struct.std::_Vector_base<int, std::allocator<int> >::_Vector_impl"* %_M_impl2 to %"struct.std::_Vector_base<int, std::allocator<int> >::_Vector_impl_data"*, !dbg !6438
  %_M_finish = getelementptr inbounds %"struct.std::_Vector_base<int, std::allocator<int> >::_Vector_impl_data", %"struct.std::_Vector_base<int, std::allocator<int> >::_Vector_impl_data"* %4, i32 0, i32 1, !dbg !6439
  %5 = load i32*, i32** %_M_finish, align 8, !dbg !6439
  %6 = bitcast %"class.std::vector"* %this1 to %"struct.std::_Vector_base"*, !dbg !6440
  %call = call dereferenceable(1) %"class.std::allocator"* @_ZNSt12_Vector_baseIiSaIiEE19_M_get_Tp_allocatorEv(%"struct.std::_Vector_base"* %6) #3, !dbg !6440
  invoke void @_ZSt8_DestroyIPiiEvT_S1_RSaIT0_E(i32* %2, i32* %5, %"class.std::allocator"* dereferenceable(1) %call)
          to label %invoke.cont unwind label %lpad, !dbg !6441

invoke.cont:                                      ; preds = %entry
  %7 = bitcast %"class.std::vector"* %this1 to %"struct.std::_Vector_base"*, !dbg !6442
  call void @_ZNSt12_Vector_baseIiSaIiEED2Ev(%"struct.std::_Vector_base"* %7) #3, !dbg !6442
  ret void, !dbg !6443

lpad:                                             ; preds = %entry
  %8 = landingpad { i8*, i32 }
          catch i8* null, !dbg !6442
  %9 = extractvalue { i8*, i32 } %8, 0, !dbg !6442
  store i8* %9, i8** %exn.slot, align 8, !dbg !6442
  %10 = extractvalue { i8*, i32 } %8, 1, !dbg !6442
  store i32 %10, i32* %ehselector.slot, align 4, !dbg !6442
  %11 = bitcast %"class.std::vector"* %this1 to %"struct.std::_Vector_base"*, !dbg !6442
  call void @_ZNSt12_Vector_baseIiSaIiEED2Ev(%"struct.std::_Vector_base"* %11) #3, !dbg !6442
  br label %terminate.handler, !dbg !6442

terminate.handler:                                ; preds = %lpad
  %exn = load i8*, i8** %exn.slot, align 8, !dbg !6442
  call void @__clang_call_terminate(i8* %exn) #14, !dbg !6442
  unreachable, !dbg !6442
}

; Function Attrs: noinline uwtable
define linkonce_odr dso_local void @_ZSt8_DestroyIPiiEvT_S1_RSaIT0_E(i32* %__first, i32* %__last, %"class.std::allocator"* dereferenceable(1) %0) #0 comdat !dbg !6444 {
entry:
  %__first.addr = alloca i32*, align 8
  %__last.addr = alloca i32*, align 8
  %.addr = alloca %"class.std::allocator"*, align 8
  store i32* %__first, i32** %__first.addr, align 8
  call void @llvm.dbg.declare(metadata i32** %__first.addr, metadata !6449, metadata !DIExpression()), !dbg !6450
  store i32* %__last, i32** %__last.addr, align 8
  call void @llvm.dbg.declare(metadata i32** %__last.addr, metadata !6451, metadata !DIExpression()), !dbg !6452
  store %"class.std::allocator"* %0, %"class.std::allocator"** %.addr, align 8
  call void @llvm.dbg.declare(metadata %"class.std::allocator"** %.addr, metadata !6453, metadata !DIExpression()), !dbg !6454
  %1 = load i32*, i32** %__first.addr, align 8, !dbg !6455
  %2 = load i32*, i32** %__last.addr, align 8, !dbg !6456
  call void @_ZSt8_DestroyIPiEvT_S1_(i32* %1, i32* %2), !dbg !6457
  ret void, !dbg !6458
}

; Function Attrs: noinline nounwind uwtable
define linkonce_odr dso_local dereferenceable(1) %"class.std::allocator"* @_ZNSt12_Vector_baseIiSaIiEE19_M_get_Tp_allocatorEv(%"struct.std::_Vector_base"* %this) #5 comdat align 2 !dbg !6459 {
entry:
  %this.addr = alloca %"struct.std::_Vector_base"*, align 8
  store %"struct.std::_Vector_base"* %this, %"struct.std::_Vector_base"** %this.addr, align 8
  call void @llvm.dbg.declare(metadata %"struct.std::_Vector_base"** %this.addr, metadata !6460, metadata !DIExpression()), !dbg !6461
  %this1 = load %"struct.std::_Vector_base"*, %"struct.std::_Vector_base"** %this.addr, align 8
  %_M_impl = getelementptr inbounds %"struct.std::_Vector_base", %"struct.std::_Vector_base"* %this1, i32 0, i32 0, !dbg !6462
  %0 = bitcast %"struct.std::_Vector_base<int, std::allocator<int> >::_Vector_impl"* %_M_impl to %"class.std::allocator"*, !dbg !6463
  ret %"class.std::allocator"* %0, !dbg !6464
}

; Function Attrs: noinline nounwind uwtable
define linkonce_odr dso_local void @_ZNSt12_Vector_baseIiSaIiEED2Ev(%"struct.std::_Vector_base"* %this) unnamed_addr #5 comdat align 2 personality i8* bitcast (i32 (...)* @__gxx_personality_v0 to i8*) !dbg !6465 {
entry:
  %this.addr = alloca %"struct.std::_Vector_base"*, align 8
  %exn.slot = alloca i8*
  %ehselector.slot = alloca i32
  store %"struct.std::_Vector_base"* %this, %"struct.std::_Vector_base"** %this.addr, align 8
  call void @llvm.dbg.declare(metadata %"struct.std::_Vector_base"** %this.addr, metadata !6466, metadata !DIExpression()), !dbg !6467
  %this1 = load %"struct.std::_Vector_base"*, %"struct.std::_Vector_base"** %this.addr, align 8
  %_M_impl = getelementptr inbounds %"struct.std::_Vector_base", %"struct.std::_Vector_base"* %this1, i32 0, i32 0, !dbg !6468
  %0 = bitcast %"struct.std::_Vector_base<int, std::allocator<int> >::_Vector_impl"* %_M_impl to %"struct.std::_Vector_base<int, std::allocator<int> >::_Vector_impl_data"*, !dbg !6468
  %_M_start = getelementptr inbounds %"struct.std::_Vector_base<int, std::allocator<int> >::_Vector_impl_data", %"struct.std::_Vector_base<int, std::allocator<int> >::_Vector_impl_data"* %0, i32 0, i32 0, !dbg !6470
  %1 = load i32*, i32** %_M_start, align 8, !dbg !6470
  %_M_impl2 = getelementptr inbounds %"struct.std::_Vector_base", %"struct.std::_Vector_base"* %this1, i32 0, i32 0, !dbg !6471
  %2 = bitcast %"struct.std::_Vector_base<int, std::allocator<int> >::_Vector_impl"* %_M_impl2 to %"struct.std::_Vector_base<int, std::allocator<int> >::_Vector_impl_data"*, !dbg !6471
  %_M_end_of_storage = getelementptr inbounds %"struct.std::_Vector_base<int, std::allocator<int> >::_Vector_impl_data", %"struct.std::_Vector_base<int, std::allocator<int> >::_Vector_impl_data"* %2, i32 0, i32 2, !dbg !6472
  %3 = load i32*, i32** %_M_end_of_storage, align 8, !dbg !6472
  %_M_impl3 = getelementptr inbounds %"struct.std::_Vector_base", %"struct.std::_Vector_base"* %this1, i32 0, i32 0, !dbg !6473
  %4 = bitcast %"struct.std::_Vector_base<int, std::allocator<int> >::_Vector_impl"* %_M_impl3 to %"struct.std::_Vector_base<int, std::allocator<int> >::_Vector_impl_data"*, !dbg !6473
  %_M_start4 = getelementptr inbounds %"struct.std::_Vector_base<int, std::allocator<int> >::_Vector_impl_data", %"struct.std::_Vector_base<int, std::allocator<int> >::_Vector_impl_data"* %4, i32 0, i32 0, !dbg !6474
  %5 = load i32*, i32** %_M_start4, align 8, !dbg !6474
  %sub.ptr.lhs.cast = ptrtoint i32* %3 to i64, !dbg !6475
  %sub.ptr.rhs.cast = ptrtoint i32* %5 to i64, !dbg !6475
  %sub.ptr.sub = sub i64 %sub.ptr.lhs.cast, %sub.ptr.rhs.cast, !dbg !6475
  %sub.ptr.div = sdiv exact i64 %sub.ptr.sub, 4, !dbg !6475
  invoke void @_ZNSt12_Vector_baseIiSaIiEE13_M_deallocateEPim(%"struct.std::_Vector_base"* %this1, i32* %1, i64 %sub.ptr.div)
          to label %invoke.cont unwind label %lpad, !dbg !6476

invoke.cont:                                      ; preds = %entry
  %_M_impl5 = getelementptr inbounds %"struct.std::_Vector_base", %"struct.std::_Vector_base"* %this1, i32 0, i32 0, !dbg !6477
  call void @_ZNSt12_Vector_baseIiSaIiEE12_Vector_implD2Ev(%"struct.std::_Vector_base<int, std::allocator<int> >::_Vector_impl"* %_M_impl5) #3, !dbg !6477
  ret void, !dbg !6478

lpad:                                             ; preds = %entry
  %6 = landingpad { i8*, i32 }
          catch i8* null, !dbg !6477
  %7 = extractvalue { i8*, i32 } %6, 0, !dbg !6477
  store i8* %7, i8** %exn.slot, align 8, !dbg !6477
  %8 = extractvalue { i8*, i32 } %6, 1, !dbg !6477
  store i32 %8, i32* %ehselector.slot, align 4, !dbg !6477
  %_M_impl6 = getelementptr inbounds %"struct.std::_Vector_base", %"struct.std::_Vector_base"* %this1, i32 0, i32 0, !dbg !6477
  call void @_ZNSt12_Vector_baseIiSaIiEE12_Vector_implD2Ev(%"struct.std::_Vector_base<int, std::allocator<int> >::_Vector_impl"* %_M_impl6) #3, !dbg !6477
  br label %terminate.handler, !dbg !6477

terminate.handler:                                ; preds = %lpad
  %exn = load i8*, i8** %exn.slot, align 8, !dbg !6477
  call void @__clang_call_terminate(i8* %exn) #14, !dbg !6477
  unreachable, !dbg !6477
}

; Function Attrs: noinline noreturn nounwind
define linkonce_odr hidden void @__clang_call_terminate(i8* %0) #7 comdat {
  %2 = call i8* @__cxa_begin_catch(i8* %0) #3
  call void @_ZSt9terminatev() #14
  unreachable
}

declare dso_local i8* @__cxa_begin_catch(i8*)

declare dso_local void @_ZSt9terminatev()

; Function Attrs: noinline uwtable
define linkonce_odr dso_local void @_ZSt8_DestroyIPiEvT_S1_(i32* %__first, i32* %__last) #0 comdat !dbg !6479 {
entry:
  %__first.addr = alloca i32*, align 8
  %__last.addr = alloca i32*, align 8
  store i32* %__first, i32** %__first.addr, align 8
  call void @llvm.dbg.declare(metadata i32** %__first.addr, metadata !6484, metadata !DIExpression()), !dbg !6485
  store i32* %__last, i32** %__last.addr, align 8
  call void @llvm.dbg.declare(metadata i32** %__last.addr, metadata !6486, metadata !DIExpression()), !dbg !6487
  %0 = load i32*, i32** %__first.addr, align 8, !dbg !6488
  %1 = load i32*, i32** %__last.addr, align 8, !dbg !6489
  call void @_ZNSt12_Destroy_auxILb1EE9__destroyIPiEEvT_S3_(i32* %0, i32* %1), !dbg !6490
  ret void, !dbg !6491
}

; Function Attrs: noinline nounwind uwtable
define linkonce_odr dso_local void @_ZNSt12_Destroy_auxILb1EE9__destroyIPiEEvT_S3_(i32* %0, i32* %1) #5 comdat align 2 !dbg !6492 {
entry:
  %.addr = alloca i32*, align 8
  %.addr1 = alloca i32*, align 8
  store i32* %0, i32** %.addr, align 8
  call void @llvm.dbg.declare(metadata i32** %.addr, metadata !6496, metadata !DIExpression()), !dbg !6497
  store i32* %1, i32** %.addr1, align 8
  call void @llvm.dbg.declare(metadata i32** %.addr1, metadata !6498, metadata !DIExpression()), !dbg !6499
  ret void, !dbg !6500
}

; Function Attrs: noinline uwtable
define linkonce_odr dso_local void @_ZNSt12_Vector_baseIiSaIiEE13_M_deallocateEPim(%"struct.std::_Vector_base"* %this, i32* %__p, i64 %__n) #0 comdat align 2 !dbg !6501 {
entry:
  %this.addr = alloca %"struct.std::_Vector_base"*, align 8
  %__p.addr = alloca i32*, align 8
  %__n.addr = alloca i64, align 8
  store %"struct.std::_Vector_base"* %this, %"struct.std::_Vector_base"** %this.addr, align 8
  call void @llvm.dbg.declare(metadata %"struct.std::_Vector_base"** %this.addr, metadata !6502, metadata !DIExpression()), !dbg !6503
  store i32* %__p, i32** %__p.addr, align 8
  call void @llvm.dbg.declare(metadata i32** %__p.addr, metadata !6504, metadata !DIExpression()), !dbg !6505
  store i64 %__n, i64* %__n.addr, align 8
  call void @llvm.dbg.declare(metadata i64* %__n.addr, metadata !6506, metadata !DIExpression()), !dbg !6507
  %this1 = load %"struct.std::_Vector_base"*, %"struct.std::_Vector_base"** %this.addr, align 8
  %0 = load i32*, i32** %__p.addr, align 8, !dbg !6508
  %tobool = icmp ne i32* %0, null, !dbg !6508
  br i1 %tobool, label %if.then, label %if.end, !dbg !6510

if.then:                                          ; preds = %entry
  %_M_impl = getelementptr inbounds %"struct.std::_Vector_base", %"struct.std::_Vector_base"* %this1, i32 0, i32 0, !dbg !6511
  %1 = bitcast %"struct.std::_Vector_base<int, std::allocator<int> >::_Vector_impl"* %_M_impl to %"class.std::allocator"*, !dbg !6511
  %2 = load i32*, i32** %__p.addr, align 8, !dbg !6512
  %3 = load i64, i64* %__n.addr, align 8, !dbg !6513
  call void @_ZNSt16allocator_traitsISaIiEE10deallocateERS0_Pim(%"class.std::allocator"* dereferenceable(1) %1, i32* %2, i64 %3), !dbg !6514
  br label %if.end, !dbg !6514

if.end:                                           ; preds = %if.then, %entry
  ret void, !dbg !6515
}

; Function Attrs: noinline nounwind uwtable
define linkonce_odr dso_local void @_ZNSt12_Vector_baseIiSaIiEE12_Vector_implD2Ev(%"struct.std::_Vector_base<int, std::allocator<int> >::_Vector_impl"* %this) unnamed_addr #5 comdat align 2 !dbg !6516 {
entry:
  %this.addr = alloca %"struct.std::_Vector_base<int, std::allocator<int> >::_Vector_impl"*, align 8
