; ModuleID = 'Matcher.cpp'
source_filename = "Matcher.cpp"
target datalayout = "e-m:e-p270:32:32-p271:32:32-p272:64:64-i64:64-f80:128-n8:16:32:64-S128"
target triple = "x86_64-unknown-linux-gnu"

%"class.boost::array" = type { [806 x i32] }
%"class.boost::array.0" = type { [806 x float] }
%class.Matcher = type { %"class.boost::array.1" }
%"class.boost::array.1" = type { [2 x %"class.std::vector"] }
%"class.std::vector" = type { %"struct.std::_Vector_base" }
%"struct.std::_Vector_base" = type { %"struct.std::_Vector_base<unsigned char, std::allocator<unsigned char> >::_Vector_impl" }
%"struct.std::_Vector_base<unsigned char, std::allocator<unsigned char> >::_Vector_impl" = type { %"struct.std::_Vector_base<unsigned char, std::allocator<unsigned char> >::_Vector_impl_data" }
%"struct.std::_Vector_base<unsigned char, std::allocator<unsigned char> >::_Vector_impl_data" = type { i8*, i8*, i8* }
%class.FastBoard = type <{ %"class.boost::array.2", %"class.boost::array.2", i32, i32, i32, %"class.boost::array.3", %"class.boost::array.4", %"class.boost::array.4", %"class.boost::array.4", %"class.boost::array.4", %"class.boost::array.2", [2 x i8], %"class.boost::array.5", %"class.boost::array.6", %"class.boost::array.7", %"class.boost::array.7", %"class.std::vector.8", i32, [4 x i8] }>
%"class.boost::array.3" = type { [441 x i32] }
%"class.boost::array.4" = type { [442 x i16] }
%"class.boost::array.2" = type { [441 x i16] }
%"class.boost::array.5" = type { [4 x i32] }
%"class.boost::array.6" = type { [8 x i32] }
%"class.boost::array.7" = type { [2 x i32] }
%"class.std::vector.8" = type { %"struct.std::_Vector_base.9" }
%"struct.std::_Vector_base.9" = type { %"struct.std::_Vector_base<int, std::allocator<int> >::_Vector_impl" }
%"struct.std::_Vector_base<int, std::allocator<int> >::_Vector_impl" = type { %"struct.std::_Vector_base<int, std::allocator<int> >::_Vector_impl_data" }
%"struct.std::_Vector_base<int, std::allocator<int> >::_Vector_impl_data" = type { i32*, i32*, i32* }
%"class.std::map" = type { %"class.std::_Rb_tree" }
%"class.std::_Rb_tree" = type { %"struct.std::_Rb_tree<int, std::pair<const int, float>, std::_Select1st<std::pair<const int, float> >, std::less<int>, std::allocator<std::pair<const int, float> > >::_Rb_tree_impl" }
%"struct.std::_Rb_tree<int, std::pair<const int, float>, std::_Select1st<std::pair<const int, float> >, std::less<int>, std::allocator<std::pair<const int, float> > >::_Rb_tree_impl" = type { %"struct.std::_Rb_tree_key_compare", %"struct.std::_Rb_tree_header" }
%"struct.std::_Rb_tree_key_compare" = type { %"struct.std::less" }
%"struct.std::less" = type { i8 }
%"struct.std::_Rb_tree_header" = type { %"struct.std::_Rb_tree_node_base", i64 }
%"struct.std::_Rb_tree_node_base" = type { i32, %"struct.std::_Rb_tree_node_base"*, %"struct.std::_Rb_tree_node_base"*, %"struct.std::_Rb_tree_node_base"* }
%"struct.std::pair" = type { i32, float }
%"struct.std::pair.16" = type <{ %"struct.std::_Rb_tree_iterator", i8, [7 x i8] }>
%"struct.std::_Rb_tree_iterator" = type { %"struct.std::_Rb_tree_node_base"* }
%"struct.std::pair.19" = type { i32, float }
%"struct.std::_Rb_tree_node" = type { %"struct.std::_Rb_tree_node_base", %"struct.__gnu_cxx::__aligned_membuf" }
%"struct.__gnu_cxx::__aligned_membuf" = type { [8 x i8] }
%"class.std::allocator" = type { i8 }
%"class.__gnu_cxx::new_allocator" = type { i8 }
%"class.std::allocator.10" = type { i8 }
%"class.__gnu_cxx::new_allocator.11" = type { i8 }
%"class.std::allocator.13" = type { i8 }
%"class.__gnu_cxx::new_allocator.14" = type { i8 }
%"class.std::__pair_base" = type { i8 }
%"struct.std::integral_constant" = type { i8 }
%"struct.std::random_access_iterator_tag" = type { i8 }
%"struct.std::pair.22" = type { %"struct.std::_Rb_tree_node_base"*, %"struct.std::_Rb_tree_node_base"* }
%"struct.std::_Select1st" = type { i8 }
%"class.std::__pair_base.17" = type { i8 }
%"class.std::__pair_base.20" = type { i8 }
%"class.std::__pair_base.23" = type { i8 }

$_ZN7MatcherD2Ev = comdat any

$_ZN5boost5arrayISt6vectorIhSaIhEELm2EEC2Ev = comdat any

$_ZN5boost5arrayISt6vectorIhSaIhEELm2EEixEm = comdat any

$_ZNSt6vectorIhSaIhEE6resizeEm = comdat any

$_ZN9FastBoardC2Ev = comdat any

$_ZNSt3mapIifSt4lessIiESaISt4pairIKifEEEC2Ev = comdat any

$_ZN5boost5arrayIfLm806EE4sizeEv = comdat any

$_ZSt9make_pairIRiRfESt4pairINSt25__strip_reference_wrapperINSt5decayIT_E4typeEE6__typeENS3_INS4_IT0_E4typeEE6__typeEEOS5_OSA_ = comdat any

$_ZN5boost5arrayIiLm806EEixEm = comdat any

$_ZN5boost5arrayIfLm806EEixEm = comdat any

$_ZNSt3mapIifSt4lessIiESaISt4pairIKifEEE6insertIRS2_IifEEENSt9enable_ifIXsr16is_constructibleIS4_T_EE5valueES2_ISt17_Rb_tree_iteratorIS4_EbEE4typeEOSB_ = comdat any

$_ZNSt3mapIifSt4lessIiESaISt4pairIKifEEE4findERS3_ = comdat any

$_ZStneRKSt17_Rb_tree_iteratorISt4pairIKifEES5_ = comdat any

$_ZNSt3mapIifSt4lessIiESaISt4pairIKifEEE3endEv = comdat any

$_ZNKSt17_Rb_tree_iteratorISt4pairIKifEEptEv = comdat any

$_ZNSt6vectorIhSaIhEEixEm = comdat any

$_ZNSt3mapIifSt4lessIiESaISt4pairIKifEEED2Ev = comdat any

$_ZN9FastBoardD2Ev = comdat any

$_ZN5boost5arrayISt6vectorIhSaIhEELm2EED2Ev = comdat any

$_ZNSt6vectorIhSaIhEEC2Ev = comdat any

$_ZNSt12_Vector_baseIhSaIhEEC2Ev = comdat any

$_ZNSt12_Vector_baseIhSaIhEE12_Vector_implC2Ev = comdat any

$_ZNSaIhEC2Ev = comdat any

$_ZNSt12_Vector_baseIhSaIhEE17_Vector_impl_dataC2Ev = comdat any

$_ZN9__gnu_cxx13new_allocatorIhEC2Ev = comdat any

$_ZNSt6vectorIiSaIiEEC2Ev = comdat any

$_ZNSt12_Vector_baseIiSaIiEEC2Ev = comdat any

$_ZNSt12_Vector_baseIiSaIiEE12_Vector_implC2Ev = comdat any

$_ZNSaIiEC2Ev = comdat any

$_ZNSt12_Vector_baseIiSaIiEE17_Vector_impl_dataC2Ev = comdat any

$_ZN9__gnu_cxx13new_allocatorIiEC2Ev = comdat any

$_ZNSt8_Rb_treeIiSt4pairIKifESt10_Select1stIS2_ESt4lessIiESaIS2_EEC2Ev = comdat any

$_ZNSt8_Rb_treeIiSt4pairIKifESt10_Select1stIS2_ESt4lessIiESaIS2_EE13_Rb_tree_implIS6_Lb1EEC2Ev = comdat any

$_ZNSaISt13_Rb_tree_nodeISt4pairIKifEEEC2Ev = comdat any

$_ZNSt20_Rb_tree_key_compareISt4lessIiEEC2Ev = comdat any

$_ZNSt15_Rb_tree_headerC2Ev = comdat any

$_ZN9__gnu_cxx13new_allocatorISt13_Rb_tree_nodeISt4pairIKifEEEC2Ev = comdat any

$_ZNSt15_Rb_tree_header8_M_resetEv = comdat any

$__clang_call_terminate = comdat any

$_ZSt7forwardIRiEOT_RNSt16remove_referenceIS1_E4typeE = comdat any

$_ZSt7forwardIRfEOT_RNSt16remove_referenceIS1_E4typeE = comdat any

$_ZNSt4pairIifEC2IRiRfLb1EEEOT_OT0_ = comdat any

$_ZNSt8_Rb_treeIiSt4pairIKifESt10_Select1stIS2_ESt4lessIiESaIS2_EED2Ev = comdat any

$_ZNSt8_Rb_treeIiSt4pairIKifESt10_Select1stIS2_ESt4lessIiESaIS2_EE8_M_eraseEPSt13_Rb_tree_nodeIS2_E = comdat any

$_ZNSt8_Rb_treeIiSt4pairIKifESt10_Select1stIS2_ESt4lessIiESaIS2_EE8_M_beginEv = comdat any

$_ZNSt8_Rb_treeIiSt4pairIKifESt10_Select1stIS2_ESt4lessIiESaIS2_EE13_Rb_tree_implIS6_Lb1EED2Ev = comdat any

$_ZNSt8_Rb_treeIiSt4pairIKifESt10_Select1stIS2_ESt4lessIiESaIS2_EE8_S_rightEPSt18_Rb_tree_node_base = comdat any

$_ZNSt8_Rb_treeIiSt4pairIKifESt10_Select1stIS2_ESt4lessIiESaIS2_EE7_S_leftEPSt18_Rb_tree_node_base = comdat any

$_ZNSt8_Rb_treeIiSt4pairIKifESt10_Select1stIS2_ESt4lessIiESaIS2_EE12_M_drop_nodeEPSt13_Rb_tree_nodeIS2_E = comdat any

$_ZNSt8_Rb_treeIiSt4pairIKifESt10_Select1stIS2_ESt4lessIiESaIS2_EE15_M_destroy_nodeEPSt13_Rb_tree_nodeIS2_E = comdat any

$_ZNSt8_Rb_treeIiSt4pairIKifESt10_Select1stIS2_ESt4lessIiESaIS2_EE11_M_put_nodeEPSt13_Rb_tree_nodeIS2_E = comdat any

$_ZNSt16allocator_traitsISaISt13_Rb_tree_nodeISt4pairIKifEEEE7destroyIS3_EEvRS5_PT_ = comdat any

$_ZNSt8_Rb_treeIiSt4pairIKifESt10_Select1stIS2_ESt4lessIiESaIS2_EE21_M_get_Node_allocatorEv = comdat any

$_ZNSt13_Rb_tree_nodeISt4pairIKifEE9_M_valptrEv = comdat any

$_ZN9__gnu_cxx13new_allocatorISt13_Rb_tree_nodeISt4pairIKifEEE7destroyIS4_EEvPT_ = comdat any

$_ZN9__gnu_cxx16__aligned_membufISt4pairIKifEE6_M_ptrEv = comdat any

$_ZN9__gnu_cxx16__aligned_membufISt4pairIKifEE7_M_addrEv = comdat any

$_ZNSt16allocator_traitsISaISt13_Rb_tree_nodeISt4pairIKifEEEE10deallocateERS5_PS4_m = comdat any

$_ZN9__gnu_cxx13new_allocatorISt13_Rb_tree_nodeISt4pairIKifEEE10deallocateEPS5_m = comdat any

$_ZNSaISt13_Rb_tree_nodeISt4pairIKifEEED2Ev = comdat any

$_ZN9__gnu_cxx13new_allocatorISt13_Rb_tree_nodeISt4pairIKifEEED2Ev = comdat any

$_ZNSt6vectorIiSaIiEED2Ev = comdat any

$_ZSt8_DestroyIPiiEvT_S1_RSaIT0_E = comdat any

$_ZNSt12_Vector_baseIiSaIiEE19_M_get_Tp_allocatorEv = comdat any

$_ZNSt12_Vector_baseIiSaIiEED2Ev = comdat any

$_ZSt8_DestroyIPiEvT_S1_ = comdat any

$_ZNSt12_Destroy_auxILb1EE9__destroyIPiEEvT_S3_ = comdat any

$_ZNSt12_Vector_baseIiSaIiEE13_M_deallocateEPim = comdat any

$_ZNSt12_Vector_baseIiSaIiEE12_Vector_implD2Ev = comdat any

$_ZNSt16allocator_traitsISaIiEE10deallocateERS0_Pim = comdat any

$_ZN9__gnu_cxx13new_allocatorIiE10deallocateEPim = comdat any

$_ZNSaIiED2Ev = comdat any

$_ZN9__gnu_cxx13new_allocatorIiED2Ev = comdat any

$_ZNSt6vectorIhSaIhEED2Ev = comdat any

$_ZSt8_DestroyIPhhEvT_S1_RSaIT0_E = comdat any

$_ZNSt12_Vector_baseIhSaIhEE19_M_get_Tp_allocatorEv = comdat any

$_ZNSt12_Vector_baseIhSaIhEED2Ev = comdat any

$_ZSt8_DestroyIPhEvT_S1_ = comdat any

$_ZNSt12_Destroy_auxILb1EE9__destroyIPhEEvT_S3_ = comdat any

$_ZNSt12_Vector_baseIhSaIhEE13_M_deallocateEPhm = comdat any

$_ZNSt12_Vector_baseIhSaIhEE12_Vector_implD2Ev = comdat any

$_ZNSt16allocator_traitsISaIhEE10deallocateERS0_Phm = comdat any

$_ZN9__gnu_cxx13new_allocatorIhE10deallocateEPhm = comdat any

$_ZNSaIhED2Ev = comdat any

$_ZN9__gnu_cxx13new_allocatorIhED2Ev = comdat any

$_ZNKSt6vectorIhSaIhEE4sizeEv = comdat any

$_ZNSt6vectorIhSaIhEE17_M_default_appendEm = comdat any

$_ZNSt6vectorIhSaIhEE15_M_erase_at_endEPh = comdat any

$_ZNKSt6vectorIhSaIhEE8max_sizeEv = comdat any

$_ZSt27__uninitialized_default_n_aIPhmhET_S1_T0_RSaIT1_E = comdat any

$_ZNKSt6vectorIhSaIhEE12_M_check_lenEmPKc = comdat any

$_ZNSt12_Vector_baseIhSaIhEE11_M_allocateEm = comdat any

$_ZNSt6vectorIhSaIhEE11_S_relocateEPhS2_S2_RS0_ = comdat any

$_ZNSt6vectorIhSaIhEE11_S_max_sizeERKS0_ = comdat any

$_ZNKSt12_Vector_baseIhSaIhEE19_M_get_Tp_allocatorEv = comdat any

$_ZNSt16allocator_traitsISaIhEE8max_sizeERKS0_ = comdat any

$_ZSt3minImERKT_S2_S2_ = comdat any

$_ZNK9__gnu_cxx13new_allocatorIhE8max_sizeEv = comdat any

$_ZNK9__gnu_cxx13new_allocatorIhE11_M_max_sizeEv = comdat any

$_ZSt25__uninitialized_default_nIPhmET_S1_T0_ = comdat any

$_ZNSt27__uninitialized_default_n_1ILb1EE18__uninit_default_nIPhmEET_S3_T0_ = comdat any

$_ZSt6fill_nIPhmhET_S1_T0_RKT1_ = comdat any

$_ZSt10__fill_n_aIPhmhET_S1_T0_RKT1_St26random_access_iterator_tag = comdat any

$_ZSt17__size_to_integerm = comdat any

$_ZSt19__iterator_categoryIPhENSt15iterator_traitsIT_E17iterator_categoryERKS2_ = comdat any

$_ZSt8__fill_aIPhhEvT_S1_RKT0_ = comdat any

$_ZSt9__fill_a1IhEN9__gnu_cxx11__enable_ifIXsr9__is_byteIT_EE7__valueEvE6__typeEPS2_S5_RKS2_ = comdat any

$_ZSt3maxImERKT_S2_S2_ = comdat any

$_ZNSt16allocator_traitsISaIhEE8allocateERS0_m = comdat any

$_ZN9__gnu_cxx13new_allocatorIhE8allocateEmPKv = comdat any

$_ZNSt6vectorIhSaIhEE14_S_do_relocateEPhS2_S2_RS0_St17integral_constantIbLb1EE = comdat any

$_ZSt12__relocate_aIPhS0_SaIhEET0_T_S3_S2_RT1_ = comdat any

$_ZSt14__relocate_a_1IhhENSt9enable_ifIXsr3std24__is_bitwise_relocatableIT_EE5valueEPS1_E4typeES2_S2_S2_RSaIT0_E = comdat any

$_ZSt12__niter_baseIPhET_S1_ = comdat any

$_ZNSt8_Rb_treeIiSt4pairIKifESt10_Select1stIS2_ESt4lessIiESaIS2_EE17_M_emplace_uniqueIJRS0_IifEEEES0_ISt17_Rb_tree_iteratorIS2_EbEDpOT_ = comdat any

$_ZSt7forwardIRSt4pairIifEEOT_RNSt16remove_referenceIS3_E4typeE = comdat any

$_ZNSt8_Rb_treeIiSt4pairIKifESt10_Select1stIS2_ESt4lessIiESaIS2_EE14_M_create_nodeIJRS0_IifEEEEPSt13_Rb_tree_nodeIS2_EDpOT_ = comdat any

$_ZNSt8_Rb_treeIiSt4pairIKifESt10_Select1stIS2_ESt4lessIiESaIS2_EE24_M_get_insert_unique_posERS1_ = comdat any

$_ZNSt8_Rb_treeIiSt4pairIKifESt10_Select1stIS2_ESt4lessIiESaIS2_EE6_S_keyEPKSt13_Rb_tree_nodeIS2_E = comdat any

$_ZNSt8_Rb_treeIiSt4pairIKifESt10_Select1stIS2_ESt4lessIiESaIS2_EE14_M_insert_nodeEPSt18_Rb_tree_node_baseSA_PSt13_Rb_tree_nodeIS2_E = comdat any

$_ZNSt4pairISt17_Rb_tree_iteratorIS_IKifEEbEC2IS3_bLb1EEEOT_OT0_ = comdat any

$_ZNSt17_Rb_tree_iteratorISt4pairIKifEEC2EPSt18_Rb_tree_node_base = comdat any

$_ZNSt8_Rb_treeIiSt4pairIKifESt10_Select1stIS2_ESt4lessIiESaIS2_EE11_M_get_nodeEv = comdat any

$_ZNSt8_Rb_treeIiSt4pairIKifESt10_Select1stIS2_ESt4lessIiESaIS2_EE17_M_construct_nodeIJRS0_IifEEEEvPSt13_Rb_tree_nodeIS2_EDpOT_ = comdat any

$_ZNSt16allocator_traitsISaISt13_Rb_tree_nodeISt4pairIKifEEEE8allocateERS5_m = comdat any

$_ZN9__gnu_cxx13new_allocatorISt13_Rb_tree_nodeISt4pairIKifEEE8allocateEmPKv = comdat any

$_ZNK9__gnu_cxx13new_allocatorISt13_Rb_tree_nodeISt4pairIKifEEE11_M_max_sizeEv = comdat any

$_ZNSt16allocator_traitsISaISt13_Rb_tree_nodeISt4pairIKifEEEE9constructIS3_JRS1_IifEEEEvRS5_PT_DpOT0_ = comdat any

$_ZN9__gnu_cxx13new_allocatorISt13_Rb_tree_nodeISt4pairIKifEEE9constructIS4_JRS2_IifEEEEvPT_DpOT0_ = comdat any

$_ZNSt4pairIKifEC2IifLb1EEERKS_IT_T0_E = comdat any

$_ZNSt8_Rb_treeIiSt4pairIKifESt10_Select1stIS2_ESt4lessIiESaIS2_EE6_M_endEv = comdat any

$_ZNKSt4lessIiEclERKiS2_ = comdat any

$_ZSteqRKSt17_Rb_tree_iteratorISt4pairIKifEES5_ = comdat any

$_ZNSt8_Rb_treeIiSt4pairIKifESt10_Select1stIS2_ESt4lessIiESaIS2_EE5beginEv = comdat any

$_ZNSt4pairIPSt18_Rb_tree_node_baseS1_EC2IRPSt13_Rb_tree_nodeIS_IKifEERS1_Lb1EEEOT_OT0_ = comdat any

$_ZNSt17_Rb_tree_iteratorISt4pairIKifEEmmEv = comdat any

$_ZNSt8_Rb_treeIiSt4pairIKifESt10_Select1stIS2_ESt4lessIiESaIS2_EE6_S_keyEPKSt18_Rb_tree_node_base = comdat any

$_ZNSt4pairIPSt18_Rb_tree_node_baseS1_EC2IRS1_Lb1EEEOT_RKS1_ = comdat any

$_ZSt7forwardIRPSt13_Rb_tree_nodeISt4pairIKifEEEOT_RNSt16remove_referenceIS7_E4typeE = comdat any

$_ZSt7forwardIRPSt18_Rb_tree_node_baseEOT_RNSt16remove_referenceIS3_E4typeE = comdat any

$_ZNKSt10_Select1stISt4pairIKifEEclERKS2_ = comdat any

$_ZNKSt13_Rb_tree_nodeISt4pairIKifEE9_M_valptrEv = comdat any

$_ZNK9__gnu_cxx16__aligned_membufISt4pairIKifEE6_M_ptrEv = comdat any

$_ZNK9__gnu_cxx16__aligned_membufISt4pairIKifEE7_M_addrEv = comdat any

$_ZSt7forwardISt17_Rb_tree_iteratorISt4pairIKifEEEOT_RNSt16remove_referenceIS5_E4typeE = comdat any

$_ZSt7forwardIbEOT_RNSt16remove_referenceIS0_E4typeE = comdat any

$_ZNSt8_Rb_treeIiSt4pairIKifESt10_Select1stIS2_ESt4lessIiESaIS2_EE4findERS1_ = comdat any

$_ZNSt8_Rb_treeIiSt4pairIKifESt10_Select1stIS2_ESt4lessIiESaIS2_EE14_M_lower_boundEPSt13_Rb_tree_nodeIS2_EPSt18_Rb_tree_node_baseRS1_ = comdat any

$_ZNSt8_Rb_treeIiSt4pairIKifESt10_Select1stIS2_ESt4lessIiESaIS2_EE3endEv = comdat any

@internal_patterns_fast = dso_local global %"class.boost::array" { [806 x i32] [i32 43690, i32 43711, i32 27306, i32 10922, i32 39594, i32 35498, i32 23210, i32 2730, i32 27327, i32 10943, i32 44799, i32 9898, i32 26282, i32 23231, i32 6847, i32 27242, i32 19135, i32 8874, i32 2751, i32 10794, i32 6826, i32 19114, i32 22186, i32 682, i32 39615, i32 39338, i32 34986, i32 35519, i32 65535, i32 18858, i32 2474, i32 35494, i32 5546, i32 1578, i32 10858, i32 27178, i32 5823, i32 1727, i32 23194, i32 2698, i32 35242, i32 39590, i32 35490, i32 1706, i32 5802, i32 6570, i32 18602, i32 23146, i32 2602, i32 26303, i32 8895, i32 23206, i32 2722, i32 22207, i32 703, i32 6506, i32 18474, i32 9919, i32 5542, i32 1570, i32 1642, i32 2458, i32 39359, i32 9834, i32 2714, i32 35007, i32 6810, i32 1058, i32 9897, i32 22170, i32 9770, i32 18854, i32 8858, i32 650, i32 2346, i32 21930, i32 28415, i32 18842, i32 12031, i32 170, i32 426, i32 2726, i32 23202, i32 9894, i32 22954, i32 9890, i32 2218, i32 6822, i32 19106, i32 18730, i32 2470, i32 6591, i32 23209, i32 10921, i32 24299, i32 18623, i32 2728, i32 3819, i32 35238, i32 34922, i32 6783, i32 18466, i32 19007, i32 19098, i32 5482, i32 6794, i32 1066, i32 5530, i32 19110, i32 5465, i32 1576, i32 5567, i32 144, i32 26266, i32 1599, i32 5545, i32 6818, i32 1546, i32 8842, i32 2473, i32 10789, i32 26274, i32 6762, i32 666, i32 9833, i32 8870, i32 5541, i32 18986, i32 1538, i32 27174, i32 27305, i32 5798, i32 39274, i32 1698, i32 34858, i32 10790, i32 130705, i32 8857, i32 18857, i32 6806, i32 10920, i32 1369, i32 2706, i32 2666, i32 400, i32 2472, i32 130692, i32 23082, i32 23190, i32 2690, i32 10854, i32 27170, i32 2729, i32 23193, i32 10857, i32 18794, i32 22182, i32 2341, i32 26278, i32 2696, i32 5481, i32 2710, i32 674, i32 22975, i32 146, i32 2466, i32 8866, i32 2239, i32 1638, i32 22166, i32 2330, i32 23167, i32 642, i32 18, i32 2623, i32 422, i32 18714, i32 5529, i32 19094, i32 678, i32 22178, i32 2694, i32 5466, i32 1544, i32 22890, i32 1064, i32 2090, i32 1601, i32 345, i32 1633, i32 6505, i32 18850, i32 346, i32 24283, i32 2410, i32 2593, i32 2393, i32 3787, i32 1602, i32 662, i32 2457, i32 1370, i32 2709, i32 1610, i32 1632, i32 23142, i32 108945, i32 447, i32 5540, i32 19931, i32 2469, i32 2597, i32 1626, i32 1554, i32 2594, i32 2456, i32 18853, i32 108676, i32 2713, i32 8854, i32 421, i32 2581, i32 6730, i32 5797, i32 2344, i32 1663, i32 9830, i32 18970, i32 18879, i32 1666, i32 3547, i32 1056, i32 2586, i32 18841, i32 3563, i32 40683, i32 23130, i32 661, i32 424, i32 1641, i32 19093, i32 410, i32 9817, i32 1386, i32 646, i32 2450, i32 649, i32 1674, i32 5801, i32 2570, i32 5781, i32 665, i32 36587, i32 8853, i32 2394, i32 409, i32 9893, i32 1609, i32 641, i32 1634, i32 2697, i32 6805, i32 23138, i32 21951, i32 1702, i32 1622, i32 658, i32 2598, i32 2325, i32 2328, i32 86, i32 191, i32 5794, i32 18838, i32 1, i32 1705, i32 106, i32 10793, i32 4799, i32 5770, i32 18111, i32 1685, i32 5786, i32 425, i32 9825, i32 645, i32 6825, i32 18726, i32 1704, i32 1382, i32 2342, i32 2322, i32 18495, i32 1625, i32 408, i32 23126, i32 5769, i32 2454, i32 21914, i32 5785, i32 1673, i32 1130, i32 6758, i32 9882, i32 27238, i32 2562, i32 23145, i32 405, i32 1672, i32 138, i32 149, i32 18978, i32 18777, i32 9889, i32 1697, i32 2600, i32 5766, i32 9818, i32 18725, i32 6793, i32 10786, i32 9896, i32 2340, i32 416, i32 1042, i32 2712, i32 109201, i32 1194, i32 5738, i32 67601, i32 18778, i32 2725, i32 5782, i32 24319, i32 18790, i32 418, i32 1696, i32 88388, i32 3839, i32 18837, i32 1385, i32 2338, i32 6569, i32 74, i32 402, i32 9881, i32 1621, i32 22169, i32 8841, i32 1606, i32 73, i32 35234, i32 6821, i32 2329, i32 2406, i32 21925, i32 10785, i32 18722, i32 2721, i32 6698, i32 648, i32 23066, i32 23205, i32 160, i32 2634, i32 7935, i32 6809, i32 2720, i32 21926, i32 1057, i32 109188, i32 2662, i32 1121, i32 8850, i32 342, i32 18793, i32 19050, i32 162, i32 20223, i32 23074, i32 85, i32 2464, i32 2650, i32 35178, i32 9826, i32 18834, i32 420, i32 18713, i32 362, i32 23078, i32 2409, i32 2657, i32 2658, i32 5464, i32 18706, i32 1048, i32 358, i32 6729, i32 2453, i32 2585, i32 19109, i32 150, i32 100369, i32 19090, i32 6790, i32 2724, i32 19113, i32 21929, i32 2495, i32 154, i32 5737, i32 6753, i32 2345, i32 6442, i32 168, i32 6824, i32 104772, i32 18538, i32 19947, i32 1701, i32 17442, i32 5765, i32 1381, i32 2693, i32 1665, i32 2081, i32 19943, i32 19967, i32 97, i32 2367, i32 18709, i32 3583, i32 70, i32 2646, i32 2601, i32 6761, i32 2582, i32 19097, i32 1040, i32 1365, i32 5, i32 1562, i32 6792, i32 5544, i32 1366, i32 1087, i32 1120, i32 6742, i32 18751, i32 4778, i32 4543, i32 1690, i32 2578, i32 2111, i32 1689, i32 65553, i32 22889, i32 1686, i32 3559, i32 18729, i32 104849, i32 5768, i32 17599, i32 2708, i32 21866, i32 23129, i32 17754, i32 2468, i32 2088, i32 27263, i32 100484, i32 386, i32 87364, i32 18465, i32 42, i32 2568, i32 5674, i32 10815, i32 6746, i32 1574, i32 5800, i32 4522, i32 4442, i32 18982, i32 17834, i32 2442, i32 92561, i32 406, i32 5538, i32 1129, i32 9762, i32 21850, i32 6754, i32 5705, i32 2082, i32 1569, i32 153, i32 1450, i32 22165, i32 1322, i32 5418, i32 75908, i32 10, i32 17578, i32 640, i32 108881, i32 22826, i32 2154, i32 2665, i32 40703, i32 1637, i32 108548, i32 105, i32 36607, i32 4441, i32 6504, i32 6437, i32 18090, i32 92497, i32 23062, i32 18473, i32 2626, i32 5759, i32 1537, i32 75780, i32 2337, i32 4458, i32 1215, i32 21913, i32 1669, i32 18966, i32 18710, i32 2630, i32 102, i32 17, i32 1110, i32 2324, i32 136, i32 17750, i32 17766, i32 1605, i32 18774, i32 35174, i32 2306, i32 89, i32 96, i32 17770, i32 17753, i32 17450, i32 108689, i32 384, i32 2434, i32 98, i32 34854, i32 7915, i32 2649, i32 34879, i32 5473, i32 21922, i32 2633, i32 82, i32 166, i32 34918, i32 1445, i32 2565, i32 148, i32 1429, i32 9855, i32 1608, i32 5734, i32 6726, i32 1433, i32 9829, i32 3803, i32 18962, i32 1186, i32 1670, i32 169, i32 1113, i32 404, i32 5793, i32 1126, i32 2326, i32 2390, i32 1320, i32 5402, i32 1122, i32 1560, i32 130449, i32 341, i32 19034, i32 21, i32 130180, i32 6666, i32 5528, i32 1109, i32 19030, i32 69, i32 21849, i32 2405, i32 2566, i32 34, i32 34850, i32 26265, i32 24279, i32 2085, i32 8, i32 8840, i32 3779, i32 6802, i32 100497, i32 5729, i32 19046, i32 90, i32 17830, i32 6745, i32 6690, i32 7883, i32 2314, i32 109779, i32 2569, i32 2438, i32 5666, i32 1446, i32 17514, i32 1577, i32 4518, i32 9814, i32 101587, i32 2584, i32 108932, i32 5480, i32 4506, i32 1050, i32 17570, i32 20203, i32 17829, i32 68819, i32 2312, i32 9754, i32 77011, i32 22953, i32 2664, i32 18470, i32 5702, i32 5706, i32 18601, i32 1193, i32 6677, i32 6808, i32 18789, i32 36095, i32 2216, i32 6568, i32 17813, i32 1185, i32 1682, i32 6741, i32 417, i32 105105, i32 89543, i32 72, i32 5721, i32 5537, i32 2452, i32 1542, i32 105927, i32 1114, i32 20187, i32 127, i32 161, i32 2084, i32 19927, i32 19049, i32 152, i32 35263, i32 1449, i32 5642, i32 5796, i32 100996, i32 2645, i32 1640, i32 18773, i32 92753, i32 36331, i32 6817, i32 130193, i32 6682, i32 165, i32 88721, i32 19033, i32 2632, i32 76292, i32 6, i32 1434, i32 104836, i32 1558, i32 22822, i32 1282, i32 1304, i32 68228, i32 2644, i32 9813, i32 137, i32 2086, i32 4505, i32 1620, i32 5413, i32 1314, i32 75921, i32 1545, i32 9766, i32 7899, i32 92817, i32 5414, i32 91537, i32 6438, i32 130436, i32 1557, i32 389, i32 392, i32 73860, i32 2, i32 17817, i32 88657, i32 93639, i32 5718, i32 9791, i32 68100, i32 1184, i32 108865, i32 108929, i32 4501, i32 63, i32 76420, i32 145, i32 2392, i32 2389, i32 17749, i32 130433, i32 4, i32 108549, i32 22, i32 2660, i32 1618, i32 73745, i32 91473, i32 394, i32 19029, i32 1688, i32 17833, i32 164, i32 73732, i32 5784, i32 91460, i32 80, i32 92548, i32 18469, i32 18537, i32 88465, i32 2440, i32 5397, i32 4517, i32 1306, i32 1636, i32 2404, i32 67716, i32 130196, i32 17818, i32 5722, i32 110023, i32 1151, i32 2577, i32 5717, i32 1192, i32 3543, i32 9, i32 6757, i32 1573, i32 75793, i32 73873, i32 100356, i32 108625, i32 108692, i32 67588, i32 2089, i32 108561, i32 2437, i32 91524, i32 87441, i32 24295, i32 1190, i32 108612, i32 83972, i32 5730, i32 1125, i32 2692, i32 5478, i32 6693, i32 101, i32 65668, i32 18070, i32 3811, i32 1062, i32 4762, i32 1298] }, align 4, !dbg !0
@internal_weights_fast = dso_local global %"class.boost::array.0" { [806 x float] [float 0x3FC29CA180000000, float 0x3F6B9F1D40000000, float 0x3FC9E2C560000000, float 0x3FC3BD2FA0000000, float 0x3FC858D580000000, float 0x3F9FBA2A40000000, float 0x3F9E193980000000, float 0x3F882EBD80000000, float 0x3F94131220000000, float 0x3FA7408E60000000, float 0x3F0C6D9EE0000000, float 0x3FD7834D20000000, float 0x3FDD140140000000, float 0x3F9B57ED20000000, float 0x3FDCA94780000000, float 0x3FD0711D80000000, float 0x3FC68DD1E0000000, float 0x3FB5A87F00000000, float 0x3F750A6E20000000, float 0x3FA352EB60000000, float 0x4000E5FD80000000, float 0x3FFE28F5C0000000, float 0x3F7B933920000000, float 0x3F92785800000000, float 0x3F9AE0AD60000000, float 0x3F8C1C5320000000, float 0x3F654175A0000000, float 0x3F876D1EE0000000, float 0x3FFCED5280000000, float 0x3FF3DE69A0000000, float 0x3FF6108C40000000, float 0x3FC686E7E0000000, float 0x3FE2F179C0000000, float 0x3FDDBC5160000000, float 0x3FDD529BA0000000, float 0x3FBDA90040000000, float 0x3FD8385400000000, float 0x3FBFDFC1A0000000, float 0x3FA926E620000000, float 0x3F90492360000000, float 0x3FF90125A0000000, float 0x3FAE933D60000000, float 0x3F704C25C0000000, float 0x3FC83C1060000000, float 0x3FDEA04D20000000, float 0x3FF54115E0000000, float 0x3FFAD00920000000, float 0x3F82374FA0000000, float 0x3F78CEE100000000, float 0x3FC1187620000000, float 0x3FB57ADB60000000, float 0x3FA25E60E0000000, float 0x3F7D0C6000000000, float 0x3F92221280000000, float 0x3F7A7C04E0000000, float 0x3FE710A560000000, float 0x3F98F033E0000000, float 0x3FB7F73620000000, float 0x400033E040000000, float 0x3F969827A0000000, float 0x3FD83C46E0000000, float 0x3FD563D820000000, float 0x3FFED66280000000, float 0x3FBF6D1180000000, float 0x3FA29EBF80000000, float 0x3F63950840000000, float 0x3FF6D57140000000, float 0x3F63740080000000, float 0x3FE128F5C0000000, float 0x3FA00C2D40000000, float 0x3FF97D60E0000000, float 0x3FD083A960000000, float 0x3FC3342EE0000000, float 0x3F90721C80000000, float 0x3FD0A85440000000, float 0x3F47BFEDC0000000, float 0x3F67CD6140000000, float 0x3FCEF494A0000000, float 0x3F80BA2B60000000, float 0x3F41C707A0000000, float 0x3FE40FD3C0000000, float 0x3FBEAE9EE0000000, float 0x3FB7A9E7C0000000, float 0x3FD49FECA0000000, float 0x3F58D7A7C0000000, float 0x3FB7F71140000000, float 0x3F564C3CE0000000, float 0x3FEA86D940000000, float 0x3FD8157260000000, float 0x3FC6C04000000000, float 0x3FDDDC8FC0000000, float 0x3FFDB24200000000, float 0x3FB1DEE420000000, float 0x3FD6FD2EA0000000, float 0x3F830BEE40000000, float 0x3FC9707180000000, float 0x3FA0A62240000000, float 0x3F656B7720000000, float 0x3FCA12D780000000, float 0x3FCA2CBA80000000, float 0x3FF2D09C00000000, float 0x3F61CA9840000000, float 0x3FB0279DE0000000, float 0x3FFB5FE320000000, float 0x3FE9071C60000000, float 0x4001B251C0000000, float 0x3F80376020000000, float 0x3FD7096360000000, float 0x3FF6D6F540000000, float 0x3FFFF4DBE0000000, float 0x3FC2D4DC60000000, float 0x40214B22E0000000, float 0x3F49811040000000, float 0x3FDB142F60000000, float 0x3FD41287C0000000, float 0x3FD7070FC0000000, float 0x3FF5499AE0000000, float 0x3FC29FA540000000, float 0x3FB59DB8E0000000, float 0x3FE6CCE1C0000000, float 0x3FDCFD08E0000000, float 0x3FD443A220000000, float 0x3FE6FD3F60000000, float 0x3F8A6EC680000000, float 0x3F934BF240000000, float 0x3FC7BC44C0000000, float 0x40142A5260000000, float 0x3FB0323A00000000, float 0x3F8269CE20000000, float 0x3FE9D696E0000000, float 0x3FDFFB2240000000, float 0x3FC49C5600000000, float 0x3FB1271880000000, float 0x3FB0082560000000, float 0x3F54FC7120000000, float 0x3FDCB15720000000, float 0x3FB9815500000000, float 0x3FCF0856E0000000, float 0x3FE6C40F20000000, float 0x3FDBCF7020000000, float 0x3FD06B5D40000000, float 0x3FCD8C08C0000000, float 0x3FC61C36A0000000, float 0x3FD5F1B6A0000000, float 0x3FC77FF160000000, float 0x3FDB18F820000000, float 0x3FF7A602C0000000, float 0x3FCC436FC0000000, float 0x3F822B9680000000, float 0x3F539B07A0000000, float 0x3FB10E08E0000000, float 0x3F94700DA0000000, float 0x3FAB8A81C0000000, float 0x3FB289F0A0000000, float 0x3FBBBB7300000000, float 0x3FF6ADCB20000000, float 0x3FA0C20D60000000, float 0x3FD4CE63A0000000, float 0x3FC9471720000000, float 0x3F9A2764C0000000, float 0x3FF480F120000000, float 0x3F932D9720000000, float 0x3F87532B20000000, float 0x3FAFD354A0000000, float 0x3F710DD9E0000000, float 0x3FEEFA82E0000000, float 0x3F9E0FA160000000, float 0x3F4ECD7140000000, float 0x3FBDFB9380000000, float 0x3F8C0881A0000000, float 0x3FB7189B00000000, float 0x4000497100000000, float 0x3F65A1E2E0000000, float 0x3F56733400000000, float 0x3F734B3E60000000, float 0x3FCE3D1CC0000000, float 0x3FB5A8EC20000000, float 0x3FD08F0420000000, float 0x3FE067AB80000000, float 0x3FB5478780000000, float 0x3FAA356E80000000, float 0x3FDF1B2E60000000, float 0x3FF26171A0000000, float 0x3FADF4F860000000, float 0x3FA9E7B160000000, float 0x3F83262FE0000000, float 0x3F5BC476E0000000, float 0x3FB78D4AE0000000, float 0x3FD14EA4A0000000, float 0x3FD21198A0000000, float 0x3FF4AD0E60000000, float 0x3FF56F73C0000000, float 0x3FEBB20100000000, float 0x3FB8E275A0000000, float 0x3FFA55C520000000, float 0x3FAC057DE0000000, float 0x3FC527CC00000000, float 0x3FA38F39C0000000, float 0x3FA70421C0000000, float 0x3F703A6280000000, float 0x3FD516A060000000, float 0x3FE62E9040000000, float 0x3F7227FB20000000, float 0x3FB85FCCE0000000, float 0x3FDE709740000000, float 0x3FAFF104C0000000, float 0x3FDE241800000000, float 0x3FE26E0B00000000, float 0x400A1F7520000000, float 0x3FD2E98140000000, float 0x3FCEC3A000000000, float 0x3FB5D83D40000000, float 0x3FD601E680000000, float 0x3FDC98EDA0000000, float 0x3F5FD1ED00000000, float 0x3FD3F56640000000, float 0x3FC1FB15C0000000, float 0x3FDDBC2340000000, float 0x3FC1185480000000, float 0x3FA71ADC20000000, float 0x3FB9CB89E0000000, float 0x3FB47F95E0000000, float 0x3FE5F89C60000000, float 0x3FB4396080000000, float 0x3FBDA2F8C0000000, float 0x3FD73ADA00000000, float 0x3FAE2C5260000000, float 0x3FC2986FC0000000, float 0x3FE66F2A60000000, float 0x3F9666CB20000000, float 0x3FDAA6EFC0000000, float 0x3F5D000B40000000, float 0x3F74FF0DA0000000, float 0x3FD126C7E0000000, float 0x3FDFBC0A00000000, float 0x3FC7B01420000000, float 0x3F80088100000000, float 0x3F4A371000000000, float 0x3FCA862F60000000, float 0x3FB92A8940000000, float 0x3FD3AB0C80000000, float 0x3FB83FB1C0000000, float 0x3FBB965B20000000, float 0x3FFB4F95E0000000, float 0x3FD22D83C0000000, float 0x3FFC450F00000000, float 0x3F7DB86240000000, float 0x3FCE347620000000, float 0x3FD56B6E00000000, float 0x3F84FEF2C0000000, float 0x3FBAA3F040000000, float 0x3FB0666B60000000, float 0x3FA6B87380000000, float 0x3F9F541600000000, float 0x3FEAE8E820000000, float 0x3FCBE79680000000, float 0x3FC5B33120000000, float 0x3FB258EB60000000, float 0x3F8959A300000000, float 0x3FCF9C51E0000000, float 0x3FA6A95A00000000, float 0x3FD4AE8180000000, float 0x3FB1C9EB80000000, float 0x3FD1677F60000000, float 0x3FDAA9DA60000000, float 0x3FB4CFE9C0000000, float 0x3FB5063AA0000000, float 0x3FB26644E0000000, float 0x3FBD19DEC0000000, float 0x3FB5BE7D80000000, float 0x3FC1F1CFC0000000, float 0x3F573F4180000000, float 0x3FE097E340000000, float 0x3FA877D380000000, float 0x3F5EA648E0000000, float 0x3FD245E4E0000000, float 0x3FB0628380000000, float 0x3FF68BAC80000000, float 0x4004FC6000000000, float 0x3FE1AF70A0000000, float 0x3FEA5100A0000000, float 0x3FCED58420000000, float 0x3FDAED02C0000000, float 0x3FDA4E7260000000, float 0x3FCDBDF0A0000000, float 0x3FC2849440000000, float 0x3FF988EDE0000000, float 0x3FC7E63620000000, float 0x3FC8D84D40000000, float 0x3FD6B02920000000, float 0x3FD1AE5BC0000000, float 0x3FD6474960000000, float 0x3FC5657FC0000000, float 0x3FC91D7120000000, float 0x3FBD455220000000, float 0x3FCDDA05A0000000, float 0x3FDA86B160000000, float 0x3FAC89BE60000000, float 0x3F652CA7E0000000, float 0x3FD26BF440000000, float 0x3FC97CEDA0000000, float 0x3FA8350EE0000000, float 0x3FC73708A0000000, float 0x3FF27FC120000000, float 0x3F9DADE080000000, float 0x3F769AD420000000, float 0x3F82CB7C40000000, float 0x3F8636A320000000, float 0x3FA6358CA0000000, float 0x3F5C290080000000, float 0x3F8980BFA0000000, float 0x3F9E6F2120000000, float 0x3FC7A38760000000, float 0x3FE5711D80000000, float 0x3FD803C080000000, float 0x3F62AC5500000000, float 0x3FE2A62660000000, float 0x3FC2C721A0000000, float 0x3FCB3B2140000000, float 0x3FF3E7D560000000, float 0x3F762E2CE0000000, float 0x3FD69567E0000000, float 0x3FDE176580000000, float 0x3FC6D57360000000, float 0x3FB199D2A0000000, float 0x3FA5E1E640000000, float 0x40064A3300000000, float 0x3F8FBCFF00000000, float 0x3FC1E4EF00000000, float 0x3FCEFFB8C0000000, float 0x3FE0C81D40000000, float 0x3FB13AFAA0000000, float 0x3FC8BC4900000000, float 0x3FB1B41700000000, float 0x3FD0630220000000, float 0x3FDA639920000000, float 0x3FAD8B0D00000000, float 0x3FFAD3E2E0000000, float 0x3F62F5BB80000000, float 0x3F864DB4C0000000, float 0x3FE84D9E80000000, float 0x3FC2CE91C0000000, float 0x3FE855FBC0000000, float 0x3F924554A0000000, float 0x3FE62187A0000000, float 0x3FE576B7E0000000, float 0x3F6C249920000000, float 0x3FB2875340000000, float 0x3FB69BD9E0000000, float 0x3FE0D0E340000000, float 0x3F91D924C0000000, float 0x400BE7A640000000, float 0x3FDC662780000000, float 0x3FD92E5DE0000000, float 0x3FDB0DD400000000, float 0x3FDA567120000000, float 0x3FDBEE41A0000000, float 0x3FC4EE2000000000, float 0x3FC28F3AA0000000, float 0x4012986C20000000, float 0x3F92427920000000, float 0x3FCD6976C0000000, float 0x3FA9224C60000000, float 0x3F65428760000000, float 0x3FC60F4520000000, float 0x3FE354B8C0000000, float 0x3FEE6C7220000000, float 0x3F907D6FA0000000, float 0x3FB72A4620000000, float 0x3FB810AF80000000, float 0x3FF2E1B080000000, float 0x3FB800B020000000, float 0x3FC33B53A0000000, float 0x3FD3E33260000000, float 0x3FC8E47DC0000000, float 0x3FE3837F80000000, float 0x4010DFC660000000, float 0x3F66A2AEC0000000, float 0x3F82C8BA40000000, float 0x3FA77FB1A0000000, float 0x3FA3AF0620000000, float 0x3FD489ACC0000000, float 0x3FD1BD2B60000000, float 0x4000F52FC0000000, float 0x3FBDAA7160000000, float 0x3FE98EEAE0000000, float 0x3FE5E510A0000000, float 0x3FD5D3FE20000000, float 0x3FFCA732E0000000, float 0x3FE1C42420000000, float 0x3FE35BCAA0000000, float 0x3FCEE05CC0000000, float 0x3FD903E200000000, float 0x4004746880000000, float 0x3FD417A460000000, float 0x3FD1135980000000, float 0x3FDFEEE960000000, float 0x3FD0A2C660000000, float 0x3F927F2F80000000, float 0x3FBE82A560000000, float 0x3FE1C9A9A0000000, float 0x3F7F380400000000, float 0x3FDDFA82E0000000, float 0x3FF3A5E360000000, float 0x3FF58A9BC0000000, float 0x3FE34AA100000000, float 0x4006B17AC0000000, float 0x3F82C3A5C0000000, float 0x3FF3BC9480000000, float 0x3F812A0AC0000000, float 0x3F8ED55020000000, float 0x3FF279B140000000, float 0x3FE9D83E80000000, float 0x400A376B40000000, float 0x3F904B9380000000, float 0x3FFB29D200000000, float 0x400C204C00000000, float 0x4012268340000000, float 0x3FE936AC60000000, float 0x3FD35B4680000000, float 0x3FB8138B00000000, float 0x3FC9967440000000, float 0x3FBDCEBFE0000000, float 0x3FD07A6380000000, float 0x3FC333CA40000000, float 0x3F81B58600000000, float 0x3FE60D9940000000, float 0x3FC564F980000000, float 0x3FC0FA50A0000000, float 0x3FD059D120000000, float 0x3FC0A8F3A0000000, float 0x3FA62C1CC0000000, float 0x3FCD1A2A40000000, float 0x3FA97B84E0000000, float 0x3F9674DEC0000000, float 0x3FD4362A60000000, float 0x3F91FE1460000000, float 0x3FFBE04180000000, float 0x3FB10CED40000000, float 0x3FA5BF55E0000000, float 0x3FA9D08840000000, float 0x3FED9F1280000000, float 0x3FF13A3EC0000000, float 0x3FF1612840000000, float 0x3FC16512A0000000, float 0x3FC74B72C0000000, float 0x3FC15D2D00000000, float 0x3FEEFD9BA0000000, float 0x3FE42A3AE0000000, float 0x401B303080000000, float 0x3FFCBD07C0000000, float 0x3FEAFDE0E0000000, float 0x3FA15C63A0000000, float 0x3F713287C0000000, float 0x3FE59DE260000000, float 0x3FC77225C0000000, float 0x3FC0EFED60000000, float 0x3FD1A222E0000000, float 0x3FE596CA40000000, float 0x3FE6CDA900000000, float 0x3FD5C7EAE0000000, float 0x3FE1B1A4C0000000, float 0x3FCFDADFC0000000, float 0x3FD48BE300000000, float 0x3FB9ADB840000000, float 0x3FA456CBC0000000, float 0x3FE529F160000000, float 0x3FF9E57FC0000000, float 0x3F71A89C40000000, float 0x3FCA962D00000000, float 0x3FD20FB660000000, float 0x3FEAE30020000000, float 0x3FE8B12B20000000, float 0x3F9EAFC620000000, float 0x3F70B3FFA0000000, float 0x3FAF6EC5C0000000, float 0x401DF64840000000, float 0x3FC25B1000000000, float 0x3FDDE20460000000, float 0x4010A17980000000, float 0x3FEB477780000000, float 0x4005CC0AE0000000, float 0x40112AEA80000000, float 0x3FE8ED3100000000, float 0x400BB2BFE0000000, float 0x40141A07C0000000, float 0x3FCC978D40000000, float 0x3F822AD6A0000000, float 0x3FF611A760000000, float 0x3F8A54AA80000000, float 0x3FB343F6C0000000, float 0x3FBD62BF20000000, float 0x3FF3150DA0000000, float 0x3FA0E58BE0000000, float 0x3F75355920000000, float 0x3FD123CC80000000, float 0x3F9D11ED60000000, float 0x40142D4020000000, float 0x3FB8C87CE0000000, float 0x4009D5B040000000, float 0x3FFC9E98E0000000, float 0x3FD4720860000000, float 0x3F6E685B00000000, float 0x400B308460000000, float 0x3FAA94F1A0000000, float 0x3FD6CD3E00000000, float 0x3F97928E00000000, float 0x3FA954B200000000, float 0x3FAF55CDA0000000, float 0x3FC205AB40000000, float 0x3F86B2A1A0000000, float 0x3FC0CE91C0000000, float 0x3F860F9400000000, float 0x3F72F62440000000, float 0x4038DB6AE0000000, float 0x3FFBF48800000000, float 0x3FFAA16C60000000, float 0x400E725700000000, float 0x3FD6B52860000000, float 0x3FC29DF980000000, float 0x3FD38954A0000000, float 0x3FBB480A60000000, float 0x3FFAB50B00000000, float 0x3FDB759AC0000000, float 0x3FB666DD80000000, float 0x3FF2DF5AE0000000, float 0x400283FE60000000, float 0x3F970E03C0000000, float 0x3FBE12F900000000, float 0x3FE2EB9800000000, float 0x3FD372DA20000000, float 0x3FAB98CB40000000, float 0x3FE05C1400000000, float 0x3FBF7CDCC0000000, float 0x3FC0A89FC0000000, float 0x3FBE3CD9A0000000, float 0x3FBA6FC580000000, float 0x3FB6080FA0000000, float 0x3FBF30C680000000, float 0x3FD49AF180000000, float 0x3FD09FBE80000000, float 0x3FB45267A0000000, float 0x3FCB48A9C0000000, float 0x3FD3F5FD40000000, float 0x3FD8429180000000, float 0x3FC0C06180000000, float 0x3FF3624DE0000000, float 0x3FD17E1760000000, float 0x3FD62AF140000000, float 0x400C0663C0000000, float 0x3FD32174C0000000, float 0x3FF4D31BA0000000, float 0x3FB4A6F0A0000000, float 0x3FC7DB6E60000000, float 0x400CA06100000000, float 0x3FBE76EA40000000, float 0x3F7BBA9380000000, float 0x3FE2D16DC0000000, float 0x3F8762BD60000000, float 0x3FA2F97680000000, float 0x3FE2583200000000, float 0x3F91B66220000000, float 0x3FB75EBFA0000000, float 0x3FE49D64A0000000, float 0x3FE3D93E60000000, float 0x3FD8170500000000, float 0x3FD1EB1820000000, float 0x3FC4579F20000000, float 0x3FF357B200000000, float 0x3FD6239A40000000, float 0x400BB9B140000000, float 0x3FF45197A0000000, float 0x3F7A3EE5C0000000, float 0x3FA75F7320000000, float 0x3FCAB1BBC0000000, float 0x3F84F0B000000000, float 0x3FED8FDE20000000, float 0x3F704A3520000000, float 0x3FD4668C20000000, float 0x3FCD694460000000, float 0x3FF1932B60000000, float 0x3FB9A7F3C0000000, float 0x3FAC236DC0000000, float 0x3FC0808420000000, float 0x3FFBA06640000000, float 0x3FF1E5E8A0000000, float 0x3FB1A76BE0000000, float 0x3FEA3E8580000000, float 0x4001B482C0000000, float 0x3FA2506B60000000, float 0x40013DF3C0000000, float 0x3FA071BB20000000, float 0x3FC8FCE740000000, float 0x3FFBED9160000000, float 0x3FEA4DE1A0000000, float 0x3F9F18B5E0000000, float 0x3FDA2FCAC0000000, float 0x3FACCF9780000000, float 0x3FE75B9A60000000, float 0x3FB839F420000000, float 0x3FDE060780000000, float 0x3F7CC321E0000000, float 0x3F8516F5E0000000, float 0x3FDB69CAA0000000, float 0x3FD33E9EA0000000, float 0x3FB3A176E0000000, float 0x3F787F95E0000000, float 0x3FB8E1B4C0000000, float 0x3F78C6C340000000, float 0x4001D6BBA0000000, float 0x3FF91B8660000000, float 0x3FDD5B5B80000000, float 0x3FE5A567A0000000, float 0x3FD6774260000000, float 0x3FE2545A60000000, float 0x3FD253DA80000000, float 0x3FEBFA7EC0000000, float 0x3FFE47ED00000000, float 0x3FF816E580000000, float 0x4018B3DDA0000000, float 0x3FA7F770E0000000, float 0x40003CC3A0000000, float 0x3FFD6D6780000000, float 0x3FF239FFE0000000, float 0x400044BB20000000, float 0x3FF8597F60000000, float 0x3FD86C11A0000000, float 0x3F9EFFF6C0000000, float 0x3FE409FE80000000, float 0x3FA006D0E0000000, float 0x3FF7487FC0000000, float 0x3FF524A8C0000000, float 0x3FFB60C9E0000000, float 0x3FCA90EEE0000000, float 0x3FDD53AC40000000, float 0x3FE9A81FE0000000, float 0x3FDC87DB20000000, float 0x3FD725B740000000, float 0x3FE740DF60000000, float 0x3FFA5CBBC0000000, float 0x40029C1940000000, float 0x3F89CE14C0000000, float 0x3FFAF928E0000000, float 0x401D9389C0000000, float 0x3FF8FD0D00000000, float 0x3FB69F88C0000000, float 0x3FFBB3E580000000, float 0x3FAA6BDA40000000, float 0x3FF9C2F840000000, float 0x3FFA55CFA0000000, float 0x3FB5494FE0000000, float 0x3F878B1C20000000, float 0x3F83E69B20000000, float 0x3FF96833C0000000, float 0x3FCDD63020000000, float 0x3FBB353B40000000, float 0x3FF17B9E00000000, float 0x3FE39287C0000000, float 0x3FFAA40100000000, float 0x3FD39D55E0000000, float 0x3FF6CC5980000000, float 0x3FD928FE20000000, float 0x3F7A014080000000, float 0x3FF568A720000000, float 0x3FE46CF420000000, float 0x4002B40F60000000, float 0x4003FFB160000000, float 0x3FD84CA500000000, float 0x3FE0C89F40000000, float 0x3FB1787700000000, float 0x3F80AA7CE0000000, float 0x3FB2F510C0000000, float 0x3FD6D805E0000000, float 0x3FFADF45E0000000, float 0x3F7F96B660000000, float 0x3FE88BE940000000, float 0x40046C56E0000000, float 0x4002194B00000000, float 0x3FF3546B20000000, float 0x3FEE310DC0000000, float 0x3F6794C1C0000000, float 0x4004E37DE0000000, float 0x3F8995E0A0000000, float 0x3FB9C560C0000000, float 0x3FF0C7ED00000000, float 0x40001561A0000000, float 0x3FE2272860000000, float 0x4009CC3A00000000, float 0x3F7FCB74C0000000, float 0x3FBFE09BC0000000, float 0x3FEED0E120000000, float 0x3FED29BF20000000, float 0x3FD5FE2600000000, float 0x3F805DD0E0000000, float 0x40059B2D40000000, float 0x3FF31B4780000000, float 0x3FFE136A40000000, float 0x3FADA1FD20000000, float 0x3FFAD681E0000000, float 0x3FFB93C8A0000000, float 0x3FE1484F80000000, float 0x3FEBCAC2A0000000, float 0x3F736204E0000000, float 0x3F756F5040000000, float 0x3FA8FE47A0000000, float 0x3FF1473040000000, float 0x3FE7DCC860000000, float 0x3FEFF56000000000, float 0x40048CA2E0000000, float 0x3FF5839040000000, float 0x3FEB390220000000, float 0x4003834C20000000, float 0x3FF2B5DCC0000000, float 0x3FF1DCB140000000, float 0x3FF6DFAEC0000000, float 0x3FBFC99AE0000000, float 0x4000EF2A60000000, float 0x3FED8E0CA0000000, float 0x3FF5A771C0000000, float 0x3FE7B66300000000, float 0x3FF4DC2900000000, float 0x3FD20357A0000000, float 0x3F84333C60000000, float 0x3FE9D86A80000000, float 0x3FE688A040000000, float 0x3FE2B43520000000, float 0x3FD7EF6B60000000, float 0x3FE1805600000000, float 0x3FD14A98A0000000, float 0x3F85222E20000000, float 0x3FCE1A0D00000000, float 0x400406DC60000000, float 0x3FF55551E0000000, float 0x3F88A31460000000, float 0x3FE4151C60000000, float 0x3FCBC0CA60000000, float 0x40010BBC20000000, float 0x3F93ECD9C0000000, float 0x3F8A4CBFC0000000, float 0x3FB27B8900000000, float 0x3FB145D340000000, float 0x3FD65F0700000000, float 0x3F8D012D20000000, float 0x3FF7AB7560000000, float 0x40008E4640000000, float 0x3FE09012A0000000, float 0x4017F2F1A0000000, float 0x4006A81980000000, float 0x3FC81F85E0000000, float 0x3FEBA4D0A0000000, float 0x3FFFFFA1A0000000, float 0x3FC47B5F20000000, float 0x3FB9FCD240000000, float 0x3FE30A2CA0000000, float 0x3FE58F0200000000, float 0x3FF3F36260000000, float 0x3FE2A43DC0000000, float 0x400D3E5CA0000000, float 0x4003480200000000, float 0x3FD27FA5E0000000, float 0x40022670E0000000, float 0x3FE67AD4C0000000, float 0x3FF3A29C80000000, float 0x4004ACFEA0000000, float 0x3FF2E7F4E0000000, float 0x400133E040000000, float 0x3FD0328B60000000, float 0x3FF06963E0000000, float 0x3FF7E09FE0000000, float 0x3FA0FCAE40000000, float 0x3FF28ADAC0000000, float 0x3FBE59C060000000, float 0x3FCDF69880000000, float 0x3FC62BAE00000000, float 0x3F98AAD6E0000000, float 0x3FC57E9100000000, float 0x3F8484AF20000000, float 0x3FC1A2C660000000, float 0x3FFC52A840000000, float 0x4001932B60000000, float 0x3FD76451C0000000, float 0x3FC4A8D220000000, float 0x3FE19FAFC0000000, float 0x3FE2C14840000000, float 0x3FC4914B20000000, float 0x3F851F4C00000000, float 0x401A4D3D80000000, float 0x3FEE8BB0A0000000, float 0x3FD82B5E60000000, float 0x40164577E0000000, float 0x3FE3AC16E0000000, float 0x3FD4350900000000, float 0x3FF65AD960000000, float 0x3FBAD7F960000000, float 0x3FC7116220000000, float 0x3F7179B7E0000000, float 0x4000BF8CA0000000, float 0x3FCFD462C0000000, float 0x40076877E0000000, float 0x3F8DA97900000000, float 0x3FC87E5220000000, float 0x3FEA9C6B00000000, float 0x3F95394680000000, float 0x40040063A0000000, float 0x4008EA35A0000000, float 0x4010A710C0000000] }, align 4, !dbg !2286
@_ZN7Matcher9s_matcherE = dso_local global %class.Matcher* null, align 8, !dbg !2364
@.str = private unnamed_addr constant [26 x i8] c"vector::_M_default_append\00", align 1

@_ZN7MatcherC1Ev = dso_local unnamed_addr alias void (%class.Matcher*), void (%class.Matcher*)* @_ZN7MatcherC2Ev

; Function Attrs: noinline uwtable
define dso_local %class.Matcher* @_ZN7Matcher11get_MatcherEv() #0 align 2 personality i8* bitcast (i32 (...)* @__gxx_personality_v0 to i8*) !dbg !3721 {
entry:
  %exn.slot = alloca i8*
  %ehselector.slot = alloca i32
  %0 = load %class.Matcher*, %class.Matcher** @_ZN7Matcher9s_matcherE, align 8, !dbg !3722
  %cmp = icmp eq %class.Matcher* %0, null, !dbg !3724
  br i1 %cmp, label %if.then, label %if.end, !dbg !3725

if.then:                                          ; preds = %entry
  %call = call i8* @_Znwm(i64 48) #12, !dbg !3726
  %1 = bitcast i8* %call to %class.Matcher*, !dbg !3726
  invoke void @_ZN7MatcherC1Ev(%class.Matcher* %1)
          to label %invoke.cont unwind label %lpad, !dbg !3728

invoke.cont:                                      ; preds = %if.then
  store %class.Matcher* %1, %class.Matcher** @_ZN7Matcher9s_matcherE, align 8, !dbg !3729
  br label %if.end, !dbg !3730

lpad:                                             ; preds = %if.then
  %2 = landingpad { i8*, i32 }
          cleanup, !dbg !3731
  %3 = extractvalue { i8*, i32 } %2, 0, !dbg !3731
  store i8* %3, i8** %exn.slot, align 8, !dbg !3731
  %4 = extractvalue { i8*, i32 } %2, 1, !dbg !3731
  store i32 %4, i32* %ehselector.slot, align 4, !dbg !3731
  call void @_ZdlPv(i8* %call) #13, !dbg !3726
  br label %eh.resume, !dbg !3726

if.end:                                           ; preds = %invoke.cont, %entry
  %5 = load %class.Matcher*, %class.Matcher** @_ZN7Matcher9s_matcherE, align 8, !dbg !3732
  ret %class.Matcher* %5, !dbg !3733

eh.resume:                                        ; preds = %lpad
  %exn = load i8*, i8** %exn.slot, align 8, !dbg !3726
  %sel = load i32, i32* %ehselector.slot, align 4, !dbg !3726
  %lpad.val = insertvalue { i8*, i32 } undef, i8* %exn, 0, !dbg !3726
  %lpad.val1 = insertvalue { i8*, i32 } %lpad.val, i32 %sel, 1, !dbg !3726
  resume { i8*, i32 } %lpad.val1, !dbg !3726
}

; Function Attrs: nobuiltin
declare dso_local noalias i8* @_Znwm(i64) #1

declare dso_local i32 @__gxx_personality_v0(...)

; Function Attrs: nobuiltin nounwind
declare dso_local void @_ZdlPv(i8*) #2

; Function Attrs: noinline nounwind uwtable
define dso_local void @_ZN7Matcher11set_MatcherEPS_(%class.Matcher* %m) #3 align 2 !dbg !3734 {
entry:
  %m.addr = alloca %class.Matcher*, align 8
  store %class.Matcher* %m, %class.Matcher** %m.addr, align 8
  call void @llvm.dbg.declare(metadata %class.Matcher** %m.addr, metadata !3735, metadata !DIExpression()), !dbg !3736
  %0 = load %class.Matcher*, %class.Matcher** @_ZN7Matcher9s_matcherE, align 8, !dbg !3737
  %tobool = icmp ne %class.Matcher* %0, null, !dbg !3737
  br i1 %tobool, label %if.then, label %if.end, !dbg !3739

if.then:                                          ; preds = %entry
  %1 = load %class.Matcher*, %class.Matcher** @_ZN7Matcher9s_matcherE, align 8, !dbg !3740
  %isnull = icmp eq %class.Matcher* %1, null, !dbg !3742
  br i1 %isnull, label %delete.end, label %delete.notnull, !dbg !3742

delete.notnull:                                   ; preds = %if.then
  call void @_ZN7MatcherD2Ev(%class.Matcher* %1) #14, !dbg !3742
  %2 = bitcast %class.Matcher* %1 to i8*, !dbg !3742
  call void @_ZdlPv(i8* %2) #13, !dbg !3742
  br label %delete.end, !dbg !3742

delete.end:                                       ; preds = %delete.notnull, %if.then
  br label %if.end, !dbg !3743

if.end:                                           ; preds = %delete.end, %entry
  %3 = load %class.Matcher*, %class.Matcher** %m.addr, align 8, !dbg !3744
  store %class.Matcher* %3, %class.Matcher** @_ZN7Matcher9s_matcherE, align 8, !dbg !3745
  ret void, !dbg !3746
}

; Function Attrs: nounwind readnone speculatable willreturn
declare void @llvm.dbg.declare(metadata, metadata, metadata) #4

; Function Attrs: noinline nounwind uwtable
define linkonce_odr dso_local void @_ZN7MatcherD2Ev(%class.Matcher* %this) unnamed_addr #3 comdat align 2 !dbg !3747 {
entry:
  %this.addr = alloca %class.Matcher*, align 8
  store %class.Matcher* %this, %class.Matcher** %this.addr, align 8
  call void @llvm.dbg.declare(metadata %class.Matcher** %this.addr, metadata !3749, metadata !DIExpression()), !dbg !3750
  %this1 = load %class.Matcher*, %class.Matcher** %this.addr, align 8
  %m_patterns = getelementptr inbounds %class.Matcher, %class.Matcher* %this1, i32 0, i32 0, !dbg !3751
  call void @_ZN5boost5arrayISt6vectorIhSaIhEELm2EED2Ev(%"class.boost::array.1"* %m_patterns) #14, !dbg !3751
  ret void, !dbg !3753
}

; Function Attrs: noinline uwtable
define dso_local void @_ZN7MatcherC2Ev(%class.Matcher* %this) unnamed_addr #0 align 2 personality i8* bitcast (i32 (...)* @__gxx_personality_v0 to i8*) !dbg !3754 {
entry:
  %this.addr = alloca %class.Matcher*, align 8
  %max = alloca i32, align 4
  %exn.slot = alloca i8*
  %ehselector.slot = alloca i32
  %board = alloca %class.FastBoard, align 8
  %startvtx = alloca i32, align 4
  %patweights = alloca %"class.std::map", align 8
  %i = alloca i32, align 4
  %pr = alloca %"struct.std::pair", align 4
  %coerce = alloca %"struct.std::pair.16", align 8
  %i25 = alloca i32, align 4
  %w = alloca i32, align 4
  %k = alloca i32, align 4
  %reducpat1 = alloca i32, align 4
  %reducpat2 = alloca i32, align 4
  %it = alloca %"struct.std::_Rb_tree_iterator", align 8
  %ref.tmp = alloca %"struct.std::_Rb_tree_iterator", align 8
  %weight = alloca float, align 4
  %ref.tmp61 = alloca %"struct.std::_Rb_tree_iterator", align 8
  %ref.tmp65 = alloca %"struct.std::_Rb_tree_iterator", align 8
  %weight70 = alloca float, align 4
  store %class.Matcher* %this, %class.Matcher** %this.addr, align 8
  call void @llvm.dbg.declare(metadata %class.Matcher** %this.addr, metadata !3755, metadata !DIExpression()), !dbg !3756
  %this1 = load %class.Matcher*, %class.Matcher** %this.addr, align 8
  %m_patterns = getelementptr inbounds %class.Matcher, %class.Matcher* %this1, i32 0, i32 0, !dbg !3757
  call void @_ZN5boost5arrayISt6vectorIhSaIhEELm2EEC2Ev(%"class.boost::array.1"* %m_patterns) #14, !dbg !3757
  call void @llvm.dbg.declare(metadata i32* %max, metadata !3758, metadata !DIExpression()), !dbg !3760
  store i32 1048576, i32* %max, align 4, !dbg !3760
  %m_patterns2 = getelementptr inbounds %class.Matcher, %class.Matcher* %this1, i32 0, i32 0, !dbg !3761
  %call = invoke dereferenceable(24) %"class.std::vector"* @_ZN5boost5arrayISt6vectorIhSaIhEELm2EEixEm(%"class.boost::array.1"* %m_patterns2, i64 0)
          to label %invoke.cont unwind label %lpad, !dbg !3761

invoke.cont:                                      ; preds = %entry
  invoke void @_ZNSt6vectorIhSaIhEE6resizeEm(%"class.std::vector"* %call, i64 1048576)
          to label %invoke.cont3 unwind label %lpad, !dbg !3762

invoke.cont3:                                     ; preds = %invoke.cont
  %m_patterns4 = getelementptr inbounds %class.Matcher, %class.Matcher* %this1, i32 0, i32 0, !dbg !3763
  %call6 = invoke dereferenceable(24) %"class.std::vector"* @_ZN5boost5arrayISt6vectorIhSaIhEELm2EEixEm(%"class.boost::array.1"* %m_patterns4, i64 1)
          to label %invoke.cont5 unwind label %lpad, !dbg !3763

invoke.cont5:                                     ; preds = %invoke.cont3
  invoke void @_ZNSt6vectorIhSaIhEE6resizeEm(%"class.std::vector"* %call6, i64 1048576)
          to label %invoke.cont7 unwind label %lpad, !dbg !3764

invoke.cont7:                                     ; preds = %invoke.cont5
  call void @llvm.dbg.declare(metadata %class.FastBoard* %board, metadata !3765, metadata !DIExpression()), !dbg !3766
  call void @_ZN9FastBoardC2Ev(%class.FastBoard* %board) #14, !dbg !3766
  invoke void @_ZN9FastBoard11reset_boardEi(%class.FastBoard* %board, i32 3)
          to label %invoke.cont9 unwind label %lpad8, !dbg !3767

invoke.cont9:                                     ; preds = %invoke.cont7
  call void @llvm.dbg.declare(metadata i32* %startvtx, metadata !3768, metadata !DIExpression()), !dbg !3769
  %call11 = invoke i32 @_ZN9FastBoard10get_vertexEii(%class.FastBoard* %board, i32 1, i32 1)
          to label %invoke.cont10 unwind label %lpad8, !dbg !3770

invoke.cont10:                                    ; preds = %invoke.cont9
  store i32 %call11, i32* %startvtx, align 4, !dbg !3769
  call void @llvm.dbg.declare(metadata %"class.std::map"* %patweights, metadata !3771, metadata !DIExpression()), !dbg !3997
  call void @_ZNSt3mapIifSt4lessIiESaISt4pairIKifEEEC2Ev(%"class.std::map"* %patweights) #14, !dbg !3997
  call void @llvm.dbg.declare(metadata i32* %i, metadata !3998, metadata !DIExpression()), !dbg !4000
  store i32 0, i32* %i, align 4, !dbg !4000
  br label %for.cond, !dbg !4001

for.cond:                                         ; preds = %for.inc, %invoke.cont10
  %0 = load i32, i32* %i, align 4, !dbg !4002
  %conv = zext i32 %0 to i64, !dbg !4002
  %call14 = invoke i64 @_ZN5boost5arrayIfLm806EE4sizeEv()
          to label %invoke.cont13 unwind label %lpad12, !dbg !4004

invoke.cont13:                                    ; preds = %for.cond
  %cmp = icmp ult i64 %conv, %call14, !dbg !4005
  br i1 %cmp, label %for.body, label %for.end, !dbg !4006

for.body:                                         ; preds = %invoke.cont13
  call void @llvm.dbg.declare(metadata %"struct.std::pair"* %pr, metadata !4007, metadata !DIExpression()), !dbg !4062
  %1 = load i32, i32* %i, align 4, !dbg !4063
  %conv15 = zext i32 %1 to i64, !dbg !4063
  %call17 = invoke dereferenceable(4) i32* @_ZN5boost5arrayIiLm806EEixEm(%"class.boost::array"* @internal_patterns_fast, i64 %conv15)
          to label %invoke.cont16 unwind label %lpad12, !dbg !4064

invoke.cont16:                                    ; preds = %for.body
  %2 = load i32, i32* %i, align 4, !dbg !4065
  %conv18 = zext i32 %2 to i64, !dbg !4065
  %call20 = invoke dereferenceable(4) float* @_ZN5boost5arrayIfLm806EEixEm(%"class.boost::array.0"* @internal_weights_fast, i64 %conv18)
          to label %invoke.cont19 unwind label %lpad12, !dbg !4066

invoke.cont19:                                    ; preds = %invoke.cont16
  %call22 = invoke i64 @_ZSt9make_pairIRiRfESt4pairINSt25__strip_reference_wrapperINSt5decayIT_E4typeEE6__typeENS3_INS4_IT0_E4typeEE6__typeEEOS5_OSA_(i32* dereferenceable(4) %call17, float* dereferenceable(4) %call20)
          to label %invoke.cont21 unwind label %lpad12, !dbg !4067

invoke.cont21:                                    ; preds = %invoke.cont19
  %3 = bitcast %"struct.std::pair"* %pr to i64*, !dbg !4067
  store i64 %call22, i64* %3, align 4, !dbg !4067
  %call24 = invoke { %"struct.std::_Rb_tree_node_base"*, i8 } @_ZNSt3mapIifSt4lessIiESaISt4pairIKifEEE6insertIRS2_IifEEENSt9enable_ifIXsr16is_constructibleIS4_T_EE5valueES2_ISt17_Rb_tree_iteratorIS4_EbEE4typeEOSB_(%"class.std::map"* %patweights, %"struct.std::pair"* dereferenceable(8) %pr)
          to label %invoke.cont23 unwind label %lpad12, !dbg !4068

invoke.cont23:                                    ; preds = %invoke.cont21
  %4 = bitcast %"struct.std::pair.16"* %coerce to { %"struct.std::_Rb_tree_node_base"*, i8 }*, !dbg !4068
  %5 = getelementptr inbounds { %"struct.std::_Rb_tree_node_base"*, i8 }, { %"struct.std::_Rb_tree_node_base"*, i8 }* %4, i32 0, i32 0, !dbg !4068
  %6 = extractvalue { %"struct.std::_Rb_tree_node_base"*, i8 } %call24, 0, !dbg !4068
  store %"struct.std::_Rb_tree_node_base"* %6, %"struct.std::_Rb_tree_node_base"** %5, align 8, !dbg !4068
  %7 = getelementptr inbounds { %"struct.std::_Rb_tree_node_base"*, i8 }, { %"struct.std::_Rb_tree_node_base"*, i8 }* %4, i32 0, i32 1, !dbg !4068
  %8 = extractvalue { %"struct.std::_Rb_tree_node_base"*, i8 } %call24, 1, !dbg !4068
  store i8 %8, i8* %7, align 8, !dbg !4068
  br label %for.inc, !dbg !4069

for.inc:                                          ; preds = %invoke.cont23
  %9 = load i32, i32* %i, align 4, !dbg !4070
  %inc = add i32 %9, 1, !dbg !4070
  store i32 %inc, i32* %i, align 4, !dbg !4070
  br label %for.cond, !dbg !4071, !llvm.loop !4072

lpad:                                             ; preds = %invoke.cont5, %invoke.cont3, %invoke.cont, %entry
  %10 = landingpad { i8*, i32 }
          cleanup, !dbg !4074
  %11 = extractvalue { i8*, i32 } %10, 0, !dbg !4074
  store i8* %11, i8** %exn.slot, align 8, !dbg !4074
  %12 = extractvalue { i8*, i32 } %10, 1, !dbg !4074
  store i32 %12, i32* %ehselector.slot, align 4, !dbg !4074
  br label %ehcleanup93, !dbg !4074

lpad8:                                            ; preds = %invoke.cont9, %invoke.cont7
  %13 = landingpad { i8*, i32 }
          cleanup, !dbg !4074
  %14 = extractvalue { i8*, i32 } %13, 0, !dbg !4074
  store i8* %14, i8** %exn.slot, align 8, !dbg !4074
  %15 = extractvalue { i8*, i32 } %13, 1, !dbg !4074
  store i32 %15, i32* %ehselector.slot, align 4, !dbg !4074
  br label %ehcleanup, !dbg !4074

lpad12:                                           ; preds = %if.else83, %invoke.cont76, %if.then69, %if.end, %if.else, %invoke.cont49, %if.then, %invoke.cont39, %invoke.cont37, %for.end36, %invoke.cont32, %for.body31, %invoke.cont21, %invoke.cont19, %invoke.cont16, %for.body, %for.cond
  %16 = landingpad { i8*, i32 }
          cleanup, !dbg !4075
  %17 = extractvalue { i8*, i32 } %16, 0, !dbg !4075
  store i8* %17, i8** %exn.slot, align 8, !dbg !4075
  %18 = extractvalue { i8*, i32 } %16, 1, !dbg !4075
  store i32 %18, i32* %ehselector.slot, align 4, !dbg !4075
  call void @_ZNSt3mapIifSt4lessIiESaISt4pairIKifEEED2Ev(%"class.std::map"* %patweights) #14, !dbg !4076
  br label %ehcleanup, !dbg !4076

for.end:                                          ; preds = %invoke.cont13
  call void @llvm.dbg.declare(metadata i32* %i25, metadata !4077, metadata !DIExpression()), !dbg !4079
  store i32 0, i32* %i25, align 4, !dbg !4079
  br label %for.cond26, !dbg !4080

for.cond26:                                       ; preds = %for.inc90, %for.end
  %19 = load i32, i32* %i25, align 4, !dbg !4081
  %cmp27 = icmp slt i32 %19, 1048576, !dbg !4083
  br i1 %cmp27, label %for.body28, label %for.end92, !dbg !4084

for.body28:                                       ; preds = %for.cond26
  call void @llvm.dbg.declare(metadata i32* %w, metadata !4085, metadata !DIExpression()), !dbg !4087
  %20 = load i32, i32* %i25, align 4, !dbg !4088
  store i32 %20, i32* %w, align 4, !dbg !4087
  call void @llvm.dbg.declare(metadata i32* %k, metadata !4089, metadata !DIExpression()), !dbg !4091
  store i32 7, i32* %k, align 4, !dbg !4091
  br label %for.cond29, !dbg !4092

for.cond29:                                       ; preds = %for.inc35, %for.body28
  %21 = load i32, i32* %k, align 4, !dbg !4093
  %cmp30 = icmp sge i32 %21, 0, !dbg !4095
  br i1 %cmp30, label %for.body31, label %for.end36, !dbg !4096

for.body31:                                       ; preds = %for.cond29
  %22 = load i32, i32* %startvtx, align 4, !dbg !4097
  %23 = load i32, i32* %k, align 4, !dbg !4099
  %call33 = invoke i32 @_ZN9FastBoard13get_extra_dirEi(%class.FastBoard* %board, i32 %23)
          to label %invoke.cont32 unwind label %lpad12, !dbg !4100

invoke.cont32:                                    ; preds = %for.body31
  %add = add nsw i32 %22, %call33, !dbg !4101
  %24 = load i32, i32* %w, align 4, !dbg !4102
  %and = and i32 %24, 3, !dbg !4103
  invoke void @_ZN9FastBoard10set_squareEiNS_8square_tE(%class.FastBoard* %board, i32 %add, i32 %and)
          to label %invoke.cont34 unwind label %lpad12, !dbg !4104

invoke.cont34:                                    ; preds = %invoke.cont32
  %25 = load i32, i32* %w, align 4, !dbg !4105
  %shr = ashr i32 %25, 2, !dbg !4106
  store i32 %shr, i32* %w, align 4, !dbg !4107
  br label %for.inc35, !dbg !4108

for.inc35:                                        ; preds = %invoke.cont34
  %26 = load i32, i32* %k, align 4, !dbg !4109
  %dec = add nsw i32 %26, -1, !dbg !4109
  store i32 %dec, i32* %k, align 4, !dbg !4109
  br label %for.cond29, !dbg !4110, !llvm.loop !4111

for.end36:                                        ; preds = %for.cond29
  call void @llvm.dbg.declare(metadata i32* %reducpat1, metadata !4113, metadata !DIExpression()), !dbg !4114
  %27 = load i32, i32* %startvtx, align 4, !dbg !4115
  %28 = load i32, i32* %w, align 4, !dbg !4116
  %call38 = invoke i32 @_ZN9FastBoard25get_pattern3_augment_specEiib(%class.FastBoard* %board, i32 %27, i32 %28, i1 zeroext false)
          to label %invoke.cont37 unwind label %lpad12, !dbg !4117

invoke.cont37:                                    ; preds = %for.end36
  store i32 %call38, i32* %reducpat1, align 4, !dbg !4114
  call void @llvm.dbg.declare(metadata i32* %reducpat2, metadata !4118, metadata !DIExpression()), !dbg !4119
  %29 = load i32, i32* %startvtx, align 4, !dbg !4120
  %30 = load i32, i32* %w, align 4, !dbg !4121
  %call40 = invoke i32 @_ZN9FastBoard25get_pattern3_augment_specEiib(%class.FastBoard* %board, i32 %29, i32 %30, i1 zeroext true)
          to label %invoke.cont39 unwind label %lpad12, !dbg !4122

invoke.cont39:                                    ; preds = %invoke.cont37
  store i32 %call40, i32* %reducpat2, align 4, !dbg !4119
  call void @llvm.dbg.declare(metadata %"struct.std::_Rb_tree_iterator"* %it, metadata !4123, metadata !DIExpression()), !dbg !4124
  %call42 = invoke %"struct.std::_Rb_tree_node_base"* @_ZNSt3mapIifSt4lessIiESaISt4pairIKifEEE4findERS3_(%"class.std::map"* %patweights, i32* dereferenceable(4) %reducpat1)
          to label %invoke.cont41 unwind label %lpad12, !dbg !4125

invoke.cont41:                                    ; preds = %invoke.cont39
  %coerce.dive = getelementptr inbounds %"struct.std::_Rb_tree_iterator", %"struct.std::_Rb_tree_iterator"* %it, i32 0, i32 0, !dbg !4125
  store %"struct.std::_Rb_tree_node_base"* %call42, %"struct.std::_Rb_tree_node_base"** %coerce.dive, align 8, !dbg !4125
  %call43 = call %"struct.std::_Rb_tree_node_base"* @_ZNSt3mapIifSt4lessIiESaISt4pairIKifEEE3endEv(%"class.std::map"* %patweights) #14, !dbg !4126
  %coerce.dive44 = getelementptr inbounds %"struct.std::_Rb_tree_iterator", %"struct.std::_Rb_tree_iterator"* %ref.tmp, i32 0, i32 0, !dbg !4126
  store %"struct.std::_Rb_tree_node_base"* %call43, %"struct.std::_Rb_tree_node_base"** %coerce.dive44, align 8, !dbg !4126
  %call45 = call zeroext i1 @_ZStneRKSt17_Rb_tree_iteratorISt4pairIKifEES5_(%"struct.std::_Rb_tree_iterator"* dereferenceable(8) %it, %"struct.std::_Rb_tree_iterator"* dereferenceable(8) %ref.tmp) #14, !dbg !4128
  br i1 %call45, label %if.then, label %if.else, !dbg !4129

if.then:                                          ; preds = %invoke.cont41
  call void @llvm.dbg.declare(metadata float* %weight, metadata !4130, metadata !DIExpression()), !dbg !4132
  %call46 = call %"struct.std::pair.19"* @_ZNKSt17_Rb_tree_iteratorISt4pairIKifEEptEv(%"struct.std::_Rb_tree_iterator"* %it) #14, !dbg !4133
  %second = getelementptr inbounds %"struct.std::pair.19", %"struct.std::pair.19"* %call46, i32 0, i32 1, !dbg !4134
  %31 = load float, float* %second, align 4, !dbg !4134
  store float %31, float* %weight, align 4, !dbg !4132
  %32 = load float, float* %weight, align 4, !dbg !4135
  %conv47 = fpext float %32 to double, !dbg !4135
  %mul = fmul double %conv47, 4.000000e+01, !dbg !4136
  %conv48 = fptosi double %mul to i32, !dbg !4135
  %call50 = invoke zeroext i8 @_ZN7Matcher4clipEi(%class.Matcher* %this1, i32 %conv48)
          to label %invoke.cont49 unwind label %lpad12, !dbg !4137

invoke.cont49:                                    ; preds = %if.then
  %m_patterns51 = getelementptr inbounds %class.Matcher, %class.Matcher* %this1, i32 0, i32 0, !dbg !4138
  %call53 = invoke dereferenceable(24) %"class.std::vector"* @_ZN5boost5arrayISt6vectorIhSaIhEELm2EEixEm(%"class.boost::array.1"* %m_patterns51, i64 0)
          to label %invoke.cont52 unwind label %lpad12, !dbg !4138

invoke.cont52:                                    ; preds = %invoke.cont49
  %33 = load i32, i32* %i25, align 4, !dbg !4139
  %conv54 = sext i32 %33 to i64, !dbg !4139
  %call55 = call dereferenceable(1) i8* @_ZNSt6vectorIhSaIhEEixEm(%"class.std::vector"* %call53, i64 %conv54) #14, !dbg !4138
  store i8 %call50, i8* %call55, align 1, !dbg !4140
  br label %if.end, !dbg !4141

if.else:                                          ; preds = %invoke.cont41
  %m_patterns56 = getelementptr inbounds %class.Matcher, %class.Matcher* %this1, i32 0, i32 0, !dbg !4142
  %call58 = invoke dereferenceable(24) %"class.std::vector"* @_ZN5boost5arrayISt6vectorIhSaIhEELm2EEixEm(%"class.boost::array.1"* %m_patterns56, i64 0)
          to label %invoke.cont57 unwind label %lpad12, !dbg !4142

invoke.cont57:                                    ; preds = %if.else
  %34 = load i32, i32* %i25, align 4, !dbg !4144
  %conv59 = sext i32 %34 to i64, !dbg !4144
  %call60 = call dereferenceable(1) i8* @_ZNSt6vectorIhSaIhEEixEm(%"class.std::vector"* %call58, i64 %conv59) #14, !dbg !4142
  store i8 1, i8* %call60, align 1, !dbg !4145
  br label %if.end

if.end:                                           ; preds = %invoke.cont57, %invoke.cont52
  %call63 = invoke %"struct.std::_Rb_tree_node_base"* @_ZNSt3mapIifSt4lessIiESaISt4pairIKifEEE4findERS3_(%"class.std::map"* %patweights, i32* dereferenceable(4) %reducpat2)
          to label %invoke.cont62 unwind label %lpad12, !dbg !4146

invoke.cont62:                                    ; preds = %if.end
  %coerce.dive64 = getelementptr inbounds %"struct.std::_Rb_tree_iterator", %"struct.std::_Rb_tree_iterator"* %ref.tmp61, i32 0, i32 0, !dbg !4146
  store %"struct.std::_Rb_tree_node_base"* %call63, %"struct.std::_Rb_tree_node_base"** %coerce.dive64, align 8, !dbg !4146
  %35 = bitcast %"struct.std::_Rb_tree_iterator"* %it to i8*, !dbg !4147
  %36 = bitcast %"struct.std::_Rb_tree_iterator"* %ref.tmp61 to i8*, !dbg !4147
  call void @llvm.memcpy.p0i8.p0i8.i64(i8* align 8 %35, i8* align 8 %36, i64 8, i1 false), !dbg !4147
  %call66 = call %"struct.std::_Rb_tree_node_base"* @_ZNSt3mapIifSt4lessIiESaISt4pairIKifEEE3endEv(%"class.std::map"* %patweights) #14, !dbg !4148
  %coerce.dive67 = getelementptr inbounds %"struct.std::_Rb_tree_iterator", %"struct.std::_Rb_tree_iterator"* %ref.tmp65, i32 0, i32 0, !dbg !4148
  store %"struct.std::_Rb_tree_node_base"* %call66, %"struct.std::_Rb_tree_node_base"** %coerce.dive67, align 8, !dbg !4148
  %call68 = call zeroext i1 @_ZStneRKSt17_Rb_tree_iteratorISt4pairIKifEES5_(%"struct.std::_Rb_tree_iterator"* dereferenceable(8) %it, %"struct.std::_Rb_tree_iterator"* dereferenceable(8) %ref.tmp65) #14, !dbg !4150
  br i1 %call68, label %if.then69, label %if.else83, !dbg !4151

if.then69:                                        ; preds = %invoke.cont62
  call void @llvm.dbg.declare(metadata float* %weight70, metadata !4152, metadata !DIExpression()), !dbg !4154
  %call71 = call %"struct.std::pair.19"* @_ZNKSt17_Rb_tree_iteratorISt4pairIKifEEptEv(%"struct.std::_Rb_tree_iterator"* %it) #14, !dbg !4155
  %second72 = getelementptr inbounds %"struct.std::pair.19", %"struct.std::pair.19"* %call71, i32 0, i32 1, !dbg !4156
  %37 = load float, float* %second72, align 4, !dbg !4156
  store float %37, float* %weight70, align 4, !dbg !4154
  %38 = load float, float* %weight70, align 4, !dbg !4157
  %conv73 = fpext float %38 to double, !dbg !4157
  %mul74 = fmul double %conv73, 4.000000e+01, !dbg !4158
  %conv75 = fptosi double %mul74 to i32, !dbg !4157
  %call77 = invoke zeroext i8 @_ZN7Matcher4clipEi(%class.Matcher* %this1, i32 %conv75)
          to label %invoke.cont76 unwind label %lpad12, !dbg !4159

invoke.cont76:                                    ; preds = %if.then69
  %m_patterns78 = getelementptr inbounds %class.Matcher, %class.Matcher* %this1, i32 0, i32 0, !dbg !4160
  %call80 = invoke dereferenceable(24) %"class.std::vector"* @_ZN5boost5arrayISt6vectorIhSaIhEELm2EEixEm(%"class.boost::array.1"* %m_patterns78, i64 1)
          to label %invoke.cont79 unwind label %lpad12, !dbg !4160

invoke.cont79:                                    ; preds = %invoke.cont76
  %39 = load i32, i32* %i25, align 4, !dbg !4161
  %conv81 = sext i32 %39 to i64, !dbg !4161
  %call82 = call dereferenceable(1) i8* @_ZNSt6vectorIhSaIhEEixEm(%"class.std::vector"* %call80, i64 %conv81) #14, !dbg !4160
  store i8 %call77, i8* %call82, align 1, !dbg !4162
  br label %if.end89, !dbg !4163

if.else83:                                        ; preds = %invoke.cont62
  %m_patterns84 = getelementptr inbounds %class.Matcher, %class.Matcher* %this1, i32 0, i32 0, !dbg !4164
  %call86 = invoke dereferenceable(24) %"class.std::vector"* @_ZN5boost5arrayISt6vectorIhSaIhEELm2EEixEm(%"class.boost::array.1"* %m_patterns84, i64 1)
          to label %invoke.cont85 unwind label %lpad12, !dbg !4164

invoke.cont85:                                    ; preds = %if.else83
  %40 = load i32, i32* %i25, align 4, !dbg !4166
  %conv87 = sext i32 %40 to i64, !dbg !4166
  %call88 = call dereferenceable(1) i8* @_ZNSt6vectorIhSaIhEEixEm(%"class.std::vector"* %call86, i64 %conv87) #14, !dbg !4164
  store i8 1, i8* %call88, align 1, !dbg !4167
  br label %if.end89

if.end89:                                         ; preds = %invoke.cont85, %invoke.cont79
  br label %for.inc90, !dbg !4168

for.inc90:                                        ; preds = %if.end89
  %41 = load i32, i32* %i25, align 4, !dbg !4169
  %inc91 = add nsw i32 %41, 1, !dbg !4169
  store i32 %inc91, i32* %i25, align 4, !dbg !4169
  br label %for.cond26, !dbg !4170, !llvm.loop !4171

for.end92:                                        ; preds = %for.cond26
  call void @_ZNSt3mapIifSt4lessIiESaISt4pairIKifEEED2Ev(%"class.std::map"* %patweights) #14, !dbg !4076
  call void @_ZN9FastBoardD2Ev(%class.FastBoard* %board) #14, !dbg !4076
  ret void, !dbg !4076

ehcleanup:                                        ; preds = %lpad12, %lpad8
  call void @_ZN9FastBoardD2Ev(%class.FastBoard* %board) #14, !dbg !4076
  br label %ehcleanup93, !dbg !4076

ehcleanup93:                                      ; preds = %ehcleanup, %lpad
  call void @_ZN5boost5arrayISt6vectorIhSaIhEELm2EED2Ev(%"class.boost::array.1"* %m_patterns) #14, !dbg !4074
  br label %eh.resume, !dbg !4074

eh.resume:                                        ; preds = %ehcleanup93
  %exn = load i8*, i8** %exn.slot, align 8, !dbg !4074
  %sel = load i32, i32* %ehselector.slot, align 4, !dbg !4074
  %lpad.val = insertvalue { i8*, i32 } undef, i8* %exn, 0, !dbg !4074
  %lpad.val94 = insertvalue { i8*, i32 } %lpad.val, i32 %sel, 1, !dbg !4074
  resume { i8*, i32 } %lpad.val94, !dbg !4074
}

; Function Attrs: noinline nounwind uwtable
define linkonce_odr dso_local void @_ZN5boost5arrayISt6vectorIhSaIhEELm2EEC2Ev(%"class.boost::array.1"* %this) unnamed_addr #3 comdat align 2 !dbg !4173 {
entry:
  %this.addr = alloca %"class.boost::array.1"*, align 8
  store %"class.boost::array.1"* %this, %"class.boost::array.1"** %this.addr, align 8
  call void @llvm.dbg.declare(metadata %"class.boost::array.1"** %this.addr, metadata !4177, metadata !DIExpression()), !dbg !4179
  %this1 = load %"class.boost::array.1"*, %"class.boost::array.1"** %this.addr, align 8
  %elems = getelementptr inbounds %"class.boost::array.1", %"class.boost::array.1"* %this1, i32 0, i32 0, !dbg !4180
  %array.begin = getelementptr inbounds [2 x %"class.std::vector"], [2 x %"class.std::vector"]* %elems, i32 0, i32 0, !dbg !4180
  %arrayctor.end = getelementptr inbounds %"class.std::vector", %"class.std::vector"* %array.begin, i64 2, !dbg !4180
  br label %arrayctor.loop, !dbg !4180

arrayctor.loop:                                   ; preds = %arrayctor.loop, %entry
  %arrayctor.cur = phi %"class.std::vector"* [ %array.begin, %entry ], [ %arrayctor.next, %arrayctor.loop ], !dbg !4180
  call void @_ZNSt6vectorIhSaIhEEC2Ev(%"class.std::vector"* %arrayctor.cur) #14, !dbg !4180
  %arrayctor.next = getelementptr inbounds %"class.std::vector", %"class.std::vector"* %arrayctor.cur, i64 1, !dbg !4180
  %arrayctor.done = icmp eq %"class.std::vector"* %arrayctor.next, %arrayctor.end, !dbg !4180
  br i1 %arrayctor.done, label %arrayctor.cont, label %arrayctor.loop, !dbg !4180

arrayctor.cont:                                   ; preds = %arrayctor.loop
  ret void, !dbg !4180
}

; Function Attrs: noinline nounwind uwtable
define linkonce_odr dso_local dereferenceable(24) %"class.std::vector"* @_ZN5boost5arrayISt6vectorIhSaIhEELm2EEixEm(%"class.boost::array.1"* %this, i64 %i) #3 comdat align 2 !dbg !4181 {
entry:
  %this.addr = alloca %"class.boost::array.1"*, align 8
  %i.addr = alloca i64, align 8
  store %"class.boost::array.1"* %this, %"class.boost::array.1"** %this.addr, align 8
  call void @llvm.dbg.declare(metadata %"class.boost::array.1"** %this.addr, metadata !4182, metadata !DIExpression()), !dbg !4183
  store i64 %i, i64* %i.addr, align 8
  call void @llvm.dbg.declare(metadata i64* %i.addr, metadata !4184, metadata !DIExpression()), !dbg !4185
  %this1 = load %"class.boost::array.1"*, %"class.boost::array.1"** %this.addr, align 8
  %elems = getelementptr inbounds %"class.boost::array.1", %"class.boost::array.1"* %this1, i32 0, i32 0, !dbg !4186
  %0 = load i64, i64* %i.addr, align 8, !dbg !4187
  %arrayidx = getelementptr inbounds [2 x %"class.std::vector"], [2 x %"class.std::vector"]* %elems, i64 0, i64 %0, !dbg !4186
  ret %"class.std::vector"* %arrayidx, !dbg !4188
}

; Function Attrs: noinline uwtable
define linkonce_odr dso_local void @_ZNSt6vectorIhSaIhEE6resizeEm(%"class.std::vector"* %this, i64 %__new_size) #0 comdat align 2 !dbg !4189 {
entry:
  %this.addr = alloca %"class.std::vector"*, align 8
  %__new_size.addr = alloca i64, align 8
  store %"class.std::vector"* %this, %"class.std::vector"** %this.addr, align 8
  call void @llvm.dbg.declare(metadata %"class.std::vector"** %this.addr, metadata !4190, metadata !DIExpression()), !dbg !4191
  store i64 %__new_size, i64* %__new_size.addr, align 8
  call void @llvm.dbg.declare(metadata i64* %__new_size.addr, metadata !4192, metadata !DIExpression()), !dbg !4193
  %this1 = load %"class.std::vector"*, %"class.std::vector"** %this.addr, align 8
  %0 = load i64, i64* %__new_size.addr, align 8, !dbg !4194
  %call = call i64 @_ZNKSt6vectorIhSaIhEE4sizeEv(%"class.std::vector"* %this1) #14, !dbg !4196
  %cmp = icmp ugt i64 %0, %call, !dbg !4197
  br i1 %cmp, label %if.then, label %if.else, !dbg !4198

if.then:                                          ; preds = %entry
  %1 = load i64, i64* %__new_size.addr, align 8, !dbg !4199
  %call2 = call i64 @_ZNKSt6vectorIhSaIhEE4sizeEv(%"class.std::vector"* %this1) #14, !dbg !4200
  %sub = sub i64 %1, %call2, !dbg !4201
  call void @_ZNSt6vectorIhSaIhEE17_M_default_appendEm(%"class.std::vector"* %this1, i64 %sub), !dbg !4202
  br label %if.end6, !dbg !4202

if.else:                                          ; preds = %entry
  %2 = load i64, i64* %__new_size.addr, align 8, !dbg !4203
  %call3 = call i64 @_ZNKSt6vectorIhSaIhEE4sizeEv(%"class.std::vector"* %this1) #14, !dbg !4205
  %cmp4 = icmp ult i64 %2, %call3, !dbg !4206
  br i1 %cmp4, label %if.then5, label %if.end, !dbg !4207

if.then5:                                         ; preds = %if.else
  %3 = bitcast %"class.std::vector"* %this1 to %"struct.std::_Vector_base"*, !dbg !4208
  %_M_impl = getelementptr inbounds %"struct.std::_Vector_base", %"struct.std::_Vector_base"* %3, i32 0, i32 0, !dbg !4208
  %4 = bitcast %"struct.std::_Vector_base<unsigned char, std::allocator<unsigned char> >::_Vector_impl"* %_M_impl to %"struct.std::_Vector_base<unsigned char, std::allocator<unsigned char> >::_Vector_impl_data"*, !dbg !4209
  %_M_start = getelementptr inbounds %"struct.std::_Vector_base<unsigned char, std::allocator<unsigned char> >::_Vector_impl_data", %"struct.std::_Vector_base<unsigned char, std::allocator<unsigned char> >::_Vector_impl_data"* %4, i32 0, i32 0, !dbg !4210
  %5 = load i8*, i8** %_M_start, align 8, !dbg !4210
  %6 = load i64, i64* %__new_size.addr, align 8, !dbg !4211
  %add.ptr = getelementptr inbounds i8, i8* %5, i64 %6, !dbg !4212
  call void @_ZNSt6vectorIhSaIhEE15_M_erase_at_endEPh(%"class.std::vector"* %this1, i8* %add.ptr) #14, !dbg !4213
  br label %if.end, !dbg !4213

if.end:                                           ; preds = %if.then5, %if.else
  br label %if.end6

if.end6:                                          ; preds = %if.end, %if.then
  ret void, !dbg !4214
}

; Function Attrs: noinline nounwind uwtable
define linkonce_odr dso_local void @_ZN9FastBoardC2Ev(%class.FastBoard* %this) unnamed_addr #3 comdat align 2 !dbg !4215 {
entry:
  %this.addr = alloca %class.FastBoard*, align 8
  store %class.FastBoard* %this, %class.FastBoard** %this.addr, align 8
  call void @llvm.dbg.declare(metadata %class.FastBoard** %this.addr, metadata !4219, metadata !DIExpression()), !dbg !4221
  %this1 = load %class.FastBoard*, %class.FastBoard** %this.addr, align 8
  %m_empty = getelementptr inbounds %class.FastBoard, %class.FastBoard* %this1, i32 0, i32 0, !dbg !4222
  %m_empty_idx = getelementptr inbounds %class.FastBoard, %class.FastBoard* %this1, i32 0, i32 1, !dbg !4222
  %m_square = getelementptr inbounds %class.FastBoard, %class.FastBoard* %this1, i32 0, i32 5, !dbg !4222
  %m_next = getelementptr inbounds %class.FastBoard, %class.FastBoard* %this1, i32 0, i32 6, !dbg !4222
  %m_parent = getelementptr inbounds %class.FastBoard, %class.FastBoard* %this1, i32 0, i32 7, !dbg !4222
  %m_libs = getelementptr inbounds %class.FastBoard, %class.FastBoard* %this1, i32 0, i32 8, !dbg !4222
  %m_stones = getelementptr inbounds %class.FastBoard, %class.FastBoard* %this1, i32 0, i32 9, !dbg !4222
  %m_neighbours = getelementptr inbounds %class.FastBoard, %class.FastBoard* %this1, i32 0, i32 10, !dbg !4222
  %m_dirs = getelementptr inbounds %class.FastBoard, %class.FastBoard* %this1, i32 0, i32 12, !dbg !4222
  %m_extradirs = getelementptr inbounds %class.FastBoard, %class.FastBoard* %this1, i32 0, i32 13, !dbg !4222
  %m_prisoners = getelementptr inbounds %class.FastBoard, %class.FastBoard* %this1, i32 0, i32 14, !dbg !4222
  %m_totalstones = getelementptr inbounds %class.FastBoard, %class.FastBoard* %this1, i32 0, i32 15, !dbg !4222
  %m_critical = getelementptr inbounds %class.FastBoard, %class.FastBoard* %this1, i32 0, i32 16, !dbg !4222
  call void @_ZNSt6vectorIiSaIiEEC2Ev(%"class.std::vector.8"* %m_critical) #14, !dbg !4222
  ret void, !dbg !4222
}

declare dso_local void @_ZN9FastBoard11reset_boardEi(%class.FastBoard*, i32) #5

declare dso_local i32 @_ZN9FastBoard10get_vertexEii(%class.FastBoard*, i32, i32) #5

; Function Attrs: noinline nounwind uwtable
define linkonce_odr dso_local void @_ZNSt3mapIifSt4lessIiESaISt4pairIKifEEEC2Ev(%"class.std::map"* %this) unnamed_addr #3 comdat align 2 !dbg !4223 {
entry:
  %this.addr = alloca %"class.std::map"*, align 8
  store %"class.std::map"* %this, %"class.std::map"** %this.addr, align 8
  call void @llvm.dbg.declare(metadata %"class.std::map"** %this.addr, metadata !4224, metadata !DIExpression()), !dbg !4226
  %this1 = load %"class.std::map"*, %"class.std::map"** %this.addr, align 8
  %_M_t = getelementptr inbounds %"class.std::map", %"class.std::map"* %this1, i32 0, i32 0, !dbg !4227
  call void @_ZNSt8_Rb_treeIiSt4pairIKifESt10_Select1stIS2_ESt4lessIiESaIS2_EEC2Ev(%"class.std::_Rb_tree"* %_M_t) #14, !dbg !4227
  ret void, !dbg !4228
}

; Function Attrs: noinline nounwind uwtable
define linkonce_odr dso_local i64 @_ZN5boost5arrayIfLm806EE4sizeEv() #3 comdat align 2 !dbg !4229 {
entry:
  ret i64 806, !dbg !4230
}

; Function Attrs: noinline uwtable
define linkonce_odr dso_local i64 @_ZSt9make_pairIRiRfESt4pairINSt25__strip_reference_wrapperINSt5decayIT_E4typeEE6__typeENS3_INS4_IT0_E4typeEE6__typeEEOS5_OSA_(i32* dereferenceable(4) %__x, float* dereferenceable(4) %__y) #0 comdat !dbg !4231 {
entry:
  %retval = alloca %"struct.std::pair", align 4
  %__x.addr = alloca i32*, align 8
  %__y.addr = alloca float*, align 8
  store i32* %__x, i32** %__x.addr, align 8
  call void @llvm.dbg.declare(metadata i32** %__x.addr, metadata !4237, metadata !DIExpression()), !dbg !4238
  store float* %__y, float** %__y.addr, align 8
  call void @llvm.dbg.declare(metadata float** %__y.addr, metadata !4239, metadata !DIExpression()), !dbg !4240
  %0 = load i32*, i32** %__x.addr, align 8, !dbg !4241
  %call = call dereferenceable(4) i32* @_ZSt7forwardIRiEOT_RNSt16remove_referenceIS1_E4typeE(i32* dereferenceable(4) %0) #14, !dbg !4242
  %1 = load float*, float** %__y.addr, align 8, !dbg !4243
  %call1 = call dereferenceable(4) float* @_ZSt7forwardIRfEOT_RNSt16remove_referenceIS1_E4typeE(float* dereferenceable(4) %1) #14, !dbg !4244
  call void @_ZNSt4pairIifEC2IRiRfLb1EEEOT_OT0_(%"struct.std::pair"* %retval, i32* dereferenceable(4) %call, float* dereferenceable(4) %call1), !dbg !4245
  %2 = bitcast %"struct.std::pair"* %retval to i64*, !dbg !4246
  %3 = load i64, i64* %2, align 4, !dbg !4246
  ret i64 %3, !dbg !4246
}

; Function Attrs: noinline nounwind uwtable
define linkonce_odr dso_local dereferenceable(4) i32* @_ZN5boost5arrayIiLm806EEixEm(%"class.boost::array"* %this, i64 %i) #3 comdat align 2 !dbg !4247 {
entry:
  %this.addr = alloca %"class.boost::array"*, align 8
  %i.addr = alloca i64, align 8
  store %"class.boost::array"* %this, %"class.boost::array"** %this.addr, align 8
  call void @llvm.dbg.declare(metadata %"class.boost::array"** %this.addr, metadata !4248, metadata !DIExpression()), !dbg !4250
  store i64 %i, i64* %i.addr, align 8
  call void @llvm.dbg.declare(metadata i64* %i.addr, metadata !4251, metadata !DIExpression()), !dbg !4252
  %this1 = load %"class.boost::array"*, %"class.boost::array"** %this.addr, align 8
  %elems = getelementptr inbounds %"class.boost::array", %"class.boost::array"* %this1, i32 0, i32 0, !dbg !4253
  %0 = load i64, i64* %i.addr, align 8, !dbg !4254
  %arrayidx = getelementptr inbounds [806 x i32], [806 x i32]* %elems, i64 0, i64 %0, !dbg !4253
  ret i32* %arrayidx, !dbg !4255
}

; Function Attrs: noinline nounwind uwtable
define linkonce_odr dso_local dereferenceable(4) float* @_ZN5boost5arrayIfLm806EEixEm(%"class.boost::array.0"* %this, i64 %i) #3 comdat align 2 !dbg !4256 {
entry:
  %this.addr = alloca %"class.boost::array.0"*, align 8
  %i.addr = alloca i64, align 8
  store %"class.boost::array.0"* %this, %"class.boost::array.0"** %this.addr, align 8
  call void @llvm.dbg.declare(metadata %"class.boost::array.0"** %this.addr, metadata !4257, metadata !DIExpression()), !dbg !4259
  store i64 %i, i64* %i.addr, align 8
  call void @llvm.dbg.declare(metadata i64* %i.addr, metadata !4260, metadata !DIExpression()), !dbg !4261
  %this1 = load %"class.boost::array.0"*, %"class.boost::array.0"** %this.addr, align 8
  %elems = getelementptr inbounds %"class.boost::array.0", %"class.boost::array.0"* %this1, i32 0, i32 0, !dbg !4262
  %0 = load i64, i64* %i.addr, align 8, !dbg !4263
  %arrayidx = getelementptr inbounds [806 x float], [806 x float]* %elems, i64 0, i64 %0, !dbg !4262
  ret float* %arrayidx, !dbg !4264
}

; Function Attrs: noinline uwtable
define linkonce_odr dso_local { %"struct.std::_Rb_tree_node_base"*, i8 } @_ZNSt3mapIifSt4lessIiESaISt4pairIKifEEE6insertIRS2_IifEEENSt9enable_ifIXsr16is_constructibleIS4_T_EE5valueES2_ISt17_Rb_tree_iteratorIS4_EbEE4typeEOSB_(%"class.std::map"* %this, %"struct.std::pair"* dereferenceable(8) %__x) #0 comdat align 2 !dbg !4265 {
entry:
  %retval = alloca %"struct.std::pair.16", align 8
  %this.addr = alloca %"class.std::map"*, align 8
  %__x.addr = alloca %"struct.std::pair"*, align 8
  store %"class.std::map"* %this, %"class.std::map"** %this.addr, align 8
  call void @llvm.dbg.declare(metadata %"class.std::map"** %this.addr, metadata !4276, metadata !DIExpression()), !dbg !4277
  store %"struct.std::pair"* %__x, %"struct.std::pair"** %__x.addr, align 8
  call void @llvm.dbg.declare(metadata %"struct.std::pair"** %__x.addr, metadata !4278, metadata !DIExpression()), !dbg !4279
  %this1 = load %"class.std::map"*, %"class.std::map"** %this.addr, align 8
  %_M_t = getelementptr inbounds %"class.std::map", %"class.std::map"* %this1, i32 0, i32 0, !dbg !4280
  %0 = load %"struct.std::pair"*, %"struct.std::pair"** %__x.addr, align 8, !dbg !4281
  %call = call dereferenceable(8) %"struct.std::pair"* @_ZSt7forwardIRSt4pairIifEEOT_RNSt16remove_referenceIS3_E4typeE(%"struct.std::pair"* dereferenceable(8) %0) #14, !dbg !4282
  %call2 = call { %"struct.std::_Rb_tree_node_base"*, i8 } @_ZNSt8_Rb_treeIiSt4pairIKifESt10_Select1stIS2_ESt4lessIiESaIS2_EE17_M_emplace_uniqueIJRS0_IifEEEES0_ISt17_Rb_tree_iteratorIS2_EbEDpOT_(%"class.std::_Rb_tree"* %_M_t, %"struct.std::pair"* dereferenceable(8) %call), !dbg !4283
  %1 = bitcast %"struct.std::pair.16"* %retval to { %"struct.std::_Rb_tree_node_base"*, i8 }*, !dbg !4283
  %2 = getelementptr inbounds { %"struct.std::_Rb_tree_node_base"*, i8 }, { %"struct.std::_Rb_tree_node_base"*, i8 }* %1, i32 0, i32 0, !dbg !4283
  %3 = extractvalue { %"struct.std::_Rb_tree_node_base"*, i8 } %call2, 0, !dbg !4283
  store %"struct.std::_Rb_tree_node_base"* %3, %"struct.std::_Rb_tree_node_base"** %2, align 8, !dbg !4283
  %4 = getelementptr inbounds { %"struct.std::_Rb_tree_node_base"*, i8 }, { %"struct.std::_Rb_tree_node_base"*, i8 }* %1, i32 0, i32 1, !dbg !4283
  %5 = extractvalue { %"struct.std::_Rb_tree_node_base"*, i8 } %call2, 1, !dbg !4283
  store i8 %5, i8* %4, align 8, !dbg !4283
  %6 = bitcast %"struct.std::pair.16"* %retval to { %"struct.std::_Rb_tree_node_base"*, i8 }*, !dbg !4284
  %7 = load { %"struct.std::_Rb_tree_node_base"*, i8 }, { %"struct.std::_Rb_tree_node_base"*, i8 }* %6, align 8, !dbg !4284
  ret { %"struct.std::_Rb_tree_node_base"*, i8 } %7, !dbg !4284
}

declare dso_local void @_ZN9FastBoard10set_squareEiNS_8square_tE(%class.FastBoard*, i32, i32) #5

declare dso_local i32 @_ZN9FastBoard13get_extra_dirEi(%class.FastBoard*, i32) #5

declare dso_local i32 @_ZN9FastBoard25get_pattern3_augment_specEiib(%class.FastBoard*, i32, i32, i1 zeroext) #5

; Function Attrs: noinline uwtable
define linkonce_odr dso_local %"struct.std::_Rb_tree_node_base"* @_ZNSt3mapIifSt4lessIiESaISt4pairIKifEEE4findERS3_(%"class.std::map"* %this, i32* dereferenceable(4) %__x) #0 comdat align 2 !dbg !4285 {
entry:
  %retval = alloca %"struct.std::_Rb_tree_iterator", align 8
  %this.addr = alloca %"class.std::map"*, align 8
  %__x.addr = alloca i32*, align 8
  store %"class.std::map"* %this, %"class.std::map"** %this.addr, align 8
  call void @llvm.dbg.declare(metadata %"class.std::map"** %this.addr, metadata !4286, metadata !DIExpression()), !dbg !4287
  store i32* %__x, i32** %__x.addr, align 8
  call void @llvm.dbg.declare(metadata i32** %__x.addr, metadata !4288, metadata !DIExpression()), !dbg !4289
  %this1 = load %"class.std::map"*, %"class.std::map"** %this.addr, align 8
  %_M_t = getelementptr inbounds %"class.std::map", %"class.std::map"* %this1, i32 0, i32 0, !dbg !4290
  %0 = load i32*, i32** %__x.addr, align 8, !dbg !4291
  %call = call %"struct.std::_Rb_tree_node_base"* @_ZNSt8_Rb_treeIiSt4pairIKifESt10_Select1stIS2_ESt4lessIiESaIS2_EE4findERS1_(%"class.std::_Rb_tree"* %_M_t, i32* dereferenceable(4) %0), !dbg !4292
  %coerce.dive = getelementptr inbounds %"struct.std::_Rb_tree_iterator", %"struct.std::_Rb_tree_iterator"* %retval, i32 0, i32 0, !dbg !4292
  store %"struct.std::_Rb_tree_node_base"* %call, %"struct.std::_Rb_tree_node_base"** %coerce.dive, align 8, !dbg !4292
  %coerce.dive2 = getelementptr inbounds %"struct.std::_Rb_tree_iterator", %"struct.std::_Rb_tree_iterator"* %retval, i32 0, i32 0, !dbg !4293
  %1 = load %"struct.std::_Rb_tree_node_base"*, %"struct.std::_Rb_tree_node_base"** %coerce.dive2, align 8, !dbg !4293
  ret %"struct.std::_Rb_tree_node_base"* %1, !dbg !4293
}

; Function Attrs: noinline nounwind uwtable
define linkonce_odr dso_local zeroext i1 @_ZStneRKSt17_Rb_tree_iteratorISt4pairIKifEES5_(%"struct.std::_Rb_tree_iterator"* dereferenceable(8) %__x, %"struct.std::_Rb_tree_iterator"* dereferenceable(8) %__y) #3 comdat !dbg !4294 {
entry:
  %__x.addr = alloca %"struct.std::_Rb_tree_iterator"*, align 8
  %__y.addr = alloca %"struct.std::_Rb_tree_iterator"*, align 8
  store %"struct.std::_Rb_tree_iterator"* %__x, %"struct.std::_Rb_tree_iterator"** %__x.addr, align 8
  call void @llvm.dbg.declare(metadata %"struct.std::_Rb_tree_iterator"** %__x.addr, metadata !4299, metadata !DIExpression()), !dbg !4300
  store %"struct.std::_Rb_tree_iterator"* %__y, %"struct.std::_Rb_tree_iterator"** %__y.addr, align 8
  call void @llvm.dbg.declare(metadata %"struct.std::_Rb_tree_iterator"** %__y.addr, metadata !4301, metadata !DIExpression()), !dbg !4302
  %0 = load %"struct.std::_Rb_tree_iterator"*, %"struct.std::_Rb_tree_iterator"** %__x.addr, align 8, !dbg !4303
  %_M_node = getelementptr inbounds %"struct.std::_Rb_tree_iterator", %"struct.std::_Rb_tree_iterator"* %0, i32 0, i32 0, !dbg !4304
  %1 = load %"struct.std::_Rb_tree_node_base"*, %"struct.std::_Rb_tree_node_base"** %_M_node, align 8, !dbg !4304
  %2 = load %"struct.std::_Rb_tree_iterator"*, %"struct.std::_Rb_tree_iterator"** %__y.addr, align 8, !dbg !4305
  %_M_node1 = getelementptr inbounds %"struct.std::_Rb_tree_iterator", %"struct.std::_Rb_tree_iterator"* %2, i32 0, i32 0, !dbg !4306
  %3 = load %"struct.std::_Rb_tree_node_base"*, %"struct.std::_Rb_tree_node_base"** %_M_node1, align 8, !dbg !4306
  %cmp = icmp ne %"struct.std::_Rb_tree_node_base"* %1, %3, !dbg !4307
  ret i1 %cmp, !dbg !4308
}

; Function Attrs: noinline nounwind uwtable
define linkonce_odr dso_local %"struct.std::_Rb_tree_node_base"* @_ZNSt3mapIifSt4lessIiESaISt4pairIKifEEE3endEv(%"class.std::map"* %this) #3 comdat align 2 !dbg !4309 {
entry:
  %retval = alloca %"struct.std::_Rb_tree_iterator", align 8
  %this.addr = alloca %"class.std::map"*, align 8
  store %"class.std::map"* %this, %"class.std::map"** %this.addr, align 8
  call void @llvm.dbg.declare(metadata %"class.std::map"** %this.addr, metadata !4310, metadata !DIExpression()), !dbg !4311
  %this1 = load %"class.std::map"*, %"class.std::map"** %this.addr, align 8
  %_M_t = getelementptr inbounds %"class.std::map", %"class.std::map"* %this1, i32 0, i32 0, !dbg !4312
  %call = call %"struct.std::_Rb_tree_node_base"* @_ZNSt8_Rb_treeIiSt4pairIKifESt10_Select1stIS2_ESt4lessIiESaIS2_EE3endEv(%"class.std::_Rb_tree"* %_M_t) #14, !dbg !4313
  %coerce.dive = getelementptr inbounds %"struct.std::_Rb_tree_iterator", %"struct.std::_Rb_tree_iterator"* %retval, i32 0, i32 0, !dbg !4313
  store %"struct.std::_Rb_tree_node_base"* %call, %"struct.std::_Rb_tree_node_base"** %coerce.dive, align 8, !dbg !4313
  %coerce.dive2 = getelementptr inbounds %"struct.std::_Rb_tree_iterator", %"struct.std::_Rb_tree_iterator"* %retval, i32 0, i32 0, !dbg !4314
  %0 = load %"struct.std::_Rb_tree_node_base"*, %"struct.std::_Rb_tree_node_base"** %coerce.dive2, align 8, !dbg !4314
  ret %"struct.std::_Rb_tree_node_base"* %0, !dbg !4314
}

; Function Attrs: noinline nounwind uwtable
define linkonce_odr dso_local %"struct.std::pair.19"* @_ZNKSt17_Rb_tree_iteratorISt4pairIKifEEptEv(%"struct.std::_Rb_tree_iterator"* %this) #3 comdat align 2 personality i8* bitcast (i32 (...)* @__gxx_personality_v0 to i8*) !dbg !4315 {
entry:
  %this.addr = alloca %"struct.std::_Rb_tree_iterator"*, align 8
  store %"struct.std::_Rb_tree_iterator"* %this, %"struct.std::_Rb_tree_iterator"** %this.addr, align 8
  call void @llvm.dbg.declare(metadata %"struct.std::_Rb_tree_iterator"** %this.addr, metadata !4316, metadata !DIExpression()), !dbg !4318
  %this1 = load %"struct.std::_Rb_tree_iterator"*, %"struct.std::_Rb_tree_iterator"** %this.addr, align 8
  %_M_node = getelementptr inbounds %"struct.std::_Rb_tree_iterator", %"struct.std::_Rb_tree_iterator"* %this1, i32 0, i32 0, !dbg !4319
  %0 = load %"struct.std::_Rb_tree_node_base"*, %"struct.std::_Rb_tree_node_base"** %_M_node, align 8, !dbg !4319
  %1 = bitcast %"struct.std::_Rb_tree_node_base"* %0 to %"struct.std::_Rb_tree_node"*, !dbg !4320
  %call = invoke %"struct.std::pair.19"* @_ZNSt13_Rb_tree_nodeISt4pairIKifEE9_M_valptrEv(%"struct.std::_Rb_tree_node"* %1)
          to label %invoke.cont unwind label %terminate.lpad, !dbg !4321

invoke.cont:                                      ; preds = %entry
  ret %"struct.std::pair.19"* %call, !dbg !4322

terminate.lpad:                                   ; preds = %entry
  %2 = landingpad { i8*, i32 }
          catch i8* null, !dbg !4321
  %3 = extractvalue { i8*, i32 } %2, 0, !dbg !4321
  call void @__clang_call_terminate(i8* %3) #15, !dbg !4321
  unreachable, !dbg !4321
}

; Function Attrs: noinline nounwind uwtable
define dso_local zeroext i8 @_ZN7Matcher4clipEi(%class.Matcher* %this, i32 %val) #3 align 2 !dbg !4323 {
entry:
  %this.addr = alloca %class.Matcher*, align 8
  %val.addr = alloca i32, align 4
  store %class.Matcher* %this, %class.Matcher** %this.addr, align 8
  call void @llvm.dbg.declare(metadata %class.Matcher** %this.addr, metadata !4324, metadata !DIExpression()), !dbg !4325
  store i32 %val, i32* %val.addr, align 4
  call void @llvm.dbg.declare(metadata i32* %val.addr, metadata !4326, metadata !DIExpression()), !dbg !4327
  %this1 = load %class.Matcher*, %class.Matcher** %this.addr, align 8
  %0 = load i32, i32* %val.addr, align 4, !dbg !4328
  %cmp = icmp slt i32 %0, 0, !dbg !4330
  br i1 %cmp, label %if.then, label %if.else, !dbg !4331

if.then:                                          ; preds = %entry
  store i32 0, i32* %val.addr, align 4, !dbg !4332
  br label %if.end4, !dbg !4334

if.else:                                          ; preds = %entry
  %1 = load i32, i32* %val.addr, align 4, !dbg !4335
  %cmp2 = icmp sgt i32 %1, 255, !dbg !4337
  br i1 %cmp2, label %if.then3, label %if.end, !dbg !4338

if.then3:                                         ; preds = %if.else
  store i32 255, i32* %val.addr, align 4, !dbg !4339
  br label %if.end, !dbg !4341

if.end:                                           ; preds = %if.then3, %if.else
  br label %if.end4

if.end4:                                          ; preds = %if.end, %if.then
  %2 = load i32, i32* %val.addr, align 4, !dbg !4342
  %conv = trunc i32 %2 to i8, !dbg !4342
  ret i8 %conv, !dbg !4343
}

; Function Attrs: noinline nounwind uwtable
define linkonce_odr dso_local dereferenceable(1) i8* @_ZNSt6vectorIhSaIhEEixEm(%"class.std::vector"* %this, i64 %__n) #3 comdat align 2 !dbg !4344 {
entry:
  %this.addr = alloca %"class.std::vector"*, align 8
  %__n.addr = alloca i64, align 8
  store %"class.std::vector"* %this, %"class.std::vector"** %this.addr, align 8
  call void @llvm.dbg.declare(metadata %"class.std::vector"** %this.addr, metadata !4345, metadata !DIExpression()), !dbg !4346
  store i64 %__n, i64* %__n.addr, align 8
  call void @llvm.dbg.declare(metadata i64* %__n.addr, metadata !4347, metadata !DIExpression()), !dbg !4348
  %this1 = load %"class.std::vector"*, %"class.std::vector"** %this.addr, align 8
  %0 = bitcast %"class.std::vector"* %this1 to %"struct.std::_Vector_base"*, !dbg !4349
  %_M_impl = getelementptr inbounds %"struct.std::_Vector_base", %"struct.std::_Vector_base"* %0, i32 0, i32 0, !dbg !4349
  %1 = bitcast %"struct.std::_Vector_base<unsigned char, std::allocator<unsigned char> >::_Vector_impl"* %_M_impl to %"struct.std::_Vector_base<unsigned char, std::allocator<unsigned char> >::_Vector_impl_data"*, !dbg !4350
  %_M_start = getelementptr inbounds %"struct.std::_Vector_base<unsigned char, std::allocator<unsigned char> >::_Vector_impl_data", %"struct.std::_Vector_base<unsigned char, std::allocator<unsigned char> >::_Vector_impl_data"* %1, i32 0, i32 0, !dbg !4351
  %2 = load i8*, i8** %_M_start, align 8, !dbg !4351
  %3 = load i64, i64* %__n.addr, align 8, !dbg !4352
  %add.ptr = getelementptr inbounds i8, i8* %2, i64 %3, !dbg !4353
  ret i8* %add.ptr, !dbg !4354
}

; Function Attrs: argmemonly nounwind willreturn
declare void @llvm.memcpy.p0i8.p0i8.i64(i8* noalias nocapture writeonly, i8* noalias nocapture readonly, i64, i1 immarg) #6

; Function Attrs: noinline nounwind uwtable
define linkonce_odr dso_local void @_ZNSt3mapIifSt4lessIiESaISt4pairIKifEEED2Ev(%"class.std::map"* %this) unnamed_addr #3 comdat align 2 !dbg !4355 {
entry:
  %this.addr = alloca %"class.std::map"*, align 8
  store %"class.std::map"* %this, %"class.std::map"** %this.addr, align 8
  call void @llvm.dbg.declare(metadata %"class.std::map"** %this.addr, metadata !4356, metadata !DIExpression()), !dbg !4357
  %this1 = load %"class.std::map"*, %"class.std::map"** %this.addr, align 8
  %_M_t = getelementptr inbounds %"class.std::map", %"class.std::map"* %this1, i32 0, i32 0, !dbg !4358
  call void @_ZNSt8_Rb_treeIiSt4pairIKifESt10_Select1stIS2_ESt4lessIiESaIS2_EED2Ev(%"class.std::_Rb_tree"* %_M_t) #14, !dbg !4358
  ret void, !dbg !4360
}

; Function Attrs: noinline nounwind uwtable
define linkonce_odr dso_local void @_ZN9FastBoardD2Ev(%class.FastBoard* %this) unnamed_addr #3 comdat align 2 !dbg !4361 {
entry:
  %this.addr = alloca %class.FastBoard*, align 8
  store %class.FastBoard* %this, %class.FastBoard** %this.addr, align 8
  call void @llvm.dbg.declare(metadata %class.FastBoard** %this.addr, metadata !4363, metadata !DIExpression()), !dbg !4364
  %this1 = load %class.FastBoard*, %class.FastBoard** %this.addr, align 8
  %m_critical = getelementptr inbounds %class.FastBoard, %class.FastBoard* %this1, i32 0, i32 16, !dbg !4365
  call void @_ZNSt6vectorIiSaIiEED2Ev(%"class.std::vector.8"* %m_critical) #14, !dbg !4365
  ret void, !dbg !4367
}

; Function Attrs: noinline nounwind uwtable
define linkonce_odr dso_local void @_ZN5boost5arrayISt6vectorIhSaIhEELm2EED2Ev(%"class.boost::array.1"* %this) unnamed_addr #3 comdat align 2 !dbg !4368 {
entry:
  %this.addr = alloca %"class.boost::array.1"*, align 8
  store %"class.boost::array.1"* %this, %"class.boost::array.1"** %this.addr, align 8
  call void @llvm.dbg.declare(metadata %"class.boost::array.1"** %this.addr, metadata !4370, metadata !DIExpression()), !dbg !4371
  %this1 = load %"class.boost::array.1"*, %"class.boost::array.1"** %this.addr, align 8
  %elems = getelementptr inbounds %"class.boost::array.1", %"class.boost::array.1"* %this1, i32 0, i32 0, !dbg !4372
  %array.begin = getelementptr inbounds [2 x %"class.std::vector"], [2 x %"class.std::vector"]* %elems, i32 0, i32 0, !dbg !4372
  %0 = getelementptr inbounds %"class.std::vector", %"class.std::vector"* %array.begin, i64 2, !dbg !4372
  br label %arraydestroy.body, !dbg !4372

arraydestroy.body:                                ; preds = %arraydestroy.body, %entry
  %arraydestroy.elementPast = phi %"class.std::vector"* [ %0, %entry ], [ %arraydestroy.element, %arraydestroy.body ], !dbg !4372
  %arraydestroy.element = getelementptr inbounds %"class.std::vector", %"class.std::vector"* %arraydestroy.elementPast, i64 -1, !dbg !4372
  call void @_ZNSt6vectorIhSaIhEED2Ev(%"class.std::vector"* %arraydestroy.element) #14, !dbg !4372
  %arraydestroy.done = icmp eq %"class.std::vector"* %arraydestroy.element, %array.begin, !dbg !4372
  br i1 %arraydestroy.done, label %arraydestroy.done2, label %arraydestroy.body, !dbg !4372

arraydestroy.done2:                               ; preds = %arraydestroy.body
  ret void, !dbg !4374
}

; Function Attrs: noinline uwtable
define dso_local i32 @_ZN7Matcher7matchesEii(%class.Matcher* %this, i32 %color, i32 %pattern) #0 align 2 !dbg !4375 {
entry:
  %this.addr = alloca %class.Matcher*, align 8
  %color.addr = alloca i32, align 4
  %pattern.addr = alloca i32, align 4
  store %class.Matcher* %this, %class.Matcher** %this.addr, align 8
  call void @llvm.dbg.declare(metadata %class.Matcher** %this.addr, metadata !4376, metadata !DIExpression()), !dbg !4377
  store i32 %color, i32* %color.addr, align 4
  call void @llvm.dbg.declare(metadata i32* %color.addr, metadata !4378, metadata !DIExpression()), !dbg !4379
  store i32 %pattern, i32* %pattern.addr, align 4
  call void @llvm.dbg.declare(metadata i32* %pattern.addr, metadata !4380, metadata !DIExpression()), !dbg !4381
  %this1 = load %class.Matcher*, %class.Matcher** %this.addr, align 8
  %m_patterns = getelementptr inbounds %class.Matcher, %class.Matcher* %this1, i32 0, i32 0, !dbg !4382
  %0 = load i32, i32* %color.addr, align 4, !dbg !4383
  %conv = sext i32 %0 to i64, !dbg !4383
  %call = call dereferenceable(24) %"class.std::vector"* @_ZN5boost5arrayISt6vectorIhSaIhEELm2EEixEm(%"class.boost::array.1"* %m_patterns, i64 %conv), !dbg !4382
  %1 = load i32, i32* %pattern.addr, align 4, !dbg !4384
  %conv2 = sext i32 %1 to i64, !dbg !4384
  %call3 = call dereferenceable(1) i8* @_ZNSt6vectorIhSaIhEEixEm(%"class.std::vector"* %call, i64 %conv2) #14, !dbg !4382
  %2 = load i8, i8* %call3, align 1, !dbg !4382
  %conv4 = zext i8 %2 to i32, !dbg !4382
  ret i32 %conv4, !dbg !4385
}

; Function Attrs: noinline nounwind uwtable
define linkonce_odr dso_local void @_ZNSt6vectorIhSaIhEEC2Ev(%"class.std::vector"* %this) unnamed_addr #3 comdat align 2 !dbg !4386 {
entry:
  %this.addr = alloca %"class.std::vector"*, align 8
  store %"class.std::vector"* %this, %"class.std::vector"** %this.addr, align 8
  call void @llvm.dbg.declare(metadata %"class.std::vector"** %this.addr, metadata !4387, metadata !DIExpression()), !dbg !4388
  %this1 = load %"class.std::vector"*, %"class.std::vector"** %this.addr, align 8
  %0 = bitcast %"class.std::vector"* %this1 to %"struct.std::_Vector_base"*, !dbg !4389
  call void @_ZNSt12_Vector_baseIhSaIhEEC2Ev(%"struct.std::_Vector_base"* %0) #14, !dbg !4390
  ret void, !dbg !4389
}

; Function Attrs: noinline nounwind uwtable
define linkonce_odr dso_local void @_ZNSt12_Vector_baseIhSaIhEEC2Ev(%"struct.std::_Vector_base"* %this) unnamed_addr #3 comdat align 2 !dbg !4391 {
entry:
  %this.addr = alloca %"struct.std::_Vector_base"*, align 8
  store %"struct.std::_Vector_base"* %this, %"struct.std::_Vector_base"** %this.addr, align 8
  call void @llvm.dbg.declare(metadata %"struct.std::_Vector_base"** %this.addr, metadata !4392, metadata !DIExpression()), !dbg !4394
  %this1 = load %"struct.std::_Vector_base"*, %"struct.std::_Vector_base"** %this.addr, align 8
  %_M_impl = getelementptr inbounds %"struct.std::_Vector_base", %"struct.std::_Vector_base"* %this1, i32 0, i32 0, !dbg !4395
  call void @_ZNSt12_Vector_baseIhSaIhEE12_Vector_implC2Ev(%"struct.std::_Vector_base<unsigned char, std::allocator<unsigned char> >::_Vector_impl"* %_M_impl) #14, !dbg !4395
  ret void, !dbg !4396
}

; Function Attrs: noinline nounwind uwtable
define linkonce_odr dso_local void @_ZNSt12_Vector_baseIhSaIhEE12_Vector_implC2Ev(%"struct.std::_Vector_base<unsigned char, std::allocator<unsigned char> >::_Vector_impl"* %this) unnamed_addr #3 comdat align 2 !dbg !4397 {
entry:
  %this.addr = alloca %"struct.std::_Vector_base<unsigned char, std::allocator<unsigned char> >::_Vector_impl"*, align 8
  store %"struct.std::_Vector_base<unsigned char, std::allocator<unsigned char> >::_Vector_impl"* %this, %"struct.std::_Vector_base<unsigned char, std::allocator<unsigned char> >::_Vector_impl"** %this.addr, align 8
  call void @llvm.dbg.declare(metadata %"struct.std::_Vector_base<unsigned char, std::allocator<unsigned char> >::_Vector_impl"** %this.addr, metadata !4398, metadata !DIExpression()), !dbg !4400
  %this1 = load %"struct.std::_Vector_base<unsigned char, std::allocator<unsigned char> >::_Vector_impl"*, %"struct.std::_Vector_base<unsigned char, std::allocator<unsigned char> >::_Vector_impl"** %this.addr, align 8
  %0 = bitcast %"struct.std::_Vector_base<unsigned char, std::allocator<unsigned char> >::_Vector_impl"* %this1 to %"class.std::allocator"*, !dbg !4401
  call void @_ZNSaIhEC2Ev(%"class.std::allocator"* %0) #14, !dbg !4402
  %1 = bitcast %"struct.std::_Vector_base<unsigned char, std::allocator<unsigned char> >::_Vector_impl"* %this1 to %"struct.std::_Vector_base<unsigned char, std::allocator<unsigned char> >::_Vector_impl_data"*, !dbg !4401
  call void @_ZNSt12_Vector_baseIhSaIhEE17_Vector_impl_dataC2Ev(%"struct.std::_Vector_base<unsigned char, std::allocator<unsigned char> >::_Vector_impl_data"* %1) #14, !dbg !4403
  ret void, !dbg !4404
}

; Function Attrs: noinline nounwind uwtable
define linkonce_odr dso_local void @_ZNSaIhEC2Ev(%"class.std::allocator"* %this) unnamed_addr #3 comdat align 2 !dbg !4405 {
entry:
  %this.addr = alloca %"class.std::allocator"*, align 8
  store %"class.std::allocator"* %this, %"class.std::allocator"** %this.addr, align 8
  call void @llvm.dbg.declare(metadata %"class.std::allocator"** %this.addr, metadata !4406, metadata !DIExpression()), !dbg !4408
  %this1 = load %"class.std::allocator"*, %"class.std::allocator"** %this.addr, align 8
  %0 = bitcast %"class.std::allocator"* %this1 to %"class.__gnu_cxx::new_allocator"*, !dbg !4409
  call void @_ZN9__gnu_cxx13new_allocatorIhEC2Ev(%"class.__gnu_cxx::new_allocator"* %0) #14, !dbg !4410
  ret void, !dbg !4411
}

; Function Attrs: noinline nounwind uwtable
define linkonce_odr dso_local void @_ZNSt12_Vector_baseIhSaIhEE17_Vector_impl_dataC2Ev(%"struct.std::_Vector_base<unsigned char, std::allocator<unsigned char> >::_Vector_impl_data"* %this) unnamed_addr #3 comdat align 2 !dbg !4412 {
entry:
  %this.addr = alloca %"struct.std::_Vector_base<unsigned char, std::allocator<unsigned char> >::_Vector_impl_data"*, align 8
  store %"struct.std::_Vector_base<unsigned char, std::allocator<unsigned char> >::_Vector_impl_data"* %this, %"struct.std::_Vector_base<unsigned char, std::allocator<unsigned char> >::_Vector_impl_data"** %this.addr, align 8
  call void @llvm.dbg.declare(metadata %"struct.std::_Vector_base<unsigned char, std::allocator<unsigned char> >::_Vector_impl_data"** %this.addr, metadata !4413, metadata !DIExpression()), !dbg !4415
  %this1 = load %"struct.std::_Vector_base<unsigned char, std::allocator<unsigned char> >::_Vector_impl_data"*, %"struct.std::_Vector_base<unsigned char, std::allocator<unsigned char> >::_Vector_impl_data"** %this.addr, align 8
  %_M_start = getelementptr inbounds %"struct.std::_Vector_base<unsigned char, std::allocator<unsigned char> >::_Vector_impl_data", %"struct.std::_Vector_base<unsigned char, std::allocator<unsigned char> >::_Vector_impl_data"* %this1, i32 0, i32 0, !dbg !4416
  store i8* null, i8** %_M_start, align 8, !dbg !4416
  %_M_finish = getelementptr inbounds %"struct.std::_Vector_base<unsigned char, std::allocator<unsigned char> >::_Vector_impl_data", %"struct.std::_Vector_base<unsigned char, std::allocator<unsigned char> >::_Vector_impl_data"* %this1, i32 0, i32 1, !dbg !4417
  store i8* null, i8** %_M_finish, align 8, !dbg !4417
  %_M_end_of_storage = getelementptr inbounds %"struct.std::_Vector_base<unsigned char, std::allocator<unsigned char> >::_Vector_impl_data", %"struct.std::_Vector_base<unsigned char, std::allocator<unsigned char> >::_Vector_impl_data"* %this1, i32 0, i32 2, !dbg !4418
  store i8* null, i8** %_M_end_of_storage, align 8, !dbg !4418
  ret void, !dbg !4419
}

; Function Attrs: noinline nounwind uwtable
define linkonce_odr dso_local void @_ZN9__gnu_cxx13new_allocatorIhEC2Ev(%"class.__gnu_cxx::new_allocator"* %this) unnamed_addr #3 comdat align 2 !dbg !4420 {
entry:
  %this.addr = alloca %"class.__gnu_cxx::new_allocator"*, align 8
  store %"class.__gnu_cxx::new_allocator"* %this, %"class.__gnu_cxx::new_allocator"** %this.addr, align 8
  call void @llvm.dbg.declare(metadata %"class.__gnu_cxx::new_allocator"** %this.addr, metadata !4421, metadata !DIExpression()), !dbg !4423
  %this1 = load %"class.__gnu_cxx::new_allocator"*, %"class.__gnu_cxx::new_allocator"** %this.addr, align 8
  ret void, !dbg !4424
}

; Function Attrs: noinline nounwind uwtable
define linkonce_odr dso_local void @_ZNSt6vectorIiSaIiEEC2Ev(%"class.std::vector.8"* %this) unnamed_addr #3 comdat align 2 !dbg !4425 {
entry:
  %this.addr = alloca %"class.std::vector.8"*, align 8
  store %"class.std::vector.8"* %this, %"class.std::vector.8"** %this.addr, align 8
  call void @llvm.dbg.declare(metadata %"class.std::vector.8"** %this.addr, metadata !4426, metadata !DIExpression()), !dbg !4428
  %this1 = load %"class.std::vector.8"*, %"class.std::vector.8"** %this.addr, align 8
  %0 = bitcast %"class.std::vector.8"* %this1 to %"struct.std::_Vector_base.9"*, !dbg !4429
  call void @_ZNSt12_Vector_baseIiSaIiEEC2Ev(%"struct.std::_Vector_base.9"* %0) #14, !dbg !4430
  ret void, !dbg !4429
}

; Function Attrs: noinline nounwind uwtable
define linkonce_odr dso_local void @_ZNSt12_Vector_baseIiSaIiEEC2Ev(%"struct.std::_Vector_base.9"* %this) unnamed_addr #3 comdat align 2 !dbg !4431 {
entry:
  %this.addr = alloca %"struct.std::_Vector_base.9"*, align 8
  store %"struct.std::_Vector_base.9"* %this, %"struct.std::_Vector_base.9"** %this.addr, align 8
  call void @llvm.dbg.declare(metadata %"struct.std::_Vector_base.9"** %this.addr, metadata !4432, metadata !DIExpression()), !dbg !4434
  %this1 = load %"struct.std::_Vector_base.9"*, %"struct.std::_Vector_base.9"** %this.addr, align 8
  %_M_impl = getelementptr inbounds %"struct.std::_Vector_base.9", %"struct.std::_Vector_base.9"* %this1, i32 0, i32 0, !dbg !4435
  call void @_ZNSt12_Vector_baseIiSaIiEE12_Vector_implC2Ev(%"struct.std::_Vector_base<int, std::allocator<int> >::_Vector_impl"* %_M_impl) #14, !dbg !4435
  ret void, !dbg !4436
}

; Function Attrs: noinline nounwind uwtable
define linkonce_odr dso_local void @_ZNSt12_Vector_baseIiSaIiEE12_Vector_implC2Ev(%"struct.std::_Vector_base<int, std::allocator<int> >::_Vector_impl"* %this) unnamed_addr #3 comdat align 2 !dbg !4437 {
entry:
  %this.addr = alloca %"struct.std::_Vector_base<int, std::allocator<int> >::_Vector_impl"*, align 8
  store %"struct.std::_Vector_base<int, std::allocator<int> >::_Vector_impl"* %this, %"struct.std::_Vector_base<int, std::allocator<int> >::_Vector_impl"** %this.addr, align 8
  call void @llvm.dbg.declare(metadata %"struct.std::_Vector_base<int, std::allocator<int> >::_Vector_impl"** %this.addr, metadata !4438, metadata !DIExpression()), !dbg !4440
  %this1 = load %"struct.std::_Vector_base<int, std::allocator<int> >::_Vector_impl"*, %"struct.std::_Vector_base<int, std::allocator<int> >::_Vector_impl"** %this.addr, align 8
  %0 = bitcast %"struct.std::_Vector_base<int, std::allocator<int> >::_Vector_impl"* %this1 to %"class.std::allocator.10"*, !dbg !4441
  call void @_ZNSaIiEC2Ev(%"class.std::allocator.10"* %0) #14, !dbg !4442
  %1 = bitcast %"struct.std::_Vector_base<int, std::allocator<int> >::_Vector_impl"* %this1 to %"struct.std::_Vector_base<int, std::allocator<int> >::_Vector_impl_data"*, !dbg !4441
  call void @_ZNSt12_Vector_baseIiSaIiEE17_Vector_impl_dataC2Ev(%"struct.std::_Vector_base<int, std::allocator<int> >::_Vector_impl_data"* %1) #14, !dbg !4443
  ret void, !dbg !4444
}

; Function Attrs: noinline nounwind uwtable
define linkonce_odr dso_local void @_ZNSaIiEC2Ev(%"class.std::allocator.10"* %this) unnamed_addr #3 comdat align 2 !dbg !4445 {
entry:
  %this.addr = alloca %"class.std::allocator.10"*, align 8
  store %"class.std::allocator.10"* %this, %"class.std::allocator.10"** %this.addr, align 8
  call void @llvm.dbg.declare(metadata %"class.std::allocator.10"** %this.addr, metadata !4446, metadata !DIExpression()), !dbg !4448
  %this1 = load %"class.std::allocator.10"*, %"class.std::allocator.10"** %this.addr, align 8
  %0 = bitcast %"class.std::allocator.10"* %this1 to %"class.__gnu_cxx::new_allocator.11"*, !dbg !4449
  call void @_ZN9__gnu_cxx13new_allocatorIiEC2Ev(%"class.__gnu_cxx::new_allocator.11"* %0) #14, !dbg !4450
  ret void, !dbg !4451
}

; Function Attrs: noinline nounwind uwtable
define linkonce_odr dso_local void @_ZNSt12_Vector_baseIiSaIiEE17_Vector_impl_dataC2Ev(%"struct.std::_Vector_base<int, std::allocator<int> >::_Vector_impl_data"* %this) unnamed_addr #3 comdat align 2 !dbg !4452 {
entry:
  %this.addr = alloca %"struct.std::_Vector_base<int, std::allocator<int> >::_Vector_impl_data"*, align 8
  store %"struct.std::_Vector_base<int, std::allocator<int> >::_Vector_impl_data"* %this, %"struct.std::_Vector_base<int, std::allocator<int> >::_Vector_impl_data"** %this.addr, align 8
  call void @llvm.dbg.declare(metadata %"struct.std::_Vector_base<int, std::allocator<int> >::_Vector_impl_data"** %this.addr, metadata !4453, metadata !DIExpression()), !dbg !4455
  %this1 = load %"struct.std::_Vector_base<int, std::allocator<int> >::_Vector_impl_data"*, %"struct.std::_Vector_base<int, std::allocator<int> >::_Vector_impl_data"** %this.addr, align 8
  %_M_start = getelementptr inbounds %"struct.std::_Vector_base<int, std::allocator<int> >::_Vector_impl_data", %"struct.std::_Vector_base<int, std::allocator<int> >::_Vector_impl_data"* %this1, i32 0, i32 0, !dbg !4456
  store i32* null, i32** %_M_start, align 8, !dbg !4456
  %_M_finish = getelementptr inbounds %"struct.std::_Vector_base<int, std::allocator<int> >::_Vector_impl_data", %"struct.std::_Vector_base<int, std::allocator<int> >::_Vector_impl_data"* %this1, i32 0, i32 1, !dbg !4457
  store i32* null, i32** %_M_finish, align 8, !dbg !4457
  %_M_end_of_storage = getelementptr inbounds %"struct.std::_Vector_base<int, std::allocator<int> >::_Vector_impl_data", %"struct.std::_Vector_base<int, std::allocator<int> >::_Vector_impl_data"* %this1, i32 0, i32 2, !dbg !4458
  store i32* null, i32** %_M_end_of_storage, align 8, !dbg !4458
  ret void, !dbg !4459
}

; Function Attrs: noinline nounwind uwtable
define linkonce_odr dso_local void @_ZN9__gnu_cxx13new_allocatorIiEC2Ev(%"class.__gnu_cxx::new_allocator.11"* %this) unnamed_addr #3 comdat align 2 !dbg !4460 {
entry:
  %this.addr = alloca %"class.__gnu_cxx::new_allocator.11"*, align 8
  store %"class.__gnu_cxx::new_allocator.11"* %this, %"class.__gnu_cxx::new_allocator.11"** %this.addr, align 8
  call void @llvm.dbg.declare(metadata %"class.__gnu_cxx::new_allocator.11"** %this.addr, metadata !4461, metadata !DIExpression()), !dbg !4463
  %this1 = load %"class.__gnu_cxx::new_allocator.11"*, %"class.__gnu_cxx::new_allocator.11"** %this.addr, align 8
  ret void, !dbg !4464
}

; Function Attrs: noinline nounwind uwtable
define linkonce_odr dso_local void @_ZNSt8_Rb_treeIiSt4pairIKifESt10_Select1stIS2_ESt4lessIiESaIS2_EEC2Ev(%"class.std::_Rb_tree"* %this) unnamed_addr #3 comdat align 2 !dbg !4465 {
entry:
  %this.addr = alloca %"class.std::_Rb_tree"*, align 8
  store %"class.std::_Rb_tree"* %this, %"class.std::_Rb_tree"** %this.addr, align 8
  call void @llvm.dbg.declare(metadata %"class.std::_Rb_tree"** %this.addr, metadata !4466, metadata !DIExpression()), !dbg !4468
  %this1 = load %"class.std::_Rb_tree"*, %"class.std::_Rb_tree"** %this.addr, align 8
  %_M_impl = getelementptr inbounds %"class.std::_Rb_tree", %"class.std::_Rb_tree"* %this1, i32 0, i32 0, !dbg !4469
  call void @_ZNSt8_Rb_treeIiSt4pairIKifESt10_Select1stIS2_ESt4lessIiESaIS2_EE13_Rb_tree_implIS6_Lb1EEC2Ev(%"struct.std::_Rb_tree<int, std::pair<const int, float>, std::_Select1st<std::pair<const int, float> >, std::less<int>, std::allocator<std::pair<const int, float> > >::_Rb_tree_impl"* %_M_impl) #14, !dbg !4469
  ret void, !dbg !4470
}

; Function Attrs: noinline nounwind uwtable
define linkonce_odr dso_local void @_ZNSt8_Rb_treeIiSt4pairIKifESt10_Select1stIS2_ESt4lessIiESaIS2_EE13_Rb_tree_implIS6_Lb1EEC2Ev(%"struct.std::_Rb_tree<int, std::pair<const int, float>, std::_Select1st<std::pair<const int, float> >, std::less<int>, std::allocator<std::pair<const int, float> > >::_Rb_tree_impl"* %this) unnamed_addr #3 comdat align 2 !dbg !4471 {
entry:
  %this.addr = alloca %"struct.std::_Rb_tree<int, std::pair<const int, float>, std::_Select1st<std::pair<const int, float> >, std::less<int>, std::allocator<std::pair<const int, float> > >::_Rb_tree_impl"*, align 8
  store %"struct.std::_Rb_tree<int, std::pair<const int, float>, std::_Select1st<std::pair<const int, float> >, std::less<int>, std::allocator<std::pair<const int, float> > >::_Rb_tree_impl"* %this, %"struct.std::_Rb_tree<int, std::pair<const int, float>, std::_Select1st<std::pair<const int, float> >, std::less<int>, std::allocator<std::pair<const int, float> > >::_Rb_tree_impl"** %this.addr, align 8
  call void @llvm.dbg.declare(metadata %"struct.std::_Rb_tree<int, std::pair<const int, float>, std::_Select1st<std::pair<const int, float> >, std::less<int>, std::allocator<std::pair<const int, float> > >::_Rb_tree_impl"** %this.addr, metadata !4472, metadata !DIExpression()), !dbg !4474
  %this1 = load %"struct.std::_Rb_tree<int, std::pair<const int, float>, std::_Select1st<std::pair<const int, float> >, std::less<int>, std::allocator<std::pair<const int, float> > >::_Rb_tree_impl"*, %"struct.std::_Rb_tree<int, std::pair<const int, float>, std::_Select1st<std::pair<const int, float> >, std::less<int>, std::allocator<std::pair<const int, float> > >::_Rb_tree_impl"** %this.addr, align 8
  %0 = bitcast %"struct.std::_Rb_tree<int, std::pair<const int, float>, std::_Select1st<std::pair<const int, float> >, std::less<int>, std::allocator<std::pair<const int, float> > >::_Rb_tree_impl"* %this1 to %"class.std::allocator.13"*, !dbg !4475
  call void @_ZNSaISt13_Rb_tree_nodeISt4pairIKifEEEC2Ev(%"class.std::allocator.13"* %0) #14, !dbg !4476
  %1 = bitcast %"struct.std::_Rb_tree<int, std::pair<const int, float>, std::_Select1st<std::pair<const int, float> >, std::less<int>, std::allocator<std::pair<const int, float> > >::_Rb_tree_impl"* %this1 to %"struct.std::_Rb_tree_key_compare"*, !dbg !4475
  call void @_ZNSt20_Rb_tree_key_compareISt4lessIiEEC2Ev(%"struct.std::_Rb_tree_key_compare"* %1) #14, !dbg !4477
  %2 = bitcast %"struct.std::_Rb_tree<int, std::pair<const int, float>, std::_Select1st<std::pair<const int, float> >, std::less<int>, std::allocator<std::pair<const int, float> > >::_Rb_tree_impl"* %this1 to i8*, !dbg !4475
  %3 = getelementptr inbounds i8, i8* %2, i64 8, !dbg !4475
  %4 = bitcast i8* %3 to %"struct.std::_Rb_tree_header"*, !dbg !4475
  call void @_ZNSt15_Rb_tree_headerC2Ev(%"struct.std::_Rb_tree_header"* %4) #14, !dbg !4477
  ret void, !dbg !4478
}

; Function Attrs: noinline nounwind uwtable
define linkonce_odr dso_local void @_ZNSaISt13_Rb_tree_nodeISt4pairIKifEEEC2Ev(%"class.std::allocator.13"* %this) unnamed_addr #3 comdat align 2 !dbg !4479 {
entry:
  %this.addr = alloca %"class.std::allocator.13"*, align 8
  store %"class.std::allocator.13"* %this, %"class.std::allocator.13"** %this.addr, align 8
  call void @llvm.dbg.declare(metadata %"class.std::allocator.13"** %this.addr, metadata !4480, metadata !DIExpression()), !dbg !4482
  %this1 = load %"class.std::allocator.13"*, %"class.std::allocator.13"** %this.addr, align 8
  %0 = bitcast %"class.std::allocator.13"* %this1 to %"class.__gnu_cxx::new_allocator.14"*, !dbg !4483
  call void @_ZN9__gnu_cxx13new_allocatorISt13_Rb_tree_nodeISt4pairIKifEEEC2Ev(%"class.__gnu_cxx::new_allocator.14"* %0) #14, !dbg !4484
  ret void, !dbg !4485
}

; Function Attrs: noinline nounwind uwtable
define linkonce_odr dso_local void @_ZNSt20_Rb_tree_key_compareISt4lessIiEEC2Ev(%"struct.std::_Rb_tree_key_compare"* %this) unnamed_addr #3 comdat align 2 !dbg !4486 {
entry:
  %this.addr = alloca %"struct.std::_Rb_tree_key_compare"*, align 8
  store %"struct.std::_Rb_tree_key_compare"* %this, %"struct.std::_Rb_tree_key_compare"** %this.addr, align 8
  call void @llvm.dbg.declare(metadata %"struct.std::_Rb_tree_key_compare"** %this.addr, metadata !4487, metadata !DIExpression()), !dbg !4489
  %this1 = load %"struct.std::_Rb_tree_key_compare"*, %"struct.std::_Rb_tree_key_compare"** %this.addr, align 8
  %_M_key_compare = getelementptr inbounds %"struct.std::_Rb_tree_key_compare", %"struct.std::_Rb_tree_key_compare"* %this1, i32 0, i32 0, !dbg !4490
  ret void, !dbg !4491
}

; Function Attrs: noinline nounwind uwtable
define linkonce_odr dso_local void @_ZNSt15_Rb_tree_headerC2Ev(%"struct.std::_Rb_tree_header"* %this) unnamed_addr #3 comdat align 2 personality i8* bitcast (i32 (...)* @__gxx_personality_v0 to i8*) !dbg !4492 {
entry:
  %this.addr = alloca %"struct.std::_Rb_tree_header"*, align 8
  store %"struct.std::_Rb_tree_header"* %this, %"struct.std::_Rb_tree_header"** %this.addr, align 8
  call void @llvm.dbg.declare(metadata %"struct.std::_Rb_tree_header"** %this.addr, metadata !4493, metadata !DIExpression()), !dbg !4495
  %this1 = load %"struct.std::_Rb_tree_header"*, %"struct.std::_Rb_tree_header"** %this.addr, align 8
  %_M_header = getelementptr inbounds %"struct.std::_Rb_tree_header", %"struct.std::_Rb_tree_header"* %this1, i32 0, i32 0, !dbg !4496
  %_M_header2 = getelementptr inbounds %"struct.std::_Rb_tree_header", %"struct.std::_Rb_tree_header"* %this1, i32 0, i32 0, !dbg !4497
  %_M_color = getelementptr inbounds %"struct.std::_Rb_tree_node_base", %"struct.std::_Rb_tree_node_base"* %_M_header2, i32 0, i32 0, !dbg !4499
  store i32 0, i32* %_M_color, align 8, !dbg !4500
  invoke void @_ZNSt15_Rb_tree_header8_M_resetEv(%"struct.std::_Rb_tree_header"* %this1)
          to label %invoke.cont unwind label %terminate.lpad, !dbg !4501

invoke.cont:                                      ; preds = %entry
  ret void, !dbg !4502

terminate.lpad:                                   ; preds = %entry
  %0 = landingpad { i8*, i32 }
          catch i8* null, !dbg !4501
  %1 = extractvalue { i8*, i32 } %0, 0, !dbg !4501
  call void @__clang_call_terminate(i8* %1) #15, !dbg !4501
  unreachable, !dbg !4501
}

; Function Attrs: noinline nounwind uwtable
define linkonce_odr dso_local void @_ZN9__gnu_cxx13new_allocatorISt13_Rb_tree_nodeISt4pairIKifEEEC2Ev(%"class.__gnu_cxx::new_allocator.14"* %this) unnamed_addr #3 comdat align 2 !dbg !4503 {
entry:
  %this.addr = alloca %"class.__gnu_cxx::new_allocator.14"*, align 8
  store %"class.__gnu_cxx::new_allocator.14"* %this, %"class.__gnu_cxx::new_allocator.14"** %this.addr, align 8
  call void @llvm.dbg.declare(metadata %"class.__gnu_cxx::new_allocator.14"** %this.addr, metadata !4504, metadata !DIExpression()), !dbg !4506
  %this1 = load %"class.__gnu_cxx::new_allocator.14"*, %"class.__gnu_cxx::new_allocator.14"** %this.addr, align 8
  ret void, !dbg !4507
}

; Function Attrs: noinline nounwind uwtable
define linkonce_odr dso_local void @_ZNSt15_Rb_tree_header8_M_resetEv(%"struct.std::_Rb_tree_header"* %this) #3 comdat align 2 !dbg !4508 {
entry:
  %this.addr = alloca %"struct.std::_Rb_tree_header"*, align 8
  store %"struct.std::_Rb_tree_header"* %this, %"struct.std::_Rb_tree_header"** %this.addr, align 8
  call void @llvm.dbg.declare(metadata %"struct.std::_Rb_tree_header"** %this.addr, metadata !4509, metadata !DIExpression()), !dbg !4510
  %this1 = load %"struct.std::_Rb_tree_header"*, %"struct.std::_Rb_tree_header"** %this.addr, align 8
  %_M_header = getelementptr inbounds %"struct.std::_Rb_tree_header", %"struct.std::_Rb_tree_header"* %this1, i32 0, i32 0, !dbg !4511
  %_M_parent = getelementptr inbounds %"struct.std::_Rb_tree_node_base", %"struct.std::_Rb_tree_node_base"* %_M_header, i32 0, i32 1, !dbg !4512
  store %"struct.std::_Rb_tree_node_base"* null, %"struct.std::_Rb_tree_node_base"** %_M_parent, align 8, !dbg !4513
  %_M_header2 = getelementptr inbounds %"struct.std::_Rb_tree_header", %"struct.std::_Rb_tree_header"* %this1, i32 0, i32 0, !dbg !4514
  %_M_header3 = getelementptr inbounds %"struct.std::_Rb_tree_header", %"struct.std::_Rb_tree_header"* %this1, i32 0, i32 0, !dbg !4515
  %_M_left = getelementptr inbounds %"struct.std::_Rb_tree_node_base", %"struct.std::_Rb_tree_node_base"* %_M_header3, i32 0, i32 2, !dbg !4516
  store %"struct.std::_Rb_tree_node_base"* %_M_header2, %"struct.std::_Rb_tree_node_base"** %_M_left, align 8, !dbg !4517
  %_M_header4 = getelementptr inbounds %"struct.std::_Rb_tree_header", %"struct.std::_Rb_tree_header"* %this1, i32 0, i32 0, !dbg !4518
  %_M_header5 = getelementptr inbounds %"struct.std::_Rb_tree_header", %"struct.std::_Rb_tree_header"* %this1, i32 0, i32 0, !dbg !4519
  %_M_right = getelementptr inbounds %"struct.std::_Rb_tree_node_base", %"struct.std::_Rb_tree_node_base"* %_M_header5, i32 0, i32 3, !dbg !4520
  store %"struct.std::_Rb_tree_node_base"* %_M_header4, %"struct.std::_Rb_tree_node_base"** %_M_right, align 8, !dbg !4521
  %_M_node_count = getelementptr inbounds %"struct.std::_Rb_tree_header", %"struct.std::_Rb_tree_header"* %this1, i32 0, i32 1, !dbg !4522
  store i64 0, i64* %_M_node_count, align 8, !dbg !4523
  ret void, !dbg !4524
}

; Function Attrs: noinline noreturn nounwind
define linkonce_odr hidden void @__clang_call_terminate(i8* %0) #7 comdat {
  %2 = call i8* @__cxa_begin_catch(i8* %0) #14
  call void @_ZSt9terminatev() #15
  unreachable
}

declare dso_local i8* @__cxa_begin_catch(i8*)

declare dso_local void @_ZSt9terminatev()

; Function Attrs: noinline nounwind uwtable
define linkonce_odr dso_local dereferenceable(4) i32* @_ZSt7forwardIRiEOT_RNSt16remove_referenceIS1_E4typeE(i32* dereferenceable(4) %__t) #3 comdat !dbg !4525 {
entry:
  %__t.addr = alloca i32*, align 8
  store i32* %__t, i32** %__t.addr, align 8
  call void @llvm.dbg.declare(metadata i32** %__t.addr, metadata !4534, metadata !DIExpression()), !dbg !4535
  %0 = load i32*, i32** %__t.addr, align 8, !dbg !4536
  ret i32* %0, !dbg !4537
}

; Function Attrs: noinline nounwind uwtable
define linkonce_odr dso_local dereferenceable(4) float* @_ZSt7forwardIRfEOT_RNSt16remove_referenceIS1_E4typeE(float* dereferenceable(4) %__t) #3 comdat !dbg !4538 {
entry:
  %__t.addr = alloca float*, align 8
  store float* %__t, float** %__t.addr, align 8
  call void @llvm.dbg.declare(metadata float** %__t.addr, metadata !4546, metadata !DIExpression()), !dbg !4547
  %0 = load float*, float** %__t.addr, align 8, !dbg !4548
  ret float* %0, !dbg !4549
}

; Function Attrs: noinline nounwind uwtable
define linkonce_odr dso_local void @_ZNSt4pairIifEC2IRiRfLb1EEEOT_OT0_(%"struct.std::pair"* %this, i32* dereferenceable(4) %__x, float* dereferenceable(4) %__y) unnamed_addr #3 comdat align 2 !dbg !4550 {
entry:
  %this.addr = alloca %"struct.std::pair"*, align 8
  %__x.addr = alloca i32*, align 8
  %__y.addr = alloca float*, align 8
  store %"struct.std::pair"* %this, %"struct.std::pair"** %this.addr, align 8
  call void @llvm.dbg.declare(metadata %"struct.std::pair"** %this.addr, metadata !4557, metadata !DIExpression()), !dbg !4559
  store i32* %__x, i32** %__x.addr, align 8
  call void @llvm.dbg.declare(metadata i32** %__x.addr, metadata !4560, metadata !DIExpression()), !dbg !4561
  store float* %__y, float** %__y.addr, align 8
  call void @llvm.dbg.declare(metadata float** %__y.addr, metadata !4562, metadata !DIExpression()), !dbg !4563
  %this1 = load %"struct.std::pair"*, %"struct.std::pair"** %this.addr, align 8
  %0 = bitcast %"struct.std::pair"* %this1 to %"class.std::__pair_base"*, !dbg !4564
  %first = getelementptr inbounds %"struct.std::pair", %"struct.std::pair"* %this1, i32 0, i32 0, !dbg !4565
  %1 = load i32*, i32** %__x.addr, align 8, !dbg !4566
  %call = call dereferenceable(4) i32* @_ZSt7forwardIRiEOT_RNSt16remove_referenceIS1_E4typeE(i32* dereferenceable(4) %1) #14, !dbg !4567
  %2 = load i32, i32* %call, align 4, !dbg !4567
  store i32 %2, i32* %first, align 4, !dbg !4565
  %second = getelementptr inbounds %"struct.std::pair", %"struct.std::pair"* %this1, i32 0, i32 1, !dbg !4568
  %3 = load float*, float** %__y.addr, align 8, !dbg !4569
  %call2 = call dereferenceable(4) float* @_ZSt7forwardIRfEOT_RNSt16remove_referenceIS1_E4typeE(float* dereferenceable(4) %3) #14, !dbg !4570
  %4 = load float, float* %call2, align 4, !dbg !4570
  store float %4, float* %second, align 4, !dbg !4568
  ret void, !dbg !4571
}

; Function Attrs: noinline nounwind uwtable
define linkonce_odr dso_local void @_ZNSt8_Rb_treeIiSt4pairIKifESt10_Select1stIS2_ESt4lessIiESaIS2_EED2Ev(%"class.std::_Rb_tree"* %this) unnamed_addr #3 comdat align 2 personality i8* bitcast (i32 (...)* @__gxx_personality_v0 to i8*) !dbg !4572 {
entry:
  %this.addr = alloca %"class.std::_Rb_tree"*, align 8
  %exn.slot = alloca i8*
  %ehselector.slot = alloca i32
  store %"class.std::_Rb_tree"* %this, %"class.std::_Rb_tree"** %this.addr, align 8
  call void @llvm.dbg.declare(metadata %"class.std::_Rb_tree"** %this.addr, metadata !4573, metadata !DIExpression()), !dbg !4574
  %this1 = load %"class.std::_Rb_tree"*, %"class.std::_Rb_tree"** %this.addr, align 8
  %call = call %"struct.std::_Rb_tree_node"* @_ZNSt8_Rb_treeIiSt4pairIKifESt10_Select1stIS2_ESt4lessIiESaIS2_EE8_M_beginEv(%"class.std::_Rb_tree"* %this1) #14, !dbg !4575
  invoke void @_ZNSt8_Rb_treeIiSt4pairIKifESt10_Select1stIS2_ESt4lessIiESaIS2_EE8_M_eraseEPSt13_Rb_tree_nodeIS2_E(%"class.std::_Rb_tree"* %this1, %"struct.std::_Rb_tree_node"* %call)
          to label %invoke.cont unwind label %lpad, !dbg !4577

invoke.cont:                                      ; preds = %entry
  %_M_impl = getelementptr inbounds %"class.std::_Rb_tree", %"class.std::_Rb_tree"* %this1, i32 0, i32 0, !dbg !4578
  call void @_ZNSt8_Rb_treeIiSt4pairIKifESt10_Select1stIS2_ESt4lessIiESaIS2_EE13_Rb_tree_implIS6_Lb1EED2Ev(%"struct.std::_Rb_tree<int, std::pair<const int, float>, std::_Select1st<std::pair<const int, float> >, std::less<int>, std::allocator<std::pair<const int, float> > >::_Rb_tree_impl"* %_M_impl) #14, !dbg !4578
  ret void, !dbg !4579

lpad:                                             ; preds = %entry
  %0 = landingpad { i8*, i32 }
          catch i8* null, !dbg !4578
  %1 = extractvalue { i8*, i32 } %0, 0, !dbg !4578
  store i8* %1, i8** %exn.slot, align 8, !dbg !4578
  %2 = extractvalue { i8*, i32 } %0, 1, !dbg !4578
  store i32 %2, i32* %ehselector.slot, align 4, !dbg !4578
  %_M_impl2 = getelementptr inbounds %"class.std::_Rb_tree", %"class.std::_Rb_tree"* %this1, i32 0, i32 0, !dbg !4578
  call void @_ZNSt8_Rb_treeIiSt4pairIKifESt10_Select1stIS2_ESt4lessIiESaIS2_EE13_Rb_tree_implIS6_Lb1EED2Ev(%"struct.std::_Rb_tree<int, std::pair<const int, float>, std::_Select1st<std::pair<const int, float> >, std::less<int>, std::allocator<std::pair<const int, float> > >::_Rb_tree_impl"* %_M_impl2) #14, !dbg !4578
  br label %terminate.handler, !dbg !4578

terminate.handler:                                ; preds = %lpad
  %exn = load i8*, i8** %exn.slot, align 8, !dbg !4578
  call void @__clang_call_terminate(i8* %exn) #15, !dbg !4578
  unreachable, !dbg !4578
}

; Function Attrs: noinline uwtable
define linkonce_odr dso_local void @_ZNSt8_Rb_treeIiSt4pairIKifESt10_Select1stIS2_ESt4lessIiESaIS2_EE8_M_eraseEPSt13_Rb_tree_nodeIS2_E(%"class.std::_Rb_tree"* %this, %"struct.std::_Rb_tree_node"* %__x) #0 comdat align 2 !dbg !4580 {
entry:
  %this.addr = alloca %"class.std::_Rb_tree"*, align 8
  %__x.addr = alloca %"struct.std::_Rb_tree_node"*, align 8
  %__y = alloca %"struct.std::_Rb_tree_node"*, align 8
  store %"class.std::_Rb_tree"* %this, %"class.std::_Rb_tree"** %this.addr, align 8
  call void @llvm.dbg.declare(metadata %"class.std::_Rb_tree"** %this.addr, metadata !4581, metadata !DIExpression()), !dbg !4582
  store %"struct.std::_Rb_tree_node"* %__x, %"struct.std::_Rb_tree_node"** %__x.addr, align 8
  call void @llvm.dbg.declare(metadata %"struct.std::_Rb_tree_node"** %__x.addr, metadata !4583, metadata !DIExpression()), !dbg !4584
  %this1 = load %"class.std::_Rb_tree"*, %"class.std::_Rb_tree"** %this.addr, align 8
  br label %while.cond, !dbg !4585

while.cond:                                       ; preds = %while.body, %entry
  %0 = load %"struct.std::_Rb_tree_node"*, %"struct.std::_Rb_tree_node"** %__x.addr, align 8, !dbg !4586
  %cmp = icmp ne %"struct.std::_Rb_tree_node"* %0, null, !dbg !4587
  br i1 %cmp, label %while.body, label %while.end, !dbg !4585

while.body:                                       ; preds = %while.cond
  %1 = load %"struct.std::_Rb_tree_node"*, %"struct.std::_Rb_tree_node"** %__x.addr, align 8, !dbg !4588
  %2 = bitcast %"struct.std::_Rb_tree_node"* %1 to %"struct.std::_Rb_tree_node_base"*, !dbg !4588
  %call = call %"struct.std::_Rb_tree_node"* @_ZNSt8_Rb_treeIiSt4pairIKifESt10_Select1stIS2_ESt4lessIiESaIS2_EE8_S_rightEPSt18_Rb_tree_node_base(%"struct.std::_Rb_tree_node_base"* %2) #14, !dbg !4590
  call void @_ZNSt8_Rb_treeIiSt4pairIKifESt10_Select1stIS2_ESt4lessIiESaIS2_EE8_M_eraseEPSt13_Rb_tree_nodeIS2_E(%"class.std::_Rb_tree"* %this1, %"struct.std::_Rb_tree_node"* %call), !dbg !4591
  call void @llvm.dbg.declare(metadata %"struct.std::_Rb_tree_node"** %__y, metadata !4592, metadata !DIExpression()), !dbg !4593
  %3 = load %"struct.std::_Rb_tree_node"*, %"struct.std::_Rb_tree_node"** %__x.addr, align 8, !dbg !4594
  %4 = bitcast %"struct.std::_Rb_tree_node"* %3 to %"struct.std::_Rb_tree_node_base"*, !dbg !4594
  %call2 = call %"struct.std::_Rb_tree_node"* @_ZNSt8_Rb_treeIiSt4pairIKifESt10_Select1stIS2_ESt4lessIiESaIS2_EE7_S_leftEPSt18_Rb_tree_node_base(%"struct.std::_Rb_tree_node_base"* %4) #14, !dbg !4595
  store %"struct.std::_Rb_tree_node"* %call2, %"struct.std::_Rb_tree_node"** %__y, align 8, !dbg !4593
  %5 = load %"struct.std::_Rb_tree_node"*, %"struct.std::_Rb_tree_node"** %__x.addr, align 8, !dbg !4596
  call void @_ZNSt8_Rb_treeIiSt4pairIKifESt10_Select1stIS2_ESt4lessIiESaIS2_EE12_M_drop_nodeEPSt13_Rb_tree_nodeIS2_E(%"class.std::_Rb_tree"* %this1, %"struct.std::_Rb_tree_node"* %5) #14, !dbg !4597
  %6 = load %"struct.std::_Rb_tree_node"*, %"struct.std::_Rb_tree_node"** %__y, align 8, !dbg !4598
  store %"struct.std::_Rb_tree_node"* %6, %"struct.std::_Rb_tree_node"** %__x.addr, align 8, !dbg !4599
  br label %while.cond, !dbg !4585, !llvm.loop !4600

while.end:                                        ; preds = %while.cond
  ret void, !dbg !4602
}

; Function Attrs: noinline nounwind uwtable
define linkonce_odr dso_local %"struct.std::_Rb_tree_node"* @_ZNSt8_Rb_treeIiSt4pairIKifESt10_Select1stIS2_ESt4lessIiESaIS2_EE8_M_beginEv(%"class.std::_Rb_tree"* %this) #3 comdat align 2 !dbg !4603 {
entry:
  %this.addr = alloca %"class.std::_Rb_tree"*, align 8
  store %"class.std::_Rb_tree"* %this, %"class.std::_Rb_tree"** %this.addr, align 8
  call void @llvm.dbg.declare(metadata %"class.std::_Rb_tree"** %this.addr, metadata !4604, metadata !DIExpression()), !dbg !4605
  %this1 = load %"class.std::_Rb_tree"*, %"class.std::_Rb_tree"** %this.addr, align 8
  %_M_impl = getelementptr inbounds %"class.std::_Rb_tree", %"class.std::_Rb_tree"* %this1, i32 0, i32 0, !dbg !4606
  %0 = bitcast %"struct.std::_Rb_tree<int, std::pair<const int, float>, std::_Select1st<std::pair<const int, float> >, std::less<int>, std::allocator<std::pair<const int, float> > >::_Rb_tree_impl"* %_M_impl to i8*, !dbg !4607
  %add.ptr = getelementptr inbounds i8, i8* %0, i64 8, !dbg !4607
  %1 = bitcast i8* %add.ptr to %"struct.std::_Rb_tree_header"*, !dbg !4607
  %_M_header = getelementptr inbounds %"struct.std::_Rb_tree_header", %"struct.std::_Rb_tree_header"* %1, i32 0, i32 0, !dbg !4608
  %_M_parent = getelementptr inbounds %"struct.std::_Rb_tree_node_base", %"struct.std::_Rb_tree_node_base"* %_M_header, i32 0, i32 1, !dbg !4609
  %2 = load %"struct.std::_Rb_tree_node_base"*, %"struct.std::_Rb_tree_node_base"** %_M_parent, align 8, !dbg !4609
  %3 = bitcast %"struct.std::_Rb_tree_node_base"* %2 to %"struct.std::_Rb_tree_node"*, !dbg !4610
  ret %"struct.std::_Rb_tree_node"* %3, !dbg !4611
}

; Function Attrs: noinline nounwind uwtable
define linkonce_odr dso_local void @_ZNSt8_Rb_treeIiSt4pairIKifESt10_Select1stIS2_ESt4lessIiESaIS2_EE13_Rb_tree_implIS6_Lb1EED2Ev(%"struct.std::_Rb_tree<int, std::pair<const int, float>, std::_Select1st<std::pair<const int, float> >, std::less<int>, std::allocator<std::pair<const int, float> > >::_Rb_tree_impl"* %this) unnamed_addr #3 comdat align 2 !dbg !4612 {
entry:
  %this.addr = alloca %"struct.std::_Rb_tree<int, std::pair<const int, float>, std::_Select1st<std::pair<const int, float> >, std::less<int>, std::allocator<std::pair<const int, float> > >::_Rb_tree_impl"*, align 8
  store %"struct.std::_Rb_tree<int, std::pair<const int, float>, std::_Select1st<std::pair<const int, float> >, std::less<int>, std::allocator<std::pair<const int, float> > >::_Rb_tree_impl"* %this, %"struct.std::_Rb_tree<int, std::pair<const int, float>, std::_Select1st<std::pair<const int, float> >, std::less<int>, std::allocator<std::pair<const int, float> > >::_Rb_tree_impl"** %this.addr, align 8
  call void @llvm.dbg.declare(metadata %"struct.std::_Rb_tree<int, std::pair<const int, float>, std::_Select1st<std::pair<const int, float> >, std::less<int>, std::allocator<std::pair<const int, float> > >::_Rb_tree_impl"** %this.addr, metadata !4614, metadata !DIExpression()), !dbg !4615
  %this1 = load %"struct.std::_Rb_tree<int, std::pair<const int, float>, std::_Select1st<std::pair<const int, float> >, std::less<int>, std::allocator<std::pair<const int, float> > >::_Rb_tree_impl"*, %"struct.std::_Rb_tree<int, std::pair<const int, float>, std::_Select1st<std::pair<const int, float> >, std::less<int>, std::allocator<std::pair<const int, float> > >::_Rb_tree_impl"** %this.addr, align 8
  %0 = bitcast %"struct.std::_Rb_tree<int, std::pair<const int, float>, std::_Select1st<std::pair<const int, float> >, std::less<int>, std::allocator<std::pair<const int, float> > >::_Rb_tree_impl"* %this1 to %"class.std::allocator.13"*, !dbg !4616
  call void @_ZNSaISt13_Rb_tree_nodeISt4pairIKifEEED2Ev(%"class.std::allocator.13"* %0) #14, !dbg !4616
  ret void, !dbg !4618
}

; Function Attrs: noinline nounwind uwtable
define linkonce_odr dso_local %"struct.std::_Rb_tree_node"* @_ZNSt8_Rb_treeIiSt4pairIKifESt10_Select1stIS2_ESt4lessIiESaIS2_EE8_S_rightEPSt18_Rb_tree_node_base(%"struct.std::_Rb_tree_node_base"* %__x) #3 comdat align 2 !dbg !4619 {
entry:
  %__x.addr = alloca %"struct.std::_Rb_tree_node_base"*, align 8
  store %"struct.std::_Rb_tree_node_base"* %__x, %"struct.std::_Rb_tree_node_base"** %__x.addr, align 8
  call void @llvm.dbg.declare(metadata %"struct.std::_Rb_tree_node_base"** %__x.addr, metadata !4620, metadata !DIExpression()), !dbg !4621
  %0 = load %"struct.std::_Rb_tree_node_base"*, %"struct.std::_Rb_tree_node_base"** %__x.addr, align 8, !dbg !4622
  %_M_right = getelementptr inbounds %"struct.std::_Rb_tree_node_base", %"struct.std::_Rb_tree_node_base"* %0, i32 0, i32 3, !dbg !4623
  %1 = load %"struct.std::_Rb_tree_node_base"*, %"struct.std::_Rb_tree_node_base"** %_M_right, align 8, !dbg !4623
  %2 = bitcast %"struct.std::_Rb_tree_node_base"* %1 to %"struct.std::_Rb_tree_node"*, !dbg !4624
  ret %"struct.std::_Rb_tree_node"* %2, !dbg !4625
}

; Function Attrs: noinline nounwind uwtable
define linkonce_odr dso_local %"struct.std::_Rb_tree_node"* @_ZNSt8_Rb_treeIiSt4pairIKifESt10_Select1stIS2_ESt4lessIiESaIS2_EE7_S_leftEPSt18_Rb_tree_node_base(%"struct.std::_Rb_tree_node_base"* %__x) #3 comdat align 2 !dbg !4626 {
entry:
  %__x.addr = alloca %"struct.std::_Rb_tree_node_base"*, align 8
  store %"struct.std::_Rb_tree_node_base"* %__x, %"struct.std::_Rb_tree_node_base"** %__x.addr, align 8
  call void @llvm.dbg.declare(metadata %"struct.std::_Rb_tree_node_base"** %__x.addr, metadata !4627, metadata !DIExpression()), !dbg !4628
  %0 = load %"struct.std::_Rb_tree_node_base"*, %"struct.std::_Rb_tree_node_base"** %__x.addr, align 8, !dbg !4629
  %_M_left = getelementptr inbounds %"struct.std::_Rb_tree_node_base", %"struct.std::_Rb_tree_node_base"* %0, i32 0, i32 2, !dbg !4630
  %1 = load %"struct.std::_Rb_tree_node_base"*, %"struct.std::_Rb_tree_node_base"** %_M_left, align 8, !dbg !4630
  %2 = bitcast %"struct.std::_Rb_tree_node_base"* %1 to %"struct.std::_Rb_tree_node"*, !dbg !4631
  ret %"struct.std::_Rb_tree_node"* %2, !dbg !4632
}

; Function Attrs: noinline nounwind uwtable
define linkonce_odr dso_local void @_ZNSt8_Rb_treeIiSt4pairIKifESt10_Select1stIS2_ESt4lessIiESaIS2_EE12_M_drop_nodeEPSt13_Rb_tree_nodeIS2_E(%"class.std::_Rb_tree"* %this, %"struct.std::_Rb_tree_node"* %__p) #3 comdat align 2 !dbg !4633 {
entry:
  %this.addr = alloca %"class.std::_Rb_tree"*, align 8
  %__p.addr = alloca %"struct.std::_Rb_tree_node"*, align 8
  store %"class.std::_Rb_tree"* %this, %"class.std::_Rb_tree"** %this.addr, align 8
  call void @llvm.dbg.declare(metadata %"class.std::_Rb_tree"** %this.addr, metadata !4634, metadata !DIExpression()), !dbg !4635
  store %"struct.std::_Rb_tree_node"* %__p, %"struct.std::_Rb_tree_node"** %__p.addr, align 8
  call void @llvm.dbg.declare(metadata %"struct.std::_Rb_tree_node"** %__p.addr, metadata !4636, metadata !DIExpression()), !dbg !4637
  %this1 = load %"class.std::_Rb_tree"*, %"class.std::_Rb_tree"** %this.addr, align 8
  %0 = load %"struct.std::_Rb_tree_node"*, %"struct.std::_Rb_tree_node"** %__p.addr, align 8, !dbg !4638
  call void @_ZNSt8_Rb_treeIiSt4pairIKifESt10_Select1stIS2_ESt4lessIiESaIS2_EE15_M_destroy_nodeEPSt13_Rb_tree_nodeIS2_E(%"class.std::_Rb_tree"* %this1, %"struct.std::_Rb_tree_node"* %0) #14, !dbg !4639
  %1 = load %"struct.std::_Rb_tree_node"*, %"struct.std::_Rb_tree_node"** %__p.addr, align 8, !dbg !4640
  call void @_ZNSt8_Rb_treeIiSt4pairIKifESt10_Select1stIS2_ESt4lessIiESaIS2_EE11_M_put_nodeEPSt13_Rb_tree_nodeIS2_E(%"class.std::_Rb_tree"* %this1, %"struct.std::_Rb_tree_node"* %1) #14, !dbg !4641
  ret void, !dbg !4642
}

; Function Attrs: noinline nounwind uwtable
define linkonce_odr dso_local void @_ZNSt8_Rb_treeIiSt4pairIKifESt10_Select1stIS2_ESt4lessIiESaIS2_EE15_M_destroy_nodeEPSt13_Rb_tree_nodeIS2_E(%"class.std::_Rb_tree"* %this, %"struct.std::_Rb_tree_node"* %__p) #3 comdat align 2 personality i8* bitcast (i32 (...)* @__gxx_personality_v0 to i8*) !dbg !4643 {
entry:
  %this.addr = alloca %"class.std::_Rb_tree"*, align 8
  %__p.addr = alloca %"struct.std::_Rb_tree_node"*, align 8
  store %"class.std::_Rb_tree"* %this, %"class.std::_Rb_tree"** %this.addr, align 8
  call void @llvm.dbg.declare(metadata %"class.std::_Rb_tree"** %this.addr, metadata !4644, metadata !DIExpression()), !dbg !4645
  store %"struct.std::_Rb_tree_node"* %__p, %"struct.std::_Rb_tree_node"** %__p.addr, align 8
  call void @llvm.dbg.declare(metadata %"struct.std::_Rb_tree_node"** %__p.addr, metadata !4646, metadata !DIExpression()), !dbg !4647
  %this1 = load %"class.std::_Rb_tree"*, %"class.std::_Rb_tree"** %this.addr, align 8
  %call = call dereferenceable(1) %"class.std::allocator.13"* @_ZNSt8_Rb_treeIiSt4pairIKifESt10_Select1stIS2_ESt4lessIiESaIS2_EE21_M_get_Node_allocatorEv(%"class.std::_Rb_tree"* %this1) #14, !dbg !4648
  %0 = load %"struct.std::_Rb_tree_node"*, %"struct.std::_Rb_tree_node"** %__p.addr, align 8, !dbg !4649
  %call2 = invoke %"struct.std::pair.19"* @_ZNSt13_Rb_tree_nodeISt4pairIKifEE9_M_valptrEv(%"struct.std::_Rb_tree_node"* %0)
          to label %invoke.cont unwind label %terminate.lpad, !dbg !4650

invoke.cont:                                      ; preds = %entry
  call void @_ZNSt16allocator_traitsISaISt13_Rb_tree_nodeISt4pairIKifEEEE7destroyIS3_EEvRS5_PT_(%"class.std::allocator.13"* dereferenceable(1) %call, %"struct.std::pair.19"* %call2) #14, !dbg !4651
  %1 = load %"struct.std::_Rb_tree_node"*, %"struct.std::_Rb_tree_node"** %__p.addr, align 8, !dbg !4652
  ret void, !dbg !4653

terminate.lpad:                                   ; preds = %entry
  %2 = landingpad { i8*, i32 }
          catch i8* null, !dbg !4650
  %3 = extractvalue { i8*, i32 } %2, 0, !dbg !4650
  call void @__clang_call_terminate(i8* %3) #15, !dbg !4650
  unreachable, !dbg !4650
}

; Function Attrs: noinline nounwind uwtable
define linkonce_odr dso_local void @_ZNSt8_Rb_treeIiSt4pairIKifESt10_Select1stIS2_ESt4lessIiESaIS2_EE11_M_put_nodeEPSt13_Rb_tree_nodeIS2_E(%"class.std::_Rb_tree"* %this, %"struct.std::_Rb_tree_node"* %__p) #3 comdat align 2 personality i8* bitcast (i32 (...)* @__gxx_personality_v0 to i8*) !dbg !4654 {
entry:
  %this.addr = alloca %"class.std::_Rb_tree"*, align 8
  %__p.addr = alloca %"struct.std::_Rb_tree_node"*, align 8
  store %"class.std::_Rb_tree"* %this, %"class.std::_Rb_tree"** %this.addr, align 8
  call void @llvm.dbg.declare(metadata %"class.std::_Rb_tree"** %this.addr, metadata !4655, metadata !DIExpression()), !dbg !4656
  store %"struct.std::_Rb_tree_node"* %__p, %"struct.std::_Rb_tree_node"** %__p.addr, align 8
  call void @llvm.dbg.declare(metadata %"struct.std::_Rb_tree_node"** %__p.addr, metadata !4657, metadata !DIExpression()), !dbg !4658
  %this1 = load %"class.std::_Rb_tree"*, %"class.std::_Rb_tree"** %this.addr, align 8
  %call = call dereferenceable(1) %"class.std::allocator.13"* @_ZNSt8_Rb_treeIiSt4pairIKifESt10_Select1stIS2_ESt4lessIiESaIS2_EE21_M_get_Node_allocatorEv(%"class.std::_Rb_tree"* %this1) #14, !dbg !4659
  %0 = load %"struct.std::_Rb_tree_node"*, %"struct.std::_Rb_tree_node"** %__p.addr, align 8, !dbg !4660
  invoke void @_ZNSt16allocator_traitsISaISt13_Rb_tree_nodeISt4pairIKifEEEE10deallocateERS5_PS4_m(%"class.std::allocator.13"* dereferenceable(1) %call, %"struct.std::_Rb_tree_node"* %0, i64 1)
          to label %invoke.cont unwind label %terminate.lpad, !dbg !4661

invoke.cont:                                      ; preds = %entry
  ret void, !dbg !4662

terminate.lpad:                                   ; preds = %entry
  %1 = landingpad { i8*, i32 }
          catch i8* null, !dbg !4661
  %2 = extractvalue { i8*, i32 } %1, 0, !dbg !4661
  call void @__clang_call_terminate(i8* %2) #15, !dbg !4661
  unreachable, !dbg !4661
}

; Function Attrs: noinline nounwind uwtable
define linkonce_odr dso_local void @_ZNSt16allocator_traitsISaISt13_Rb_tree_nodeISt4pairIKifEEEE7destroyIS3_EEvRS5_PT_(%"class.std::allocator.13"* dereferenceable(1) %__a, %"struct.std::pair.19"* %__p) #3 comdat align 2 !dbg !4663 {
entry:
  %__a.addr = alloca %"class.std::allocator.13"*, align 8
  %__p.addr = alloca %"struct.std::pair.19"*, align 8
  store %"class.std::allocator.13"* %__a, %"class.std::allocator.13"** %__a.addr, align 8
  call void @llvm.dbg.declare(metadata %"class.std::allocator.13"** %__a.addr, metadata !4694, metadata !DIExpression()), !dbg !4695
  store %"struct.std::pair.19"* %__p, %"struct.std::pair.19"** %__p.addr, align 8
  call void @llvm.dbg.declare(metadata %"struct.std::pair.19"** %__p.addr, metadata !4696, metadata !DIExpression()), !dbg !4697
  %0 = load %"class.std::allocator.13"*, %"class.std::allocator.13"** %__a.addr, align 8, !dbg !4698
  %1 = bitcast %"class.std::allocator.13"* %0 to %"class.__gnu_cxx::new_allocator.14"*, !dbg !4698
  %2 = load %"struct.std::pair.19"*, %"struct.std::pair.19"** %__p.addr, align 8, !dbg !4699
  call void @_ZN9__gnu_cxx13new_allocatorISt13_Rb_tree_nodeISt4pairIKifEEE7destroyIS4_EEvPT_(%"class.__gnu_cxx::new_allocator.14"* %1, %"struct.std::pair.19"* %2) #14, !dbg !4700
  ret void, !dbg !4701
}

; Function Attrs: noinline nounwind uwtable
define linkonce_odr dso_local dereferenceable(1) %"class.std::allocator.13"* @_ZNSt8_Rb_treeIiSt4pairIKifESt10_Select1stIS2_ESt4lessIiESaIS2_EE21_M_get_Node_allocatorEv(%"class.std::_Rb_tree"* %this) #3 comdat align 2 !dbg !4702 {
entry:
  %this.addr = alloca %"class.std::_Rb_tree"*, align 8
  store %"class.std::_Rb_tree"* %this, %"class.std::_Rb_tree"** %this.addr, align 8
  call void @llvm.dbg.declare(metadata %"class.std::_Rb_tree"** %this.addr, metadata !4703, metadata !DIExpression()), !dbg !4704
  %this1 = load %"class.std::_Rb_tree"*, %"class.std::_Rb_tree"** %this.addr, align 8
  %_M_impl = getelementptr inbounds %"class.std::_Rb_tree", %"class.std::_Rb_tree"* %this1, i32 0, i32 0, !dbg !4705
  %0 = bitcast %"struct.std::_Rb_tree<int, std::pair<const int, float>, std::_Select1st<std::pair<const int, float> >, std::less<int>, std::allocator<std::pair<const int, float> > >::_Rb_tree_impl"* %_M_impl to %"class.std::allocator.13"*, !dbg !4706
  ret %"class.std::allocator.13"* %0, !dbg !4707
}

; Function Attrs: noinline nounwind uwtable
define linkonce_odr dso_local %"struct.std::pair.19"* @_ZNSt13_Rb_tree_nodeISt4pairIKifEE9_M_valptrEv(%"struct.std::_Rb_tree_node"* %this) #3 comdat align 2 !dbg !4708 {
entry:
  %this.addr = alloca %"struct.std::_Rb_tree_node"*, align 8
  store %"struct.std::_Rb_tree_node"* %this, %"struct.std::_Rb_tree_node"** %this.addr, align 8
  call void @llvm.dbg.declare(metadata %"struct.std::_Rb_tree_node"** %this.addr, metadata !4709, metadata !DIExpression()), !dbg !4710
  %this1 = load %"struct.std::_Rb_tree_node"*, %"struct.std::_Rb_tree_node"** %this.addr, align 8
  %_M_storage = getelementptr inbounds %"struct.std::_Rb_tree_node", %"struct.std::_Rb_tree_node"* %this1, i32 0, i32 1, !dbg !4711
  %call = call %"struct.std::pair.19"* @_ZN9__gnu_cxx16__aligned_membufISt4pairIKifEE6_M_ptrEv(%"struct.__gnu_cxx::__aligned_membuf"* %_M_storage) #14, !dbg !4712
  ret %"struct.std::pair.19"* %call, !dbg !4713
}

; Function Attrs: noinline nounwind uwtable
define linkonce_odr dso_local void @_ZN9__gnu_cxx13new_allocatorISt13_Rb_tree_nodeISt4pairIKifEEE7destroyIS4_EEvPT_(%"class.__gnu_cxx::new_allocator.14"* %this, %"struct.std::pair.19"* %__p) #3 comdat align 2 !dbg !4714 {
entry:
  %this.addr = alloca %"class.__gnu_cxx::new_allocator.14"*, align 8
  %__p.addr = alloca %"struct.std::pair.19"*, align 8
  store %"class.__gnu_cxx::new_allocator.14"* %this, %"class.__gnu_cxx::new_allocator.14"** %this.addr, align 8
  call void @llvm.dbg.declare(metadata %"class.__gnu_cxx::new_allocator.14"** %this.addr, metadata !4718, metadata !DIExpression()), !dbg !4719
  store %"struct.std::pair.19"* %__p, %"struct.std::pair.19"** %__p.addr, align 8
  call void @llvm.dbg.declare(metadata %"struct.std::pair.19"** %__p.addr, metadata !4720, metadata !DIExpression()), !dbg !4721
  %this1 = load %"class.__gnu_cxx::new_allocator.14"*, %"class.__gnu_cxx::new_allocator.14"** %this.addr, align 8
  %0 = load %"struct.std::pair.19"*, %"struct.std::pair.19"** %__p.addr, align 8, !dbg !4722
  ret void, !dbg !4723
}

; Function Attrs: noinline nounwind uwtable
define linkonce_odr dso_local %"struct.std::pair.19"* @_ZN9__gnu_cxx16__aligned_membufISt4pairIKifEE6_M_ptrEv(%"struct.__gnu_cxx::__aligned_membuf"* %this) #3 comdat align 2 !dbg !4724 {
entry:
  %this.addr = alloca %"struct.__gnu_cxx::__aligned_membuf"*, align 8
  store %"struct.__gnu_cxx::__aligned_membuf"* %this, %"struct.__gnu_cxx::__aligned_membuf"** %this.addr, align 8
  call void @llvm.dbg.declare(metadata %"struct.__gnu_cxx::__aligned_membuf"** %this.addr, metadata !4725, metadata !DIExpression()), !dbg !4727
  %this1 = load %"struct.__gnu_cxx::__aligned_membuf"*, %"struct.__gnu_cxx::__aligned_membuf"** %this.addr, align 8
  %call = call i8* @_ZN9__gnu_cxx16__aligned_membufISt4pairIKifEE7_M_addrEv(%"struct.__gnu_cxx::__aligned_membuf"* %this1) #14, !dbg !4728
  %0 = bitcast i8* %call to %"struct.std::pair.19"*, !dbg !4729
  ret %"struct.std::pair.19"* %0, !dbg !4730
}

; Function Attrs: noinline nounwind uwtable
define linkonce_odr dso_local i8* @_ZN9__gnu_cxx16__aligned_membufISt4pairIKifEE7_M_addrEv(%"struct.__gnu_cxx::__aligned_membuf"* %this) #3 comdat align 2 !dbg !4731 {
entry:
  %this.addr = alloca %"struct.__gnu_cxx::__aligned_membuf"*, align 8
  store %"struct.__gnu_cxx::__aligned_membuf"* %this, %"struct.__gnu_cxx::__aligned_membuf"** %this.addr, align 8
  call void @llvm.dbg.declare(metadata %"struct.__gnu_cxx::__aligned_membuf"** %this.addr, metadata !4732, metadata !DIExpression()), !dbg !4733
  %this1 = load %"struct.__gnu_cxx::__aligned_membuf"*, %"struct.__gnu_cxx::__aligned_membuf"** %this.addr, align 8
  %_M_storage = getelementptr inbounds %"struct.__gnu_cxx::__aligned_membuf", %"struct.__gnu_cxx::__aligned_membuf"* %this1, i32 0, i32 0, !dbg !4734
  %0 = bitcast [8 x i8]* %_M_storage to i8*, !dbg !4735
  ret i8* %0, !dbg !4736
}

; Function Attrs: noinline uwtable
define linkonce_odr dso_local void @_ZNSt16allocator_traitsISaISt13_Rb_tree_nodeISt4pairIKifEEEE10deallocateERS5_PS4_m(%"class.std::allocator.13"* dereferenceable(1) %__a, %"struct.std::_Rb_tree_node"* %__p, i64 %__n) #0 comdat align 2 !dbg !4737 {
entry:
  %__a.addr = alloca %"class.std::allocator.13"*, align 8
  %__p.addr = alloca %"struct.std::_Rb_tree_node"*, align 8
  %__n.addr = alloca i64, align 8
  store %"class.std::allocator.13"* %__a, %"class.std::allocator.13"** %__a.addr, align 8
  call void @llvm.dbg.declare(metadata %"class.std::allocator.13"** %__a.addr, metadata !4738, metadata !DIExpression()), !dbg !4739
  store %"struct.std::_Rb_tree_node"* %__p, %"struct.std::_Rb_tree_node"** %__p.addr, align 8
  call void @llvm.dbg.declare(metadata %"struct.std::_Rb_tree_node"** %__p.addr, metadata !4740, metadata !DIExpression()), !dbg !4741
  store i64 %__n, i64* %__n.addr, align 8
  call void @llvm.dbg.declare(metadata i64* %__n.addr, metadata !4742, metadata !DIExpression()), !dbg !4743
  %0 = load %"class.std::allocator.13"*, %"class.std::allocator.13"** %__a.addr, align 8, !dbg !4744
  %1 = bitcast %"class.std::allocator.13"* %0 to %"class.__gnu_cxx::new_allocator.14"*, !dbg !4744
  %2 = load %"struct.std::_Rb_tree_node"*, %"struct.std::_Rb_tree_node"** %__p.addr, align 8, !dbg !4745
  %3 = load i64, i64* %__n.addr, align 8, !dbg !4746
  call void @_ZN9__gnu_cxx13new_allocatorISt13_Rb_tree_nodeISt4pairIKifEEE10deallocateEPS5_m(%"class.__gnu_cxx::new_allocator.14"* %1, %"struct.std::_Rb_tree_node"* %2, i64 %3), !dbg !4747
  ret void, !dbg !4748
}

; Function Attrs: noinline nounwind uwtable
define linkonce_odr dso_local void @_ZN9__gnu_cxx13new_allocatorISt13_Rb_tree_nodeISt4pairIKifEEE10deallocateEPS5_m(%"class.__gnu_cxx::new_allocator.14"* %this, %"struct.std::_Rb_tree_node"* %__p, i64 %__t) #3 comdat align 2 !dbg !4749 {
entry:
  %this.addr = alloca %"class.__gnu_cxx::new_allocator.14"*, align 8
  %__p.addr = alloca %"struct.std::_Rb_tree_node"*, align 8
  %__t.addr = alloca i64, align 8
  store %"class.__gnu_cxx::new_allocator.14"* %this, %"class.__gnu_cxx::new_allocator.14"** %this.addr, align 8
  call void @llvm.dbg.declare(metadata %"class.__gnu_cxx::new_allocator.14"** %this.addr, metadata !4750, metadata !DIExpression()), !dbg !4751
  store %"struct.std::_Rb_tree_node"* %__p, %"struct.std::_Rb_tree_node"** %__p.addr, align 8
  call void @llvm.dbg.declare(metadata %"struct.std::_Rb_tree_node"** %__p.addr, metadata !4752, metadata !DIExpression()), !dbg !4753
  store i64 %__t, i64* %__t.addr, align 8
  call void @llvm.dbg.declare(metadata i64* %__t.addr, metadata !4754, metadata !DIExpression()), !dbg !4755
  %this1 = load %"class.__gnu_cxx::new_allocator.14"*, %"class.__gnu_cxx::new_allocator.14"** %this.addr, align 8
  %0 = load %"struct.std::_Rb_tree_node"*, %"struct.std::_Rb_tree_node"** %__p.addr, align 8, !dbg !4756
  %1 = bitcast %"struct.std::_Rb_tree_node"* %0 to i8*, !dbg !4756
  call void @_ZdlPv(i8* %1) #14, !dbg !4757
  ret void, !dbg !4758
}

; Function Attrs: noinline nounwind uwtable
define linkonce_odr dso_local void @_ZNSaISt13_Rb_tree_nodeISt4pairIKifEEED2Ev(%"class.std::allocator.13"* %this) unnamed_addr #3 comdat align 2 !dbg !4759 {
entry:
  %this.addr = alloca %"class.std::allocator.13"*, align 8
  store %"class.std::allocator.13"* %this, %"class.std::allocator.13"** %this.addr, align 8
  call void @llvm.dbg.declare(metadata %"class.std::allocator.13"** %this.addr, metadata !4760, metadata !DIExpression()), !dbg !4761
  %this1 = load %"class.std::allocator.13"*, %"class.std::allocator.13"** %this.addr, align 8
  %0 = bitcast %"class.std::allocator.13"* %this1 to %"class.__gnu_cxx::new_allocator.14"*, !dbg !4762
  call void @_ZN9__gnu_cxx13new_allocatorISt13_Rb_tree_nodeISt4pairIKifEEED2Ev(%"class.__gnu_cxx::new_allocator.14"* %0) #14, !dbg !4762
  ret void, !dbg !4764
}

; Function Attrs: noinline nounwind uwtable
define linkonce_odr dso_local void @_ZN9__gnu_cxx13new_allocatorISt13_Rb_tree_nodeISt4pairIKifEEED2Ev(%"class.__gnu_cxx::new_allocator.14"* %this) unnamed_addr #3 comdat align 2 !dbg !4765 {
entry:
  %this.addr = alloca %"class.__gnu_cxx::new_allocator.14"*, align 8
  store %"class.__gnu_cxx::new_allocator.14"* %this, %"class.__gnu_cxx::new_allocator.14"** %this.addr, align 8
  call void @llvm.dbg.declare(metadata %"class.__gnu_cxx::new_allocator.14"** %this.addr, metadata !4766, metadata !DIExpression()), !dbg !4767
  %this1 = load %"class.__gnu_cxx::new_allocator.14"*, %"class.__gnu_cxx::new_allocator.14"** %this.addr, align 8
  ret void, !dbg !4768
}

; Function Attrs: noinline nounwind uwtable
define linkonce_odr dso_local void @_ZNSt6vectorIiSaIiEED2Ev(%"class.std::vector.8"* %this) unnamed_addr #3 comdat align 2 personality i8* bitcast (i32 (...)* @__gxx_personality_v0 to i8*) !dbg !4769 {
entry:
  %this.addr = alloca %"class.std::vector.8"*, align 8
  %exn.slot = alloca i8*
  %ehselector.slot = alloca i32
  store %"class.std::vector.8"* %this, %"class.std::vector.8"** %this.addr, align 8
  call void @llvm.dbg.declare(metadata %"class.std::vector.8"** %this.addr, metadata !4770, metadata !DIExpression()), !dbg !4771
  %this1 = load %"class.std::vector.8"*, %"class.std::vector.8"** %this.addr, align 8
  %0 = bitcast %"class.std::vector.8"* %this1 to %"struct.std::_Vector_base.9"*, !dbg !4772
  %_M_impl = getelementptr inbounds %"struct.std::_Vector_base.9", %"struct.std::_Vector_base.9"* %0, i32 0, i32 0, !dbg !4772
  %1 = bitcast %"struct.std::_Vector_base<int, std::allocator<int> >::_Vector_impl"* %_M_impl to %"struct.std::_Vector_base<int, std::allocator<int> >::_Vector_impl_data"*, !dbg !4774
  %_M_start = getelementptr inbounds %"struct.std::_Vector_base<int, std::allocator<int> >::_Vector_impl_data", %"struct.std::_Vector_base<int, std::allocator<int> >::_Vector_impl_data"* %1, i32 0, i32 0, !dbg !4775
  %2 = load i32*, i32** %_M_start, align 8, !dbg !4775
  %3 = bitcast %"class.std::vector.8"* %this1 to %"struct.std::_Vector_base.9"*, !dbg !4776
  %_M_impl2 = getelementptr inbounds %"struct.std::_Vector_base.9", %"struct.std::_Vector_base.9"* %3, i32 0, i32 0, !dbg !4776
  %4 = bitcast %"struct.std::_Vector_base<int, std::allocator<int> >::_Vector_impl"* %_M_impl2 to %"struct.std::_Vector_base<int, std::allocator<int> >::_Vector_impl_data"*, !dbg !4777
  %_M_finish = getelementptr inbounds %"struct.std::_Vector_base<int, std::allocator<int> >::_Vector_impl_data", %"struct.std::_Vector_base<int, std::allocator<int> >::_Vector_impl_data"* %4, i32 0, i32 1, !dbg !4778
  %5 = load i32*, i32** %_M_finish, align 8, !dbg !4778
  %6 = bitcast %"class.std::vector.8"* %this1 to %"struct.std::_Vector_base.9"*, !dbg !4779
  %call = call dereferenceable(1) %"class.std::allocator.10"* @_ZNSt12_Vector_baseIiSaIiEE19_M_get_Tp_allocatorEv(%"struct.std::_Vector_base.9"* %6) #14, !dbg !4779
  invoke void @_ZSt8_DestroyIPiiEvT_S1_RSaIT0_E(i32* %2, i32* %5, %"class.std::allocator.10"* dereferenceable(1) %call)
          to label %invoke.cont unwind label %lpad, !dbg !4780

invoke.cont:                                      ; preds = %entry
  %7 = bitcast %"class.std::vector.8"* %this1 to %"struct.std::_Vector_base.9"*, !dbg !4781
  call void @_ZNSt12_Vector_baseIiSaIiEED2Ev(%"struct.std::_Vector_base.9"* %7) #14, !dbg !4781
  ret void, !dbg !4782

lpad:                                             ; preds = %entry
  %8 = landingpad { i8*, i32 }
          catch i8* null, !dbg !4781
  %9 = extractvalue { i8*, i32 } %8, 0, !dbg !4781
  store i8* %9, i8** %exn.slot, align 8, !dbg !4781
  %10 = extractvalue { i8*, i32 } %8, 1, !dbg !4781
  store i32 %10, i32* %ehselector.slot, align 4, !dbg !4781
  %11 = bitcast %"class.std::vector.8"* %this1 to %"struct.std::_Vector_base.9"*, !dbg !4781
  call void @_ZNSt12_Vector_baseIiSaIiEED2Ev(%"struct.std::_Vector_base.9"* %11) #14, !dbg !4781
  br label %terminate.handler, !dbg !4781

terminate.handler:                                ; preds = %lpad
  %exn = load i8*, i8** %exn.slot, align 8, !dbg !4781
  call void @__clang_call_terminate(i8* %exn) #15, !dbg !4781
  unreachable, !dbg !4781
}

; Function Attrs: noinline uwtable
define linkonce_odr dso_local void @_ZSt8_DestroyIPiiEvT_S1_RSaIT0_E(i32* %__first, i32* %__last, %"class.std::allocator.10"* dereferenceable(1) %0) #0 comdat !dbg !4783 {
entry:
  %__first.addr = alloca i32*, align 8
  %__last.addr = alloca i32*, align 8
  %.addr = alloca %"class.std::allocator.10"*, align 8
  store i32* %__first, i32** %__first.addr, align 8
  call void @llvm.dbg.declare(metadata i32** %__first.addr, metadata !4788, metadata !DIExpression()), !dbg !4789
  store i32* %__last, i32** %__last.addr, align 8
  call void @llvm.dbg.declare(metadata i32** %__last.addr, metadata !4790, metadata !DIExpression()), !dbg !4791
  store %"class.std::allocator.10"* %0, %"class.std::allocator.10"** %.addr, align 8
  call void @llvm.dbg.declare(metadata %"class.std::allocator.10"** %.addr, metadata !4792, metadata !DIExpression()), !dbg !4793
  %1 = load i32*, i32** %__first.addr, align 8, !dbg !4794
  %2 = load i32*, i32** %__last.addr, align 8, !dbg !4795
  call void @_ZSt8_DestroyIPiEvT_S1_(i32* %1, i32* %2), !dbg !4796
  ret void, !dbg !4797
}

; Function Attrs: noinline nounwind uwtable
define linkonce_odr dso_local dereferenceable(1) %"class.std::allocator.10"* @_ZNSt12_Vector_baseIiSaIiEE19_M_get_Tp_allocatorEv(%"struct.std::_Vector_base.9"* %this) #3 comdat align 2 !dbg !4798 {
entry:
  %this.addr = alloca %"struct.std::_Vector_base.9"*, align 8
  store %"struct.std::_Vector_base.9"* %this, %"struct.std::_Vector_base.9"** %this.addr, align 8
  call void @llvm.dbg.declare(metadata %"struct.std::_Vector_base.9"** %this.addr, metadata !4799, metadata !DIExpression()), !dbg !4800
  %this1 = load %"struct.std::_Vector_base.9"*, %"struct.std::_Vector_base.9"** %this.addr, align 8
  %_M_impl = getelementptr inbounds %"struct.std::_Vector_base.9", %"struct.std::_Vector_base.9"* %this1, i32 0, i32 0, !dbg !4801
  %0 = bitcast %"struct.std::_Vector_base<int, std::allocator<int> >::_Vector_impl"* %_M_impl to %"class.std::allocator.10"*, !dbg !4802
  ret %"class.std::allocator.10"* %0, !dbg !4803
}

; Function Attrs: noinline nounwind uwtable
define linkonce_odr dso_local void @_ZNSt12_Vector_baseIiSaIiEED2Ev(%"struct.std::_Vector_base.9"* %this) unnamed_addr #3 comdat align 2 personality i8* bitcast (i32 (...)* @__gxx_personality_v0 to i8*) !dbg !4804 {
entry:
  %this.addr = alloca %"struct.std::_Vector_base.9"*, align 8
  %exn.slot = alloca i8*
  %ehselector.slot = alloca i32
  store %"struct.std::_Vector_base.9"* %this, %"struct.std::_Vector_base.9"** %this.addr, align 8
  call void @llvm.dbg.declare(metadata %"struct.std::_Vector_base.9"** %this.addr, metadata !4805, metadata !DIExpression()), !dbg !4806
  %this1 = load %"struct.std::_Vector_base.9"*, %"struct.std::_Vector_base.9"** %this.addr, align 8
  %_M_impl = getelementptr inbounds %"struct.std::_Vector_base.9", %"struct.std::_Vector_base.9"* %this1, i32 0, i32 0, !dbg !4807
  %0 = bitcast %"struct.std::_Vector_base<int, std::allocator<int> >::_Vector_impl"* %_M_impl to %"struct.std::_Vector_base<int, std::allocator<int> >::_Vector_impl_data"*, !dbg !4807
  %_M_start = getelementptr inbounds %"struct.std::_Vector_base<int, std::allocator<int> >::_Vector_impl_data", %"struct.std::_Vector_base<int, std::allocator<int> >::_Vector_impl_data"* %0, i32 0, i32 0, !dbg !4809
  %1 = load i32*, i32** %_M_start, align 8, !dbg !4809
  %_M_impl2 = getelementptr inbounds %"struct.std::_Vector_base.9", %"struct.std::_Vector_base.9"* %this1, i32 0, i32 0, !dbg !4810
  %2 = bitcast %"struct.std::_Vector_base<int, std::allocator<int> >::_Vector_impl"* %_M_impl2 to %"struct.std::_Vector_base<int, std::allocator<int> >::_Vector_impl_data"*, !dbg !4810
  %_M_end_of_storage = getelementptr inbounds %"struct.std::_Vector_base<int, std::allocator<int> >::_Vector_impl_data", %"struct.std::_Vector_base<int, std::allocator<int> >::_Vector_impl_data"* %2, i32 0, i32 2, !dbg !4811
  %3 = load i32*, i32** %_M_end_of_storage, align 8, !dbg !4811
  %_M_impl3 = getelementptr inbounds %"struct.std::_Vector_base.9", %"struct.std::_Vector_base.9"* %this1, i32 0, i32 0, !dbg !4812
  %4 = bitcast %"struct.std::_Vector_base<int, std::allocator<int> >::_Vector_impl"* %_M_impl3 to %"struct.std::_Vector_base<int, std::allocator<int> >::_Vector_impl_data"*, !dbg !4812
  %_M_start4 = getelementptr inbounds %"struct.std::_Vector_base<int, std::allocator<int> >::_Vector_impl_data", %"struct.std::_Vector_base<int, std::allocator<int> >::_Vector_impl_data"* %4, i32 0, i32 0, !dbg !4813
  %5 = load i32*, i32** %_M_start4, align 8, !dbg !4813
  %sub.ptr.lhs.cast = ptrtoint i32* %3 to i64, !dbg !4814
  %sub.ptr.rhs.cast = ptrtoint i32* %5 to i64, !dbg !4814
  %sub.ptr.sub = sub i64 %sub.ptr.lhs.cast, %sub.ptr.rhs.cast, !dbg !4814
  %sub.ptr.div = sdiv exact i64 %sub.ptr.sub, 4, !dbg !4814
  invoke void @_ZNSt12_Vector_baseIiSaIiEE13_M_deallocateEPim(%"struct.std::_Vector_base.9"* %this1, i32* %1, i64 %sub.ptr.div)
          to label %invoke.cont unwind label %lpad, !dbg !4815

invoke.cont:                                      ; preds = %entry
  %_M_impl5 = getelementptr inbounds %"struct.std::_Vector_base.9", %"struct.std::_Vector_base.9"* %this1, i32 0, i32 0, !dbg !4816
  call void @_ZNSt12_Vector_baseIiSaIiEE12_Vector_implD2Ev(%"struct.std::_Vector_base<int, std::allocator<int> >::_Vector_impl"* %_M_impl5) #14, !dbg !4816
  ret void, !dbg !4817

lpad:                                             ; preds = %entry
  %6 = landingpad { i8*, i32 }
          catch i8* null, !dbg !4816
  %7 = extractvalue { i8*, i32 } %6, 0, !dbg !4816
  store i8* %7, i8** %exn.slot, align 8, !dbg !4816
  %8 = extractvalue { i8*, i32 } %6, 1, !dbg !4816
  store i32 %8, i32* %ehselector.slot, align 4, !dbg !4816
  %_M_impl6 = getelementptr inbounds %"struct.std::_Vector_base.9", %"struct.std::_Vector_base.9"* %this1, i32 0, i32 0, !dbg !4816
  call void @_ZNSt12_Vector_baseIiSaIiEE12_Vector_implD2Ev(%"struct.std::_Vector_base<int, std::allocator<int> >::_Vector_impl"* %_M_impl6) #14, !dbg !4816
  br label %terminate.handler, !dbg !4816

terminate.handler:                                ; preds = %lpad
  %exn = load i8*, i8** %exn.slot, align 8, !dbg !4816
  call void @__clang_call_terminate(i8* %exn) #15, !dbg !4816
  unreachable, !dbg !4816
}

; Function Attrs: noinline uwtable
define linkonce_odr dso_local void @_ZSt8_DestroyIPiEvT_S1_(i32* %__first, i32* %__last) #0 comdat !dbg !4818 {
entry:
  %__first.addr = alloca i32*, align 8
  %__last.addr = alloca i32*, align 8
  store i32* %__first, i32** %__first.addr, align 8
  call void @llvm.dbg.declare(metadata i32** %__first.addr, metadata !4823, metadata !DIExpression()), !dbg !4824
  store i32* %__last, i32** %__last.addr, align 8
  call void @llvm.dbg.declare(metadata i32** %__last.addr, metadata !4825, metadata !DIExpression()), !dbg !4826
  %0 = load i32*, i32** %__first.addr, align 8, !dbg !4827
  %1 = load i32*, i32** %__last.addr, align 8, !dbg !4828
  call void @_ZNSt12_Destroy_auxILb1EE9__destroyIPiEEvT_S3_(i32* %0, i32* %1), !dbg !4829
  ret void, !dbg !4830
}

; Function Attrs: noinline nounwind uwtable
define linkonce_odr dso_local void @_ZNSt12_Destroy_auxILb1EE9__destroyIPiEEvT_S3_(i32* %0, i32* %1) #3 comdat align 2 !dbg !4831 {
entry:
  %.addr = alloca i32*, align 8
  %.addr1 = alloca i32*, align 8
  store i32* %0, i32** %.addr, align 8
  call void @llvm.dbg.declare(metadata i32** %.addr, metadata !4835, metadata !DIExpression()), !dbg !4836
  store i32* %1, i32** %.addr1, align 8
  call void @llvm.dbg.declare(metadata i32** %.addr1, metadata !4837, metadata !DIExpression()), !dbg !4838
  ret void, !dbg !4839
}

; Function Attrs: noinline uwtable
define linkonce_odr dso_local void @_ZNSt12_Vector_baseIiSaIiEE13_M_deallocateEPim(%"struct.std::_Vector_base.9"* %this, i32* %__p, i64 %__n) #0 comdat align 2 !dbg !4840 {
entry:
  %this.addr = alloca %"struct.std::_Vector_base.9"*, align 8
  %__p.addr = alloca i32*, align 8
  %__n.addr = alloca i64, align 8
  store %"struct.std::_Vector_base.9"* %this, %"struct.std::_Vector_base.9"** %this.addr, align 8
  call void @llvm.dbg.declare(metadata %"struct.std::_Vector_base.9"** %this.addr, metadata !4841, metadata !DIExpression()), !dbg !4842
  store i32* %__p, i32** %__p.addr, align 8
  call void @llvm.dbg.declare(metadata i32** %__p.addr, metadata !4843, metadata !DIExpression()), !dbg !4844
  store i64 %__n, i64* %__n.addr, align 8
  call void @llvm.dbg.declare(metadata i64* %__n.addr, metadata !4845, metadata !DIExpression()), !dbg !4846
  %this1 = load %"struct.std::_Vector_base.9"*, %"struct.std::_Vector_base.9"** %this.addr, align 8
  %0 = load i32*, i32** %__p.addr, align 8, !dbg !4847
  %tobool = icmp ne i32* %0, null, !dbg !4847
  br i1 %tobool, label %if.then, label %if.end, !dbg !4849

if.then:                                          ; preds = %entry
  %_M_impl = getelementptr inbounds %"struct.std::_Vector_base.9", %"struct.std::_Vector_base.9"* %this1, i32 0, i32 0, !dbg !4850
  %1 = bitcast %"struct.std::_Vector_base<int, std::allocator<int> >::_Vector_impl"* %_M_impl to %"class.std::allocator.10"*, !dbg !4850
  %2 = load i32*, i32** %__p.addr, align 8, !dbg !4851
  %3 = load i64, i64* %__n.addr, align 8, !dbg !4852
  call void @_ZNSt16allocator_traitsISaIiEE10deallocateERS0_Pim(%"class.std::allocator.10"* dereferenceable(1) %1, i32* %2, i64 %3), !dbg !4853
  br label %if.end, !dbg !4853

if.end:                                           ; preds = %if.then, %entry
  ret void, !dbg !4854
}

; Function Attrs: noinline nounwind uwtable
define linkonce_odr dso_local void @_ZNSt12_Vector_baseIiSaIiEE12_Vector_implD2Ev(%"struct.std::_Vector_base<int, std::allocator<int> >::_Vector_impl"* %this) unnamed_addr #3 comdat align 2 !dbg !4855 {
entry:
  %this.addr = alloca %"struct.std::_Vector_base<int, std::allocator<int> >::_Vector_impl"*, align 8
  store %"struct.std::_Vector_base<int, std::allocator<int> >::_Vector_impl"* %this, %"struct.std::_Vector_base<int, std::allocator<int> >::_Vector_impl"** %this.addr, align 8
  call void @llvm.dbg.declare(metadata %"struct.std::_Vector_base<int, std::allocator<int> >::_Vector_impl"** %this.addr, metadata !4857, metadata !DIExpression()), !dbg !4858
  %this1 = load %"struct.std::_Vector_base<int, std::allocator<int> >::_Vector_impl"*, %"struct.std::_Vector_base<int, std::allocator<int> >::_Vector_impl"** %this.addr, align 8
  %0 = bitcast %"struct.std::_Vector_base<int, std::allocator<int> >::_Vector_impl"* %this1 to %"class.std::allocator.10"*, !dbg !4859
  call void @_ZNSaIiED2Ev(%"class.std::allocator.10"* %0) #14, !dbg !4859
  ret void, !dbg !4861
}

; Function Attrs: noinline uwtable
define linkonce_odr dso_local void @_ZNSt16allocator_traitsISaIiEE10deallocateERS0_Pim(%"class.std::allocator.10"* dereferenceable(1) %__a, i32* %__p, i64 %__n) #0 comdat align 2 !dbg !4862 {
entry:
  %__a.addr = alloca %"class.std::allocator.10"*, align 8
  %__p.addr = alloca i32*, align 8
  %__n.addr = alloca i64, align 8
  store %"class.std::allocator.10"* %__a, %"class.std::allocator.10"** %__a.addr, align 8
  call void @llvm.dbg.declare(metadata %"class.std::allocator.10"** %__a.addr, metadata !4863, metadata !DIExpression()), !dbg !4864
  store i32* %__p, i32** %__p.addr, align 8
  call void @llvm.dbg.declare(metadata i32** %__p.addr, metadata !4865, metadata !DIExpression()), !dbg !4866
  store i64 %__n, i64* %__n.addr, align 8
  call void @llvm.dbg.declare(metadata i64* %__n.addr, metadata !4867, metadata !DIExpression()), !dbg !4868
  %0 = load %"class.std::allocator.10"*, %"class.std::allocator.10"** %__a.addr, align 8, !dbg !4869
  %1 = bitcast %"class.std::allocator.10"* %0 to %"class.__gnu_cxx::new_allocator.11"*, !dbg !4869
  %2 = load i32*, i32** %__p.addr, align 8, !dbg !4870
  %3 = load i64, i64* %__n.addr, align 8, !dbg !4871
  call void @_ZN9__gnu_cxx13new_allocatorIiE10deallocateEPim(%"class.__gnu_cxx::new_allocator.11"* %1, i32* %2, i64 %3), !dbg !4872
  ret void, !dbg !4873
}

; Function Attrs: noinline nounwind uwtable
define linkonce_odr dso_local void @_ZN9__gnu_cxx13new_allocatorIiE10deallocateEPim(%"class.__gnu_cxx::new_allocator.11"* %this, i32* %__p, i64 %__t) #3 comdat align 2 !dbg !4874 {
entry:
  %this.addr = alloca %"class.__gnu_cxx::new_allocator.11"*, align 8
  %__p.addr = alloca i32*, align 8
  %__t.addr = alloca i64, align 8
  store %"class.__gnu_cxx::new_allocator.11"* %this, %"class.__gnu_cxx::new_allocator.11"** %this.addr, align 8
  call void @llvm.dbg.declare(metadata %"class.__gnu_cxx::new_allocator.11"** %this.addr, metadata !4875, metadata !DIExpression()), !dbg !4876
  store i32* %__p, i32** %__p.addr, align 8
  call void @llvm.dbg.declare(metadata i32** %__p.addr, metadata !4877, metadata !DIExpression()), !dbg !4878
  store i64 %__t, i64* %__t.addr, align 8
  call void @llvm.dbg.declare(metadata i64* %__t.addr, metadata !4879, metadata !DIExpression()), !dbg !4880
  %this1 = load %"class.__gnu_cxx::new_allocator.11"*, %"class.__gnu_cxx::new_allocator.11"** %this.addr, align 8
  %0 = load i32*, i32** %__p.addr, align 8, !dbg !4881
  %1 = bitcast i32* %0 to i8*, !dbg !4881
  call void @_ZdlPv(i8* %1) #14, !dbg !4882
  ret void, !dbg !4883
}

; Function Attrs: noinline nounwind uwtable
define linkonce_odr dso_local void @_ZNSaIiED2Ev(%"class.std::allocator.10"* %this) unnamed_addr #3 comdat align 2 !dbg !4884 {
entry:
  %this.addr = alloca %"class.std::allocator.10"*, align 8
  store %"class.std::allocator.10"* %this, %"class.std::allocator.10"** %this.addr, align 8
  call void @llvm.dbg.declare(metadata %"class.std::allocator.10"** %this.addr, metadata !4885, metadata !DIExpression()), !dbg !4886
  %this1 = load %"class.std::allocator.10"*, %"class.std::allocator.10"** %this.addr, align 8
  %0 = bitcast %"class.std::allocator.10"* %this1 to %"class.__gnu_cxx::new_allocator.11"*, !dbg !4887
  call void @_ZN9__gnu_cxx13new_allocatorIiED2Ev(%"class.__gnu_cxx::new_allocator.11"* %0) #14, !dbg !4887
  ret void, !dbg !4889
}

; Function Attrs: noinline nounwind uwtable
define linkonce_odr dso_local void @_ZN9__gnu_cxx13new_allocatorIiED2Ev(%"class.__gnu_cxx::new_allocator.11"* %this) unnamed_addr #3 comdat align 2 !dbg !4890 {
entry:
  %this.addr = alloca %"class.__gnu_cxx::new_allocator.11"*, align 8
  store %"class.__gnu_cxx::new_allocator.11"* %this, %"class.__gnu_cxx::new_allocator.11"** %this.addr, align 8
  call void @llvm.dbg.declare(metadata %"class.__gnu_cxx::new_allocator.11"** %this.addr, metadata !4891, metadata !DIExpression()), !dbg !4892
  %this1 = load %"class.__gnu_cxx::new_allocator.11"*, %"class.__gnu_cxx::new_allocator.11"** %this.addr, align 8
  ret void, !dbg !4893
}

; Function Attrs: noinline nounwind uwtable
define linkonce_odr dso_local void @_ZNSt6vectorIhSaIhEED2Ev(%"class.std::vector"* %this) unnamed_addr #3 comdat align 2 personality i8* bitcast (i32 (...)* @__gxx_personality_v0 to i8*) !dbg !4894 {
entry:
  %this.addr = alloca %"class.std::vector"*, align 8
  %exn.slot = alloca i8*
  %ehselector.slot = alloca i32
  store %"class.std::vector"* %this, %"class.std::vector"** %this.addr, align 8
  call void @llvm.dbg.declare(metadata %"class.std::vector"** %this.addr, metadata !4895, metadata !DIExpression()), !dbg !4896
  %this1 = load %"class.std::vector"*, %"class.std::vector"** %this.addr, align 8
  %0 = bitcast %"class.std::vector"* %this1 to %"struct.std::_Vector_base"*, !dbg !4897
  %_M_impl = getelementptr inbounds %"struct.std::_Vector_base", %"struct.std::_Vector_base"* %0, i32 0, i32 0, !dbg !4897
  %1 = bitcast %"struct.std::_Vector_base<unsigned char, std::allocator<unsigned char> >::_Vector_impl"* %_M_impl to %"struct.std::_Vector_base<unsigned char, std::allocator<unsigned char> >::_Vector_impl_data"*, !dbg !4899
  %_M_start = getelementptr inbounds %"struct.std::_Vector_base<unsigned char, std::allocator<unsigned char> >::_Vector_impl_data", %"struct.std::_Vector_base<unsigned char, std::allocator<unsigned char> >::_Vector_impl_data"* %1, i32 0, i32 0, !dbg !4900
  %2 = load i8*, i8** %_M_start, align 8, !dbg !4900
  %3 = bitcast %"class.std::vector"* %this1 to %"struct.std::_Vector_base"*, !dbg !4901
  %_M_impl2 = getelementptr inbounds %"struct.std::_Vector_base", %"struct.std::_Vector_base"* %3, i32 0, i32 0, !dbg !4901
  %4 = bitcast %"struct.std::_Vector_base<unsigned char, std::allocator<unsigned char> >::_Vector_impl"* %_M_impl2 to %"struct.std::_Vector_base<unsigned char, std::allocator<unsigned char> >::_Vector_impl_data"*, !dbg !4902
  %_M_finish = getelementptr inbounds %"struct.std::_Vector_base<unsigned char, std::allocator<unsigned char> >::_Vector_impl_data", %"struct.std::_Vector_base<unsigned char, std::allocator<unsigned char> >::_Vector_impl_data"* %4, i32 0, i32 1, !dbg !4903
  %5 = load i8*, i8** %_M_finish, align 8, !dbg !4903
  %6 = bitcast %"class.std::vector"* %this1 to %"struct.std::_Vector_base"*, !dbg !4904
  %call = call dereferenceable(1) %"class.std::allocator"* @_ZNSt12_Vector_baseIhSaIhEE19_M_get_Tp_allocatorEv(%"struct.std::_Vector_base"* %6) #14, !dbg !4904
  invoke void @_ZSt8_DestroyIPhhEvT_S1_RSaIT0_E(i8* %2, i8* %5, %"class.std::allocator"* dereferenceable(1) %call)
          to label %invoke.cont unwind label %lpad, !dbg !4905

invoke.cont:                                      ; preds = %entry
  %7 = bitcast %"class.std::vector"* %this1 to %"struct.std::_Vector_base"*, !dbg !4906
  call void @_ZNSt12_Vector_baseIhSaIhEED2Ev(%"struct.std::_Vector_base"* %7) #14, !dbg !4906
  ret void, !dbg !4907

lpad:                                             ; preds = %entry
  %8 = landingpad { i8*, i32 }
          catch i8* null, !dbg !4906
  %9 = extractvalue { i8*, i32 } %8, 0, !dbg !4906
  store i8* %9, i8** %exn.slot, align 8, !dbg !4906
  %10 = extractvalue { i8*, i32 } %8, 1, !dbg !4906
  store i32 %10, i32* %ehselector.slot, align 4, !dbg !4906
  %11 = bitcast %"class.std::vector"* %this1 to %"struct.std::_Vector_base"*, !dbg !4906
  call void @_ZNSt12_Vector_baseIhSaIhEED2Ev(%"struct.std::_Vector_base"* %11) #14, !dbg !4906
  br label %terminate.handler, !dbg !4906

terminate.handler:                                ; preds = %lpad
  %exn = load i8*, i8** %exn.slot, align 8, !dbg !4906
  call void @__clang_call_terminate(i8* %exn) #15, !dbg !4906
  unreachable, !dbg !4906
}

; Function Attrs: noinline uwtable
define linkonce_odr dso_local void @_ZSt8_DestroyIPhhEvT_S1_RSaIT0_E(i8* %__first, i8* %__last, %"class.std::allocator"* dereferenceable(1) %0) #0 comdat !dbg !4908 {
entry:
  %__first.addr = alloca i8*, align 8
  %__last.addr = alloca i8*, align 8
  %.addr = alloca %"class.std::allocator"*, align 8
  store i8* %__first, i8** %__first.addr, align 8
  call void @llvm.dbg.declare(metadata i8** %__first.addr, metadata !4913, metadata !DIExpression()), !dbg !4914
  store i8* %__last, i8** %__last.addr, align 8
  call void @llvm.dbg.declare(metadata i8** %__last.addr, metadata !4915, metadata !DIExpression()), !dbg !4916
  store %"class.std::allocator"* %0, %"class.std::allocator"** %.addr, align 8
  call void @llvm.dbg.declare(metadata %"class.std::allocator"** %.addr, metadata !4917, metadata !DIExpression()), !dbg !4918
  %1 = load i8*, i8** %__first.addr, align 8, !dbg !4919
  %2 = load i8*, i8** %__last.addr, align 8, !dbg !4920
  call void @_ZSt8_DestroyIPhEvT_S1_(i8* %1, i8* %2), !dbg !4921
  ret void, !dbg !4922
}

; Function Attrs: noinline nounwind uwtable
define linkonce_odr dso_local dereferenceable(1) %"class.std::allocator"* @_ZNSt12_Vector_baseIhSaIhEE19_M_get_Tp_allocatorEv(%"struct.std::_Vector_base"* %this) #3 comdat align 2 !dbg !4923 {
entry:
  %this.addr = alloca %"struct.std::_Vector_base"*, align 8
  store %"struct.std::_Vector_base"* %this, %"struct.std::_Vector_base"** %this.addr, align 8
  call void @llvm.dbg.declare(metadata %"struct.std::_Vector_base"** %this.addr, metadata !4924, metadata !DIExpression()), !dbg !4925
  %this1 = load %"struct.std::_Vector_base"*, %"struct.std::_Vector_base"** %this.addr, align 8
  %_M_impl = getelementptr inbounds %"struct.std::_Vector_base", %"struct.std::_Vector_base"* %this1, i32 0, i32 0, !dbg !4926
  %0 = bitcast %"struct.std::_Vector_base<unsigned char, std::allocator<unsigned char> >::_Vector_impl"* %_M_impl to %"class.std::allocator"*, !dbg !4927
  ret %"class.std::allocator"* %0, !dbg !4928
}

; Function Attrs: noinline nounwind uwtable
define linkonce_odr dso_local void @_ZNSt12_Vector_baseIhSaIhEED2Ev(%"struct.std::_Vector_base"* %this) unnamed_addr #3 comdat align 2 personality i8* bitcast (i32 (...)* @__gxx_personality_v0 to i8*) !dbg !4929 {
entry:
  %this.addr = alloca %"struct.std::_Vector_base"*, align 8
  %exn.slot = alloca i8*
  %ehselector.slot = alloca i32
  store %"struct.std::_Vector_base"* %this, %"struct.std::_Vector_base"** %this.addr, align 8
  call void @llvm.dbg.declare(metadata %"struct.std::_Vector_base"** %this.addr, metadata !4930, metadata !DIExpression()), !dbg !4931
  %this1 = load %"struct.std::_Vector_base"*, %"struct.std::_Vector_base"** %this.addr, align 8
  %_M_impl = getelementptr inbounds %"struct.std::_Vector_base", %"struct.std::_Vector_base"* %this1, i32 0, i32 0, !dbg !4932
  %0 = bitcast %"struct.std::_Vector_base<unsigned char, std::allocator<unsigned char> >::_Vector_impl"* %_M_impl to %"struct.std::_Vector_base<unsigned char, std::allocator<unsigned char> >::_Vector_impl_data"*, !dbg !4932
  %_M_start = getelementptr inbounds %"struct.std::_Vector_base<unsigned char, std::allocator<unsigned char> >::_Vector_impl_data", %"struct.std::_Vector_base<unsigned char, std::allocator<unsigned char> >::_Vector_impl_data"* %0, i32 0, i32 0, !dbg !4934
  %1 = load i8*, i8** %_M_start, align 8, !dbg !4934
  %_M_impl2 = getelementptr inbounds %"struct.std::_Vector_base", %"struct.std::_Vector_base"* %this1, i32 0, i32 0, !dbg !4935
  %2 = bitcast %"struct.std::_Vector_base<unsigned char, std::allocator<unsigned char> >::_Vector_impl"* %_M_impl2 to %"struct.std::_Vector_base<unsigned char, std::allocator<unsigned char> >::_Vector_impl_data"*, !dbg !4935
  %_M_end_of_storage = getelementptr inbounds %"struct.std::_Vector_base<unsigned char, std::allocator<unsigned char> >::_Vector_impl_data", %"struct.std::_Vector_base<unsigned char, std::allocator<unsigned char> >::_Vector_impl_data"* %2, i32 0, i32 2, !dbg !4936
  %3 = load i8*, i8** %_M_end_of_storage, align 8, !dbg !4936
  %_M_impl3 = getelementptr inbounds %"struct.std::_Vector_base", %"struct.std::_Vector_base"* %this1, i32 0, i32 0, !dbg !4937
  %4 = bitcast %"struct.std::_Vector_base<unsigned char, std::allocator<unsigned char> >::_Vector_impl"* %_M_impl3 to %"struct.std::_Vector_base<unsigned char, std::allocator<unsigned char> >::_Vector_impl_data"*, !dbg !4937
  %_M_start4 = getelementptr inbounds %"struct.std::_Vector_base<unsigned char, std::allocator<unsigned char> >::_Vector_impl_data", %"struct.std::_Vector_base<unsigned char, std::allocator<unsigned char> >::_Vector_impl_data"* %4, i32 0, i32 0, !dbg !4938
  %5 = load i8*, i8** %_M_start4, align 8, !dbg !4938
  %sub.ptr.lhs.cast = ptrtoint i8* %3 to i64, !dbg !4939
  %sub.ptr.rhs.cast = ptrtoint i8* %5 to i64, !dbg !4939
  %sub.ptr.sub = sub i64 %sub.ptr.lhs.cast, %sub.ptr.rhs.cast, !dbg !4939
  invoke void @_ZNSt12_Vector_baseIhSaIhEE13_M_deallocateEPhm(%"struct.std::_Vector_base"* %this1, i8* %1, i64 %sub.ptr.sub)
          to label %invoke.cont unwind label %lpad, !dbg !4940

invoke.cont:                                      ; preds = %entry
  %_M_impl5 = getelementptr inbounds %"struct.std::_Vector_base", %"struct.std::_Vector_base"* %this1, i32 0, i32 0, !dbg !4941
  call void @_ZNSt12_Vector_baseIhSaIhEE12_Vector_implD2Ev(%"struct.std::_Vector_base<unsigned char, std::allocator<unsigned char> >::_Vector_impl"* %_M_impl5) #14, !dbg !4941
  ret void, !dbg !4942

lpad:                                             ; preds = %entry
  %6 = landingpad { i8*, i32 }
          catch i8* null, !dbg !4941
  %7 = extractvalue { i8*, i32 } %6, 0, !dbg !4941
  store i8* %7, i8** %exn.slot, align 8, !dbg !4941
  %8 = extractvalue { i8*, i32 } %6, 1, !dbg !4941
  store i32 %8, i32* %ehselector.slot, align 4, !dbg !4941
  %_M_impl6 = getelementptr inbounds %"struct.std::_Vector_base", %"struct.std::_Vector_base"* %this1, i32 0, i32 0, !dbg !4941
  call void @_ZNSt12_Vector_baseIhSaIhEE12_Vector_implD2Ev(%"struct.std::_Vector_base<unsigned char, std::allocator<unsigned char> >::_Vector_impl"* %_M_impl6) #14, !dbg !4941
  br label %terminate.handler, !dbg !4941

terminate.handler:                                ; preds = %lpad
  %exn = load i8*, i8** %exn.slot, align 8, !dbg !4941
  call void @__clang_call_terminate(i8* %exn) #15, !dbg !4941
  unreachable, !dbg !4941
}

; Function Attrs: noinline uwtable
define linkonce_odr dso_local void @_ZSt8_DestroyIPhEvT_S1_(i8* %__first, i8* %__last) #0 comdat !dbg !4943 {
entry:
  %__first.addr = alloca i8*, align 8
  %__last.addr = alloca i8*, align 8
  store i8* %__first, i8** %__first.addr, align 8
  call void @llvm.dbg.declare(metadata i8** %__first.addr, metadata !4947, metadata !DIExpression()), !dbg !4948
  store i8* %__last, i8** %__last.addr, align 8
  call void @llvm.dbg.declare(metadata i8** %__last.addr, metadata !4949, metadata !DIExpression()), !dbg !4950
  %0 = load i8*, i8** %__first.addr, align 8, !dbg !4951
  %1 = load i8*, i8** %__last.addr, align 8, !dbg !4952
  call void @_ZNSt12_Destroy_auxILb1EE9__destroyIPhEEvT_S3_(i8* %0, i8* %1), !dbg !4953
  ret void, !dbg !4954
}

; Function Attrs: noinline nounwind uwtable
define linkonce_odr dso_local void @_ZNSt12_Destroy_auxILb1EE9__destroyIPhEEvT_S3_(i8* %0, i8* %1) #3 comdat align 2 !dbg !4955 {
entry:
  %.addr = alloca i8*, align 8
  %.addr1 = alloca i8*, align 8
  store i8* %0, i8** %.addr, align 8
  call void @llvm.dbg.declare(metadata i8** %.addr, metadata !4957, metadata !DIExpression()), !dbg !4958
  store i8* %1, i8** %.addr1, align 8
  call void @llvm.dbg.declare(metadata i8** %.addr1, metadata !4959, metadata !DIExpression()), !dbg !4960
  ret void, !dbg !4961
}

; Function Attrs: noinline uwtable
define linkonce_odr dso_local void @_ZNSt12_Vector_baseIhSaIhEE13_M_deallocateEPhm(%"struct.std::_Vector_base"* %this, i8* %__p, i64 %__n) #0 comdat align 2 !dbg !4962 {
entry:
  %this.addr = alloca %"struct.std::_Vector_base"*, align 8
  %__p.addr = alloca i8*, align 8
  %__n.addr = alloca i64, align 8
  store %"struct.std::_Vector_base"* %this, %"struct.std::_Vector_base"** %this.addr, align 8
  call void @llvm.dbg.declare(metadata %"struct.std::_Vector_base"** %this.addr, metadata !4963, metadata !DIExpression()), !dbg !4964
  store i8* %__p, i8** %__p.addr, align 8
  call void @llvm.dbg.declare(metadata i8** %__p.addr, metadata !4965, metadata !DIExpression()), !dbg !4966
  store i64 %__n, i64* %__n.addr, align 8
  call void @llvm.dbg.declare(metadata i64* %__n.addr, metadata !4967, metadata !DIExpression()), !dbg !4968
  %this1 = load %"struct.std::_Vector_base"*, %"struct.std::_Vector_base"** %this.addr, align 8
  %0 = load i8*, i8** %__p.addr, align 8, !dbg !4969
  %tobool = icmp ne i8* %0, null, !dbg !4969
  br i1 %tobool, label %if.then, label %if.end, !dbg !4971

if.then:                                          ; preds = %entry
  %_M_impl = getelementptr inbounds %"struct.std::_Vector_base", %"struct.std::_Vector_base"* %this1, i32 0, i32 0, !dbg !4972
  %1 = bitcast %"struct.std::_Vector_base<unsigned char, std::allocator<unsigned char> >::_Vector_impl"* %_M_impl to %"class.std::allocator"*, !dbg !4972
  %2 = load i8*, i8** %__p.addr, align 8, !dbg !4973
  %3 = load i64, i64* %__n.addr, align 8, !dbg !4974
  call void @_ZNSt16allocator_traitsISaIhEE10deallocateERS0_Phm(%"class.std::allocator"* dereferenceable(1) %1, i8* %2, i64 %3), !dbg !4975
  br label %if.end, !dbg !4975

if.end:                                           ; preds = %if.then, %entry
  ret void, !dbg !4976
}

; Function Attrs: noinline nounwind uwtable
define linkonce_odr dso_local void @_ZNSt12_Vector_baseIhSaIhEE12_Vector_implD2Ev(%"struct.std::_Vector_base<unsigned char, std::allocator<unsigned char> >::_Vector_impl"* %this) unnamed_addr #3 comdat align 2 !dbg !4977 {
entry:
  %this.addr = alloca %"struct.std::_Vector_base<unsigned char, std::allocator<unsigned char> >::_Vector_impl"*, align 8
  store %"struct.std::_Vector_base<unsigned char, std::allocator<unsigned char> >::_Vector_impl"* %this, %"struct.std::_Vector_base<unsigned char, std::allocator<unsigned char> >::_Vector_impl"** %this.addr, align 8
  call void @llvm.dbg.declare(metadata %"struct.std::_Vector_base<unsigned char, std::allocator<unsigned char> >::_Vector_impl"** %this.addr, metadata !4979, metadata !DIExpression()), !dbg !4980
  %this1 = load %"struct.std::_Vector_base<unsigned char, std::allocator<unsigned char> >::_Vector_impl"*, %"struct.std::_Vector_base<unsigned char, std::allocator<unsigned char> >::_Vector_impl"** %this.addr, align 8
  %0 = bitcast %"struct.std::_Vector_base<unsigned char, std::allocator<unsigned char> >::_Vector_impl"* %this1 to %"class.std::allocator"*, !dbg !4981
  call void @_ZNSaIhED2Ev(%"class.std::allocator"* %0) #14, !dbg !4981
  ret void, !dbg !4983
}

; Function Attrs: noinline uwtable
define linkonce_odr dso_local void @_ZNSt16allocator_traitsISaIhEE10deallocateERS0_Phm(%"class.std::allocator"* dereferenceable(1) %__a, i8* %__p, i64 %__n) #0 comdat align 2 !dbg !4984 {
entry:
  %__a.addr = alloca %"class.std::allocator"*, align 8
  %__p.addr = alloca i8*, align 8
  %__n.addr = alloca i64, align 8
  store %"class.std::allocator"* %__a, %"class.std::allocator"** %__a.addr, align 8
  call void @llvm.dbg.declare(metadata %"class.std::allocator"** %__a.addr, metadata !4985, metadata !DIExpression()), !dbg !4986
  store i8* %__p, i8** %__p.addr, align 8
  call void @llvm.dbg.declare(metadata i8** %__p.addr, metadata !4987, metadata !DIExpression()), !dbg !4988
  store i64 %__n, i64* %__n.addr, align 8
  call void @llvm.dbg.declare(metadata i64* %__n.addr, metadata !4989, metadata !DIExpression()), !dbg !4990
  %0 = load %"class.std::allocator"*, %"class.std::allocator"** %__a.addr, align 8, !dbg !4991
  %1 = bitcast %"class.std::allocator"* %0 to %"class.__gnu_cxx::new_allocator"*, !dbg !4991
  %2 = load i8*, i8** %__p.addr, align 8, !dbg !4992
  %3 = load i64, i64* %__n.addr, align 8, !dbg !4993
  call void @_ZN9__gnu_cxx13new_allocatorIhE10deallocateEPhm(%"class.__gnu_cxx::new_allocator"* %1, i8* %2, i64 %3), !dbg !4994
  ret void, !dbg !4995
}

; Function Attrs: noinline nounwind uwtable
define linkonce_odr dso_local void @_ZN9__gnu_cxx13new_allocatorIhE10deallocateEPhm(%"class.__gnu_cxx::new_allocator"* %this, i8* %__p, i64 %__t) #3 comdat align 2 !dbg !4996 {
entry:
  %this.addr = alloca %"class.__gnu_cxx::new_allocator"*, align 8
  %__p.addr = alloca i8*, align 8
  %__t.addr = alloca i64, align 8
  store %"class.__gnu_cxx::new_allocator"* %this, %"class.__gnu_cxx::new_allocator"** %this.addr, align 8
  call void @llvm.dbg.declare(metadata %"class.__gnu_cxx::new_allocator"** %this.addr, metadata !4997, metadata !DIExpression()), !dbg !4998
  store i8* %__p, i8** %__p.addr, align 8
  call void @llvm.dbg.declare(metadata i8** %__p.addr, metadata !4999, metadata !DIExpression()), !dbg !5000
  store i64 %__t, i64* %__t.addr, align 8
  call void @llvm.dbg.declare(metadata i64* %__t.addr, metadata !5001, metadata !DIExpression()), !dbg !5002
  %this1 = load %"class.__gnu_cxx::new_allocator"*, %"class.__gnu_cxx::new_allocator"** %this.addr, align 8
  %0 = load i8*, i8** %__p.addr, align 8, !dbg !5003
  call void @_ZdlPv(i8* %0) #14, !dbg !5004
  ret void, !dbg !5005
}

; Function Attrs: noinline nounwind uwtable
define linkonce_odr dso_local void @_ZNSaIhED2Ev(%"class.std::allocator"* %this) unnamed_addr #3 comdat align 2 !dbg !5006 {
entry:
  %this.addr = alloca %"class.std::allocator"*, align 8
  store %"class.std::allocator"* %this, %"class.std::allocator"** %this.addr, align 8
  call void @llvm.dbg.declare(metadata %"class.std::allocator"** %this.addr, metadata !5007, metadata !DIExpression()), !dbg !5008
  %this1 = load %"class.std::allocator"*, %"class.std::allocator"** %this.addr, align 8
  %0 = bitcast %"class.std::allocator"* %this1 to %"class.__gnu_cxx::new_allocator"*, !dbg !5009
  call void @_ZN9__gnu_cxx13new_allocatorIhED2Ev(%"class.__gnu_cxx::new_allocator"* %0) #14, !dbg !5009
  ret void, !dbg !5011
}

; Function Attrs: noinline nounwind uwtable
define linkonce_odr dso_local void @_ZN9__gnu_cxx13new_allocatorIhED2Ev(%"class.__gnu_cxx::new_allocator"* %this) unnamed_addr #3 comdat align 2 !dbg !5012 {
entry:
  %this.addr = alloca %"class.__gnu_cxx::new_allocator"*, align 8
  store %"class.__gnu_cxx::new_allocator"* %this, %"class.__gnu_cxx::new_allocator"** %this.addr, align 8
  call void @llvm.dbg.declare(metadata %"class.__gnu_cxx::new_allocator"** %this.addr, metadata !5013, metadata !DIExpression()), !dbg !5014
  %this1 = load %"class.__gnu_cxx::new_allocator"*, %"class.__gnu_cxx::new_allocator"** %this.addr, align 8
  ret void, !dbg !5015
}

; Function Attrs: noinline nounwind uwtable
define linkonce_odr dso_local i64 @_ZNKSt6vectorIhSaIhEE4sizeEv(%"class.std::vector"* %this) #3 comdat align 2 !dbg !5016 {
entry:
  %this.addr = alloca %"class.std::vector"*, align 8
  store %"class.std::vector"* %this, %"class.std::vector"** %this.addr, align 8
  call void @llvm.dbg.declare(metadata %"class.std::vector"** %this.addr, metadata !5017, metadata !DIExpression()), !dbg !5018
  %this1 = load %"class.std::vector"*, %"class.std::vector"** %this.addr, align 8
  %0 = bitcast %"class.std::vector"* %this1 to %"struct.std::_Vector_base"*, !dbg !5019
  %_M_impl = getelementptr inbounds %"struct.std::_Vector_base", %"struct.std::_Vector_base"* %0, i32 0, i32 0, !dbg !5019
  %1 = bitcast %"struct.std::_Vector_base<unsigned char, std::allocator<unsigned char> >::_Vector_impl"* %_M_impl to %"struct.std::_Vector_base<unsigned char, std::allocator<unsigned char> >::_Vector_impl_data"*, !dbg !5020
  %_M_finish = getelementptr inbounds %"struct.std::_Vector_base<unsigned char, std::allocator<unsigned char> >::_Vector_impl_data", %"struct.std::_Vector_base<unsigned char, std::allocator<unsigned char> >::_Vector_impl_data"* %1, i32 0, i32 1, !dbg !5021
  %2 = load i8*, i8** %_M_finish, align 8, !dbg !5021
  %3 = bitcast %"class.std::vector"* %this1 to %"struct.std::_Vector_base"*, !dbg !5022
  %_M_impl2 = getelementptr inbounds %"struct.std::_Vector_base", %"struct.std::_Vector_base"* %3, i32 0, i32 0, !dbg !5022
  %4 = bitcast %"struct.std::_Vector_base<unsigned char, std::allocator<unsigned char> >::_Vector_impl"* %_M_impl2 to %"struct.std::_Vector_base<unsigned char, std::allocator<unsigned char> >::_Vector_impl_data"*, !dbg !5023
  %_M_start = getelementptr inbounds %"struct.std::_Vector_base<unsigned char, std::allocator<unsigned char> >::_Vector_impl_data", %"struct.std::_Vector_base<unsigned char, std::allocator<unsigned char> >::_Vector_impl_data"* %4, i32 0, i32 0, !dbg !5024
  %5 = load i8*, i8** %_M_start, align 8, !dbg !5024
  %sub.ptr.lhs.cast = ptrtoint i8* %2 to i64, !dbg !5025
  %sub.ptr.rhs.cast = ptrtoint i8* %5 to i64, !dbg !5025
  %sub.ptr.sub = sub i64 %sub.ptr.lhs.cast, %sub.ptr.rhs.cast, !dbg !5025
  ret i64 %sub.ptr.sub, !dbg !5026
}

; Function Attrs: noinline uwtable
define linkonce_odr dso_local void @_ZNSt6vectorIhSaIhEE17_M_default_appendEm(%"class.std::vector"* %this, i64 %__n) #0 comdat align 2 personality i8* bitcast (i32 (...)* @__gxx_personality_v0 to i8*) !dbg !5027 {
entry:
  %this.addr = alloca %"class.std::vector"*, align 8
  %__n.addr = alloca i64, align 8
  %__size = alloca i64, align 8
  %__navail = alloca i64, align 8
  %__len = alloca i64, align 8
  %__new_start = alloca i8*, align 8
  %exn.slot = alloca i8*
  %ehselector.slot = alloca i32
  store %"class.std::vector"* %this, %"class.std::vector"** %this.addr, align 8
  call void @llvm.dbg.declare(metadata %"class.std::vector"** %this.addr, metadata !5029, metadata !DIExpression()), !dbg !5030
  store i64 %__n, i64* %__n.addr, align 8
  call void @llvm.dbg.declare(metadata i64* %__n.addr, metadata !5031, metadata !DIExpression()), !dbg !5032
  %this1 = load %"class.std::vector"*, %"class.std::vector"** %this.addr, align 8
  %0 = load i64, i64* %__n.addr, align 8, !dbg !5033
  %cmp = icmp ne i64 %0, 0, !dbg !5035
  br i1 %cmp, label %if.then, label %if.end47, !dbg !5036

if.then:                                          ; preds = %entry
  call void @llvm.dbg.declare(metadata i64* %__size, metadata !5037, metadata !DIExpression()), !dbg !5040
  %call = call i64 @_ZNKSt6vectorIhSaIhEE4sizeEv(%"class.std::vector"* %this1) #14, !dbg !5041
  store i64 %call, i64* %__size, align 8, !dbg !5040
  call void @llvm.dbg.declare(metadata i64* %__navail, metadata !5042, metadata !DIExpression()), !dbg !5043
  %1 = bitcast %"class.std::vector"* %this1 to %"struct.std::_Vector_base"*, !dbg !5044
  %_M_impl = getelementptr inbounds %"struct.std::_Vector_base", %"struct.std::_Vector_base"* %1, i32 0, i32 0, !dbg !5044
  %2 = bitcast %"struct.std::_Vector_base<unsigned char, std::allocator<unsigned char> >::_Vector_impl"* %_M_impl to %"struct.std::_Vector_base<unsigned char, std::allocator<unsigned char> >::_Vector_impl_data"*, !dbg !5045
  %_M_end_of_storage = getelementptr inbounds %"struct.std::_Vector_base<unsigned char, std::allocator<unsigned char> >::_Vector_impl_data", %"struct.std::_Vector_base<unsigned char, std::allocator<unsigned char> >::_Vector_impl_data"* %2, i32 0, i32 2, !dbg !5046
  %3 = load i8*, i8** %_M_end_of_storage, align 8, !dbg !5046
  %4 = bitcast %"class.std::vector"* %this1 to %"struct.std::_Vector_base"*, !dbg !5047
  %_M_impl2 = getelementptr inbounds %"struct.std::_Vector_base", %"struct.std::_Vector_base"* %4, i32 0, i32 0, !dbg !5047
  %5 = bitcast %"struct.std::_Vector_base<unsigned char, std::allocator<unsigned char> >::_Vector_impl"* %_M_impl2 to %"struct.std::_Vector_base<unsigned char, std::allocator<unsigned char> >::_Vector_impl_data"*, !dbg !5048
  %_M_finish = getelementptr inbounds %"struct.std::_Vector_base<unsigned char, std::allocator<unsigned char> >::_Vector_impl_data", %"struct.std::_Vector_base<unsigned char, std::allocator<unsigned char> >::_Vector_impl_data"* %5, i32 0, i32 1, !dbg !5049
  %6 = load i8*, i8** %_M_finish, align 8, !dbg !5049
  %sub.ptr.lhs.cast = ptrtoint i8* %3 to i64, !dbg !5050
  %sub.ptr.rhs.cast = ptrtoint i8* %6 to i64, !dbg !5050
  %sub.ptr.sub = sub i64 %sub.ptr.lhs.cast, %sub.ptr.rhs.cast, !dbg !5050
  store i64 %sub.ptr.sub, i64* %__navail, align 8, !dbg !5043
  %7 = load i64, i64* %__size, align 8, !dbg !5051
  %call3 = call i64 @_ZNKSt6vectorIhSaIhEE8max_sizeEv(%"class.std::vector"* %this1) #14, !dbg !5053
  %cmp4 = icmp ugt i64 %7, %call3, !dbg !5054
  br i1 %cmp4, label %if.then7, label %lor.lhs.false, !dbg !5055

lor.lhs.false:                                    ; preds = %if.then
  %8 = load i64, i64* %__navail, align 8, !dbg !5056
  %call5 = call i64 @_ZNKSt6vectorIhSaIhEE8max_sizeEv(%"class.std::vector"* %this1) #14, !dbg !5057
  %9 = load i64, i64* %__size, align 8, !dbg !5058
  %sub = sub i64 %call5, %9, !dbg !5059
  %cmp6 = icmp ugt i64 %8, %sub, !dbg !5060
  br i1 %cmp6, label %if.then7, label %if.end, !dbg !5061

if.then7:                                         ; preds = %lor.lhs.false, %if.then
  unreachable, !dbg !5062

if.end:                                           ; preds = %lor.lhs.false
  %10 = load i64, i64* %__navail, align 8, !dbg !5063
  %11 = load i64, i64* %__n.addr, align 8, !dbg !5065
  %cmp8 = icmp uge i64 %10, %11, !dbg !5066
  br i1 %cmp8, label %if.then9, label %if.else, !dbg !5067

if.then9:                                         ; preds = %if.end
  %12 = bitcast %"class.std::vector"* %this1 to %"struct.std::_Vector_base"*, !dbg !5068
  %_M_impl10 = getelementptr inbounds %"struct.std::_Vector_base", %"struct.std::_Vector_base"* %12, i32 0, i32 0, !dbg !5068
  %13 = bitcast %"struct.std::_Vector_base<unsigned char, std::allocator<unsigned char> >::_Vector_impl"* %_M_impl10 to %"struct.std::_Vector_base<unsigned char, std::allocator<unsigned char> >::_Vector_impl_data"*, !dbg !5070
  %_M_finish11 = getelementptr inbounds %"struct.std::_Vector_base<unsigned char, std::allocator<unsigned char> >::_Vector_impl_data", %"struct.std::_Vector_base<unsigned char, std::allocator<unsigned char> >::_Vector_impl_data"* %13, i32 0, i32 1, !dbg !5071
  %14 = load i8*, i8** %_M_finish11, align 8, !dbg !5071
  %15 = load i64, i64* %__n.addr, align 8, !dbg !5072
  %16 = bitcast %"class.std::vector"* %this1 to %"struct.std::_Vector_base"*, !dbg !5073
  %call12 = call dereferenceable(1) %"class.std::allocator"* @_ZNSt12_Vector_baseIhSaIhEE19_M_get_Tp_allocatorEv(%"struct.std::_Vector_base"* %16) #14, !dbg !5073
  %call13 = call i8* @_ZSt27__uninitialized_default_n_aIPhmhET_S1_T0_RSaIT1_E(i8* %14, i64 %15, %"class.std::allocator"* dereferenceable(1) %call12), !dbg !5074
  %17 = bitcast %"class.std::vector"* %this1 to %"struct.std::_Vector_base"*, !dbg !5075
  %_M_impl14 = getelementptr inbounds %"struct.std::_Vector_base", %"struct.std::_Vector_base"* %17, i32 0, i32 0, !dbg !5075
  %18 = bitcast %"struct.std::_Vector_base<unsigned char, std::allocator<unsigned char> >::_Vector_impl"* %_M_impl14 to %"struct.std::_Vector_base<unsigned char, std::allocator<unsigned char> >::_Vector_impl_data"*, !dbg !5076
  %_M_finish15 = getelementptr inbounds %"struct.std::_Vector_base<unsigned char, std::allocator<unsigned char> >::_Vector_impl_data", %"struct.std::_Vector_base<unsigned char, std::allocator<unsigned char> >::_Vector_impl_data"* %18, i32 0, i32 1, !dbg !5077
  store i8* %call13, i8** %_M_finish15, align 8, !dbg !5078
  br label %if.end46, !dbg !5079

if.else:                                          ; preds = %if.end
  call void @llvm.dbg.declare(metadata i64* %__len, metadata !5080, metadata !DIExpression()), !dbg !5082
  %19 = load i64, i64* %__n.addr, align 8, !dbg !5083
  %call16 = call i64 @_ZNKSt6vectorIhSaIhEE12_M_check_lenEmPKc(%"class.std::vector"* %this1, i64 %19, i8* getelementptr inbounds ([26 x i8], [26 x i8]* @.str, i64 0, i64 0)), !dbg !5084
  store i64 %call16, i64* %__len, align 8, !dbg !5082
  call void @llvm.dbg.declare(metadata i8** %__new_start, metadata !5085, metadata !DIExpression()), !dbg !5086
  %20 = bitcast %"class.std::vector"* %this1 to %"struct.std::_Vector_base"*, !dbg !5087
  %21 = load i64, i64* %__len, align 8, !dbg !5088
  %call17 = call i8* @_ZNSt12_Vector_baseIhSaIhEE11_M_allocateEm(%"struct.std::_Vector_base"* %20, i64 %21), !dbg !5087
  store i8* %call17, i8** %__new_start, align 8, !dbg !5086
  %22 = load i8*, i8** %__new_start, align 8, !dbg !5089
  %23 = load i64, i64* %__size, align 8, !dbg !5093
  %add.ptr = getelementptr inbounds i8, i8* %22, i64 %23, !dbg !5094
  %24 = load i64, i64* %__n.addr, align 8, !dbg !5095
  %25 = bitcast %"class.std::vector"* %this1 to %"struct.std::_Vector_base"*, !dbg !5096
  %call18 = call dereferenceable(1) %"class.std::allocator"* @_ZNSt12_Vector_baseIhSaIhEE19_M_get_Tp_allocatorEv(%"struct.std::_Vector_base"* %25) #14, !dbg !5096
  %call19 = invoke i8* @_ZSt27__uninitialized_default_n_aIPhmhET_S1_T0_RSaIT1_E(i8* %add.ptr, i64 %24, %"class.std::allocator"* dereferenceable(1) %call18)
          to label %invoke.cont unwind label %lpad, !dbg !5097

invoke.cont:                                      ; preds = %if.else
  br label %try.cont, !dbg !5098

lpad:                                             ; preds = %if.else
  %26 = landingpad { i8*, i32 }
          catch i8* null, !dbg !5099
  %27 = extractvalue { i8*, i32 } %26, 0, !dbg !5099
  store i8* %27, i8** %exn.slot, align 8, !dbg !5099
  %28 = extractvalue { i8*, i32 } %26, 1, !dbg !5099
  store i32 %28, i32* %ehselector.slot, align 4, !dbg !5099
  br label %catch, !dbg !5099

catch:                                            ; preds = %lpad
  %exn = load i8*, i8** %exn.slot, align 8, !dbg !5098
  %29 = call i8* @__cxa_begin_catch(i8* %exn) #14, !dbg !5098
  %30 = bitcast %"class.std::vector"* %this1 to %"struct.std::_Vector_base"*, !dbg !5100
  %31 = load i8*, i8** %__new_start, align 8, !dbg !5102
  %32 = load i64, i64* %__len, align 8, !dbg !5103
  invoke void @_ZNSt12_Vector_baseIhSaIhEE13_M_deallocateEPhm(%"struct.std::_Vector_base"* %30, i8* %31, i64 %32)
          to label %invoke.cont21 unwind label %lpad20, !dbg !5100

invoke.cont21:                                    ; preds = %catch
  invoke void @__cxa_rethrow() #16
          to label %unreachable unwind label %lpad20, !dbg !5104

lpad20:                                           ; preds = %invoke.cont21, %catch
  %33 = landingpad { i8*, i32 }
          cleanup, !dbg !5105
  %34 = extractvalue { i8*, i32 } %33, 0, !dbg !5105
  store i8* %34, i8** %exn.slot, align 8, !dbg !5105
  %35 = extractvalue { i8*, i32 } %33, 1, !dbg !5105
  store i32 %35, i32* %ehselector.slot, align 4, !dbg !5105
  invoke void @__cxa_end_catch()
          to label %invoke.cont22 unwind label %terminate.lpad, !dbg !5106

invoke.cont22:                                    ; preds = %lpad20
  br label %eh.resume, !dbg !5106

try.cont:                                         ; preds = %invoke.cont
  %36 = bitcast %"class.std::vector"* %this1 to %"struct.std::_Vector_base"*, !dbg !5107
  %_M_impl23 = getelementptr inbounds %"struct.std::_Vector_base", %"struct.std::_Vector_base"* %36, i32 0, i32 0, !dbg !5107
  %37 = bitcast %"struct.std::_Vector_base<unsigned char, std::allocator<unsigned char> >::_Vector_impl"* %_M_impl23 to %"struct.std::_Vector_base<unsigned char, std::allocator<unsigned char> >::_Vector_impl_data"*, !dbg !5108
  %_M_start = getelementptr inbounds %"struct.std::_Vector_base<unsigned char, std::allocator<unsigned char> >::_Vector_impl_data", %"struct.std::_Vector_base<unsigned char, std::allocator<unsigned char> >::_Vector_impl_data"* %37, i32 0, i32 0, !dbg !5109
  %38 = load i8*, i8** %_M_start, align 8, !dbg !5109
  %39 = bitcast %"class.std::vector"* %this1 to %"struct.std::_Vector_base"*, !dbg !5110
  %_M_impl24 = getelementptr inbounds %"struct.std::_Vector_base", %"struct.std::_Vector_base"* %39, i32 0, i32 0, !dbg !5110
  %40 = bitcast %"struct.std::_Vector_base<unsigned char, std::allocator<unsigned char> >::_Vector_impl"* %_M_impl24 to %"struct.std::_Vector_base<unsigned char, std::allocator<unsigned char> >::_Vector_impl_data"*, !dbg !5111
  %_M_finish25 = getelementptr inbounds %"struct.std::_Vector_base<unsigned char, std::allocator<unsigned char> >::_Vector_impl_data", %"struct.std::_Vector_base<unsigned char, std::allocator<unsigned char> >::_Vector_impl_data"* %40, i32 0, i32 1, !dbg !5112
  %41 = load i8*, i8** %_M_finish25, align 8, !dbg !5112
  %42 = load i8*, i8** %__new_start, align 8, !dbg !5113
  %43 = bitcast %"class.std::vector"* %this1 to %"struct.std::_Vector_base"*, !dbg !5114
  %call26 = call dereferenceable(1) %"class.std::allocator"* @_ZNSt12_Vector_baseIhSaIhEE19_M_get_Tp_allocatorEv(%"struct.std::_Vector_base"* %43) #14, !dbg !5114
  %call27 = call i8* @_ZNSt6vectorIhSaIhEE11_S_relocateEPhS2_S2_RS0_(i8* %38, i8* %41, i8* %42, %"class.std::allocator"* dereferenceable(1) %call26) #14, !dbg !5115
  %44 = bitcast %"class.std::vector"* %this1 to %"struct.std::_Vector_base"*, !dbg !5116
  %45 = bitcast %"class.std::vector"* %this1 to %"struct.std::_Vector_base"*, !dbg !5117
  %_M_impl28 = getelementptr inbounds %"struct.std::_Vector_base", %"struct.std::_Vector_base"* %45, i32 0, i32 0, !dbg !5117
  %46 = bitcast %"struct.std::_Vector_base<unsigned char, std::allocator<unsigned char> >::_Vector_impl"* %_M_impl28 to %"struct.std::_Vector_base<unsigned char, std::allocator<unsigned char> >::_Vector_impl_data"*, !dbg !5118
  %_M_start29 = getelementptr inbounds %"struct.std::_Vector_base<unsigned char, std::allocator<unsigned char> >::_Vector_impl_data", %"struct.std::_Vector_base<unsigned char, std::allocator<unsigned char> >::_Vector_impl_data"* %46, i32 0, i32 0, !dbg !5119
  %47 = load i8*, i8** %_M_start29, align 8, !dbg !5119
  %48 = bitcast %"class.std::vector"* %this1 to %"struct.std::_Vector_base"*, !dbg !5120
  %_M_impl30 = getelementptr inbounds %"struct.std::_Vector_base", %"struct.std::_Vector_base"* %48, i32 0, i32 0, !dbg !5120
  %49 = bitcast %"struct.std::_Vector_base<unsigned char, std::allocator<unsigned char> >::_Vector_impl"* %_M_impl30 to %"struct.std::_Vector_base<unsigned char, std::allocator<unsigned char> >::_Vector_impl_data"*, !dbg !5121
  %_M_end_of_storage31 = getelementptr inbounds %"struct.std::_Vector_base<unsigned char, std::allocator<unsigned char> >::_Vector_impl_data", %"struct.std::_Vector_base<unsigned char, std::allocator<unsigned char> >::_Vector_impl_data"* %49, i32 0, i32 2, !dbg !5122
  %50 = load i8*, i8** %_M_end_of_storage31, align 8, !dbg !5122
  %51 = bitcast %"class.std::vector"* %this1 to %"struct.std::_Vector_base"*, !dbg !5123
  %_M_impl32 = getelementptr inbounds %"struct.std::_Vector_base", %"struct.std::_Vector_base"* %51, i32 0, i32 0, !dbg !5123
  %52 = bitcast %"struct.std::_Vector_base<unsigned char, std::allocator<unsigned char> >::_Vector_impl"* %_M_impl32 to %"struct.std::_Vector_base<unsigned char, std::allocator<unsigned char> >::_Vector_impl_data"*, !dbg !5124
  %_M_start33 = getelementptr inbounds %"struct.std::_Vector_base<unsigned char, std::allocator<unsigned char> >::_Vector_impl_data", %"struct.std::_Vector_base<unsigned char, std::allocator<unsigned char> >::_Vector_impl_data"* %52, i32 0, i32 0, !dbg !5125
  %53 = load i8*, i8** %_M_start33, align 8, !dbg !5125
  %sub.ptr.lhs.cast34 = ptrtoint i8* %50 to i64, !dbg !5126
  %sub.ptr.rhs.cast35 = ptrtoint i8* %53 to i64, !dbg !5126
  %sub.ptr.sub36 = sub i64 %sub.ptr.lhs.cast34, %sub.ptr.rhs.cast35, !dbg !5126
  call void @_ZNSt12_Vector_baseIhSaIhEE13_M_deallocateEPhm(%"struct.std::_Vector_base"* %44, i8* %47, i64 %sub.ptr.sub36), !dbg !5116
  %54 = load i8*, i8** %__new_start, align 8, !dbg !5127
  %55 = bitcast %"class.std::vector"* %this1 to %"struct.std::_Vector_base"*, !dbg !5128
  %_M_impl37 = getelementptr inbounds %"struct.std::_Vector_base", %"struct.std::_Vector_base"* %55, i32 0, i32 0, !dbg !5128
  %56 = bitcast %"struct.std::_Vector_base<unsigned char, std::allocator<unsigned char> >::_Vector_impl"* %_M_impl37 to %"struct.std::_Vector_base<unsigned char, std::allocator<unsigned char> >::_Vector_impl_data"*, !dbg !5129
  %_M_start38 = getelementptr inbounds %"struct.std::_Vector_base<unsigned char, std::allocator<unsigned char> >::_Vector_impl_data", %"struct.std::_Vector_base<unsigned char, std::allocator<unsigned char> >::_Vector_impl_data"* %56, i32 0, i32 0, !dbg !5130
  store i8* %54, i8** %_M_start38, align 8, !dbg !5131
  %57 = load i8*, i8** %__new_start, align 8, !dbg !5132
  %58 = load i64, i64* %__size, align 8, !dbg !5133
  %add.ptr39 = getelementptr inbounds i8, i8* %57, i64 %58, !dbg !5134
  %59 = load i64, i64* %__n.addr, align 8, !dbg !5135
  %add.ptr40 = getelementptr inbounds i8, i8* %add.ptr39, i64 %59, !dbg !5136
  %60 = bitcast %"class.std::vector"* %this1 to %"struct.std::_Vector_base"*, !dbg !5137
  %_M_impl41 = getelementptr inbounds %"struct.std::_Vector_base", %"struct.std::_Vector_base"* %60, i32 0, i32 0, !dbg !5137
  %61 = bitcast %"struct.std::_Vector_base<unsigned char, std::allocator<unsigned char> >::_Vector_impl"* %_M_impl41 to %"struct.std::_Vector_base<unsigned char, std::allocator<unsigned char> >::_Vector_impl_data"*, !dbg !5138
  %_M_finish42 = getelementptr inbounds %"struct.std::_Vector_base<unsigned char, std::allocator<unsigned char> >::_Vector_impl_data", %"struct.std::_Vector_base<unsigned char, std::allocator<unsigned char> >::_Vector_impl_data"* %61, i32 0, i32 1, !dbg !5139
  store i8* %add.ptr40, i8** %_M_finish42, align 8, !dbg !5140
  %62 = load i8*, i8** %__new_start, align 8, !dbg !5141
  %63 = load i64, i64* %__len, align 8, !dbg !5142
  %add.ptr43 = getelementptr inbounds i8, i8* %62, i64 %63, !dbg !5143
  %64 = bitcast %"class.std::vector"* %this1 to %"struct.std::_Vector_base"*, !dbg !5144
  %_M_impl44 = getelementptr inbounds %"struct.std::_Vector_base", %"struct.std::_Vector_base"* %64, i32 0, i32 0, !dbg !5144
  %65 = bitcast %"struct.std::_Vector_base<unsigned char, std::allocator<unsigned char> >::_Vector_impl"* %_M_impl44 to %"struct.std::_Vector_base<unsigned char, std::allocator<unsigned char> >::_Vector_impl_data"*, !dbg !5145
  %_M_end_of_storage45 = getelementptr inbounds %"struct.std::_Vector_base<unsigned char, std::allocator<unsigned char> >::_Vector_impl_data", %"struct.std::_Vector_base<unsigned char, std::allocator<unsigned char> >::_Vector_impl_data"* %65, i32 0, i32 2, !dbg !5146
  store i8* %add.ptr43, i8** %_M_end_of_storage45, align 8, !dbg !5147
  br label %if.end46

if.end46:                                         ; preds = %try.cont, %if.then9
  br label %if.end47, !dbg !5148

if.end47:                                         ; preds = %if.end46, %entry
  ret void, !dbg !5149

eh.resume:                                        ; preds = %invoke.cont22
  %exn48 = load i8*, i8** %exn.slot, align 8, !dbg !5106
  %sel = load i32, i32* %ehselector.slot, align 4, !dbg !5106
  %lpad.val = insertvalue { i8*, i32 } undef, i8* %exn48, 0, !dbg !5106
  %lpad.val49 = insertvalue { i8*, i32 } %lpad.val, i32 %sel, 1, !dbg !5106
  resume { i8*, i32 } %lpad.val49, !dbg !5106

terminate.lpad:                                   ; preds = %lpad20
  %66 = landingpad { i8*, i32 }
          catch i8* null, !dbg !5106
  %67 = extractvalue { i8*, i32 } %66, 0, !dbg !5106
  call void @__clang_call_terminate(i8* %67) #15, !dbg !5106
  unreachable, !dbg !5106

unreachable:                                      ; preds = %invoke.cont21
  unreachable
}

; Function Attrs: noinline nounwind uwtable
define linkonce_odr dso_local void @_ZNSt6vectorIhSaIhEE15_M_erase_at_endEPh(%"class.std::vector"* %this, i8* %__pos) #3 comdat align 2 personality i8* bitcast (i32 (...)* @__gxx_personality_v0 to i8*) !dbg !5150 {
entry:
  %this.addr = alloca %"class.std::vector"*, align 8
  %__pos.addr = alloca i8*, align 8
  %__n = alloca i64, align 8
  store %"class.std::vector"* %this, %"class.std::vector"** %this.addr, align 8
  call void @llvm.dbg.declare(metadata %"class.std::vector"** %this.addr, metadata !5151, metadata !DIExpression()), !dbg !5152
  store i8* %__pos, i8** %__pos.addr, align 8
  call void @llvm.dbg.declare(metadata i8** %__pos.addr, metadata !5153, metadata !DIExpression()), !dbg !5154
  %this1 = load %"class.std::vector"*, %"class.std::vector"** %this.addr, align 8
  call void @llvm.dbg.declare(metadata i64* %__n, metadata !5155, metadata !DIExpression()), !dbg !5157
  %0 = bitcast %"class.std::vector"* %this1 to %"struct.std::_Vector_base"*, !dbg !5158
  %_M_impl = getelementptr inbounds %"struct.std::_Vector_base", %"struct.std::_Vector_base"* %0, i32 0, i32 0, !dbg !5158
  %1 = bitcast %"struct.std::_Vector_base<unsigned char, std::allocator<unsigned char> >::_Vector_impl"* %_M_impl to %"struct.std::_Vector_base<unsigned char, std::allocator<unsigned char> >::_Vector_impl_data"*, !dbg !5159
  %_M_finish = getelementptr inbounds %"struct.std::_Vector_base<unsigned char, std::allocator<unsigned char> >::_Vector_impl_data", %"struct.std::_Vector_base<unsigned char, std::allocator<unsigned char> >::_Vector_impl_data"* %1, i32 0, i32 1, !dbg !5160
  %2 = load i8*, i8** %_M_finish, align 8, !dbg !5160
  %3 = load i8*, i8** %__pos.addr, align 8, !dbg !5161
  %sub.ptr.lhs.cast = ptrtoint i8* %2 to i64, !dbg !5162
  %sub.ptr.rhs.cast = ptrtoint i8* %3 to i64, !dbg !5162
  %sub.ptr.sub = sub i64 %sub.ptr.lhs.cast, %sub.ptr.rhs.cast, !dbg !5162
  store i64 %sub.ptr.sub, i64* %__n, align 8, !dbg !5157
  %4 = load i64, i64* %__n, align 8, !dbg !5157
  %tobool = icmp ne i64 %4, 0, !dbg !5157
  br i1 %tobool, label %if.then, label %if.end, !dbg !5163

if.then:                                          ; preds = %entry
  %5 = load i8*, i8** %__pos.addr, align 8, !dbg !5164
  %6 = bitcast %"class.std::vector"* %this1 to %"struct.std::_Vector_base"*, !dbg !5166
  %_M_impl2 = getelementptr inbounds %"struct.std::_Vector_base", %"struct.std::_Vector_base"* %6, i32 0, i32 0, !dbg !5166
  %7 = bitcast %"struct.std::_Vector_base<unsigned char, std::allocator<unsigned char> >::_Vector_impl"* %_M_impl2 to %"struct.std::_Vector_base<unsigned char, std::allocator<unsigned char> >::_Vector_impl_data"*, !dbg !5167
  %_M_finish3 = getelementptr inbounds %"struct.std::_Vector_base<unsigned char, std::allocator<unsigned char> >::_Vector_impl_data", %"struct.std::_Vector_base<unsigned char, std::allocator<unsigned char> >::_Vector_impl_data"* %7, i32 0, i32 1, !dbg !5168
  %8 = load i8*, i8** %_M_finish3, align 8, !dbg !5168
  %9 = bitcast %"class.std::vector"* %this1 to %"struct.std::_Vector_base"*, !dbg !5169
  %call = call dereferenceable(1) %"class.std::allocator"* @_ZNSt12_Vector_baseIhSaIhEE19_M_get_Tp_allocatorEv(%"struct.std::_Vector_base"* %9) #14, !dbg !5169
  invoke void @_ZSt8_DestroyIPhhEvT_S1_RSaIT0_E(i8* %5, i8* %8, %"class.std::allocator"* dereferenceable(1) %call)
          to label %invoke.cont unwind label %terminate.lpad, !dbg !5170

invoke.cont:                                      ; preds = %if.then
  %10 = load i8*, i8** %__pos.addr, align 8, !dbg !5171
  %11 = bitcast %"class.std::vector"* %this1 to %"struct.std::_Vector_base"*, !dbg !5172
  %_M_impl4 = getelementptr inbounds %"struct.std::_Vector_base", %"struct.std::_Vector_base"* %11, i32 0, i32 0, !dbg !5172
  %12 = bitcast %"struct.std::_Vector_base<unsigned char, std::allocator<unsigned char> >::_Vector_impl"* %_M_impl4 to %"struct.std::_Vector_base<unsigned char, std::allocator<unsigned char> >::_Vector_impl_data"*, !dbg !5173
  %_M_finish5 = getelementptr inbounds %"struct.std::_Vector_base<unsigned char, std::allocator<unsigned char> >::_Vector_impl_data", %"struct.std::_Vector_base<unsigned char, std::allocator<unsigned char> >::_Vector_impl_data"* %12, i32 0, i32 1, !dbg !5174
  store i8* %10, i8** %_M_finish5, align 8, !dbg !5175
  br label %if.end, !dbg !5176

if.end:                                           ; preds = %invoke.cont, %entry
  ret void, !dbg !5177

terminate.lpad:                                   ; preds = %if.then
  %13 = landingpad { i8*, i32 }
          catch i8* null, !dbg !5170
  %14 = extractvalue { i8*, i32 } %13, 0, !dbg !5170
  call void @__clang_call_terminate(i8* %14) #15, !dbg !5170
  unreachable, !dbg !5170
}

; Function Attrs: noinline nounwind uwtable
define linkonce_odr dso_local i64 @_ZNKSt6vectorIhSaIhEE8max_sizeEv(%"class.std::vector"* %this) #3 comdat align 2 !dbg !5178 {
entry:
  %this.addr = alloca %"class.std::vector"*, align 8
  store %"class.std::vector"* %this, %"class.std::vector"** %this.addr, align 8
  call void @llvm.dbg.declare(metadata %"class.std::vector"** %this.addr, metadata !5179, metadata !DIExpression()), !dbg !5180
  %this1 = load %"class.std::vector"*, %"class.std::vector"** %this.addr, align 8
  %0 = bitcast %"class.std::vector"* %this1 to %"struct.std::_Vector_base"*, !dbg !5181
  %call = call dereferenceable(1) %"class.std::allocator"* @_ZNKSt12_Vector_baseIhSaIhEE19_M_get_Tp_allocatorEv(%"struct.std::_Vector_base"* %0) #14, !dbg !5181
  %call2 = call i64 @_ZNSt6vectorIhSaIhEE11_S_max_sizeERKS0_(%"class.std::allocator"* dereferenceable(1) %call) #14, !dbg !5182
  ret i64 %call2, !dbg !5183
}

; Function Attrs: noinline uwtable
define linkonce_odr dso_local i8* @_ZSt27__uninitialized_default_n_aIPhmhET_S1_T0_RSaIT1_E(i8* %__first, i64 %__n, %"class.std::allocator"* dereferenceable(1) %0) #0 comdat !dbg !5184 {
entry:
  %__first.addr = alloca i8*, align 8
  %__n.addr = alloca i64, align 8
  %.addr = alloca %"class.std::allocator"*, align 8
  store i8* %__first, i8** %__first.addr, align 8
  call void @llvm.dbg.declare(metadata i8** %__first.addr, metadata !5190, metadata !DIExpression()), !dbg !5191
  store i64 %__n, i64* %__n.addr, align 8
  call void @llvm.dbg.declare(metadata i64* %__n.addr, metadata !5192, metadata !DIExpression()), !dbg !5193
  store %"class.std::allocator"* %0, %"class.std::allocator"** %.addr, align 8
  call void @llvm.dbg.declare(metadata %"class.std::allocator"** %.addr, metadata !5194, metadata !DIExpression()), !dbg !5195
  %1 = load i8*, i8** %__first.addr, align 8, !dbg !5196
  %2 = load i64, i64* %__n.addr, align 8, !dbg !5197
  %call = call i8* @_ZSt25__uninitialized_default_nIPhmET_S1_T0_(i8* %1, i64 %2), !dbg !5198
  ret i8* %call, !dbg !5199
}

; Function Attrs: noinline uwtable
define linkonce_odr dso_local i64 @_ZNKSt6vectorIhSaIhEE12_M_check_lenEmPKc(%"class.std::vector"* %this, i64 %__n, i8* %__s) #0 comdat align 2 !dbg !5200 {
entry:
  %this.addr = alloca %"class.std::vector"*, align 8
  %__n.addr = alloca i64, align 8
  %__s.addr = alloca i8*, align 8
  %__len = alloca i64, align 8
  %ref.tmp = alloca i64, align 8
  store %"class.std::vector"* %this, %"class.std::vector"** %this.addr, align 8
  call void @llvm.dbg.declare(metadata %"class.std::vector"** %this.addr, metadata !5201, metadata !DIExpression()), !dbg !5202
  store i64 %__n, i64* %__n.addr, align 8
  call void @llvm.dbg.declare(metadata i64* %__n.addr, metadata !5203, metadata !DIExpression()), !dbg !5204
  store i8* %__s, i8** %__s.addr, align 8
  call void @llvm.dbg.declare(metadata i8** %__s.addr, metadata !5205, metadata !DIExpression()), !dbg !5206
  %this1 = load %"class.std::vector"*, %"class.std::vector"** %this.addr, align 8
  %call = call i64 @_ZNKSt6vectorIhSaIhEE8max_sizeEv(%"class.std::vector"* %this1) #14, !dbg !5207
  %call2 = call i64 @_ZNKSt6vectorIhSaIhEE4sizeEv(%"class.std::vector"* %this1) #14, !dbg !5209
  %sub = sub i64 %call, %call2, !dbg !5210
  %0 = load i64, i64* %__n.addr, align 8, !dbg !5211
  %cmp = icmp ult i64 %sub, %0, !dbg !5212
  br i1 %cmp, label %if.then, label %if.end, !dbg !5213

if.then:                                          ; preds = %entry
  %1 = load i8*, i8** %__s.addr, align 8, !dbg !5214
  call void @_ZSt20__throw_length_errorPKc(i8* %1) #16, !dbg !5215
  unreachable, !dbg !5215

if.end:                                           ; preds = %entry
  call void @llvm.dbg.declare(metadata i64* %__len, metadata !5216, metadata !DIExpression()), !dbg !5217
  %call3 = call i64 @_ZNKSt6vectorIhSaIhEE4sizeEv(%"class.std::vector"* %this1) #14, !dbg !5218
  %call4 = call i64 @_ZNKSt6vectorIhSaIhEE4sizeEv(%"class.std::vector"* %this1) #14, !dbg !5219
  store i64 %call4, i64* %ref.tmp, align 8, !dbg !5219
  %call5 = call dereferenceable(8) i64* @_ZSt3maxImERKT_S2_S2_(i64* dereferenceable(8) %ref.tmp, i64* dereferenceable(8) %__n.addr), !dbg !5220
  %2 = load i64, i64* %call5, align 8, !dbg !5220
  %add = add i64 %call3, %2, !dbg !5221
  store i64 %add, i64* %__len, align 8, !dbg !5217
  %3 = load i64, i64* %__len, align 8, !dbg !5222
  %call6 = call i64 @_ZNKSt6vectorIhSaIhEE4sizeEv(%"class.std::vector"* %this1) #14, !dbg !5223
  %cmp7 = icmp ult i64 %3, %call6, !dbg !5224
  br i1 %cmp7, label %cond.true, label %lor.lhs.false, !dbg !5225

lor.lhs.false:                                    ; preds = %if.end
  %4 = load i64, i64* %__len, align 8, !dbg !5226
  %call8 = call i64 @_ZNKSt6vectorIhSaIhEE8max_sizeEv(%"class.std::vector"* %this1) #14, !dbg !5227
  %cmp9 = icmp ugt i64 %4, %call8, !dbg !5228
  br i1 %cmp9, label %cond.true, label %cond.false, !dbg !5229

cond.true:                                        ; preds = %lor.lhs.false, %if.end
  %call10 = call i64 @_ZNKSt6vectorIhSaIhEE8max_sizeEv(%"class.std::vector"* %this1) #14, !dbg !5230
  br label %cond.end, !dbg !5229

cond.false:                                       ; preds = %lor.lhs.false
  %5 = load i64, i64* %__len, align 8, !dbg !5231
  br label %cond.end, !dbg !5229

cond.end:                                         ; preds = %cond.false, %cond.true
  %cond = phi i64 [ %call10, %cond.true ], [ %5, %cond.false ], !dbg !5229
  ret i64 %cond, !dbg !5232
}

; Function Attrs: noinline uwtable
define linkonce_odr dso_local i8* @_ZNSt12_Vector_baseIhSaIhEE11_M_allocateEm(%"struct.std::_Vector_base"* %this, i64 %__n) #0 comdat align 2 !dbg !5233 {
entry:
  %this.addr = alloca %"struct.std::_Vector_base"*, align 8
  %__n.addr = alloca i64, align 8
  store %"struct.std::_Vector_base"* %this, %"struct.std::_Vector_base"** %this.addr, align 8
  call void @llvm.dbg.declare(metadata %"struct.std::_Vector_base"** %this.addr, metadata !5234, metadata !DIExpression()), !dbg !5235
  store i64 %__n, i64* %__n.addr, align 8
  call void @llvm.dbg.declare(metadata i64* %__n.addr, metadata !5236, metadata !DIExpression()), !dbg !5237
  %this1 = load %"struct.std::_Vector_base"*, %"struct.std::_Vector_base"** %this.addr, align 8
  %0 = load i64, i64* %__n.addr, align 8, !dbg !5238
  %cmp = icmp ne i64 %0, 0, !dbg !5239
  br i1 %cmp, label %cond.true, label %cond.false, !dbg !5238

cond.true:                                        ; preds = %entry
  %_M_impl = getelementptr inbounds %"struct.std::_Vector_base", %"struct.std::_Vector_base"* %this1, i32 0, i32 0, !dbg !5240
  %1 = bitcast %"struct.std::_Vector_base<unsigned char, std::allocator<unsigned char> >::_Vector_impl"* %_M_impl to %"class.std::allocator"*, !dbg !5240
  %2 = load i64, i64* %__n.addr, align 8, !dbg !5241
  %call = call i8* @_ZNSt16allocator_traitsISaIhEE8allocateERS0_m(%"class.std::allocator"* dereferenceable(1) %1, i64 %2), !dbg !5242
  br label %cond.end, !dbg !5238

cond.false:                                       ; preds = %entry
  br label %cond.end, !dbg !5238

cond.end:                                         ; preds = %cond.false, %cond.true
  %cond = phi i8* [ %call, %cond.true ], [ null, %cond.false ], !dbg !5238
  ret i8* %cond, !dbg !5243
}

declare dso_local void @__cxa_rethrow()

declare dso_local void @__cxa_end_catch()

; Function Attrs: noinline nounwind uwtable
define linkonce_odr dso_local i8* @_ZNSt6vectorIhSaIhEE11_S_relocateEPhS2_S2_RS0_(i8* %__first, i8* %__last, i8* %__result, %"class.std::allocator"* dereferenceable(1) %__alloc) #3 comdat align 2 !dbg !1854 {
entry:
  %__first.addr = alloca i8*, align 8
  %__last.addr = alloca i8*, align 8
  %__result.addr = alloca i8*, align 8
  %__alloc.addr = alloca %"class.std::allocator"*, align 8
  %agg.tmp = alloca %"struct.std::integral_constant", align 1
  store i8* %__first, i8** %__first.addr, align 8
  call void @llvm.dbg.declare(metadata i8** %__first.addr, metadata !5244, metadata !DIExpression()), !dbg !5245
  store i8* %__last, i8** %__last.addr, align 8
  call void @llvm.dbg.declare(metadata i8** %__last.addr, metadata !5246, metadata !DIExpression()), !dbg !5247
  store i8* %__result, i8** %__result.addr, align 8
  call void @llvm.dbg.declare(metadata i8** %__result.addr, metadata !5248, metadata !DIExpression()), !dbg !5249
  store %"class.std::allocator"* %__alloc, %"class.std::allocator"** %__alloc.addr, align 8
  call void @llvm.dbg.declare(metadata %"class.std::allocator"** %__alloc.addr, metadata !5250, metadata !DIExpression()), !dbg !5251
  %0 = load i8*, i8** %__first.addr, align 8, !dbg !5252
  %1 = load i8*, i8** %__last.addr, align 8, !dbg !5253
  %2 = load i8*, i8** %__result.addr, align 8, !dbg !5254
  %3 = load %"class.std::allocator"*, %"class.std::allocator"** %__alloc.addr, align 8, !dbg !5255
  %call = call i8* @_ZNSt6vectorIhSaIhEE14_S_do_relocateEPhS2_S2_RS0_St17integral_constantIbLb1EE(i8* %0, i8* %1, i8* %2, %"class.std::allocator"* dereferenceable(1) %3) #14, !dbg !5256
  ret i8* %call, !dbg !5257
}

; Function Attrs: noinline nounwind uwtable
define linkonce_odr dso_local i64 @_ZNSt6vectorIhSaIhEE11_S_max_sizeERKS0_(%"class.std::allocator"* dereferenceable(1) %__a) #3 comdat align 2 personality i8* bitcast (i32 (...)* @__gxx_personality_v0 to i8*) !dbg !5258 {
entry:
  %__a.addr = alloca %"class.std::allocator"*, align 8
  %__diffmax = alloca i64, align 8
  %__allocmax = alloca i64, align 8
  store %"class.std::allocator"* %__a, %"class.std::allocator"** %__a.addr, align 8
  call void @llvm.dbg.declare(metadata %"class.std::allocator"** %__a.addr, metadata !5259, metadata !DIExpression()), !dbg !5260
  call void @llvm.dbg.declare(metadata i64* %__diffmax, metadata !5261, metadata !DIExpression()), !dbg !5263
  store i64 9223372036854775807, i64* %__diffmax, align 8, !dbg !5263
  call void @llvm.dbg.declare(metadata i64* %__allocmax, metadata !5264, metadata !DIExpression()), !dbg !5265
  %0 = load %"class.std::allocator"*, %"class.std::allocator"** %__a.addr, align 8, !dbg !5266
  %call = call i64 @_ZNSt16allocator_traitsISaIhEE8max_sizeERKS0_(%"class.std::allocator"* dereferenceable(1) %0) #14, !dbg !5267
  store i64 %call, i64* %__allocmax, align 8, !dbg !5265
  %call1 = invoke dereferenceable(8) i64* @_ZSt3minImERKT_S2_S2_(i64* dereferenceable(8) %__diffmax, i64* dereferenceable(8) %__allocmax)
          to label %invoke.cont unwind label %terminate.lpad, !dbg !5268

invoke.cont:                                      ; preds = %entry
  %1 = load i64, i64* %call1, align 8, !dbg !5268
  ret i64 %1, !dbg !5269

terminate.lpad:                                   ; preds = %entry
  %2 = landingpad { i8*, i32 }
          catch i8* null, !dbg !5268
  %3 = extractvalue { i8*, i32 } %2, 0, !dbg !5268
  call void @__clang_call_terminate(i8* %3) #15, !dbg !5268
  unreachable, !dbg !5268
}

; Function Attrs: noinline nounwind uwtable
define linkonce_odr dso_local dereferenceable(1) %"class.std::allocator"* @_ZNKSt12_Vector_baseIhSaIhEE19_M_get_Tp_allocatorEv(%"struct.std::_Vector_base"* %this) #3 comdat align 2 !dbg !5270 {
entry:
  %this.addr = alloca %"struct.std::_Vector_base"*, align 8
  store %"struct.std::_Vector_base"* %this, %"struct.std::_Vector_base"** %this.addr, align 8
  call void @llvm.dbg.declare(metadata %"struct.std::_Vector_base"** %this.addr, metadata !5271, metadata !DIExpression()), !dbg !5273
  %this1 = load %"struct.std::_Vector_base"*, %"struct.std::_Vector_base"** %this.addr, align 8
  %_M_impl = getelementptr inbounds %"struct.std::_Vector_base", %"struct.std::_Vector_base"* %this1, i32 0, i32 0, !dbg !5274
  %0 = bitcast %"struct.std::_Vector_base<unsigned char, std::allocator<unsigned char> >::_Vector_impl"* %_M_impl to %"class.std::allocator"*, !dbg !5275
  ret %"class.std::allocator"* %0, !dbg !5276
}

; Function Attrs: noinline nounwind uwtable
define linkonce_odr dso_local i64 @_ZNSt16allocator_traitsISaIhEE8max_sizeERKS0_(%"class.std::allocator"* dereferenceable(1) %__a) #3 comdat align 2 !dbg !5277 {
entry:
  %__a.addr = alloca %"class.std::allocator"*, align 8
  store %"class.std::allocator"* %__a, %"class.std::allocator"** %__a.addr, align 8
  call void @llvm.dbg.declare(metadata %"class.std::allocator"** %__a.addr, metadata !5278, metadata !DIExpression()), !dbg !5279
  %0 = load %"class.std::allocator"*, %"class.std::allocator"** %__a.addr, align 8, !dbg !5280
  %1 = bitcast %"class.std::allocator"* %0 to %"class.__gnu_cxx::new_allocator"*, !dbg !5280
  %call = call i64 @_ZNK9__gnu_cxx13new_allocatorIhE8max_sizeEv(%"class.__gnu_cxx::new_allocator"* %1) #14, !dbg !5281
  ret i64 %call, !dbg !5282
}

; Function Attrs: noinline nounwind uwtable
define linkonce_odr dso_local dereferenceable(8) i64* @_ZSt3minImERKT_S2_S2_(i64* dereferenceable(8) %__a, i64* dereferenceable(8) %__b) #3 comdat !dbg !5283 {
entry:
  %retval = alloca i64*, align 8
  %__a.addr = alloca i64*, align 8
  %__b.addr = alloca i64*, align 8
  store i64* %__a, i64** %__a.addr, align 8
  call void @llvm.dbg.declare(metadata i64** %__a.addr, metadata !5291, metadata !DIExpression()), !dbg !5292
  store i64* %__b, i64** %__b.addr, align 8
  call void @llvm.dbg.declare(metadata i64** %__b.addr, metadata !5293, metadata !DIExpression()), !dbg !5294
  %0 = load i64*, i64** %__b.addr, align 8, !dbg !5295
  %1 = load i64, i64* %0, align 8, !dbg !5295
  %2 = load i64*, i64** %__a.addr, align 8, !dbg !5297
  %3 = load i64, i64* %2, align 8, !dbg !5297
  %cmp = icmp ult i64 %1, %3, !dbg !5298
  br i1 %cmp, label %if.then, label %if.end, !dbg !5299

if.then:                                          ; preds = %entry
  %4 = load i64*, i64** %__b.addr, align 8, !dbg !5300
  store i64* %4, i64** %retval, align 8, !dbg !5301
  br label %return, !dbg !5301

if.end:                                           ; preds = %entry
  %5 = load i64*, i64** %__a.addr, align 8, !dbg !5302
  store i64* %5, i64** %retval, align 8, !dbg !5303
  br label %return, !dbg !5303

return:                                           ; preds = %if.end, %if.then
  %6 = load i64*, i64** %retval, align 8, !dbg !5304
  ret i64* %6, !dbg !5304
}

; Function Attrs: noinline nounwind uwtable
define linkonce_odr dso_local i64 @_ZNK9__gnu_cxx13new_allocatorIhE8max_sizeEv(%"class.__gnu_cxx::new_allocator"* %this) #3 comdat align 2 !dbg !5305 {
entry:
  %this.addr = alloca %"class.__gnu_cxx::new_allocator"*, align 8
  store %"class.__gnu_cxx::new_allocator"* %this, %"class.__gnu_cxx::new_allocator"** %this.addr, align 8
  call void @llvm.dbg.declare(metadata %"class.__gnu_cxx::new_allocator"** %this.addr, metadata !5306, metadata !DIExpression()), !dbg !5308
  %this1 = load %"class.__gnu_cxx::new_allocator"*, %"class.__gnu_cxx::new_allocator"** %this.addr, align 8
  %call = call i64 @_ZNK9__gnu_cxx13new_allocatorIhE11_M_max_sizeEv(%"class.__gnu_cxx::new_allocator"* %this1) #14, !dbg !5309
  ret i64 %call, !dbg !5310
}

; Function Attrs: noinline nounwind uwtable
define linkonce_odr dso_local i64 @_ZNK9__gnu_cxx13new_allocatorIhE11_M_max_sizeEv(%"class.__gnu_cxx::new_allocator"* %this) #3 comdat align 2 !dbg !5311 {
entry:
  %this.addr = alloca %"class.__gnu_cxx::new_allocator"*, align 8
  store %"class.__gnu_cxx::new_allocator"* %this, %"class.__gnu_cxx::new_allocator"** %this.addr, align 8
  call void @llvm.dbg.declare(metadata %"class.__gnu_cxx::new_allocator"** %this.addr, metadata !5312, metadata !DIExpression()), !dbg !5313
  %this1 = load %"class.__gnu_cxx::new_allocator"*, %"class.__gnu_cxx::new_allocator"** %this.addr, align 8
  ret i64 9223372036854775807, !dbg !5314
}

; Function Attrs: noinline uwtable
define linkonce_odr dso_local i8* @_ZSt25__uninitialized_default_nIPhmET_S1_T0_(i8* %__first, i64 %__n) #0 comdat !dbg !5315 {
entry:
  %__first.addr = alloca i8*, align 8
  %__n.addr = alloca i64, align 8
  %__assignable = alloca i8, align 1
  store i8* %__first, i8** %__first.addr, align 8
  call void @llvm.dbg.declare(metadata i8** %__first.addr, metadata !5319, metadata !DIExpression()), !dbg !5320
  store i64 %__n, i64* %__n.addr, align 8
  call void @llvm.dbg.declare(metadata i64* %__n.addr, metadata !5321, metadata !DIExpression()), !dbg !5322
  call void @llvm.dbg.declare(metadata i8* %__assignable, metadata !5323, metadata !DIExpression()), !dbg !5324
  store i8 1, i8* %__assignable, align 1, !dbg !5324
  %0 = load i8*, i8** %__first.addr, align 8, !dbg !5325
  %1 = load i64, i64* %__n.addr, align 8, !dbg !5326
  %call = call i8* @_ZNSt27__uninitialized_default_n_1ILb1EE18__uninit_default_nIPhmEET_S3_T0_(i8* %0, i64 %1), !dbg !5327
  ret i8* %call, !dbg !5328
}

; Function Attrs: noinline uwtable
define linkonce_odr dso_local i8* @_ZNSt27__uninitialized_default_n_1ILb1EE18__uninit_default_nIPhmEET_S3_T0_(i8* %__first, i64 %__n) #0 comdat align 2 !dbg !5329 {
entry:
  %__first.addr = alloca i8*, align 8
  %__n.addr = alloca i64, align 8
  %ref.tmp = alloca i8, align 1
  store i8* %__first, i8** %__first.addr, align 8
  call void @llvm.dbg.declare(metadata i8** %__first.addr, metadata !5334, metadata !DIExpression()), !dbg !5335
  store i64 %__n, i64* %__n.addr, align 8
  call void @llvm.dbg.declare(metadata i64* %__n.addr, metadata !5336, metadata !DIExpression()), !dbg !5337
  %0 = load i8*, i8** %__first.addr, align 8, !dbg !5338
  %1 = load i64, i64* %__n.addr, align 8, !dbg !5339
  store i8 0, i8* %ref.tmp, align 1, !dbg !5340
  %call = call i8* @_ZSt6fill_nIPhmhET_S1_T0_RKT1_(i8* %0, i64 %1, i8* dereferenceable(1) %ref.tmp), !dbg !5341
  ret i8* %call, !dbg !5342
}

; Function Attrs: noinline uwtable
define linkonce_odr dso_local i8* @_ZSt6fill_nIPhmhET_S1_T0_RKT1_(i8* %__first, i64 %__n, i8* dereferenceable(1) %__value) #0 comdat !dbg !5343 {
entry:
  %__first.addr = alloca i8*, align 8
  %__n.addr = alloca i64, align 8
  %__value.addr = alloca i8*, align 8
  %agg.tmp = alloca %"struct.std::random_access_iterator_tag", align 1
  %undef.agg.tmp = alloca %"struct.std::random_access_iterator_tag", align 1
  store i8* %__first, i8** %__first.addr, align 8
  call void @llvm.dbg.declare(metadata i8** %__first.addr, metadata !5348, metadata !DIExpression()), !dbg !5349
  store i64 %__n, i64* %__n.addr, align 8
  call void @llvm.dbg.declare(metadata i64* %__n.addr, metadata !5350, metadata !DIExpression()), !dbg !5351
  store i8* %__value, i8** %__value.addr, align 8
  call void @llvm.dbg.declare(metadata i8** %__value.addr, metadata !5352, metadata !DIExpression()), !dbg !5353
  %0 = load i8*, i8** %__first.addr, align 8, !dbg !5354
  %1 = load i64, i64* %__n.addr, align 8, !dbg !5355
  %call = call i64 @_ZSt17__size_to_integerm(i64 %1), !dbg !5356
  %2 = load i8*, i8** %__value.addr, align 8, !dbg !5357
  call void @_ZSt19__iterator_categoryIPhENSt15iterator_traitsIT_E17iterator_categoryERKS2_(i8** dereferenceable(8) %__first.addr), !dbg !5358
  %call1 = call i8* @_ZSt10__fill_n_aIPhmhET_S1_T0_RKT1_St26random_access_iterator_tag(i8* %0, i64 %call, i8* dereferenceable(1) %2), !dbg !5359
  ret i8* %call1, !dbg !5360
}

; Function Attrs: noinline uwtable
define linkonce_odr dso_local i8* @_ZSt10__fill_n_aIPhmhET_S1_T0_RKT1_St26random_access_iterator_tag(i8* %__first, i64 %__n, i8* dereferenceable(1) %__value) #0 comdat !dbg !5361 {
entry:
  %retval = alloca i8*, align 8
  %0 = alloca %"struct.std::random_access_iterator_tag", align 1
  %__first.addr = alloca i8*, align 8
  %__n.addr = alloca i64, align 8
  %__value.addr = alloca i8*, align 8
  store i8* %__first, i8** %__first.addr, align 8
  call void @llvm.dbg.declare(metadata i8** %__first.addr, metadata !5377, metadata !DIExpression()), !dbg !5378
  store i64 %__n, i64* %__n.addr, align 8
  call void @llvm.dbg.declare(metadata i64* %__n.addr, metadata !5379, metadata !DIExpression()), !dbg !5380
  store i8* %__value, i8** %__value.addr, align 8
  call void @llvm.dbg.declare(metadata i8** %__value.addr, metadata !5381, metadata !DIExpression()), !dbg !5382
  call void @llvm.dbg.declare(metadata %"struct.std::random_access_iterator_tag"* %0, metadata !5383, metadata !DIExpression()), !dbg !5384
  %1 = load i64, i64* %__n.addr, align 8, !dbg !5385
  %cmp = icmp ule i64 %1, 0, !dbg !5387
  br i1 %cmp, label %if.then, label %if.end, !dbg !5388

if.then:                                          ; preds = %entry
  %2 = load i8*, i8** %__first.addr, align 8, !dbg !5389
  store i8* %2, i8** %retval, align 8, !dbg !5390
  br label %return, !dbg !5390

if.end:                                           ; preds = %entry
  %3 = load i8*, i8** %__first.addr, align 8, !dbg !5391
  %4 = load i8*, i8** %__first.addr, align 8, !dbg !5392
  %5 = load i64, i64* %__n.addr, align 8, !dbg !5393
  %add.ptr = getelementptr inbounds i8, i8* %4, i64 %5, !dbg !5394
  %6 = load i8*, i8** %__value.addr, align 8, !dbg !5395
  call void @_ZSt8__fill_aIPhhEvT_S1_RKT0_(i8* %3, i8* %add.ptr, i8* dereferenceable(1) %6), !dbg !5396
  %7 = load i8*, i8** %__first.addr, align 8, !dbg !5397
  %8 = load i64, i64* %__n.addr, align 8, !dbg !5398
  %add.ptr1 = getelementptr inbounds i8, i8* %7, i64 %8, !dbg !5399
  store i8* %add.ptr1, i8** %retval, align 8, !dbg !5400
  br label %return, !dbg !5400

return:                                           ; preds = %if.end, %if.then
  %9 = load i8*, i8** %retval, align 8, !dbg !5401
  ret i8* %9, !dbg !5401
}

; Function Attrs: noinline nounwind uwtable
define linkonce_odr dso_local i64 @_ZSt17__size_to_integerm(i64 %__n) #3 comdat !dbg !5402 {
entry:
  %__n.addr = alloca i64, align 8
  store i64 %__n, i64* %__n.addr, align 8
  call void @llvm.dbg.declare(metadata i64* %__n.addr, metadata !5405, metadata !DIExpression()), !dbg !5406
  %0 = load i64, i64* %__n.addr, align 8, !dbg !5407
  ret i64 %0, !dbg !5408
}

; Function Attrs: noinline nounwind uwtable
define linkonce_odr dso_local void @_ZSt19__iterator_categoryIPhENSt15iterator_traitsIT_E17iterator_categoryERKS2_(i8** dereferenceable(8) %0) #3 comdat !dbg !5409 {
entry:
  %.addr = alloca i8**, align 8
  store i8** %0, i8*** %.addr, align 8
  call void @llvm.dbg.declare(metadata i8*** %.addr, metadata !5420, metadata !DIExpression()), !dbg !5421
  ret void, !dbg !5422
}

; Function Attrs: noinline uwtable
define linkonce_odr dso_local void @_ZSt8__fill_aIPhhEvT_S1_RKT0_(i8* %__first, i8* %__last, i8* dereferenceable(1) %__value) #0 comdat !dbg !5423 {
entry:
  %__first.addr = alloca i8*, align 8
  %__last.addr = alloca i8*, align 8
  %__value.addr = alloca i8*, align 8
  store i8* %__first, i8** %__first.addr, align 8
  call void @llvm.dbg.declare(metadata i8** %__first.addr, metadata !5428, metadata !DIExpression()), !dbg !5429
  store i8* %__last, i8** %__last.addr, align 8
  call void @llvm.dbg.declare(metadata i8** %__last.addr, metadata !5430, metadata !DIExpression()), !dbg !5431
  store i8* %__value, i8** %__value.addr, align 8
  call void @llvm.dbg.declare(metadata i8** %__value.addr, metadata !5432, metadata !DIExpression()), !dbg !5433
  %0 = load i8*, i8** %__first.addr, align 8, !dbg !5434
  %1 = load i8*, i8** %__last.addr, align 8, !dbg !5435
  %2 = load i8*, i8** %__value.addr, align 8, !dbg !5436
  call void @_ZSt9__fill_a1IhEN9__gnu_cxx11__enable_ifIXsr9__is_byteIT_EE7__valueEvE6__typeEPS2_S5_RKS2_(i8* %0, i8* %1, i8* dereferenceable(1) %2), !dbg !5437
  ret void, !dbg !5438
}

; Function Attrs: noinline nounwind uwtable
define linkonce_odr dso_local void @_ZSt9__fill_a1IhEN9__gnu_cxx11__enable_ifIXsr9__is_byteIT_EE7__valueEvE6__typeEPS2_S5_RKS2_(i8* %__first, i8* %__last, i8* dereferenceable(1) %__c) #3 comdat !dbg !5439 {
entry:
  %__first.addr = alloca i8*, align 8
  %__last.addr = alloca i8*, align 8
  %__c.addr = alloca i8*, align 8
  %__tmp = alloca i8, align 1
  %__len = alloca i64, align 8
  store i8* %__first, i8** %__first.addr, align 8
  call void @llvm.dbg.declare(metadata i8** %__first.addr, metadata !5447, metadata !DIExpression()), !dbg !5448
  store i8* %__last, i8** %__last.addr, align 8
  call void @llvm.dbg.declare(metadata i8** %__last.addr, metadata !5449, metadata !DIExpression()), !dbg !5450
  store i8* %__c, i8** %__c.addr, align 8
  call void @llvm.dbg.declare(metadata i8** %__c.addr, metadata !5451, metadata !DIExpression()), !dbg !5452
  call void @llvm.dbg.declare(metadata i8* %__tmp, metadata !5453, metadata !DIExpression()), !dbg !5454
  %0 = load i8*, i8** %__c.addr, align 8, !dbg !5455
  %1 = load i8, i8* %0, align 1, !dbg !5455
  store i8 %1, i8* %__tmp, align 1, !dbg !5454
  call void @llvm.dbg.declare(metadata i64* %__len, metadata !5456, metadata !DIExpression()), !dbg !5458
  %2 = load i8*, i8** %__last.addr, align 8, !dbg !5459
  %3 = load i8*, i8** %__first.addr, align 8, !dbg !5460
  %sub.ptr.lhs.cast = ptrtoint i8* %2 to i64, !dbg !5461
  %sub.ptr.rhs.cast = ptrtoint i8* %3 to i64, !dbg !5461
  %sub.ptr.sub = sub i64 %sub.ptr.lhs.cast, %sub.ptr.rhs.cast, !dbg !5461
  store i64 %sub.ptr.sub, i64* %__len, align 8, !dbg !5458
  %4 = load i64, i64* %__len, align 8, !dbg !5458
  %tobool = icmp ne i64 %4, 0, !dbg !5458
  br i1 %tobool, label %if.then, label %if.end, !dbg !5462

if.then:                                          ; preds = %entry
  %5 = load i8*, i8** %__first.addr, align 8, !dbg !5463
  %6 = load i8, i8* %__tmp, align 1, !dbg !5464
  %conv = zext i8 %6 to i32, !dbg !5465
  %7 = trunc i32 %conv to i8, !dbg !5466
  %8 = load i64, i64* %__len, align 8, !dbg !5467
  call void @llvm.memset.p0i8.i64(i8* align 1 %5, i8 %7, i64 %8, i1 false), !dbg !5466
  br label %if.end, !dbg !5466

if.end:                                           ; preds = %if.then, %entry
  ret void, !dbg !5468
}

; Function Attrs: argmemonly nounwind willreturn
declare void @llvm.memset.p0i8.i64(i8* nocapture writeonly, i8, i64, i1 immarg) #6

; Function Attrs: noreturn
declare dso_local void @_ZSt20__throw_length_errorPKc(i8*) #8

; Function Attrs: noinline nounwind uwtable
define linkonce_odr dso_local dereferenceable(8) i64* @_ZSt3maxImERKT_S2_S2_(i64* dereferenceable(8) %__a, i64* dereferenceable(8) %__b) #3 comdat !dbg !5469 {
entry:
  %retval = alloca i64*, align 8
  %__a.addr = alloca i64*, align 8
  %__b.addr = alloca i64*, align 8
  store i64* %__a, i64** %__a.addr, align 8
  call void @llvm.dbg.declare(metadata i64** %__a.addr, metadata !5470, metadata !DIExpression()), !dbg !5472
  store i64* %__b, i64** %__b.addr, align 8
  call void @llvm.dbg.declare(metadata i64** %__b.addr, metadata !5473, metadata !DIExpression()), !dbg !5474
  %0 = load i64*, i64** %__a.addr, align 8, !dbg !5475
  %1 = load i64, i64* %0, align 8, !dbg !5475
  %2 = load i64*, i64** %__b.addr, align 8, !dbg !5477
  %3 = load i64, i64* %2, align 8, !dbg !5477
  %cmp = icmp ult i64 %1, %3, !dbg !5478
  br i1 %cmp, label %if.then, label %if.end, !dbg !5479

if.then:                                          ; preds = %entry
  %4 = load i64*, i64** %__b.addr, align 8, !dbg !5480
  store i64* %4, i64** %retval, align 8, !dbg !5481
  br label %return, !dbg !5481

if.end:                                           ; preds = %entry
  %5 = load i64*, i64** %__a.addr, align 8, !dbg !5482
  store i64* %5, i64** %retval, align 8, !dbg !5483
  br label %return, !dbg !5483

return:                                           ; preds = %if.end, %if.then
  %6 = load i64*, i64** %retval, align 8, !dbg !5484
  ret i64* %6, !dbg !5484
}

; Function Attrs: noinline uwtable
define linkonce_odr dso_local i8* @_ZNSt16allocator_traitsISaIhEE8allocateERS0_m(%"class.std::allocator"* dereferenceable(1) %__a, i64 %__n) #0 comdat align 2 !dbg !5485 {
entry:
  %__a.addr = alloca %"class.std::allocator"*, align 8
  %__n.addr = alloca i64, align 8
  store %"class.std::allocator"* %__a, %"class.std::allocator"** %__a.addr, align 8
  call void @llvm.dbg.declare(metadata %"class.std::allocator"** %__a.addr, metadata !5486, metadata !DIExpression()), !dbg !5487
  store i64 %__n, i64* %__n.addr, align 8
  call void @llvm.dbg.declare(metadata i64* %__n.addr, metadata !5488, metadata !DIExpression()), !dbg !5489
  %0 = load %"class.std::allocator"*, %"class.std::allocator"** %__a.addr, align 8, !dbg !5490
  %1 = bitcast %"class.std::allocator"* %0 to %"class.__gnu_cxx::new_allocator"*, !dbg !5490
  %2 = load i64, i64* %__n.addr, align 8, !dbg !5491
  %call = call i8* @_ZN9__gnu_cxx13new_allocatorIhE8allocateEmPKv(%"class.__gnu_cxx::new_allocator"* %1, i64 %2, i8* null), !dbg !5492
  ret i8* %call, !dbg !5493
}

; Function Attrs: noinline uwtable
define linkonce_odr dso_local i8* @_ZN9__gnu_cxx13new_allocatorIhE8allocateEmPKv(%"class.__gnu_cxx::new_allocator"* %this, i64 %__n, i8* %0) #0 comdat align 2 !dbg !5494 {
entry:
  %this.addr = alloca %"class.__gnu_cxx::new_allocator"*, align 8
  %__n.addr = alloca i64, align 8
  %.addr = alloca i8*, align 8
  store %"class.__gnu_cxx::new_allocator"* %this, %"class.__gnu_cxx::new_allocator"** %this.addr, align 8
  call void @llvm.dbg.declare(metadata %"class.__gnu_cxx::new_allocator"** %this.addr, metadata !5495, metadata !DIExpression()), !dbg !5496
  store i64 %__n, i64* %__n.addr, align 8
  call void @llvm.dbg.declare(metadata i64* %__n.addr, metadata !5497, metadata !DIExpression()), !dbg !5498
  store i8* %0, i8** %.addr, align 8
  call void @llvm.dbg.declare(metadata i8** %.addr, metadata !5499, metadata !DIExpression()), !dbg !5500
  %this1 = load %"class.__gnu_cxx::new_allocator"*, %"class.__gnu_cxx::new_allocator"** %this.addr, align 8
  %1 = load i64, i64* %__n.addr, align 8, !dbg !5501
  %call = call i64 @_ZNK9__gnu_cxx13new_allocatorIhE11_M_max_sizeEv(%"class.__gnu_cxx::new_allocator"* %this1) #14, !dbg !5503
  %cmp = icmp ugt i64 %1, %call, !dbg !5504
  br i1 %cmp, label %if.then, label %if.end, !dbg !5505

if.then:                                          ; preds = %entry
  call void @_ZSt17__throw_bad_allocv() #16, !dbg !5506
  unreachable, !dbg !5506

if.end:                                           ; preds = %entry
  %2 = load i64, i64* %__n.addr, align 8, !dbg !5507
  %mul = mul i64 %2, 1, !dbg !5508
  %call2 = call i8* @_Znwm(i64 %mul), !dbg !5509
  ret i8* %call2, !dbg !5510
}

; Function Attrs: noreturn
declare dso_local void @_ZSt17__throw_bad_allocv() #8

; Function Attrs: noinline nounwind uwtable
define linkonce_odr dso_local i8* @_ZNSt6vectorIhSaIhEE14_S_do_relocateEPhS2_S2_RS0_St17integral_constantIbLb1EE(i8* %__first, i8* %__last, i8* %__result, %"class.std::allocator"* dereferenceable(1) %__alloc) #3 comdat align 2 !dbg !5511 {
entry:
  %0 = alloca %"struct.std::integral_constant", align 1
  %__first.addr = alloca i8*, align 8
  %__last.addr = alloca i8*, align 8
  %__result.addr = alloca i8*, align 8
  %__alloc.addr = alloca %"class.std::allocator"*, align 8
  store i8* %__first, i8** %__first.addr, align 8
  call void @llvm.dbg.declare(metadata i8** %__first.addr, metadata !5512, metadata !DIExpression()), !dbg !5513
  store i8* %__last, i8** %__last.addr, align 8
  call void @llvm.dbg.declare(metadata i8** %__last.addr, metadata !5514, metadata !DIExpression()), !dbg !5515
  store i8* %__result, i8** %__result.addr, align 8
  call void @llvm.dbg.declare(metadata i8** %__result.addr, metadata !5516, metadata !DIExpression()), !dbg !5517
  store %"class.std::allocator"* %__alloc, %"class.std::allocator"** %__alloc.addr, align 8
  call void @llvm.dbg.declare(metadata %"class.std::allocator"** %__alloc.addr, metadata !5518, metadata !DIExpression()), !dbg !5519
  call void @llvm.dbg.declare(metadata %"struct.std::integral_constant"* %0, metadata !5520, metadata !DIExpression()), !dbg !5521
  %1 = load i8*, i8** %__first.addr, align 8, !dbg !5522
  %2 = load i8*, i8** %__last.addr, align 8, !dbg !5523
  %3 = load i8*, i8** %__result.addr, align 8, !dbg !5524
