	.text
	.file	"stepanov_container.cpp"
	.section	.text.startup,"ax",@progbits
	.p2align	4, 0x90         # -- Begin function __cxx_global_var_init
	.type	__cxx_global_var_init,@function
__cxx_global_var_init:                  # @__cxx_global_var_init
	.cfi_startproc
# %bb.0:
	pushq	%rbp
	.cfi_def_cfa_offset 16
	.cfi_offset %rbp, -16
	movq	%rsp, %rbp
	.cfi_def_cfa_register %rbp
	movl	$_ZStL8__ioinit, %edi
	callq	_ZNSt8ios_base4InitC1Ev
	movl	$_ZNSt8ios_base4InitD1Ev, %edi
	movl	$_ZStL8__ioinit, %esi
	movl	$__dso_handle, %edx
	popq	%rbp
	.cfi_def_cfa %rsp, 8
	jmp	__cxa_atexit            # TAILCALL
.Lfunc_end0:
	.size	__cxx_global_var_init, .Lfunc_end0-__cxx_global_var_init
	.cfi_endproc
                                        # -- End function
	.p2align	4, 0x90         # -- Begin function __cxx_global_var_init.1
	.type	__cxx_global_var_init.1,@function
__cxx_global_var_init.1:                # @__cxx_global_var_init.1
	.cfi_startproc
# %bb.0:
	pushq	%rbp
	.cfi_def_cfa_offset 16
	.cfi_offset %rbp, -16
	movq	%rsp, %rbp
	.cfi_def_cfa_register %rbp
	movl	$result_times, %edi
	callq	_ZNSt6vectorIdSaIdEEC2Ev
	movl	$_ZNSt6vectorIdSaIdEED2Ev, %edi
	movl	$result_times, %esi
	movl	$__dso_handle, %edx
	popq	%rbp
	.cfi_def_cfa %rsp, 8
	jmp	__cxa_atexit            # TAILCALL
.Lfunc_end1:
	.size	__cxx_global_var_init.1, .Lfunc_end1-__cxx_global_var_init.1
	.cfi_endproc
                                        # -- End function
	.section	.text._ZNSt6vectorIdSaIdEEC2Ev,"axG",@progbits,_ZNSt6vectorIdSaIdEEC2Ev,comdat
	.weak	_ZNSt6vectorIdSaIdEEC2Ev # -- Begin function _ZNSt6vectorIdSaIdEEC2Ev
	.p2align	4, 0x90
	.type	_ZNSt6vectorIdSaIdEEC2Ev,@function
_ZNSt6vectorIdSaIdEEC2Ev:               # @_ZNSt6vectorIdSaIdEEC2Ev
	.cfi_startproc
# %bb.0:
	pushq	%rbp
	.cfi_def_cfa_offset 16
	.cfi_offset %rbp, -16
	movq	%rsp, %rbp
	.cfi_def_cfa_register %rbp
	popq	%rbp
	.cfi_def_cfa %rsp, 8
	jmp	_ZNSt12_Vector_baseIdSaIdEEC2Ev # TAILCALL
.Lfunc_end2:
	.size	_ZNSt6vectorIdSaIdEEC2Ev, .Lfunc_end2-_ZNSt6vectorIdSaIdEEC2Ev
	.cfi_endproc
                                        # -- End function
	.section	.text._ZNSt6vectorIdSaIdEED2Ev,"axG",@progbits,_ZNSt6vectorIdSaIdEED2Ev,comdat
	.weak	_ZNSt6vectorIdSaIdEED2Ev # -- Begin function _ZNSt6vectorIdSaIdEED2Ev
	.p2align	4, 0x90
	.type	_ZNSt6vectorIdSaIdEED2Ev,@function
_ZNSt6vectorIdSaIdEED2Ev:               # @_ZNSt6vectorIdSaIdEED2Ev
.Lfunc_begin0:
	.cfi_startproc
	.cfi_personality 3, __gxx_personality_v0
	.cfi_lsda 3, .Lexception0
# %bb.0:
	pushq	%rbp
	.cfi_def_cfa_offset 16
	.cfi_offset %rbp, -16
	movq	%rsp, %rbp
	.cfi_def_cfa_register %rbp
	pushq	%r15
	pushq	%r14
	pushq	%rbx
	pushq	%rax
	.cfi_offset %rbx, -40
	.cfi_offset %r14, -32
	.cfi_offset %r15, -24
	movq	%rdi, %rbx
	movq	(%rdi), %r14
	movq	8(%rdi), %r15
	callq	_ZNSt12_Vector_baseIdSaIdEE19_M_get_Tp_allocatorEv
.Ltmp0:
	movq	%r14, %rdi
	movq	%r15, %rsi
	movq	%rax, %rdx
	callq	_ZSt8_DestroyIPddEvT_S1_RSaIT0_E
.Ltmp1:
# %bb.1:
	movq	%rbx, %rdi
	addq	$8, %rsp
	popq	%rbx
	popq	%r14
	popq	%r15
	popq	%rbp
	.cfi_def_cfa %rsp, 8
	jmp	_ZNSt12_Vector_baseIdSaIdEED2Ev # TAILCALL
.LBB3_2:
	.cfi_def_cfa %rbp, 16
.Ltmp2:
	movq	%rax, %r14
	movq	%rbx, %rdi
	callq	_ZNSt12_Vector_baseIdSaIdEED2Ev
	movq	%r14, %rdi
	callq	__clang_call_terminate
.Lfunc_end3:
	.size	_ZNSt6vectorIdSaIdEED2Ev, .Lfunc_end3-_ZNSt6vectorIdSaIdEED2Ev
	.cfi_endproc
	.section	.gcc_except_table,"a",@progbits
	.p2align	2
GCC_except_table3:
.Lexception0:
	.byte	255                     # @LPStart Encoding = omit
	.byte	3                       # @TType Encoding = udata4
	.uleb128 .Lttbase0-.Lttbaseref0
.Lttbaseref0:
	.byte	1                       # Call site Encoding = uleb128
	.uleb128 .Lcst_end0-.Lcst_begin0
.Lcst_begin0:
	.uleb128 .Ltmp0-.Lfunc_begin0   # >> Call Site 1 <<
	.uleb128 .Ltmp1-.Ltmp0          #   Call between .Ltmp0 and .Ltmp1
	.uleb128 .Ltmp2-.Lfunc_begin0   #     jumps to .Ltmp2
	.byte	1                       #   On action: 1
.Lcst_end0:
	.byte	1                       # >> Action Record 1 <<
                                        #   Catch TypeInfo 1
	.byte	0                       #   No further actions
	.p2align	2
                                        # >> Catch TypeInfos <<
	.long	0                       # TypeInfo 1
.Lttbase0:
	.p2align	2
                                        # -- End function
	.text
	.globl	_Z3runPFvPdS_iES_S_i    # -- Begin function _Z3runPFvPdS_iES_S_i
	.p2align	4, 0x90
	.type	_Z3runPFvPdS_iES_S_i,@function
_Z3runPFvPdS_iES_S_i:                   # @_Z3runPFvPdS_iES_S_i
	.cfi_startproc
# %bb.0:
	pushq	%rbp
	.cfi_def_cfa_offset 16
	.cfi_offset %rbp, -16
	movq	%rsp, %rbp
	.cfi_def_cfa_register %rbp
	pushq	%r15
	pushq	%r14
	pushq	%r12
	pushq	%rbx
	.cfi_offset %rbx, -48
	.cfi_offset %r12, -40
	.cfi_offset %r14, -32
	.cfi_offset %r15, -24
	movl	%ecx, %ebx
	movq	%rdx, %r14
	movq	%rsi, %r15
	movq	%rdi, %r12
	testl	%ebx, %ebx
	jle	.LBB4_3
	.p2align	4, 0x90
.LBB4_2:                                # =>This Inner Loop Header: Depth=1
	addl	$-1, %ebx
	movq	%r15, %rdi
	movq	%r14, %rsi
	movl	%ebx, %edx
	callq	*%r12
	testl	%ebx, %ebx
	jg	.LBB4_2
.LBB4_3:
	popq	%rbx
	popq	%r12
	popq	%r14
	popq	%r15
	popq	%rbp
	.cfi_def_cfa %rsp, 8
	retq
.Lfunc_end4:
	.size	_Z3runPFvPdS_iES_S_i, .Lfunc_end4-_Z3runPFvPdS_iES_S_i
	.cfi_endproc
                                        # -- End function
	.globl	_Z10array_testPdS_i     # -- Begin function _Z10array_testPdS_i
	.p2align	4, 0x90
	.type	_Z10array_testPdS_i,@function
_Z10array_testPdS_i:                    # @_Z10array_testPdS_i
	.cfi_startproc
# %bb.0:
	pushq	%rbp
	.cfi_def_cfa_offset 16
	.cfi_offset %rbp, -16
	movq	%rsp, %rbp
	.cfi_def_cfa_register %rbp
	pushq	%r15
	pushq	%r14
	pushq	%r12
	pushq	%rbx
	.cfi_offset %rbx, -48
	.cfi_offset %r12, -40
	.cfi_offset %r14, -32
	.cfi_offset %r15, -24
	movq	%rsi, %r14
	movq	%rdi, %r15
	movq	%rsi, %rbx
	subq	%rdi, %rbx
	movq	%rbx, %rax
	sarq	$3, %rax
	movl	$8, %ecx
	mulq	%rcx
	movq	$-1, %rdi
	cmovnoq	%rax, %rdi
	callq	_Znam
	movq	%rax, %r12
	movq	%r15, %rdi
	movq	%r14, %rsi
	movq	%rax, %rdx
	callq	_ZSt4copyIPdS0_ET0_T_S2_S1_
	addq	%r12, %rbx
	movq	%r12, %rdi
	movq	%rbx, %rsi
	callq	_ZSt4sortIPdEvT_S1_
	movq	%r12, %rdi
	movq	%rbx, %rsi
	callq	_ZSt6uniqueIPdET_S1_S1_
	movq	%r12, %rdi
	popq	%rbx
	popq	%r12
	popq	%r14
	popq	%r15
	popq	%rbp
	.cfi_def_cfa %rsp, 8
	jmp	_ZdaPv                  # TAILCALL
.Lfunc_end5:
	.size	_Z10array_testPdS_i, .Lfunc_end5-_Z10array_testPdS_i
	.cfi_endproc
                                        # -- End function
	.section	.text._ZSt4copyIPdS0_ET0_T_S2_S1_,"axG",@progbits,_ZSt4copyIPdS0_ET0_T_S2_S1_,comdat
	.weak	_ZSt4copyIPdS0_ET0_T_S2_S1_ # -- Begin function _ZSt4copyIPdS0_ET0_T_S2_S1_
	.p2align	4, 0x90
	.type	_ZSt4copyIPdS0_ET0_T_S2_S1_,@function
_ZSt4copyIPdS0_ET0_T_S2_S1_:            # @_ZSt4copyIPdS0_ET0_T_S2_S1_
	.cfi_startproc
# %bb.0:
	pushq	%rbp
	.cfi_def_cfa_offset 16
	.cfi_offset %rbp, -16
	movq	%rsp, %rbp
	.cfi_def_cfa_register %rbp
	pushq	%r15
	pushq	%r14
	pushq	%rbx
	pushq	%rax
	.cfi_offset %rbx, -40
	.cfi_offset %r14, -32
	.cfi_offset %r15, -24
	movq	%rdx, %r14
	movq	%rsi, %r15
	callq	_ZSt12__miter_baseIPdET_S1_
	movq	%rax, %rbx
	movq	%r15, %rdi
	callq	_ZSt12__miter_baseIPdET_S1_
	movq	%rbx, %rdi
	movq	%rax, %rsi
	movq	%r14, %rdx
	addq	$8, %rsp
	popq	%rbx
	popq	%r14
	popq	%r15
	popq	%rbp
	.cfi_def_cfa %rsp, 8
	jmp	_ZSt14__copy_move_a2ILb0EPdS0_ET1_T0_S2_S1_ # TAILCALL
.Lfunc_end6:
	.size	_ZSt4copyIPdS0_ET0_T_S2_S1_, .Lfunc_end6-_ZSt4copyIPdS0_ET0_T_S2_S1_
	.cfi_endproc
                                        # -- End function
	.section	.text._ZSt4sortIPdEvT_S1_,"axG",@progbits,_ZSt4sortIPdEvT_S1_,comdat
	.weak	_ZSt4sortIPdEvT_S1_     # -- Begin function _ZSt4sortIPdEvT_S1_
	.p2align	4, 0x90
	.type	_ZSt4sortIPdEvT_S1_,@function
_ZSt4sortIPdEvT_S1_:                    # @_ZSt4sortIPdEvT_S1_
	.cfi_startproc
# %bb.0:
	pushq	%rbp
	.cfi_def_cfa_offset 16
	.cfi_offset %rbp, -16
	movq	%rsp, %rbp
	.cfi_def_cfa_register %rbp
	pushq	%r14
	pushq	%rbx
	.cfi_offset %rbx, -32
	.cfi_offset %r14, -24
	movq	%rsi, %r14
	movq	%rdi, %rbx
	callq	_ZN9__gnu_cxx5__ops16__iter_less_iterEv
	movq	%rbx, %rdi
	movq	%r14, %rsi
	popq	%rbx
	popq	%r14
	popq	%rbp
	.cfi_def_cfa %rsp, 8
	jmp	_ZSt6__sortIPdN9__gnu_cxx5__ops15_Iter_less_iterEEvT_S4_T0_ # TAILCALL
.Lfunc_end7:
	.size	_ZSt4sortIPdEvT_S1_, .Lfunc_end7-_ZSt4sortIPdEvT_S1_
	.cfi_endproc
                                        # -- End function
	.section	.text._ZSt6uniqueIPdET_S1_S1_,"axG",@progbits,_ZSt6uniqueIPdET_S1_S1_,comdat
	.weak	_ZSt6uniqueIPdET_S1_S1_ # -- Begin function _ZSt6uniqueIPdET_S1_S1_
	.p2align	4, 0x90
	.type	_ZSt6uniqueIPdET_S1_S1_,@function
_ZSt6uniqueIPdET_S1_S1_:                # @_ZSt6uniqueIPdET_S1_S1_
	.cfi_startproc
# %bb.0:
	pushq	%rbp
	.cfi_def_cfa_offset 16
	.cfi_offset %rbp, -16
	movq	%rsp, %rbp
	.cfi_def_cfa_register %rbp
	pushq	%r14
	pushq	%rbx
	.cfi_offset %rbx, -32
	.cfi_offset %r14, -24
	movq	%rsi, %r14
	movq	%rdi, %rbx
	callq	_ZN9__gnu_cxx5__ops20__iter_equal_to_iterEv
	movq	%rbx, %rdi
	movq	%r14, %rsi
	popq	%rbx
	popq	%r14
	popq	%rbp
	.cfi_def_cfa %rsp, 8
	jmp	_ZSt8__uniqueIPdN9__gnu_cxx5__ops19_Iter_equal_to_iterEET_S4_S4_T0_ # TAILCALL
.Lfunc_end8:
	.size	_ZSt6uniqueIPdET_S1_S1_, .Lfunc_end8-_ZSt6uniqueIPdET_S1_S1_
	.cfi_endproc
                                        # -- End function
	.text
	.globl	_Z19vector_pointer_testPdS_i # -- Begin function _Z19vector_pointer_testPdS_i
	.p2align	4, 0x90
	.type	_Z19vector_pointer_testPdS_i,@function
_Z19vector_pointer_testPdS_i:           # @_Z19vector_pointer_testPdS_i
.Lfunc_begin1:
	.cfi_startproc
	.cfi_personality 3, __gxx_personality_v0
	.cfi_lsda 3, .Lexception1
# %bb.0:
	pushq	%rbp
	.cfi_def_cfa_offset 16
	.cfi_offset %rbp, -16
	movq	%rsp, %rbp
	.cfi_def_cfa_register %rbp
	pushq	%r15
	pushq	%r14
	pushq	%rbx
	subq	$72, %rsp
	.cfi_offset %rbx, -40
	.cfi_offset %r14, -32
	.cfi_offset %r15, -24
	movq	%rsi, %r14
	movq	%rdi, %rbx
	leaq	-32(%rbp), %r15
	movq	%r15, %rdi
	callq	_ZNSaIdEC2Ev
.Ltmp3:
	leaq	-88(%rbp), %rdi
	movq	%rbx, %rsi
	movq	%r14, %rdx
	movq	%r15, %rcx
	callq	_ZNSt6vectorIdSaIdEEC2IPdvEET_S4_RKS0_
.Ltmp4:
# %bb.1:
	leaq	-32(%rbp), %rdi
	callq	_ZNSaIdED2Ev
	leaq	-88(%rbp), %r14
	movq	%r14, %rdi
	callq	_ZNSt6vectorIdSaIdEE5beginEv
	movq	%rax, -64(%rbp)
	leaq	-64(%rbp), %rdi
	callq	_ZNK9__gnu_cxx17__normal_iteratorIPdSt6vectorIdSaIdEEEdeEv
	movq	%rax, %rbx
	movq	%r14, %rdi
	callq	_ZNSt6vectorIdSaIdEE3endEv
	movq	%rax, -56(%rbp)
	leaq	-56(%rbp), %rdi
	callq	_ZNK9__gnu_cxx17__normal_iteratorIPdSt6vectorIdSaIdEEEdeEv
.Ltmp6:
	movq	%rbx, %rdi
	movq	%rax, %rsi
	callq	_ZSt4sortIPdEvT_S1_
.Ltmp7:
# %bb.2:
	leaq	-88(%rbp), %r14
	movq	%r14, %rdi
	callq	_ZNSt6vectorIdSaIdEE5beginEv
	movq	%rax, -48(%rbp)
	leaq	-48(%rbp), %rdi
	callq	_ZNK9__gnu_cxx17__normal_iteratorIPdSt6vectorIdSaIdEEEdeEv
	movq	%rax, %rbx
	movq	%r14, %rdi
	callq	_ZNSt6vectorIdSaIdEE3endEv
	movq	%rax, -40(%rbp)
	leaq	-40(%rbp), %rdi
	callq	_ZNK9__gnu_cxx17__normal_iteratorIPdSt6vectorIdSaIdEEEdeEv
.Ltmp8:
	movq	%rbx, %rdi
	movq	%rax, %rsi
	callq	_ZSt6uniqueIPdET_S1_S1_
.Ltmp9:
# %bb.3:
	leaq	-88(%rbp), %rdi
	callq	_ZNSt6vectorIdSaIdEED2Ev
	addq	$72, %rsp
	popq	%rbx
	popq	%r14
	popq	%r15
	popq	%rbp
	.cfi_def_cfa %rsp, 8
	retq
.LBB9_4:
	.cfi_def_cfa %rbp, 16
.Ltmp5:
	movq	%rax, %rbx
	leaq	-32(%rbp), %rdi
	callq	_ZNSaIdED2Ev
	movq	%rbx, %rdi
	callq	_Unwind_Resume
.LBB9_5:
.Ltmp10:
	movq	%rax, %rbx
	leaq	-88(%rbp), %rdi
	callq	_ZNSt6vectorIdSaIdEED2Ev
	movq	%rbx, %rdi
	callq	_Unwind_Resume
.Lfunc_end9:
	.size	_Z19vector_pointer_testPdS_i, .Lfunc_end9-_Z19vector_pointer_testPdS_i
	.cfi_endproc
	.section	.gcc_except_table,"a",@progbits
	.p2align	2
GCC_except_table9:
.Lexception1:
	.byte	255                     # @LPStart Encoding = omit
	.byte	255                     # @TType Encoding = omit
	.byte	1                       # Call site Encoding = uleb128
	.uleb128 .Lcst_end1-.Lcst_begin1
.Lcst_begin1:
	.uleb128 .Ltmp3-.Lfunc_begin1   # >> Call Site 1 <<
	.uleb128 .Ltmp4-.Ltmp3          #   Call between .Ltmp3 and .Ltmp4
	.uleb128 .Ltmp5-.Lfunc_begin1   #     jumps to .Ltmp5
	.byte	0                       #   On action: cleanup
	.uleb128 .Ltmp6-.Lfunc_begin1   # >> Call Site 2 <<
	.uleb128 .Ltmp9-.Ltmp6          #   Call between .Ltmp6 and .Ltmp9
	.uleb128 .Ltmp10-.Lfunc_begin1  #     jumps to .Ltmp10
	.byte	0                       #   On action: cleanup
	.uleb128 .Ltmp9-.Lfunc_begin1   # >> Call Site 3 <<
	.uleb128 .Lfunc_end9-.Ltmp9     #   Call between .Ltmp9 and .Lfunc_end9
	.byte	0                       #     has no landing pad
	.byte	0                       #   On action: cleanup
.Lcst_end1:
	.p2align	2
                                        # -- End function
	.section	.text._ZNSaIdEC2Ev,"axG",@progbits,_ZNSaIdEC2Ev,comdat
	.weak	_ZNSaIdEC2Ev            # -- Begin function _ZNSaIdEC2Ev
	.p2align	4, 0x90
	.type	_ZNSaIdEC2Ev,@function
_ZNSaIdEC2Ev:                           # @_ZNSaIdEC2Ev
	.cfi_startproc
# %bb.0:
	pushq	%rbp
	.cfi_def_cfa_offset 16
	.cfi_offset %rbp, -16
	movq	%rsp, %rbp
	.cfi_def_cfa_register %rbp
	popq	%rbp
	.cfi_def_cfa %rsp, 8
	jmp	_ZN9__gnu_cxx13new_allocatorIdEC2Ev # TAILCALL
.Lfunc_end10:
	.size	_ZNSaIdEC2Ev, .Lfunc_end10-_ZNSaIdEC2Ev
	.cfi_endproc
                                        # -- End function
	.section	.text._ZNSt6vectorIdSaIdEEC2IPdvEET_S4_RKS0_,"axG",@progbits,_ZNSt6vectorIdSaIdEEC2IPdvEET_S4_RKS0_,comdat
	.weak	_ZNSt6vectorIdSaIdEEC2IPdvEET_S4_RKS0_ # -- Begin function _ZNSt6vectorIdSaIdEEC2IPdvEET_S4_RKS0_
	.p2align	4, 0x90
	.type	_ZNSt6vectorIdSaIdEEC2IPdvEET_S4_RKS0_,@function
_ZNSt6vectorIdSaIdEEC2IPdvEET_S4_RKS0_: # @_ZNSt6vectorIdSaIdEEC2IPdvEET_S4_RKS0_
.Lfunc_begin2:
	.cfi_startproc
	.cfi_personality 3, __gxx_personality_v0
	.cfi_lsda 3, .Lexception2
# %bb.0:
	pushq	%rbp
	.cfi_def_cfa_offset 16
	.cfi_offset %rbp, -16
	movq	%rsp, %rbp
	.cfi_def_cfa_register %rbp
	pushq	%r15
	pushq	%r14
	pushq	%rbx
	pushq	%rax
	.cfi_offset %rbx, -40
	.cfi_offset %r14, -32
	.cfi_offset %r15, -24
	movq	%rdx, %r14
	movq	%rsi, %rbx
	movq	%rdi, %r15
	movq	%rsi, -32(%rbp)
	movq	%rcx, %rsi
	callq	_ZNSt12_Vector_baseIdSaIdEEC2ERKS0_
	leaq	-32(%rbp), %rdi
	callq	_ZSt19__iterator_categoryIPdENSt15iterator_traitsIT_E17iterator_categoryERKS2_
.Ltmp11:
	movq	%r15, %rdi
	movq	%rbx, %rsi
	movq	%r14, %rdx
	callq	_ZNSt6vectorIdSaIdEE19_M_range_initializeIPdEEvT_S4_St20forward_iterator_tag
.Ltmp12:
# %bb.1:
	addq	$8, %rsp
	popq	%rbx
	popq	%r14
	popq	%r15
	popq	%rbp
	.cfi_def_cfa %rsp, 8
	retq
.LBB11_2:
	.cfi_def_cfa %rbp, 16
.Ltmp13:
	movq	%rax, %rbx
	movq	%r15, %rdi
	callq	_ZNSt12_Vector_baseIdSaIdEED2Ev
	movq	%rbx, %rdi
	callq	_Unwind_Resume
.Lfunc_end11:
	.size	_ZNSt6vectorIdSaIdEEC2IPdvEET_S4_RKS0_, .Lfunc_end11-_ZNSt6vectorIdSaIdEEC2IPdvEET_S4_RKS0_
	.cfi_endproc
	.section	.gcc_except_table,"a",@progbits
	.p2align	2
GCC_except_table11:
.Lexception2:
	.byte	255                     # @LPStart Encoding = omit
	.byte	255                     # @TType Encoding = omit
	.byte	1                       # Call site Encoding = uleb128
	.uleb128 .Lcst_end2-.Lcst_begin2
.Lcst_begin2:
	.uleb128 .Ltmp11-.Lfunc_begin2  # >> Call Site 1 <<
	.uleb128 .Ltmp12-.Ltmp11        #   Call between .Ltmp11 and .Ltmp12
	.uleb128 .Ltmp13-.Lfunc_begin2  #     jumps to .Ltmp13
	.byte	0                       #   On action: cleanup
	.uleb128 .Ltmp12-.Lfunc_begin2  # >> Call Site 2 <<
	.uleb128 .Lfunc_end11-.Ltmp12   #   Call between .Ltmp12 and .Lfunc_end11
	.byte	0                       #     has no landing pad
	.byte	0                       #   On action: cleanup
.Lcst_end2:
	.p2align	2
                                        # -- End function
	.section	.text._ZNSaIdED2Ev,"axG",@progbits,_ZNSaIdED2Ev,comdat
	.weak	_ZNSaIdED2Ev            # -- Begin function _ZNSaIdED2Ev
	.p2align	4, 0x90
	.type	_ZNSaIdED2Ev,@function
_ZNSaIdED2Ev:                           # @_ZNSaIdED2Ev
	.cfi_startproc
# %bb.0:
	pushq	%rbp
	.cfi_def_cfa_offset 16
	.cfi_offset %rbp, -16
	movq	%rsp, %rbp
	.cfi_def_cfa_register %rbp
	popq	%rbp
	.cfi_def_cfa %rsp, 8
	jmp	_ZN9__gnu_cxx13new_allocatorIdED2Ev # TAILCALL
.Lfunc_end12:
	.size	_ZNSaIdED2Ev, .Lfunc_end12-_ZNSaIdED2Ev
	.cfi_endproc
                                        # -- End function
	.section	.text._ZNSt6vectorIdSaIdEE5beginEv,"axG",@progbits,_ZNSt6vectorIdSaIdEE5beginEv,comdat
	.weak	_ZNSt6vectorIdSaIdEE5beginEv # -- Begin function _ZNSt6vectorIdSaIdEE5beginEv
	.p2align	4, 0x90
	.type	_ZNSt6vectorIdSaIdEE5beginEv,@function
_ZNSt6vectorIdSaIdEE5beginEv:           # @_ZNSt6vectorIdSaIdEE5beginEv
	.cfi_startproc
# %bb.0:
	pushq	%rbp
	.cfi_def_cfa_offset 16
	.cfi_offset %rbp, -16
	movq	%rsp, %rbp
	.cfi_def_cfa_register %rbp
	subq	$16, %rsp
	movq	%rdi, %rsi
	leaq	-8(%rbp), %rdi
	callq	_ZN9__gnu_cxx17__normal_iteratorIPdSt6vectorIdSaIdEEEC2ERKS1_
	movq	-8(%rbp), %rax
	addq	$16, %rsp
	popq	%rbp
	.cfi_def_cfa %rsp, 8
	retq
.Lfunc_end13:
	.size	_ZNSt6vectorIdSaIdEE5beginEv, .Lfunc_end13-_ZNSt6vectorIdSaIdEE5beginEv
	.cfi_endproc
                                        # -- End function
	.section	.text._ZNK9__gnu_cxx17__normal_iteratorIPdSt6vectorIdSaIdEEEdeEv,"axG",@progbits,_ZNK9__gnu_cxx17__normal_iteratorIPdSt6vectorIdSaIdEEEdeEv,comdat
	.weak	_ZNK9__gnu_cxx17__normal_iteratorIPdSt6vectorIdSaIdEEEdeEv # -- Begin function _ZNK9__gnu_cxx17__normal_iteratorIPdSt6vectorIdSaIdEEEdeEv
	.p2align	4, 0x90
	.type	_ZNK9__gnu_cxx17__normal_iteratorIPdSt6vectorIdSaIdEEEdeEv,@function
_ZNK9__gnu_cxx17__normal_iteratorIPdSt6vectorIdSaIdEEEdeEv: # @_ZNK9__gnu_cxx17__normal_iteratorIPdSt6vectorIdSaIdEEEdeEv
	.cfi_startproc
# %bb.0:
	pushq	%rbp
	.cfi_def_cfa_offset 16
	.cfi_offset %rbp, -16
	movq	%rsp, %rbp
	.cfi_def_cfa_register %rbp
	movq	(%rdi), %rax
	popq	%rbp
	.cfi_def_cfa %rsp, 8
	retq
.Lfunc_end14:
	.size	_ZNK9__gnu_cxx17__normal_iteratorIPdSt6vectorIdSaIdEEEdeEv, .Lfunc_end14-_ZNK9__gnu_cxx17__normal_iteratorIPdSt6vectorIdSaIdEEEdeEv
	.cfi_endproc
                                        # -- End function
	.section	.text._ZNSt6vectorIdSaIdEE3endEv,"axG",@progbits,_ZNSt6vectorIdSaIdEE3endEv,comdat
	.weak	_ZNSt6vectorIdSaIdEE3endEv # -- Begin function _ZNSt6vectorIdSaIdEE3endEv
	.p2align	4, 0x90
	.type	_ZNSt6vectorIdSaIdEE3endEv,@function
_ZNSt6vectorIdSaIdEE3endEv:             # @_ZNSt6vectorIdSaIdEE3endEv
	.cfi_startproc
# %bb.0:
	pushq	%rbp
	.cfi_def_cfa_offset 16
	.cfi_offset %rbp, -16
	movq	%rsp, %rbp
	.cfi_def_cfa_register %rbp
	subq	$16, %rsp
	leaq	8(%rdi), %rsi
	leaq	-8(%rbp), %rdi
	callq	_ZN9__gnu_cxx17__normal_iteratorIPdSt6vectorIdSaIdEEEC2ERKS1_
	movq	-8(%rbp), %rax
	addq	$16, %rsp
	popq	%rbp
	.cfi_def_cfa %rsp, 8
	retq
.Lfunc_end15:
	.size	_ZNSt6vectorIdSaIdEE3endEv, .Lfunc_end15-_ZNSt6vectorIdSaIdEE3endEv
	.cfi_endproc
                                        # -- End function
	.text
	.globl	_Z20vector_iterator_testPdS_i # -- Begin function _Z20vector_iterator_testPdS_i
	.p2align	4, 0x90
	.type	_Z20vector_iterator_testPdS_i,@function
_Z20vector_iterator_testPdS_i:          # @_Z20vector_iterator_testPdS_i
.Lfunc_begin3:
	.cfi_startproc
	.cfi_personality 3, __gxx_personality_v0
	.cfi_lsda 3, .Lexception3
# %bb.0:
	pushq	%rbp
	.cfi_def_cfa_offset 16
	.cfi_offset %rbp, -16
	movq	%rsp, %rbp
	.cfi_def_cfa_register %rbp
	pushq	%r15
	pushq	%r14
	pushq	%rbx
	subq	$40, %rsp
	.cfi_offset %rbx, -40
	.cfi_offset %r14, -32
	.cfi_offset %r15, -24
	movq	%rsi, %r14
	movq	%rdi, %rbx
	leaq	-32(%rbp), %r15
	movq	%r15, %rdi
	callq	_ZNSaIdEC2Ev
.Ltmp14:
	leaq	-56(%rbp), %rdi
	movq	%rbx, %rsi
	movq	%r14, %rdx
	movq	%r15, %rcx
	callq	_ZNSt6vectorIdSaIdEEC2IPdvEET_S4_RKS0_
.Ltmp15:
# %bb.1:
	leaq	-32(%rbp), %rdi
	callq	_ZNSaIdED2Ev
	leaq	-56(%rbp), %r14
	movq	%r14, %rdi
	callq	_ZNSt6vectorIdSaIdEE5beginEv
	movq	%rax, %rbx
	movq	%r14, %rdi
	callq	_ZNSt6vectorIdSaIdEE3endEv
.Ltmp17:
	movq	%rbx, %rdi
	movq	%rax, %rsi
	callq	_ZSt4sortIN9__gnu_cxx17__normal_iteratorIPdSt6vectorIdSaIdEEEEEvT_S7_
.Ltmp18:
# %bb.2:
	leaq	-56(%rbp), %r14
	movq	%r14, %rdi
	callq	_ZNSt6vectorIdSaIdEE5beginEv
	movq	%rax, %rbx
	movq	%r14, %rdi
	callq	_ZNSt6vectorIdSaIdEE3endEv
.Ltmp19:
	movq	%rbx, %rdi
	movq	%rax, %rsi
	callq	_ZSt6uniqueIN9__gnu_cxx17__normal_iteratorIPdSt6vectorIdSaIdEEEEET_S7_S7_
.Ltmp20:
# %bb.3:
	leaq	-56(%rbp), %rdi
	callq	_ZNSt6vectorIdSaIdEED2Ev
	addq	$40, %rsp
	popq	%rbx
	popq	%r14
	popq	%r15
	popq	%rbp
	.cfi_def_cfa %rsp, 8
	retq
.LBB16_4:
	.cfi_def_cfa %rbp, 16
.Ltmp16:
	movq	%rax, %rbx
	leaq	-32(%rbp), %rdi
	callq	_ZNSaIdED2Ev
	movq	%rbx, %rdi
	callq	_Unwind_Resume
.LBB16_5:
.Ltmp21:
	movq	%rax, %rbx
	leaq	-56(%rbp), %rdi
	callq	_ZNSt6vectorIdSaIdEED2Ev
	movq	%rbx, %rdi
	callq	_Unwind_Resume
.Lfunc_end16:
	.size	_Z20vector_iterator_testPdS_i, .Lfunc_end16-_Z20vector_iterator_testPdS_i
	.cfi_endproc
	.section	.gcc_except_table,"a",@progbits
	.p2align	2
GCC_except_table16:
.Lexception3:
	.byte	255                     # @LPStart Encoding = omit
	.byte	255                     # @TType Encoding = omit
	.byte	1                       # Call site Encoding = uleb128
	.uleb128 .Lcst_end3-.Lcst_begin3
.Lcst_begin3:
	.uleb128 .Ltmp14-.Lfunc_begin3  # >> Call Site 1 <<
	.uleb128 .Ltmp15-.Ltmp14        #   Call between .Ltmp14 and .Ltmp15
	.uleb128 .Ltmp16-.Lfunc_begin3  #     jumps to .Ltmp16
	.byte	0                       #   On action: cleanup
	.uleb128 .Ltmp17-.Lfunc_begin3  # >> Call Site 2 <<
	.uleb128 .Ltmp20-.Ltmp17        #   Call between .Ltmp17 and .Ltmp20
	.uleb128 .Ltmp21-.Lfunc_begin3  #     jumps to .Ltmp21
	.byte	0                       #   On action: cleanup
	.uleb128 .Ltmp20-.Lfunc_begin3  # >> Call Site 3 <<
	.uleb128 .Lfunc_end16-.Ltmp20   #   Call between .Ltmp20 and .Lfunc_end16
	.byte	0                       #     has no landing pad
	.byte	0                       #   On action: cleanup
.Lcst_end3:
	.p2align	2
                                        # -- End function
	.section	.text._ZSt4sortIN9__gnu_cxx17__normal_iteratorIPdSt6vectorIdSaIdEEEEEvT_S7_,"axG",@progbits,_ZSt4sortIN9__gnu_cxx17__normal_iteratorIPdSt6vectorIdSaIdEEEEEvT_S7_,comdat
	.weak	_ZSt4sortIN9__gnu_cxx17__normal_iteratorIPdSt6vectorIdSaIdEEEEEvT_S7_ # -- Begin function _ZSt4sortIN9__gnu_cxx17__normal_iteratorIPdSt6vectorIdSaIdEEEEEvT_S7_
	.p2align	4, 0x90
	.type	_ZSt4sortIN9__gnu_cxx17__normal_iteratorIPdSt6vectorIdSaIdEEEEEvT_S7_,@function
_ZSt4sortIN9__gnu_cxx17__normal_iteratorIPdSt6vectorIdSaIdEEEEEvT_S7_: # @_ZSt4sortIN9__gnu_cxx17__normal_iteratorIPdSt6vectorIdSaIdEEEEEvT_S7_
	.cfi_startproc
# %bb.0:
	pushq	%rbp
	.cfi_def_cfa_offset 16
	.cfi_offset %rbp, -16
	movq	%rsp, %rbp
	.cfi_def_cfa_register %rbp
	pushq	%r14
	pushq	%rbx
	.cfi_offset %rbx, -32
	.cfi_offset %r14, -24
	movq	%rsi, %r14
	movq	%rdi, %rbx
	callq	_ZN9__gnu_cxx5__ops16__iter_less_iterEv
	movq	%rbx, %rdi
	movq	%r14, %rsi
	popq	%rbx
	popq	%r14
	popq	%rbp
	.cfi_def_cfa %rsp, 8
	jmp	_ZSt6__sortIN9__gnu_cxx17__normal_iteratorIPdSt6vectorIdSaIdEEEENS0_5__ops15_Iter_less_iterEEvT_S9_T0_ # TAILCALL
.Lfunc_end17:
	.size	_ZSt4sortIN9__gnu_cxx17__normal_iteratorIPdSt6vectorIdSaIdEEEEEvT_S7_, .Lfunc_end17-_ZSt4sortIN9__gnu_cxx17__normal_iteratorIPdSt6vectorIdSaIdEEEEEvT_S7_
	.cfi_endproc
                                        # -- End function
	.section	.text._ZSt6uniqueIN9__gnu_cxx17__normal_iteratorIPdSt6vectorIdSaIdEEEEET_S7_S7_,"axG",@progbits,_ZSt6uniqueIN9__gnu_cxx17__normal_iteratorIPdSt6vectorIdSaIdEEEEET_S7_S7_,comdat
	.weak	_ZSt6uniqueIN9__gnu_cxx17__normal_iteratorIPdSt6vectorIdSaIdEEEEET_S7_S7_ # -- Begin function _ZSt6uniqueIN9__gnu_cxx17__normal_iteratorIPdSt6vectorIdSaIdEEEEET_S7_S7_
	.p2align	4, 0x90
	.type	_ZSt6uniqueIN9__gnu_cxx17__normal_iteratorIPdSt6vectorIdSaIdEEEEET_S7_S7_,@function
_ZSt6uniqueIN9__gnu_cxx17__normal_iteratorIPdSt6vectorIdSaIdEEEEET_S7_S7_: # @_ZSt6uniqueIN9__gnu_cxx17__normal_iteratorIPdSt6vectorIdSaIdEEEEET_S7_S7_
	.cfi_startproc
# %bb.0:
	pushq	%rbp
	.cfi_def_cfa_offset 16
	.cfi_offset %rbp, -16
	movq	%rsp, %rbp
	.cfi_def_cfa_register %rbp
	pushq	%r14
	pushq	%rbx
	.cfi_offset %rbx, -32
	.cfi_offset %r14, -24
	movq	%rsi, %r14
	movq	%rdi, %rbx
	callq	_ZN9__gnu_cxx5__ops20__iter_equal_to_iterEv
	movq	%rbx, %rdi
	movq	%r14, %rsi
	popq	%rbx
	popq	%r14
	popq	%rbp
	.cfi_def_cfa %rsp, 8
	jmp	_ZSt8__uniqueIN9__gnu_cxx17__normal_iteratorIPdSt6vectorIdSaIdEEEENS0_5__ops19_Iter_equal_to_iterEET_S9_S9_T0_ # TAILCALL
.Lfunc_end18:
	.size	_ZSt6uniqueIN9__gnu_cxx17__normal_iteratorIPdSt6vectorIdSaIdEEEEET_S7_S7_, .Lfunc_end18-_ZSt6uniqueIN9__gnu_cxx17__normal_iteratorIPdSt6vectorIdSaIdEEEEET_S7_S7_
	.cfi_endproc
                                        # -- End function
	.text
	.globl	_Z10deque_testPdS_i     # -- Begin function _Z10deque_testPdS_i
	.p2align	4, 0x90
	.type	_Z10deque_testPdS_i,@function
_Z10deque_testPdS_i:                    # @_Z10deque_testPdS_i
.Lfunc_begin4:
	.cfi_startproc
	.cfi_personality 3, __gxx_personality_v0
	.cfi_lsda 3, .Lexception4
# %bb.0:
	pushq	%rbp
	.cfi_def_cfa_offset 16
	.cfi_offset %rbp, -16
	movq	%rsp, %rbp
	.cfi_def_cfa_register %rbp
	pushq	%r15
	pushq	%r14
	pushq	%r12
	pushq	%rbx
	subq	$320, %rsp              # imm = 0x140
	.cfi_offset %rbx, -48
	.cfi_offset %r12, -40
	.cfi_offset %r14, -32
	.cfi_offset %r15, -24
	movq	%rsi, %r14
	movq	%rdi, %r15
	movq	%rsi, %rbx
	subq	%rdi, %rbx
	sarq	$3, %rbx
	movq	$0, -48(%rbp)
	leaq	-40(%rbp), %r12
	movq	%r12, %rdi
	callq	_ZNSaIdEC2Ev
.Ltmp22:
	leaq	-128(%rbp), %rdi
	leaq	-48(%rbp), %rdx
	movq	%rbx, %rsi
	movq	%r12, %rcx
	callq	_ZNSt5dequeIdSaIdEEC2EmRKdRKS0_
.Ltmp23:
# %bb.1:
	leaq	-40(%rbp), %rdi
	callq	_ZNSaIdED2Ev
	leaq	-352(%rbp), %rbx
	leaq	-128(%rbp), %rsi
	movq	%rbx, %rdi
	callq	_ZNSt5dequeIdSaIdEE5beginEv
.Ltmp25:
	leaq	-320(%rbp), %rdi
	movq	%r15, %rsi
	movq	%r14, %rdx
	movq	%rbx, %rcx
	callq	_ZSt4copyIPdSt15_Deque_iteratorIdRdS0_EET0_T_S5_S4_
.Ltmp26:
# %bb.2:
	leaq	-288(%rbp), %r14
	leaq	-128(%rbp), %rbx
	movq	%r14, %rdi
	movq	%rbx, %rsi
	callq	_ZNSt5dequeIdSaIdEE5beginEv
	leaq	-256(%rbp), %r15
	movq	%r15, %rdi
	movq	%rbx, %rsi
	callq	_ZNSt5dequeIdSaIdEE3endEv
.Ltmp27:
	movq	%r14, %rdi
	movq	%r15, %rsi
	callq	_ZSt4sortISt15_Deque_iteratorIdRdPdEEvT_S4_
.Ltmp28:
# %bb.3:
	leaq	-224(%rbp), %r14
	leaq	-128(%rbp), %rbx
	movq	%r14, %rdi
	movq	%rbx, %rsi
	callq	_ZNSt5dequeIdSaIdEE5beginEv
	leaq	-192(%rbp), %r15
	movq	%r15, %rdi
	movq	%rbx, %rsi
	callq	_ZNSt5dequeIdSaIdEE3endEv
.Ltmp29:
	leaq	-160(%rbp), %rdi
	movq	%r14, %rsi
	movq	%r15, %rdx
	callq	_ZSt6uniqueISt15_Deque_iteratorIdRdPdEET_S4_S4_
.Ltmp30:
# %bb.4:
	leaq	-128(%rbp), %rdi
	callq	_ZNSt5dequeIdSaIdEED2Ev
	addq	$320, %rsp              # imm = 0x140
	popq	%rbx
	popq	%r12
	popq	%r14
	popq	%r15
	popq	%rbp
	.cfi_def_cfa %rsp, 8
	retq
.LBB19_5:
	.cfi_def_cfa %rbp, 16
.Ltmp24:
	movq	%rax, %rbx
	leaq	-40(%rbp), %rdi
	callq	_ZNSaIdED2Ev
	movq	%rbx, %rdi
	callq	_Unwind_Resume
.LBB19_6:
.Ltmp31:
	movq	%rax, %rbx
	leaq	-128(%rbp), %rdi
	callq	_ZNSt5dequeIdSaIdEED2Ev
	movq	%rbx, %rdi
	callq	_Unwind_Resume
.Lfunc_end19:
	.size	_Z10deque_testPdS_i, .Lfunc_end19-_Z10deque_testPdS_i
	.cfi_endproc
	.section	.gcc_except_table,"a",@progbits
	.p2align	2
GCC_except_table19:
.Lexception4:
	.byte	255                     # @LPStart Encoding = omit
	.byte	255                     # @TType Encoding = omit
	.byte	1                       # Call site Encoding = uleb128
	.uleb128 .Lcst_end4-.Lcst_begin4
.Lcst_begin4:
	.uleb128 .Ltmp22-.Lfunc_begin4  # >> Call Site 1 <<
	.uleb128 .Ltmp23-.Ltmp22        #   Call between .Ltmp22 and .Ltmp23
	.uleb128 .Ltmp24-.Lfunc_begin4  #     jumps to .Ltmp24
	.byte	0                       #   On action: cleanup
	.uleb128 .Ltmp25-.Lfunc_begin4  # >> Call Site 2 <<
	.uleb128 .Ltmp30-.Ltmp25        #   Call between .Ltmp25 and .Ltmp30
	.uleb128 .Ltmp31-.Lfunc_begin4  #     jumps to .Ltmp31
	.byte	0                       #   On action: cleanup
	.uleb128 .Ltmp30-.Lfunc_begin4  # >> Call Site 3 <<
	.uleb128 .Lfunc_end19-.Ltmp30   #   Call between .Ltmp30 and .Lfunc_end19
	.byte	0                       #     has no landing pad
	.byte	0                       #   On action: cleanup
.Lcst_end4:
	.p2align	2
                                        # -- End function
	.section	.text._ZNSt5dequeIdSaIdEEC2EmRKdRKS0_,"axG",@progbits,_ZNSt5dequeIdSaIdEEC2EmRKdRKS0_,comdat
	.weak	_ZNSt5dequeIdSaIdEEC2EmRKdRKS0_ # -- Begin function _ZNSt5dequeIdSaIdEEC2EmRKdRKS0_
	.p2align	4, 0x90
	.type	_ZNSt5dequeIdSaIdEEC2EmRKdRKS0_,@function
_ZNSt5dequeIdSaIdEEC2EmRKdRKS0_:        # @_ZNSt5dequeIdSaIdEEC2EmRKdRKS0_
.Lfunc_begin5:
	.cfi_startproc
	.cfi_personality 3, __gxx_personality_v0
	.cfi_lsda 3, .Lexception5
# %bb.0:
	pushq	%rbp
	.cfi_def_cfa_offset 16
	.cfi_offset %rbp, -16
	movq	%rsp, %rbp
	.cfi_def_cfa_register %rbp
	pushq	%r15
	pushq	%r14
	pushq	%rbx
	pushq	%rax
	.cfi_offset %rbx, -40
	.cfi_offset %r14, -32
	.cfi_offset %r15, -24
	movq	%rcx, %rbx
	movq	%rdx, %r15
	movq	%rdi, %r14
	movq	%rsi, %rdi
	movq	%rcx, %rsi
	callq	_ZNSt5dequeIdSaIdEE17_S_check_init_lenEmRKS0_
	movq	%r14, %rdi
	movq	%rbx, %rsi
	movq	%rax, %rdx
	callq	_ZNSt11_Deque_baseIdSaIdEEC2ERKS0_m
.Ltmp32:
	movq	%r14, %rdi
	movq	%r15, %rsi
	callq	_ZNSt5dequeIdSaIdEE18_M_fill_initializeERKd
.Ltmp33:
# %bb.1:
	addq	$8, %rsp
	popq	%rbx
	popq	%r14
	popq	%r15
	popq	%rbp
	.cfi_def_cfa %rsp, 8
	retq
.LBB20_2:
	.cfi_def_cfa %rbp, 16
.Ltmp34:
	movq	%rax, %rbx
	movq	%r14, %rdi
	callq	_ZNSt11_Deque_baseIdSaIdEED2Ev
	movq	%rbx, %rdi
	callq	_Unwind_Resume
.Lfunc_end20:
	.size	_ZNSt5dequeIdSaIdEEC2EmRKdRKS0_, .Lfunc_end20-_ZNSt5dequeIdSaIdEEC2EmRKdRKS0_
	.cfi_endproc
	.section	.gcc_except_table,"a",@progbits
	.p2align	2
GCC_except_table20:
.Lexception5:
	.byte	255                     # @LPStart Encoding = omit
	.byte	255                     # @TType Encoding = omit
	.byte	1                       # Call site Encoding = uleb128
	.uleb128 .Lcst_end5-.Lcst_begin5
.Lcst_begin5:
	.uleb128 .Lfunc_begin5-.Lfunc_begin5 # >> Call Site 1 <<
	.uleb128 .Ltmp32-.Lfunc_begin5  #   Call between .Lfunc_begin5 and .Ltmp32
	.byte	0                       #     has no landing pad
	.byte	0                       #   On action: cleanup
	.uleb128 .Ltmp32-.Lfunc_begin5  # >> Call Site 2 <<
	.uleb128 .Ltmp33-.Ltmp32        #   Call between .Ltmp32 and .Ltmp33
	.uleb128 .Ltmp34-.Lfunc_begin5  #     jumps to .Ltmp34
	.byte	0                       #   On action: cleanup
	.uleb128 .Ltmp33-.Lfunc_begin5  # >> Call Site 3 <<
	.uleb128 .Lfunc_end20-.Ltmp33   #   Call between .Ltmp33 and .Lfunc_end20
	.byte	0                       #     has no landing pad
	.byte	0                       #   On action: cleanup
.Lcst_end5:
	.p2align	2
                                        # -- End function
	.section	.text._ZSt4copyIPdSt15_Deque_iteratorIdRdS0_EET0_T_S5_S4_,"axG",@progbits,_ZSt4copyIPdSt15_Deque_iteratorIdRdS0_EET0_T_S5_S4_,comdat
	.weak	_ZSt4copyIPdSt15_Deque_iteratorIdRdS0_EET0_T_S5_S4_ # -- Begin function _ZSt4copyIPdSt15_Deque_iteratorIdRdS0_EET0_T_S5_S4_
	.p2align	4, 0x90
	.type	_ZSt4copyIPdSt15_Deque_iteratorIdRdS0_EET0_T_S5_S4_,@function
_ZSt4copyIPdSt15_Deque_iteratorIdRdS0_EET0_T_S5_S4_: # @_ZSt4copyIPdSt15_Deque_iteratorIdRdS0_EET0_T_S5_S4_
	.cfi_startproc
# %bb.0:
	pushq	%rbp
	.cfi_def_cfa_offset 16
	.cfi_offset %rbp, -16
	movq	%rsp, %rbp
	.cfi_def_cfa_register %rbp
	pushq	%r15
	pushq	%r14
	pushq	%r13
	pushq	%r12
	pushq	%rbx
	subq	$40, %rsp
	.cfi_offset %rbx, -56
	.cfi_offset %r12, -48
	.cfi_offset %r13, -40
	.cfi_offset %r14, -32
	.cfi_offset %r15, -24
	movq	%rcx, %r14
	movq	%rdx, %r15
	movq	%rdi, %rbx
	movq	%rsi, %rdi
	callq	_ZSt12__miter_baseIPdET_S1_
	movq	%rax, %r12
	movq	%r15, %rdi
	callq	_ZSt12__miter_baseIPdET_S1_
	movq	%rax, %r15
	leaq	-72(%rbp), %r13
	movq	%r13, %rdi
	movq	%r14, %rsi
	callq	_ZNSt15_Deque_iteratorIdRdPdEC2ERKS2_
	movq	%rbx, %rdi
	movq	%r12, %rsi
	movq	%r15, %rdx
	movq	%r13, %rcx
	callq	_ZSt14__copy_move_a2ILb0EPdSt15_Deque_iteratorIdRdS0_EET1_T0_S5_S4_
	movq	%rbx, %rax
	addq	$40, %rsp
	popq	%rbx
	popq	%r12
	popq	%r13
	popq	%r14
	popq	%r15
	popq	%rbp
	.cfi_def_cfa %rsp, 8
	retq
.Lfunc_end21:
	.size	_ZSt4copyIPdSt15_Deque_iteratorIdRdS0_EET0_T_S5_S4_, .Lfunc_end21-_ZSt4copyIPdSt15_Deque_iteratorIdRdS0_EET0_T_S5_S4_
	.cfi_endproc
                                        # -- End function
	.section	.text._ZNSt5dequeIdSaIdEE5beginEv,"axG",@progbits,_ZNSt5dequeIdSaIdEE5beginEv,comdat
	.weak	_ZNSt5dequeIdSaIdEE5beginEv # -- Begin function _ZNSt5dequeIdSaIdEE5beginEv
	.p2align	4, 0x90
	.type	_ZNSt5dequeIdSaIdEE5beginEv,@function
_ZNSt5dequeIdSaIdEE5beginEv:            # @_ZNSt5dequeIdSaIdEE5beginEv
	.cfi_startproc
# %bb.0:
	pushq	%rbp
	.cfi_def_cfa_offset 16
	.cfi_offset %rbp, -16
	movq	%rsp, %rbp
	.cfi_def_cfa_register %rbp
	pushq	%rbx
	pushq	%rax
	.cfi_offset %rbx, -24
	movq	%rdi, %rbx
	addq	$16, %rsi
	callq	_ZNSt15_Deque_iteratorIdRdPdEC2ERKS2_
	movq	%rbx, %rax
	addq	$8, %rsp
	popq	%rbx
	popq	%rbp
	.cfi_def_cfa %rsp, 8
	retq
.Lfunc_end22:
	.size	_ZNSt5dequeIdSaIdEE5beginEv, .Lfunc_end22-_ZNSt5dequeIdSaIdEE5beginEv
	.cfi_endproc
                                        # -- End function
	.section	.text._ZSt4sortISt15_Deque_iteratorIdRdPdEEvT_S4_,"axG",@progbits,_ZSt4sortISt15_Deque_iteratorIdRdPdEEvT_S4_,comdat
	.weak	_ZSt4sortISt15_Deque_iteratorIdRdPdEEvT_S4_ # -- Begin function _ZSt4sortISt15_Deque_iteratorIdRdPdEEvT_S4_
	.p2align	4, 0x90
	.type	_ZSt4sortISt15_Deque_iteratorIdRdPdEEvT_S4_,@function
_ZSt4sortISt15_Deque_iteratorIdRdPdEEvT_S4_: # @_ZSt4sortISt15_Deque_iteratorIdRdPdEEvT_S4_
	.cfi_startproc
# %bb.0:
	pushq	%rbp
	.cfi_def_cfa_offset 16
	.cfi_offset %rbp, -16
	movq	%rsp, %rbp
	.cfi_def_cfa_register %rbp
	pushq	%r15
	pushq	%r14
	pushq	%rbx
	subq	$72, %rsp
	.cfi_offset %rbx, -40
	.cfi_offset %r14, -32
	.cfi_offset %r15, -24
	movq	%rsi, %rbx
	movq	%rdi, %rsi
	leaq	-88(%rbp), %r14
	movq	%r14, %rdi
	callq	_ZNSt15_Deque_iteratorIdRdPdEC2ERKS2_
	leaq	-56(%rbp), %r15
	movq	%r15, %rdi
	movq	%rbx, %rsi
	callq	_ZNSt15_Deque_iteratorIdRdPdEC2ERKS2_
	callq	_ZN9__gnu_cxx5__ops16__iter_less_iterEv
	movq	%r14, %rdi
	movq	%r15, %rsi
	callq	_ZSt6__sortISt15_Deque_iteratorIdRdPdEN9__gnu_cxx5__ops15_Iter_less_iterEEvT_S7_T0_
	addq	$72, %rsp
	popq	%rbx
	popq	%r14
	popq	%r15
	popq	%rbp
	.cfi_def_cfa %rsp, 8
	retq
.Lfunc_end23:
	.size	_ZSt4sortISt15_Deque_iteratorIdRdPdEEvT_S4_, .Lfunc_end23-_ZSt4sortISt15_Deque_iteratorIdRdPdEEvT_S4_
	.cfi_endproc
                                        # -- End function
	.section	.text._ZNSt5dequeIdSaIdEE3endEv,"axG",@progbits,_ZNSt5dequeIdSaIdEE3endEv,comdat
	.weak	_ZNSt5dequeIdSaIdEE3endEv # -- Begin function _ZNSt5dequeIdSaIdEE3endEv
	.p2align	4, 0x90
	.type	_ZNSt5dequeIdSaIdEE3endEv,@function
_ZNSt5dequeIdSaIdEE3endEv:              # @_ZNSt5dequeIdSaIdEE3endEv
	.cfi_startproc
# %bb.0:
	pushq	%rbp
	.cfi_def_cfa_offset 16
	.cfi_offset %rbp, -16
	movq	%rsp, %rbp
	.cfi_def_cfa_register %rbp
	pushq	%rbx
	pushq	%rax
	.cfi_offset %rbx, -24
	movq	%rdi, %rbx
	addq	$48, %rsi
	callq	_ZNSt15_Deque_iteratorIdRdPdEC2ERKS2_
	movq	%rbx, %rax
	addq	$8, %rsp
	popq	%rbx
	popq	%rbp
	.cfi_def_cfa %rsp, 8
	retq
.Lfunc_end24:
	.size	_ZNSt5dequeIdSaIdEE3endEv, .Lfunc_end24-_ZNSt5dequeIdSaIdEE3endEv
	.cfi_endproc
                                        # -- End function
	.section	.text._ZSt6uniqueISt15_Deque_iteratorIdRdPdEET_S4_S4_,"axG",@progbits,_ZSt6uniqueISt15_Deque_iteratorIdRdPdEET_S4_S4_,comdat
	.weak	_ZSt6uniqueISt15_Deque_iteratorIdRdPdEET_S4_S4_ # -- Begin function _ZSt6uniqueISt15_Deque_iteratorIdRdPdEET_S4_S4_
	.p2align	4, 0x90
	.type	_ZSt6uniqueISt15_Deque_iteratorIdRdPdEET_S4_S4_,@function
_ZSt6uniqueISt15_Deque_iteratorIdRdPdEET_S4_S4_: # @_ZSt6uniqueISt15_Deque_iteratorIdRdPdEET_S4_S4_
	.cfi_startproc
# %bb.0:
	pushq	%rbp
	.cfi_def_cfa_offset 16
	.cfi_offset %rbp, -16
	movq	%rsp, %rbp
	.cfi_def_cfa_register %rbp
	pushq	%r15
	pushq	%r14
	pushq	%r12
	pushq	%rbx
	subq	$64, %rsp
	.cfi_offset %rbx, -48
	.cfi_offset %r12, -40
	.cfi_offset %r14, -32
	.cfi_offset %r15, -24
	movq	%rdx, %r14
	movq	%rdi, %rbx
	leaq	-96(%rbp), %r15
	movq	%r15, %rdi
	callq	_ZNSt15_Deque_iteratorIdRdPdEC2ERKS2_
	leaq	-64(%rbp), %r12
	movq	%r12, %rdi
	movq	%r14, %rsi
	callq	_ZNSt15_Deque_iteratorIdRdPdEC2ERKS2_
	callq	_ZN9__gnu_cxx5__ops20__iter_equal_to_iterEv
	movq	%rbx, %rdi
	movq	%r15, %rsi
	movq	%r12, %rdx
	callq	_ZSt8__uniqueISt15_Deque_iteratorIdRdPdEN9__gnu_cxx5__ops19_Iter_equal_to_iterEET_S7_S7_T0_
	movq	%rbx, %rax
	addq	$64, %rsp
	popq	%rbx
	popq	%r12
	popq	%r14
	popq	%r15
	popq	%rbp
	.cfi_def_cfa %rsp, 8
	retq
.Lfunc_end25:
	.size	_ZSt6uniqueISt15_Deque_iteratorIdRdPdEET_S4_S4_, .Lfunc_end25-_ZSt6uniqueISt15_Deque_iteratorIdRdPdEET_S4_S4_
	.cfi_endproc
                                        # -- End function
	.section	.text._ZNSt5dequeIdSaIdEED2Ev,"axG",@progbits,_ZNSt5dequeIdSaIdEED2Ev,comdat
	.weak	_ZNSt5dequeIdSaIdEED2Ev # -- Begin function _ZNSt5dequeIdSaIdEED2Ev
	.p2align	4, 0x90
	.type	_ZNSt5dequeIdSaIdEED2Ev,@function
_ZNSt5dequeIdSaIdEED2Ev:                # @_ZNSt5dequeIdSaIdEED2Ev
	.cfi_startproc
# %bb.0:
	pushq	%rbp
	.cfi_def_cfa_offset 16
	.cfi_offset %rbp, -16
	movq	%rsp, %rbp
	.cfi_def_cfa_register %rbp
	pushq	%r15
	pushq	%r14
	pushq	%rbx
	subq	$72, %rsp
	.cfi_offset %rbx, -40
	.cfi_offset %r14, -32
	.cfi_offset %r15, -24
	movq	%rdi, %rbx
	leaq	-88(%rbp), %r14
	movq	%r14, %rdi
	movq	%rbx, %rsi
	callq	_ZNSt5dequeIdSaIdEE5beginEv
	leaq	-56(%rbp), %r15
	movq	%r15, %rdi
	movq	%rbx, %rsi
	callq	_ZNSt5dequeIdSaIdEE3endEv
	movq	%rbx, %rdi
	callq	_ZNSt11_Deque_baseIdSaIdEE19_M_get_Tp_allocatorEv
	movq	%rbx, %rdi
	movq	%r14, %rsi
	movq	%r15, %rdx
	movq	%rax, %rcx
	callq	_ZNSt5dequeIdSaIdEE15_M_destroy_dataESt15_Deque_iteratorIdRdPdES5_RKS0_
	movq	%rbx, %rdi
	callq	_ZNSt11_Deque_baseIdSaIdEED2Ev
	addq	$72, %rsp
	popq	%rbx
	popq	%r14
	popq	%r15
	popq	%rbp
	.cfi_def_cfa %rsp, 8
	retq
.Lfunc_end26:
	.size	_ZNSt5dequeIdSaIdEED2Ev, .Lfunc_end26-_ZNSt5dequeIdSaIdEED2Ev
	.cfi_endproc
                                        # -- End function
	.text
	.globl	_Z9list_testPdS_i       # -- Begin function _Z9list_testPdS_i
	.p2align	4, 0x90
	.type	_Z9list_testPdS_i,@function
_Z9list_testPdS_i:                      # @_Z9list_testPdS_i
.Lfunc_begin6:
	.cfi_startproc
	.cfi_personality 3, __gxx_personality_v0
	.cfi_lsda 3, .Lexception6
# %bb.0:
	pushq	%rbp
	.cfi_def_cfa_offset 16
	.cfi_offset %rbp, -16
	movq	%rsp, %rbp
	.cfi_def_cfa_register %rbp
	pushq	%r15
	pushq	%r14
	pushq	%rbx
	subq	$40, %rsp
	.cfi_offset %rbx, -40
	.cfi_offset %r14, -32
	.cfi_offset %r15, -24
	movq	%rsi, %r14
	movq	%rdi, %rbx
	leaq	-32(%rbp), %r15
	movq	%r15, %rdi
	callq	_ZNSaIdEC2Ev
.Ltmp35:
	leaq	-56(%rbp), %rdi
	movq	%rbx, %rsi
	movq	%r14, %rdx
	movq	%r15, %rcx
	callq	_ZNSt7__cxx114listIdSaIdEEC2IPdvEET_S5_RKS1_
.Ltmp36:
# %bb.1:
	leaq	-32(%rbp), %rdi
	callq	_ZNSaIdED2Ev
.Ltmp38:
	leaq	-56(%rbp), %rdi
	callq	_ZNSt7__cxx114listIdSaIdEE4sortEv
.Ltmp39:
# %bb.2:
	leaq	-56(%rbp), %rbx
	movq	%rbx, %rdi
	callq	_ZNSt7__cxx114listIdSaIdEE6uniqueEv
	movq	%rbx, %rdi
	callq	_ZNSt7__cxx114listIdSaIdEED2Ev
	addq	$40, %rsp
	popq	%rbx
	popq	%r14
	popq	%r15
	popq	%rbp
	.cfi_def_cfa %rsp, 8
	retq
.LBB27_4:
	.cfi_def_cfa %rbp, 16
.Ltmp40:
	movq	%rax, %rbx
	leaq	-56(%rbp), %rdi
	callq	_ZNSt7__cxx114listIdSaIdEED2Ev
	movq	%rbx, %rdi
	callq	_Unwind_Resume
.LBB27_3:
.Ltmp37:
	movq	%rax, %rbx
	leaq	-32(%rbp), %rdi
	callq	_ZNSaIdED2Ev
	movq	%rbx, %rdi
	callq	_Unwind_Resume
.Lfunc_end27:
	.size	_Z9list_testPdS_i, .Lfunc_end27-_Z9list_testPdS_i
	.cfi_endproc
	.section	.gcc_except_table,"a",@progbits
	.p2align	2
GCC_except_table27:
.Lexception6:
	.byte	255                     # @LPStart Encoding = omit
	.byte	255                     # @TType Encoding = omit
	.byte	1                       # Call site Encoding = uleb128
	.uleb128 .Lcst_end6-.Lcst_begin6
.Lcst_begin6:
	.uleb128 .Ltmp35-.Lfunc_begin6  # >> Call Site 1 <<
	.uleb128 .Ltmp36-.Ltmp35        #   Call between .Ltmp35 and .Ltmp36
	.uleb128 .Ltmp37-.Lfunc_begin6  #     jumps to .Ltmp37
	.byte	0                       #   On action: cleanup
	.uleb128 .Ltmp38-.Lfunc_begin6  # >> Call Site 2 <<
	.uleb128 .Ltmp39-.Ltmp38        #   Call between .Ltmp38 and .Ltmp39
	.uleb128 .Ltmp40-.Lfunc_begin6  #     jumps to .Ltmp40
	.byte	0                       #   On action: cleanup
	.uleb128 .Ltmp39-.Lfunc_begin6  # >> Call Site 3 <<
	.uleb128 .Lfunc_end27-.Ltmp39   #   Call between .Ltmp39 and .Lfunc_end27
	.byte	0                       #     has no landing pad
	.byte	0                       #   On action: cleanup
.Lcst_end6:
	.p2align	2
                                        # -- End function
	.section	.text._ZNSt7__cxx114listIdSaIdEEC2IPdvEET_S5_RKS1_,"axG",@progbits,_ZNSt7__cxx114listIdSaIdEEC2IPdvEET_S5_RKS1_,comdat
	.weak	_ZNSt7__cxx114listIdSaIdEEC2IPdvEET_S5_RKS1_ # -- Begin function _ZNSt7__cxx114listIdSaIdEEC2IPdvEET_S5_RKS1_
	.p2align	4, 0x90
	.type	_ZNSt7__cxx114listIdSaIdEEC2IPdvEET_S5_RKS1_,@function
_ZNSt7__cxx114listIdSaIdEEC2IPdvEET_S5_RKS1_: # @_ZNSt7__cxx114listIdSaIdEEC2IPdvEET_S5_RKS1_
.Lfunc_begin7:
	.cfi_startproc
	.cfi_personality 3, __gxx_personality_v0
	.cfi_lsda 3, .Lexception7
# %bb.0:
	pushq	%rbp
	.cfi_def_cfa_offset 16
	.cfi_offset %rbp, -16
	movq	%rsp, %rbp
	.cfi_def_cfa_register %rbp
	pushq	%r15
	pushq	%r14
	pushq	%r12
	pushq	%rbx
	subq	$16, %rsp
	.cfi_offset %rbx, -48
	.cfi_offset %r12, -40
	.cfi_offset %r14, -32
	.cfi_offset %r15, -24
	movq	%rdx, %r14
	movq	%rsi, %r15
	movq	%rdi, %rbx
	leaq	-40(%rbp), %r12
	movq	%r12, %rdi
	movq	%rcx, %rsi
	callq	_ZNSaISt10_List_nodeIdEEC2IdEERKSaIT_E
	movq	%rbx, %rdi
	movq	%r12, %rsi
	callq	_ZNSt7__cxx1110_List_baseIdSaIdEEC2EOSaISt10_List_nodeIdEE
	movq	%r12, %rdi
	callq	_ZNSaISt10_List_nodeIdEED2Ev
.Ltmp41:
	movq	%rbx, %rdi
	movq	%r15, %rsi
	movq	%r14, %rdx
	callq	_ZNSt7__cxx114listIdSaIdEE22_M_initialize_dispatchIPdEEvT_S5_St12__false_type
.Ltmp42:
# %bb.1:
	addq	$16, %rsp
	popq	%rbx
	popq	%r12
	popq	%r14
	popq	%r15
	popq	%rbp
	.cfi_def_cfa %rsp, 8
	retq
.LBB28_2:
	.cfi_def_cfa %rbp, 16
.Ltmp43:
	movq	%rax, %r14
	movq	%rbx, %rdi
	callq	_ZNSt7__cxx1110_List_baseIdSaIdEED2Ev
	movq	%r14, %rdi
	callq	_Unwind_Resume
.Lfunc_end28:
	.size	_ZNSt7__cxx114listIdSaIdEEC2IPdvEET_S5_RKS1_, .Lfunc_end28-_ZNSt7__cxx114listIdSaIdEEC2IPdvEET_S5_RKS1_
	.cfi_endproc
	.section	.gcc_except_table,"a",@progbits
	.p2align	2
GCC_except_table28:
.Lexception7:
	.byte	255                     # @LPStart Encoding = omit
	.byte	255                     # @TType Encoding = omit
	.byte	1                       # Call site Encoding = uleb128
	.uleb128 .Lcst_end7-.Lcst_begin7
.Lcst_begin7:
	.uleb128 .Ltmp41-.Lfunc_begin7  # >> Call Site 1 <<
	.uleb128 .Ltmp42-.Ltmp41        #   Call between .Ltmp41 and .Ltmp42
	.uleb128 .Ltmp43-.Lfunc_begin7  #     jumps to .Ltmp43
	.byte	0                       #   On action: cleanup
	.uleb128 .Ltmp42-.Lfunc_begin7  # >> Call Site 2 <<
	.uleb128 .Lfunc_end28-.Ltmp42   #   Call between .Ltmp42 and .Lfunc_end28
	.byte	0                       #     has no landing pad
	.byte	0                       #   On action: cleanup
.Lcst_end7:
	.p2align	2
                                        # -- End function
	.section	.text._ZNSt7__cxx114listIdSaIdEE4sortEv,"axG",@progbits,_ZNSt7__cxx114listIdSaIdEE4sortEv,comdat
	.weak	_ZNSt7__cxx114listIdSaIdEE4sortEv # -- Begin function _ZNSt7__cxx114listIdSaIdEE4sortEv
	.p2align	4, 0x90
	.type	_ZNSt7__cxx114listIdSaIdEE4sortEv,@function
_ZNSt7__cxx114listIdSaIdEE4sortEv:      # @_ZNSt7__cxx114listIdSaIdEE4sortEv
.Lfunc_begin8:
	.cfi_startproc
	.cfi_personality 3, __gxx_personality_v0
	.cfi_lsda 3, .Lexception8
# %bb.0:
	pushq	%rbp
	.cfi_def_cfa_offset 16
	.cfi_offset %rbp, -16
	movq	%rsp, %rbp
	.cfi_def_cfa_register %rbp
	pushq	%r15
	pushq	%r14
	pushq	%r13
	pushq	%r12
	pushq	%rbx
	subq	$1640, %rsp             # imm = 0x668
	.cfi_offset %rbx, -56
	.cfi_offset %r12, -48
	.cfi_offset %r13, -40
	.cfi_offset %r14, -32
	.cfi_offset %r15, -24
	movq	(%rdi), %rax
	cmpq	%rdi, %rax
	je	.LBB29_21
# %bb.1:
	movq	%rdi, %r15
	cmpq	%rdi, (%rax)
	je	.LBB29_21
# %bb.2:                                # %.preheader28
	leaq	-136(%rbp), %rbx
	movq	%rbx, %rdi
	callq	_ZNSt7__cxx114listIdSaIdEEC2Ev
	leaq	-1680(%rbp), %r12
	movq	%r12, %rdi
	callq	_ZNSt7__cxx114listIdSaIdEEC2Ev
	leaq	-1656(%rbp), %rdi
	callq	_ZNSt7__cxx114listIdSaIdEEC2Ev
	leaq	-1632(%rbp), %rdi
	callq	_ZNSt7__cxx114listIdSaIdEEC2Ev
	leaq	-1608(%rbp), %rdi
	callq	_ZNSt7__cxx114listIdSaIdEEC2Ev
	leaq	-1584(%rbp), %rdi
	callq	_ZNSt7__cxx114listIdSaIdEEC2Ev
	leaq	-1560(%rbp), %rdi
	callq	_ZNSt7__cxx114listIdSaIdEEC2Ev
	leaq	-1536(%rbp), %rdi
	callq	_ZNSt7__cxx114listIdSaIdEEC2Ev
	leaq	-1512(%rbp), %rdi
	callq	_ZNSt7__cxx114listIdSaIdEEC2Ev
	leaq	-1488(%rbp), %rdi
	callq	_ZNSt7__cxx114listIdSaIdEEC2Ev
	leaq	-1464(%rbp), %rdi
	callq	_ZNSt7__cxx114listIdSaIdEEC2Ev
	leaq	-1440(%rbp), %rdi
	callq	_ZNSt7__cxx114listIdSaIdEEC2Ev
	leaq	-1416(%rbp), %rdi
	callq	_ZNSt7__cxx114listIdSaIdEEC2Ev
	leaq	-1392(%rbp), %rdi
	callq	_ZNSt7__cxx114listIdSaIdEEC2Ev
	leaq	-1368(%rbp), %rdi
	callq	_ZNSt7__cxx114listIdSaIdEEC2Ev
	leaq	-1344(%rbp), %rdi
	callq	_ZNSt7__cxx114listIdSaIdEEC2Ev
	leaq	-1320(%rbp), %rdi
	callq	_ZNSt7__cxx114listIdSaIdEEC2Ev
	leaq	-1296(%rbp), %rdi
	callq	_ZNSt7__cxx114listIdSaIdEEC2Ev
	leaq	-1272(%rbp), %rdi
	callq	_ZNSt7__cxx114listIdSaIdEEC2Ev
	leaq	-1248(%rbp), %rdi
	callq	_ZNSt7__cxx114listIdSaIdEEC2Ev
	leaq	-1224(%rbp), %rdi
	callq	_ZNSt7__cxx114listIdSaIdEEC2Ev
	leaq	-1200(%rbp), %rdi
	callq	_ZNSt7__cxx114listIdSaIdEEC2Ev
	leaq	-1176(%rbp), %rdi
	callq	_ZNSt7__cxx114listIdSaIdEEC2Ev
	leaq	-1152(%rbp), %rdi
	callq	_ZNSt7__cxx114listIdSaIdEEC2Ev
	leaq	-1128(%rbp), %rdi
	callq	_ZNSt7__cxx114listIdSaIdEEC2Ev
	leaq	-1104(%rbp), %rdi
	callq	_ZNSt7__cxx114listIdSaIdEEC2Ev
	leaq	-1080(%rbp), %rdi
	callq	_ZNSt7__cxx114listIdSaIdEEC2Ev
	leaq	-1056(%rbp), %rdi
	callq	_ZNSt7__cxx114listIdSaIdEEC2Ev
	leaq	-1032(%rbp), %rdi
	callq	_ZNSt7__cxx114listIdSaIdEEC2Ev
	leaq	-1008(%rbp), %rdi
	callq	_ZNSt7__cxx114listIdSaIdEEC2Ev
	leaq	-984(%rbp), %rdi
	callq	_ZNSt7__cxx114listIdSaIdEEC2Ev
	leaq	-960(%rbp), %rdi
	callq	_ZNSt7__cxx114listIdSaIdEEC2Ev
	leaq	-936(%rbp), %rdi
	callq	_ZNSt7__cxx114listIdSaIdEEC2Ev
	leaq	-912(%rbp), %rdi
	callq	_ZNSt7__cxx114listIdSaIdEEC2Ev
	leaq	-888(%rbp), %rdi
	callq	_ZNSt7__cxx114listIdSaIdEEC2Ev
	leaq	-864(%rbp), %rdi
	callq	_ZNSt7__cxx114listIdSaIdEEC2Ev
	leaq	-840(%rbp), %rdi
	callq	_ZNSt7__cxx114listIdSaIdEEC2Ev
	leaq	-816(%rbp), %rdi
	callq	_ZNSt7__cxx114listIdSaIdEEC2Ev
	leaq	-792(%rbp), %rdi
	callq	_ZNSt7__cxx114listIdSaIdEEC2Ev
	leaq	-768(%rbp), %rdi
	callq	_ZNSt7__cxx114listIdSaIdEEC2Ev
	leaq	-744(%rbp), %rdi
	callq	_ZNSt7__cxx114listIdSaIdEEC2Ev
	leaq	-720(%rbp), %rdi
	callq	_ZNSt7__cxx114listIdSaIdEEC2Ev
	leaq	-696(%rbp), %rdi
	callq	_ZNSt7__cxx114listIdSaIdEEC2Ev
	leaq	-672(%rbp), %rdi
	callq	_ZNSt7__cxx114listIdSaIdEEC2Ev
	leaq	-648(%rbp), %rdi
	callq	_ZNSt7__cxx114listIdSaIdEEC2Ev
	leaq	-624(%rbp), %rdi
	callq	_ZNSt7__cxx114listIdSaIdEEC2Ev
	leaq	-600(%rbp), %rdi
	callq	_ZNSt7__cxx114listIdSaIdEEC2Ev
	leaq	-576(%rbp), %rdi
	callq	_ZNSt7__cxx114listIdSaIdEEC2Ev
	leaq	-552(%rbp), %rdi
	callq	_ZNSt7__cxx114listIdSaIdEEC2Ev
	leaq	-528(%rbp), %rdi
	callq	_ZNSt7__cxx114listIdSaIdEEC2Ev
	leaq	-504(%rbp), %rdi
	callq	_ZNSt7__cxx114listIdSaIdEEC2Ev
	leaq	-480(%rbp), %rdi
	callq	_ZNSt7__cxx114listIdSaIdEEC2Ev
	leaq	-456(%rbp), %rdi
	callq	_ZNSt7__cxx114listIdSaIdEEC2Ev
	leaq	-432(%rbp), %rdi
	callq	_ZNSt7__cxx114listIdSaIdEEC2Ev
	leaq	-408(%rbp), %rdi
	callq	_ZNSt7__cxx114listIdSaIdEEC2Ev
	leaq	-384(%rbp), %rdi
	callq	_ZNSt7__cxx114listIdSaIdEEC2Ev
	leaq	-360(%rbp), %rdi
	callq	_ZNSt7__cxx114listIdSaIdEEC2Ev
	leaq	-336(%rbp), %rdi
	callq	_ZNSt7__cxx114listIdSaIdEEC2Ev
	leaq	-312(%rbp), %rdi
	callq	_ZNSt7__cxx114listIdSaIdEEC2Ev
	leaq	-288(%rbp), %rdi
	callq	_ZNSt7__cxx114listIdSaIdEEC2Ev
	leaq	-264(%rbp), %rdi
	callq	_ZNSt7__cxx114listIdSaIdEEC2Ev
	leaq	-240(%rbp), %rdi
	callq	_ZNSt7__cxx114listIdSaIdEEC2Ev
	leaq	-216(%rbp), %rdi
	callq	_ZNSt7__cxx114listIdSaIdEEC2Ev
	leaq	-192(%rbp), %rdi
	callq	_ZNSt7__cxx114listIdSaIdEEC2Ev
	leaq	-168(%rbp), %rdi
	callq	_ZNSt7__cxx114listIdSaIdEEC2Ev
	movq	%r12, %r14
	movq	%r15, -48(%rbp)         # 8-byte Spill
	jmp	.LBB29_3
	.p2align	4, 0x90
.LBB29_13:                              # %.critedge
                                        #   in Loop: Header=BB29_3 Depth=1
	movq	%rbx, %rdi
	movq	%r12, %rsi
	callq	_ZNSt7__cxx114listIdSaIdEE4swapERS2_
	leaq	24(%r13), %r14
	cmpq	%r12, %r13
	cmovneq	%r13, %r14
	movq	%r15, %rdi
	callq	_ZNKSt7__cxx114listIdSaIdEE5emptyEv
	testb	%al, %al
	jne	.LBB29_14
.LBB29_3:                               # =>This Loop Header: Depth=1
                                        #     Child Loop BB29_5 Depth 2
	movq	%r14, %r13
	movq	%rbx, %rdi
	callq	_ZNSt7__cxx114listIdSaIdEE5beginEv
	movq	%rax, -104(%rbp)
	leaq	-112(%rbp), %rdi
	leaq	-104(%rbp), %rsi
	callq	_ZNSt20_List_const_iteratorIdEC2ERKSt14_List_iteratorIdE
	movq	%r15, %rdi
	callq	_ZNSt7__cxx114listIdSaIdEE5beginEv
	movq	%rax, -88(%rbp)
	leaq	-96(%rbp), %rdi
	leaq	-88(%rbp), %rsi
	callq	_ZNSt20_List_const_iteratorIdEC2ERKSt14_List_iteratorIdE
	movq	-112(%rbp), %rsi
	movq	-96(%rbp), %rcx
	movq	%rbx, %rdi
	movq	%r15, %rdx
	callq	_ZNSt7__cxx114listIdSaIdEE6spliceESt20_List_const_iteratorIdERS2_S4_
	leaq	-1680(%rbp), %r12
	cmpq	%r12, %r13
	je	.LBB29_13
	.p2align	4, 0x90
.LBB29_5:                               #   Parent Loop BB29_3 Depth=1
                                        # =>  This Inner Loop Header: Depth=2
	movq	%r12, %rdi
	callq	_ZNKSt7__cxx114listIdSaIdEE5emptyEv
	testb	%al, %al
	jne	.LBB29_13
# %bb.6:                                #   in Loop: Header=BB29_5 Depth=2
.Ltmp44:
	movq	%r12, %rdi
	movq	%rbx, %rsi
	callq	_ZNSt7__cxx114listIdSaIdEE5mergeERS2_
.Ltmp45:
# %bb.7:                                #   in Loop: Header=BB29_5 Depth=2
	movq	%rbx, %rdi
	movq	%r12, %rsi
	callq	_ZNSt7__cxx114listIdSaIdEE4swapERS2_
	addq	$24, %r12
	cmpq	%r12, %r13
	jne	.LBB29_5
	jmp	.LBB29_13
.LBB29_14:
	leaq	-1680(%rbp), %rax
	movq	%r14, %r15
	subq	%rax, %r15
	addq	$-24, %r15
	leaq	-1656(%rbp), %rbx
	testq	%r15, %r15
	je	.LBB29_20
	.p2align	4, 0x90
.LBB29_16:                              # =>This Inner Loop Header: Depth=1
	leaq	-24(%rbx), %rsi
.Ltmp47:
	movq	%rbx, %rdi
	callq	_ZNSt7__cxx114listIdSaIdEE5mergeERS2_
.Ltmp48:
# %bb.17:                               #   in Loop: Header=BB29_16 Depth=1
	addq	$24, %rbx
	addq	$-24, %r15
	testq	%r15, %r15
	jne	.LBB29_16
.LBB29_20:
	addq	$-24, %r14
	movq	-48(%rbp), %rdi         # 8-byte Reload
	movq	%r14, %rsi
	callq	_ZNSt7__cxx114listIdSaIdEE4swapERS2_
	leaq	-168(%rbp), %rdi
	callq	_ZNSt7__cxx114listIdSaIdEED2Ev
	leaq	-192(%rbp), %rdi
	callq	_ZNSt7__cxx114listIdSaIdEED2Ev
	leaq	-216(%rbp), %rdi
	callq	_ZNSt7__cxx114listIdSaIdEED2Ev
	leaq	-240(%rbp), %rdi
	callq	_ZNSt7__cxx114listIdSaIdEED2Ev
	leaq	-264(%rbp), %rdi
	callq	_ZNSt7__cxx114listIdSaIdEED2Ev
	leaq	-288(%rbp), %rdi
	callq	_ZNSt7__cxx114listIdSaIdEED2Ev
	leaq	-312(%rbp), %rdi
	callq	_ZNSt7__cxx114listIdSaIdEED2Ev
	leaq	-336(%rbp), %rdi
	callq	_ZNSt7__cxx114listIdSaIdEED2Ev
	leaq	-360(%rbp), %rdi
	callq	_ZNSt7__cxx114listIdSaIdEED2Ev
	leaq	-384(%rbp), %rdi
	callq	_ZNSt7__cxx114listIdSaIdEED2Ev
	leaq	-408(%rbp), %rdi
	callq	_ZNSt7__cxx114listIdSaIdEED2Ev
	leaq	-432(%rbp), %rdi
	callq	_ZNSt7__cxx114listIdSaIdEED2Ev
	leaq	-456(%rbp), %rdi
	callq	_ZNSt7__cxx114listIdSaIdEED2Ev
	leaq	-480(%rbp), %rdi
	callq	_ZNSt7__cxx114listIdSaIdEED2Ev
	leaq	-504(%rbp), %rdi
	callq	_ZNSt7__cxx114listIdSaIdEED2Ev
	leaq	-528(%rbp), %rdi
	callq	_ZNSt7__cxx114listIdSaIdEED2Ev
	leaq	-552(%rbp), %rdi
	callq	_ZNSt7__cxx114listIdSaIdEED2Ev
	leaq	-576(%rbp), %rdi
	callq	_ZNSt7__cxx114listIdSaIdEED2Ev
	leaq	-600(%rbp), %rdi
	callq	_ZNSt7__cxx114listIdSaIdEED2Ev
	leaq	-624(%rbp), %rdi
	callq	_ZNSt7__cxx114listIdSaIdEED2Ev
	leaq	-648(%rbp), %rdi
	callq	_ZNSt7__cxx114listIdSaIdEED2Ev
	leaq	-672(%rbp), %rdi
	callq	_ZNSt7__cxx114listIdSaIdEED2Ev
	leaq	-696(%rbp), %rdi
	callq	_ZNSt7__cxx114listIdSaIdEED2Ev
	leaq	-720(%rbp), %rdi
	callq	_ZNSt7__cxx114listIdSaIdEED2Ev
	leaq	-744(%rbp), %rdi
	callq	_ZNSt7__cxx114listIdSaIdEED2Ev
	leaq	-768(%rbp), %rdi
	callq	_ZNSt7__cxx114listIdSaIdEED2Ev
	leaq	-792(%rbp), %rdi
	callq	_ZNSt7__cxx114listIdSaIdEED2Ev
	leaq	-816(%rbp), %rdi
	callq	_ZNSt7__cxx114listIdSaIdEED2Ev
	leaq	-840(%rbp), %rdi
	callq	_ZNSt7__cxx114listIdSaIdEED2Ev
	leaq	-864(%rbp), %rdi
	callq	_ZNSt7__cxx114listIdSaIdEED2Ev
	leaq	-888(%rbp), %rdi
	callq	_ZNSt7__cxx114listIdSaIdEED2Ev
	leaq	-912(%rbp), %rdi
	callq	_ZNSt7__cxx114listIdSaIdEED2Ev
	leaq	-936(%rbp), %rdi
	callq	_ZNSt7__cxx114listIdSaIdEED2Ev
	leaq	-960(%rbp), %rdi
	callq	_ZNSt7__cxx114listIdSaIdEED2Ev
	leaq	-984(%rbp), %rdi
	callq	_ZNSt7__cxx114listIdSaIdEED2Ev
	leaq	-1008(%rbp), %rdi
	callq	_ZNSt7__cxx114listIdSaIdEED2Ev
	leaq	-1032(%rbp), %rdi
	callq	_ZNSt7__cxx114listIdSaIdEED2Ev
	leaq	-1056(%rbp), %rdi
	callq	_ZNSt7__cxx114listIdSaIdEED2Ev
	leaq	-1080(%rbp), %rdi
	callq	_ZNSt7__cxx114listIdSaIdEED2Ev
	leaq	-1104(%rbp), %rdi
	callq	_ZNSt7__cxx114listIdSaIdEED2Ev
	leaq	-1128(%rbp), %rdi
	callq	_ZNSt7__cxx114listIdSaIdEED2Ev
	leaq	-1152(%rbp), %rdi
	callq	_ZNSt7__cxx114listIdSaIdEED2Ev
	leaq	-1176(%rbp), %rdi
	callq	_ZNSt7__cxx114listIdSaIdEED2Ev
	leaq	-1200(%rbp), %rdi
	callq	_ZNSt7__cxx114listIdSaIdEED2Ev
	leaq	-1224(%rbp), %rdi
	callq	_ZNSt7__cxx114listIdSaIdEED2Ev
	leaq	-1248(%rbp), %rdi
	callq	_ZNSt7__cxx114listIdSaIdEED2Ev
	leaq	-1272(%rbp), %rdi
	callq	_ZNSt7__cxx114listIdSaIdEED2Ev
	leaq	-1296(%rbp), %rdi
	callq	_ZNSt7__cxx114listIdSaIdEED2Ev
	leaq	-1320(%rbp), %rdi
	callq	_ZNSt7__cxx114listIdSaIdEED2Ev
	leaq	-1344(%rbp), %rdi
	callq	_ZNSt7__cxx114listIdSaIdEED2Ev
	leaq	-1368(%rbp), %rdi
	callq	_ZNSt7__cxx114listIdSaIdEED2Ev
	leaq	-1392(%rbp), %rdi
	callq	_ZNSt7__cxx114listIdSaIdEED2Ev
	leaq	-1416(%rbp), %rdi
	callq	_ZNSt7__cxx114listIdSaIdEED2Ev
	leaq	-1440(%rbp), %rdi
	callq	_ZNSt7__cxx114listIdSaIdEED2Ev
	leaq	-1464(%rbp), %rdi
	callq	_ZNSt7__cxx114listIdSaIdEED2Ev
	leaq	-1488(%rbp), %rdi
	callq	_ZNSt7__cxx114listIdSaIdEED2Ev
	leaq	-1512(%rbp), %rdi
	callq	_ZNSt7__cxx114listIdSaIdEED2Ev
	leaq	-1536(%rbp), %rdi
	callq	_ZNSt7__cxx114listIdSaIdEED2Ev
	leaq	-1560(%rbp), %rdi
	callq	_ZNSt7__cxx114listIdSaIdEED2Ev
	leaq	-1584(%rbp), %rdi
	callq	_ZNSt7__cxx114listIdSaIdEED2Ev
	leaq	-1608(%rbp), %rdi
	callq	_ZNSt7__cxx114listIdSaIdEED2Ev
	leaq	-1632(%rbp), %rdi
	callq	_ZNSt7__cxx114listIdSaIdEED2Ev
	leaq	-1656(%rbp), %rdi
	callq	_ZNSt7__cxx114listIdSaIdEED2Ev
	leaq	-1680(%rbp), %rdi
	callq	_ZNSt7__cxx114listIdSaIdEED2Ev
	leaq	-136(%rbp), %rdi
	callq	_ZNSt7__cxx114listIdSaIdEED2Ev
.LBB29_21:
	addq	$1640, %rsp             # imm = 0x668
	popq	%rbx
	popq	%r12
	popq	%r13
	popq	%r14
	popq	%r15
	popq	%rbp
	.cfi_def_cfa %rsp, 8
	retq
.LBB29_8:                               # %.loopexit
	.cfi_def_cfa %rbp, 16
.Ltmp49:
	movq	%rax, %rdi
	movq	-48(%rbp), %r15         # 8-byte Reload
	jmp	.LBB29_10
.LBB29_9:                               # %.loopexit.split-lp
.Ltmp46:
	movq	%rax, %rdi
.LBB29_10:
	callq	__cxa_begin_catch
	movq	%r15, %rdi
	callq	_ZNSt7__cxx114listIdSaIdEE3endEv
	movq	%rax, -72(%rbp)
	leaq	-80(%rbp), %rdi
	leaq	-72(%rbp), %rsi
	callq	_ZNSt20_List_const_iteratorIdEC2ERKSt14_List_iteratorIdE
	movq	-80(%rbp), %rsi
	leaq	-136(%rbp), %rdx
	movq	%r15, %rdi
	callq	_ZNSt7__cxx114listIdSaIdEE6spliceESt20_List_const_iteratorIdERS2_
	xorl	%ebx, %ebx
	leaq	-64(%rbp), %r15
	leaq	-56(%rbp), %r14
	movq	-48(%rbp), %r12         # 8-byte Reload
	cmpq	$1536, %rbx             # imm = 0x600
	je	.LBB29_23
.LBB29_12:                              # =>This Inner Loop Header: Depth=1
	movq	%r12, %rdi
	callq	_ZNSt7__cxx114listIdSaIdEE3endEv
	movq	%rax, -56(%rbp)
	movq	%r15, %rdi
	movq	%r14, %rsi
	callq	_ZNSt20_List_const_iteratorIdEC2ERKSt14_List_iteratorIdE
	leaq	(%rbx,%rbp), %rdx
	addq	$-1680, %rdx            # imm = 0xF970
	movq	-64(%rbp), %rsi
	movq	%r12, %rdi
	callq	_ZNSt7__cxx114listIdSaIdEE6spliceESt20_List_const_iteratorIdERS2_
	addq	$24, %rbx
	cmpq	$1536, %rbx             # imm = 0x600
	jne	.LBB29_12
.LBB29_23:
.Ltmp50:
	callq	__cxa_rethrow
.Ltmp51:
# %bb.24:
.LBB29_18:
.Ltmp52:
	movq	%rax, %rbx
.Ltmp53:
	callq	__cxa_end_catch
.Ltmp54:
# %bb.19:                               # %.preheader
	leaq	-168(%rbp), %rdi
	callq	_ZNSt7__cxx114listIdSaIdEED2Ev
	leaq	-192(%rbp), %rdi
	callq	_ZNSt7__cxx114listIdSaIdEED2Ev
	leaq	-216(%rbp), %rdi
	callq	_ZNSt7__cxx114listIdSaIdEED2Ev
	leaq	-240(%rbp), %rdi
	callq	_ZNSt7__cxx114listIdSaIdEED2Ev
	leaq	-264(%rbp), %rdi
	callq	_ZNSt7__cxx114listIdSaIdEED2Ev
	leaq	-288(%rbp), %rdi
	callq	_ZNSt7__cxx114listIdSaIdEED2Ev
	leaq	-312(%rbp), %rdi
	callq	_ZNSt7__cxx114listIdSaIdEED2Ev
	leaq	-336(%rbp), %rdi
	callq	_ZNSt7__cxx114listIdSaIdEED2Ev
	leaq	-360(%rbp), %rdi
	callq	_ZNSt7__cxx114listIdSaIdEED2Ev
	leaq	-384(%rbp), %rdi
	callq	_ZNSt7__cxx114listIdSaIdEED2Ev
	leaq	-408(%rbp), %rdi
	callq	_ZNSt7__cxx114listIdSaIdEED2Ev
	leaq	-432(%rbp), %rdi
	callq	_ZNSt7__cxx114listIdSaIdEED2Ev
	leaq	-456(%rbp), %rdi
	callq	_ZNSt7__cxx114listIdSaIdEED2Ev
	leaq	-480(%rbp), %rdi
	callq	_ZNSt7__cxx114listIdSaIdEED2Ev
	leaq	-504(%rbp), %rdi
	callq	_ZNSt7__cxx114listIdSaIdEED2Ev
	leaq	-528(%rbp), %rdi
	callq	_ZNSt7__cxx114listIdSaIdEED2Ev
	leaq	-552(%rbp), %rdi
	callq	_ZNSt7__cxx114listIdSaIdEED2Ev
	leaq	-576(%rbp), %rdi
	callq	_ZNSt7__cxx114listIdSaIdEED2Ev
	leaq	-600(%rbp), %rdi
	callq	_ZNSt7__cxx114listIdSaIdEED2Ev
	leaq	-624(%rbp), %rdi
	callq	_ZNSt7__cxx114listIdSaIdEED2Ev
	leaq	-648(%rbp), %rdi
	callq	_ZNSt7__cxx114listIdSaIdEED2Ev
	leaq	-672(%rbp), %rdi
	callq	_ZNSt7__cxx114listIdSaIdEED2Ev
	leaq	-696(%rbp), %rdi
	callq	_ZNSt7__cxx114listIdSaIdEED2Ev
	leaq	-720(%rbp), %rdi
	callq	_ZNSt7__cxx114listIdSaIdEED2Ev
	leaq	-744(%rbp), %rdi
	callq	_ZNSt7__cxx114listIdSaIdEED2Ev
	leaq	-768(%rbp), %rdi
	callq	_ZNSt7__cxx114listIdSaIdEED2Ev
	leaq	-792(%rbp), %rdi
	callq	_ZNSt7__cxx114listIdSaIdEED2Ev
	leaq	-816(%rbp), %rdi
	callq	_ZNSt7__cxx114listIdSaIdEED2Ev
	leaq	-840(%rbp), %rdi
	callq	_ZNSt7__cxx114listIdSaIdEED2Ev
	leaq	-864(%rbp), %rdi
	callq	_ZNSt7__cxx114listIdSaIdEED2Ev
	leaq	-888(%rbp), %rdi
	callq	_ZNSt7__cxx114listIdSaIdEED2Ev
	leaq	-912(%rbp), %rdi
	callq	_ZNSt7__cxx114listIdSaIdEED2Ev
	leaq	-936(%rbp), %rdi
	callq	_ZNSt7__cxx114listIdSaIdEED2Ev
	leaq	-960(%rbp), %rdi
	callq	_ZNSt7__cxx114listIdSaIdEED2Ev
	leaq	-984(%rbp), %rdi
	callq	_ZNSt7__cxx114listIdSaIdEED2Ev
	leaq	-1008(%rbp), %rdi
	callq	_ZNSt7__cxx114listIdSaIdEED2Ev
	leaq	-1032(%rbp), %rdi
	callq	_ZNSt7__cxx114listIdSaIdEED2Ev
	leaq	-1056(%rbp), %rdi
	callq	_ZNSt7__cxx114listIdSaIdEED2Ev
	leaq	-1080(%rbp), %rdi
	callq	_ZNSt7__cxx114listIdSaIdEED2Ev
	leaq	-1104(%rbp), %rdi
	callq	_ZNSt7__cxx114listIdSaIdEED2Ev
	leaq	-1128(%rbp), %rdi
	callq	_ZNSt7__cxx114listIdSaIdEED2Ev
	leaq	-1152(%rbp), %rdi
	callq	_ZNSt7__cxx114listIdSaIdEED2Ev
	leaq	-1176(%rbp), %rdi
	callq	_ZNSt7__cxx114listIdSaIdEED2Ev
	leaq	-1200(%rbp), %rdi
	callq	_ZNSt7__cxx114listIdSaIdEED2Ev
	leaq	-1224(%rbp), %rdi
	callq	_ZNSt7__cxx114listIdSaIdEED2Ev
	leaq	-1248(%rbp), %rdi
	callq	_ZNSt7__cxx114listIdSaIdEED2Ev
	leaq	-1272(%rbp), %rdi
	callq	_ZNSt7__cxx114listIdSaIdEED2Ev
	leaq	-1296(%rbp), %rdi
	callq	_ZNSt7__cxx114listIdSaIdEED2Ev
	leaq	-1320(%rbp), %rdi
	callq	_ZNSt7__cxx114listIdSaIdEED2Ev
	leaq	-1344(%rbp), %rdi
	callq	_ZNSt7__cxx114listIdSaIdEED2Ev
	leaq	-1368(%rbp), %rdi
	callq	_ZNSt7__cxx114listIdSaIdEED2Ev
	leaq	-1392(%rbp), %rdi
	callq	_ZNSt7__cxx114listIdSaIdEED2Ev
	leaq	-1416(%rbp), %rdi
	callq	_ZNSt7__cxx114listIdSaIdEED2Ev
	leaq	-1440(%rbp), %rdi
	callq	_ZNSt7__cxx114listIdSaIdEED2Ev
	leaq	-1464(%rbp), %rdi
	callq	_ZNSt7__cxx114listIdSaIdEED2Ev
	leaq	-1488(%rbp), %rdi
	callq	_ZNSt7__cxx114listIdSaIdEED2Ev
	leaq	-1512(%rbp), %rdi
	callq	_ZNSt7__cxx114listIdSaIdEED2Ev
	leaq	-1536(%rbp), %rdi
	callq	_ZNSt7__cxx114listIdSaIdEED2Ev
	leaq	-1560(%rbp), %rdi
	callq	_ZNSt7__cxx114listIdSaIdEED2Ev
	leaq	-1584(%rbp), %rdi
	callq	_ZNSt7__cxx114listIdSaIdEED2Ev
	leaq	-1608(%rbp), %rdi
	callq	_ZNSt7__cxx114listIdSaIdEED2Ev
	leaq	-1632(%rbp), %rdi
	callq	_ZNSt7__cxx114listIdSaIdEED2Ev
	leaq	-1656(%rbp), %rdi
	callq	_ZNSt7__cxx114listIdSaIdEED2Ev
	leaq	-1680(%rbp), %rdi
	callq	_ZNSt7__cxx114listIdSaIdEED2Ev
	leaq	-136(%rbp), %rdi
	callq	_ZNSt7__cxx114listIdSaIdEED2Ev
	movq	%rbx, %rdi
	callq	_Unwind_Resume
.LBB29_22:
.Ltmp55:
	movq	%rax, %rdi
	callq	__clang_call_terminate
.Lfunc_end29:
	.size	_ZNSt7__cxx114listIdSaIdEE4sortEv, .Lfunc_end29-_ZNSt7__cxx114listIdSaIdEE4sortEv
	.cfi_endproc
	.section	.gcc_except_table,"a",@progbits
	.p2align	2
GCC_except_table29:
.Lexception8:
	.byte	255                     # @LPStart Encoding = omit
	.byte	3                       # @TType Encoding = udata4
	.uleb128 .Lttbase1-.Lttbaseref1
.Lttbaseref1:
	.byte	1                       # Call site Encoding = uleb128
	.uleb128 .Lcst_end8-.Lcst_begin8
.Lcst_begin8:
	.uleb128 .Ltmp44-.Lfunc_begin8  # >> Call Site 1 <<
	.uleb128 .Ltmp45-.Ltmp44        #   Call between .Ltmp44 and .Ltmp45
	.uleb128 .Ltmp46-.Lfunc_begin8  #     jumps to .Ltmp46
	.byte	1                       #   On action: 1
	.uleb128 .Ltmp47-.Lfunc_begin8  # >> Call Site 2 <<
	.uleb128 .Ltmp48-.Ltmp47        #   Call between .Ltmp47 and .Ltmp48
	.uleb128 .Ltmp49-.Lfunc_begin8  #     jumps to .Ltmp49
	.byte	1                       #   On action: 1
	.uleb128 .Ltmp48-.Lfunc_begin8  # >> Call Site 3 <<
	.uleb128 .Ltmp50-.Ltmp48        #   Call between .Ltmp48 and .Ltmp50
	.byte	0                       #     has no landing pad
	.byte	0                       #   On action: cleanup
	.uleb128 .Ltmp50-.Lfunc_begin8  # >> Call Site 4 <<
	.uleb128 .Ltmp51-.Ltmp50        #   Call between .Ltmp50 and .Ltmp51
	.uleb128 .Ltmp52-.Lfunc_begin8  #     jumps to .Ltmp52
	.byte	0                       #   On action: cleanup
	.uleb128 .Ltmp53-.Lfunc_begin8  # >> Call Site 5 <<
	.uleb128 .Ltmp54-.Ltmp53        #   Call between .Ltmp53 and .Ltmp54
	.uleb128 .Ltmp55-.Lfunc_begin8  #     jumps to .Ltmp55
	.byte	1                       #   On action: 1
	.uleb128 .Ltmp54-.Lfunc_begin8  # >> Call Site 6 <<
	.uleb128 .Lfunc_end29-.Ltmp54   #   Call between .Ltmp54 and .Lfunc_end29
	.byte	0                       #     has no landing pad
	.byte	0                       #   On action: cleanup
.Lcst_end8:
	.byte	1                       # >> Action Record 1 <<
                                        #   Catch TypeInfo 1
	.byte	0                       #   No further actions
	.p2align	2
                                        # >> Catch TypeInfos <<
	.long	0                       # TypeInfo 1
.Lttbase1:
	.p2align	2
                                        # -- End function
	.section	.text._ZNSt7__cxx114listIdSaIdEE6uniqueEv,"axG",@progbits,_ZNSt7__cxx114listIdSaIdEE6uniqueEv,comdat
	.weak	_ZNSt7__cxx114listIdSaIdEE6uniqueEv # -- Begin function _ZNSt7__cxx114listIdSaIdEE6uniqueEv
	.p2align	4, 0x90
	.type	_ZNSt7__cxx114listIdSaIdEE6uniqueEv,@function
_ZNSt7__cxx114listIdSaIdEE6uniqueEv:    # @_ZNSt7__cxx114listIdSaIdEE6uniqueEv
	.cfi_startproc
# %bb.0:
	pushq	%rbp
	.cfi_def_cfa_offset 16
	.cfi_offset %rbp, -16
	movq	%rsp, %rbp
	.cfi_def_cfa_register %rbp
	pushq	%r15
	pushq	%r14
	pushq	%r12
	pushq	%rbx
	subq	$32, %rsp
	.cfi_offset %rbx, -48
	.cfi_offset %r12, -40
	.cfi_offset %r14, -32
	.cfi_offset %r15, -24
	movq	%rdi, %r14
	callq	_ZNSt7__cxx114listIdSaIdEE5beginEv
	movq	%rax, -40(%rbp)
	movq	%r14, %rdi
	callq	_ZNSt7__cxx114listIdSaIdEE3endEv
	movq	%rax, -56(%rbp)
	leaq	-40(%rbp), %rdi
	leaq	-56(%rbp), %rsi
	callq	_ZSteqRKSt14_List_iteratorIdES2_
	testb	%al, %al
	je	.LBB30_1
.LBB30_6:                               # %.loopexit
	addq	$32, %rsp
	popq	%rbx
	popq	%r12
	popq	%r14
	popq	%r15
	popq	%rbp
	.cfi_def_cfa %rsp, 8
	retq
.LBB30_1:
	.cfi_def_cfa %rbp, 16
	leaq	-48(%rbp), %rbx
	leaq	-56(%rbp), %r15
	leaq	-40(%rbp), %r12
	jmp	.LBB30_2
	.p2align	4, 0x90
.LBB30_5:                               #   in Loop: Header=BB30_2 Depth=1
	movq	-48(%rbp), %rax
	movq	%rax, -40(%rbp)
.LBB30_2:                               # =>This Inner Loop Header: Depth=1
	movq	-40(%rbp), %rax
	movq	%rax, -48(%rbp)
	movq	%rbx, %rdi
	callq	_ZNSt14_List_iteratorIdEppEv
	movq	%rax, %rdi
	movq	%r15, %rsi
	callq	_ZStneRKSt14_List_iteratorIdES2_
	testb	%al, %al
	je	.LBB30_6
# %bb.3:                                #   in Loop: Header=BB30_2 Depth=1
	movq	%r12, %rdi
	callq	_ZNKSt14_List_iteratorIdEdeEv
	movsd	(%rax), %xmm0           # xmm0 = mem[0],zero
	movsd	%xmm0, -64(%rbp)        # 8-byte Spill
	movq	%rbx, %rdi
	callq	_ZNKSt14_List_iteratorIdEdeEv
	movsd	-64(%rbp), %xmm0        # 8-byte Reload
                                        # xmm0 = mem[0],zero
	ucomisd	(%rax), %xmm0
	jne	.LBB30_5
	jp	.LBB30_5
# %bb.4:                                #   in Loop: Header=BB30_2 Depth=1
	movq	-48(%rbp), %rsi
	movq	%r14, %rdi
	callq	_ZNSt7__cxx114listIdSaIdEE8_M_eraseESt14_List_iteratorIdE
	jmp	.LBB30_2
.Lfunc_end30:
	.size	_ZNSt7__cxx114listIdSaIdEE6uniqueEv, .Lfunc_end30-_ZNSt7__cxx114listIdSaIdEE6uniqueEv
	.cfi_endproc
                                        # -- End function
	.section	.text._ZNSt7__cxx114listIdSaIdEED2Ev,"axG",@progbits,_ZNSt7__cxx114listIdSaIdEED2Ev,comdat
	.weak	_ZNSt7__cxx114listIdSaIdEED2Ev # -- Begin function _ZNSt7__cxx114listIdSaIdEED2Ev
	.p2align	4, 0x90
	.type	_ZNSt7__cxx114listIdSaIdEED2Ev,@function
_ZNSt7__cxx114listIdSaIdEED2Ev:         # @_ZNSt7__cxx114listIdSaIdEED2Ev
	.cfi_startproc
# %bb.0:
	pushq	%rbp
	.cfi_def_cfa_offset 16
	.cfi_offset %rbp, -16
	movq	%rsp, %rbp
	.cfi_def_cfa_register %rbp
	popq	%rbp
	.cfi_def_cfa %rsp, 8
	jmp	_ZNSt7__cxx1110_List_baseIdSaIdEED2Ev # TAILCALL
.Lfunc_end31:
	.size	_ZNSt7__cxx114listIdSaIdEED2Ev, .Lfunc_end31-_ZNSt7__cxx114listIdSaIdEED2Ev
	.cfi_endproc
                                        # -- End function
	.text
	.globl	_Z8set_testPdS_i        # -- Begin function _Z8set_testPdS_i
	.p2align	4, 0x90
	.type	_Z8set_testPdS_i,@function
_Z8set_testPdS_i:                       # @_Z8set_testPdS_i
	.cfi_startproc
# %bb.0:
	pushq	%rbp
	.cfi_def_cfa_offset 16
	.cfi_offset %rbp, -16
	movq	%rsp, %rbp
	.cfi_def_cfa_register %rbp
	pushq	%rbx
	subq	$56, %rsp
	.cfi_offset %rbx, -24
	movq	%rsi, %rdx
	movq	%rdi, %rsi
	leaq	-56(%rbp), %rbx
	movq	%rbx, %rdi
	callq	_ZNSt3setIdSt4lessIdESaIdEEC2IPdEET_S6_
	movq	%rbx, %rdi
	callq	_ZNSt3setIdSt4lessIdESaIdEED2Ev
	addq	$56, %rsp
	popq	%rbx
	popq	%rbp
	.cfi_def_cfa %rsp, 8
	retq
.Lfunc_end32:
	.size	_Z8set_testPdS_i, .Lfunc_end32-_Z8set_testPdS_i
	.cfi_endproc
                                        # -- End function
	.section	.text._ZNSt3setIdSt4lessIdESaIdEEC2IPdEET_S6_,"axG",@progbits,_ZNSt3setIdSt4lessIdESaIdEEC2IPdEET_S6_,comdat
	.weak	_ZNSt3setIdSt4lessIdESaIdEEC2IPdEET_S6_ # -- Begin function _ZNSt3setIdSt4lessIdESaIdEEC2IPdEET_S6_
	.p2align	4, 0x90
	.type	_ZNSt3setIdSt4lessIdESaIdEEC2IPdEET_S6_,@function
_ZNSt3setIdSt4lessIdESaIdEEC2IPdEET_S6_: # @_ZNSt3setIdSt4lessIdESaIdEEC2IPdEET_S6_
.Lfunc_begin9:
	.cfi_startproc
	.cfi_personality 3, __gxx_personality_v0
	.cfi_lsda 3, .Lexception9
# %bb.0:
	pushq	%rbp
	.cfi_def_cfa_offset 16
	.cfi_offset %rbp, -16
	movq	%rsp, %rbp
	.cfi_def_cfa_register %rbp
	pushq	%r15
	pushq	%r14
	pushq	%rbx
	pushq	%rax
	.cfi_offset %rbx, -40
	.cfi_offset %r14, -32
	.cfi_offset %r15, -24
	movq	%rdx, %r14
	movq	%rsi, %r15
	movq	%rdi, %rbx
	xorps	%xmm0, %xmm0
	movups	%xmm0, 32(%rdi)
	movups	%xmm0, 16(%rdi)
	movups	%xmm0, (%rdi)
	callq	_ZNSt8_Rb_treeIddSt9_IdentityIdESt4lessIdESaIdEEC2Ev
.Ltmp56:
	movq	%rbx, %rdi
	movq	%r15, %rsi
	movq	%r14, %rdx
	callq	_ZNSt8_Rb_treeIddSt9_IdentityIdESt4lessIdESaIdEE22_M_insert_range_uniqueIPdEENSt9enable_ifIXsr17__same_value_typeIT_EE5valueEvE4typeES9_S9_
.Ltmp57:
# %bb.1:
	addq	$8, %rsp
	popq	%rbx
	popq	%r14
	popq	%r15
	popq	%rbp
	.cfi_def_cfa %rsp, 8
	retq
.LBB33_2:
	.cfi_def_cfa %rbp, 16
.Ltmp58:
	movq	%rax, %r14
	movq	%rbx, %rdi
	callq	_ZNSt8_Rb_treeIddSt9_IdentityIdESt4lessIdESaIdEED2Ev
	movq	%r14, %rdi
	callq	_Unwind_Resume
.Lfunc_end33:
	.size	_ZNSt3setIdSt4lessIdESaIdEEC2IPdEET_S6_, .Lfunc_end33-_ZNSt3setIdSt4lessIdESaIdEEC2IPdEET_S6_
	.cfi_endproc
	.section	.gcc_except_table,"a",@progbits
	.p2align	2
GCC_except_table33:
.Lexception9:
	.byte	255                     # @LPStart Encoding = omit
	.byte	255                     # @TType Encoding = omit
	.byte	1                       # Call site Encoding = uleb128
	.uleb128 .Lcst_end9-.Lcst_begin9
.Lcst_begin9:
	.uleb128 .Ltmp56-.Lfunc_begin9  # >> Call Site 1 <<
	.uleb128 .Ltmp57-.Ltmp56        #   Call between .Ltmp56 and .Ltmp57
	.uleb128 .Ltmp58-.Lfunc_begin9  #     jumps to .Ltmp58
	.byte	0                       #   On action: cleanup
	.uleb128 .Ltmp57-.Lfunc_begin9  # >> Call Site 2 <<
	.uleb128 .Lfunc_end33-.Ltmp57   #   Call between .Ltmp57 and .Lfunc_end33
	.byte	0                       #     has no landing pad
	.byte	0                       #   On action: cleanup
.Lcst_end9:
	.p2align	2
                                        # -- End function
	.section	.text._ZNSt3setIdSt4lessIdESaIdEED2Ev,"axG",@progbits,_ZNSt3setIdSt4lessIdESaIdEED2Ev,comdat
	.weak	_ZNSt3setIdSt4lessIdESaIdEED2Ev # -- Begin function _ZNSt3setIdSt4lessIdESaIdEED2Ev
	.p2align	4, 0x90
	.type	_ZNSt3setIdSt4lessIdESaIdEED2Ev,@function
_ZNSt3setIdSt4lessIdESaIdEED2Ev:        # @_ZNSt3setIdSt4lessIdESaIdEED2Ev
	.cfi_startproc
# %bb.0:
	pushq	%rbp
	.cfi_def_cfa_offset 16
	.cfi_offset %rbp, -16
	movq	%rsp, %rbp
	.cfi_def_cfa_register %rbp
	popq	%rbp
	.cfi_def_cfa %rsp, 8
	jmp	_ZNSt8_Rb_treeIddSt9_IdentityIdESt4lessIdESaIdEED2Ev # TAILCALL
.Lfunc_end34:
	.size	_ZNSt3setIdSt4lessIdESaIdEED2Ev, .Lfunc_end34-_ZNSt3setIdSt4lessIdESaIdEED2Ev
	.cfi_endproc
                                        # -- End function
	.text
	.globl	_Z13multiset_testPdS_i  # -- Begin function _Z13multiset_testPdS_i
	.p2align	4, 0x90
	.type	_Z13multiset_testPdS_i,@function
_Z13multiset_testPdS_i:                 # @_Z13multiset_testPdS_i
.Lfunc_begin10:
	.cfi_startproc
	.cfi_personality 3, __gxx_personality_v0
	.cfi_lsda 3, .Lexception10
# %bb.0:
	pushq	%rbp
	.cfi_def_cfa_offset 16
	.cfi_offset %rbp, -16
	movq	%rsp, %rbp
	.cfi_def_cfa_register %rbp
	pushq	%r15
	pushq	%r14
	pushq	%r12
	pushq	%rbx
	subq	$80, %rsp
	.cfi_offset %rbx, -48
	.cfi_offset %r12, -40
	.cfi_offset %r14, -32
	.cfi_offset %r15, -24
	movq	%rsi, %rdx
	movq	%rdi, %rsi
	leaq	-112(%rbp), %r14
	movq	%r14, %rdi
	callq	_ZNSt8multisetIdSt4lessIdESaIdEEC2IPdEET_S6_
	movq	%r14, %rdi
	callq	_ZNKSt8multisetIdSt4lessIdESaIdEE5beginEv
	movq	%rax, -48(%rbp)
	movq	%r14, %rdi
	callq	_ZNKSt8multisetIdSt4lessIdESaIdEE3endEv
	movq	%rax, -64(%rbp)
	leaq	-48(%rbp), %rbx
	leaq	-64(%rbp), %r15
	leaq	-40(%rbp), %r12
	jmp	.LBB35_1
	.p2align	4, 0x90
.LBB35_6:                               #   in Loop: Header=BB35_1 Depth=1
	movq	%rbx, %rdi
	callq	_ZNSt23_Rb_tree_const_iteratorIdEppEv
.LBB35_1:                               # =>This Inner Loop Header: Depth=1
	movq	%rbx, %rdi
	movq	%r15, %rsi
	callq	_ZStneRKSt23_Rb_tree_const_iteratorIdES2_
	testb	%al, %al
	je	.LBB35_7
# %bb.2:                                #   in Loop: Header=BB35_1 Depth=1
	movq	-48(%rbp), %rax
	movq	%rax, -40(%rbp)
	movq	%r12, %rdi
	callq	_ZNSt23_Rb_tree_const_iteratorIdEppEv
	movq	%rax, %rdi
	movq	%r15, %rsi
	callq	_ZSteqRKSt23_Rb_tree_const_iteratorIdES2_
	testb	%al, %al
	jne	.LBB35_7
# %bb.3:                                #   in Loop: Header=BB35_1 Depth=1
	movq	%rbx, %rdi
	callq	_ZNKSt23_Rb_tree_const_iteratorIdEdeEv
	movsd	(%rax), %xmm0           # xmm0 = mem[0],zero
	movsd	%xmm0, -56(%rbp)        # 8-byte Spill
	movq	%r12, %rdi
	callq	_ZNKSt23_Rb_tree_const_iteratorIdEdeEv
	movsd	-56(%rbp), %xmm0        # 8-byte Reload
                                        # xmm0 = mem[0],zero
	ucomisd	(%rax), %xmm0
	jne	.LBB35_6
	jp	.LBB35_6
# %bb.4:                                #   in Loop: Header=BB35_1 Depth=1
	movq	-40(%rbp), %rsi
.Ltmp59:
	movq	%r14, %rdi
	callq	_ZNSt8multisetIdSt4lessIdESaIdEE5eraseB5cxx11ESt23_Rb_tree_const_iteratorIdE
.Ltmp60:
	jmp	.LBB35_1
.LBB35_7:
	leaq	-112(%rbp), %rdi
	callq	_ZNSt8multisetIdSt4lessIdESaIdEED2Ev
	addq	$80, %rsp
	popq	%rbx
	popq	%r12
	popq	%r14
	popq	%r15
	popq	%rbp
	.cfi_def_cfa %rsp, 8
	retq
.LBB35_5:
	.cfi_def_cfa %rbp, 16
.Ltmp61:
	movq	%rax, %rbx
	leaq	-112(%rbp), %rdi
	callq	_ZNSt8multisetIdSt4lessIdESaIdEED2Ev
	movq	%rbx, %rdi
	callq	_Unwind_Resume
.Lfunc_end35:
	.size	_Z13multiset_testPdS_i, .Lfunc_end35-_Z13multiset_testPdS_i
	.cfi_endproc
	.section	.gcc_except_table,"a",@progbits
	.p2align	2
GCC_except_table35:
.Lexception10:
	.byte	255                     # @LPStart Encoding = omit
	.byte	255                     # @TType Encoding = omit
	.byte	1                       # Call site Encoding = uleb128
	.uleb128 .Lcst_end10-.Lcst_begin10
.Lcst_begin10:
	.uleb128 .Lfunc_begin10-.Lfunc_begin10 # >> Call Site 1 <<
	.uleb128 .Ltmp59-.Lfunc_begin10 #   Call between .Lfunc_begin10 and .Ltmp59
	.byte	0                       #     has no landing pad
	.byte	0                       #   On action: cleanup
	.uleb128 .Ltmp59-.Lfunc_begin10 # >> Call Site 2 <<
	.uleb128 .Ltmp60-.Ltmp59        #   Call between .Ltmp59 and .Ltmp60
	.uleb128 .Ltmp61-.Lfunc_begin10 #     jumps to .Ltmp61
	.byte	0                       #   On action: cleanup
	.uleb128 .Ltmp60-.Lfunc_begin10 # >> Call Site 3 <<
	.uleb128 .Lfunc_end35-.Ltmp60   #   Call between .Ltmp60 and .Lfunc_end35
	.byte	0                       #     has no landing pad
	.byte	0                       #   On action: cleanup
.Lcst_end10:
	.p2align	2
                                        # -- End function
	.section	.text._ZNSt8multisetIdSt4lessIdESaIdEEC2IPdEET_S6_,"axG",@progbits,_ZNSt8multisetIdSt4lessIdESaIdEEC2IPdEET_S6_,comdat
	.weak	_ZNSt8multisetIdSt4lessIdESaIdEEC2IPdEET_S6_ # -- Begin function _ZNSt8multisetIdSt4lessIdESaIdEEC2IPdEET_S6_
	.p2align	4, 0x90
	.type	_ZNSt8multisetIdSt4lessIdESaIdEEC2IPdEET_S6_,@function
_ZNSt8multisetIdSt4lessIdESaIdEEC2IPdEET_S6_: # @_ZNSt8multisetIdSt4lessIdESaIdEEC2IPdEET_S6_
.Lfunc_begin11:
	.cfi_startproc
	.cfi_personality 3, __gxx_personality_v0
	.cfi_lsda 3, .Lexception11
# %bb.0:
	pushq	%rbp
	.cfi_def_cfa_offset 16
	.cfi_offset %rbp, -16
	movq	%rsp, %rbp
	.cfi_def_cfa_register %rbp
	pushq	%r15
	pushq	%r14
	pushq	%rbx
	pushq	%rax
	.cfi_offset %rbx, -40
	.cfi_offset %r14, -32
	.cfi_offset %r15, -24
	movq	%rdx, %r14
	movq	%rsi, %r15
	movq	%rdi, %rbx
	xorps	%xmm0, %xmm0
	movups	%xmm0, 32(%rdi)
	movups	%xmm0, 16(%rdi)
	movups	%xmm0, (%rdi)
	callq	_ZNSt8_Rb_treeIddSt9_IdentityIdESt4lessIdESaIdEEC2Ev
.Ltmp62:
	movq	%rbx, %rdi
	movq	%r15, %rsi
	movq	%r14, %rdx
	callq	_ZNSt8_Rb_treeIddSt9_IdentityIdESt4lessIdESaIdEE21_M_insert_range_equalIPdEENSt9enable_ifIXsr17__same_value_typeIT_EE5valueEvE4typeES9_S9_
.Ltmp63:
# %bb.1:
	addq	$8, %rsp
	popq	%rbx
	popq	%r14
	popq	%r15
	popq	%rbp
	.cfi_def_cfa %rsp, 8
	retq
.LBB36_2:
	.cfi_def_cfa %rbp, 16
.Ltmp64:
	movq	%rax, %r14
	movq	%rbx, %rdi
	callq	_ZNSt8_Rb_treeIddSt9_IdentityIdESt4lessIdESaIdEED2Ev
	movq	%r14, %rdi
	callq	_Unwind_Resume
.Lfunc_end36:
	.size	_ZNSt8multisetIdSt4lessIdESaIdEEC2IPdEET_S6_, .Lfunc_end36-_ZNSt8multisetIdSt4lessIdESaIdEEC2IPdEET_S6_
	.cfi_endproc
	.section	.gcc_except_table,"a",@progbits
	.p2align	2
GCC_except_table36:
.Lexception11:
	.byte	255                     # @LPStart Encoding = omit
	.byte	255                     # @TType Encoding = omit
	.byte	1                       # Call site Encoding = uleb128
	.uleb128 .Lcst_end11-.Lcst_begin11
.Lcst_begin11:
	.uleb128 .Ltmp62-.Lfunc_begin11 # >> Call Site 1 <<
	.uleb128 .Ltmp63-.Ltmp62        #   Call between .Ltmp62 and .Ltmp63
	.uleb128 .Ltmp64-.Lfunc_begin11 #     jumps to .Ltmp64
	.byte	0                       #   On action: cleanup
	.uleb128 .Ltmp63-.Lfunc_begin11 # >> Call Site 2 <<
	.uleb128 .Lfunc_end36-.Ltmp63   #   Call between .Ltmp63 and .Lfunc_end36
	.byte	0                       #     has no landing pad
	.byte	0                       #   On action: cleanup
.Lcst_end11:
	.p2align	2
                                        # -- End function
	.section	.text._ZNKSt8multisetIdSt4lessIdESaIdEE5beginEv,"axG",@progbits,_ZNKSt8multisetIdSt4lessIdESaIdEE5beginEv,comdat
	.weak	_ZNKSt8multisetIdSt4lessIdESaIdEE5beginEv # -- Begin function _ZNKSt8multisetIdSt4lessIdESaIdEE5beginEv
	.p2align	4, 0x90
	.type	_ZNKSt8multisetIdSt4lessIdESaIdEE5beginEv,@function
_ZNKSt8multisetIdSt4lessIdESaIdEE5beginEv: # @_ZNKSt8multisetIdSt4lessIdESaIdEE5beginEv
	.cfi_startproc
# %bb.0:
	pushq	%rbp
	.cfi_def_cfa_offset 16
	.cfi_offset %rbp, -16
	movq	%rsp, %rbp
	.cfi_def_cfa_register %rbp
	popq	%rbp
	.cfi_def_cfa %rsp, 8
	jmp	_ZNKSt8_Rb_treeIddSt9_IdentityIdESt4lessIdESaIdEE5beginEv # TAILCALL
.Lfunc_end37:
	.size	_ZNKSt8multisetIdSt4lessIdESaIdEE5beginEv, .Lfunc_end37-_ZNKSt8multisetIdSt4lessIdESaIdEE5beginEv
	.cfi_endproc
                                        # -- End function
	.section	.text._ZNKSt8multisetIdSt4lessIdESaIdEE3endEv,"axG",@progbits,_ZNKSt8multisetIdSt4lessIdESaIdEE3endEv,comdat
	.weak	_ZNKSt8multisetIdSt4lessIdESaIdEE3endEv # -- Begin function _ZNKSt8multisetIdSt4lessIdESaIdEE3endEv
	.p2align	4, 0x90
	.type	_ZNKSt8multisetIdSt4lessIdESaIdEE3endEv,@function
_ZNKSt8multisetIdSt4lessIdESaIdEE3endEv: # @_ZNKSt8multisetIdSt4lessIdESaIdEE3endEv
	.cfi_startproc
# %bb.0:
	pushq	%rbp
	.cfi_def_cfa_offset 16
	.cfi_offset %rbp, -16
	movq	%rsp, %rbp
	.cfi_def_cfa_register %rbp
	popq	%rbp
	.cfi_def_cfa %rsp, 8
	jmp	_ZNKSt8_Rb_treeIddSt9_IdentityIdESt4lessIdESaIdEE3endEv # TAILCALL
.Lfunc_end38:
	.size	_ZNKSt8multisetIdSt4lessIdESaIdEE3endEv, .Lfunc_end38-_ZNKSt8multisetIdSt4lessIdESaIdEE3endEv
	.cfi_endproc
                                        # -- End function
	.section	.text._ZStneRKSt23_Rb_tree_const_iteratorIdES2_,"axG",@progbits,_ZStneRKSt23_Rb_tree_const_iteratorIdES2_,comdat
	.weak	_ZStneRKSt23_Rb_tree_const_iteratorIdES2_ # -- Begin function _ZStneRKSt23_Rb_tree_const_iteratorIdES2_
	.p2align	4, 0x90
	.type	_ZStneRKSt23_Rb_tree_const_iteratorIdES2_,@function
_ZStneRKSt23_Rb_tree_const_iteratorIdES2_: # @_ZStneRKSt23_Rb_tree_const_iteratorIdES2_
	.cfi_startproc
# %bb.0:
	pushq	%rbp
	.cfi_def_cfa_offset 16
	.cfi_offset %rbp, -16
	movq	%rsp, %rbp
	.cfi_def_cfa_register %rbp
	movq	(%rdi), %rax
	cmpq	(%rsi), %rax
	setne	%al
	popq	%rbp
	.cfi_def_cfa %rsp, 8
	retq
.Lfunc_end39:
	.size	_ZStneRKSt23_Rb_tree_const_iteratorIdES2_, .Lfunc_end39-_ZStneRKSt23_Rb_tree_const_iteratorIdES2_
	.cfi_endproc
                                        # -- End function
	.section	.text._ZSteqRKSt23_Rb_tree_const_iteratorIdES2_,"axG",@progbits,_ZSteqRKSt23_Rb_tree_const_iteratorIdES2_,comdat
	.weak	_ZSteqRKSt23_Rb_tree_const_iteratorIdES2_ # -- Begin function _ZSteqRKSt23_Rb_tree_const_iteratorIdES2_
	.p2align	4, 0x90
	.type	_ZSteqRKSt23_Rb_tree_const_iteratorIdES2_,@function
_ZSteqRKSt23_Rb_tree_const_iteratorIdES2_: # @_ZSteqRKSt23_Rb_tree_const_iteratorIdES2_
	.cfi_startproc
# %bb.0:
	pushq	%rbp
	.cfi_def_cfa_offset 16
	.cfi_offset %rbp, -16
	movq	%rsp, %rbp
	.cfi_def_cfa_register %rbp
	movq	(%rdi), %rax
	cmpq	(%rsi), %rax
	sete	%al
	popq	%rbp
	.cfi_def_cfa %rsp, 8
	retq
.Lfunc_end40:
	.size	_ZSteqRKSt23_Rb_tree_const_iteratorIdES2_, .Lfunc_end40-_ZSteqRKSt23_Rb_tree_const_iteratorIdES2_
	.cfi_endproc
                                        # -- End function
	.section	.text._ZNSt23_Rb_tree_const_iteratorIdEppEv,"axG",@progbits,_ZNSt23_Rb_tree_const_iteratorIdEppEv,comdat
	.weak	_ZNSt23_Rb_tree_const_iteratorIdEppEv # -- Begin function _ZNSt23_Rb_tree_const_iteratorIdEppEv
	.p2align	4, 0x90
	.type	_ZNSt23_Rb_tree_const_iteratorIdEppEv,@function
_ZNSt23_Rb_tree_const_iteratorIdEppEv:  # @_ZNSt23_Rb_tree_const_iteratorIdEppEv
	.cfi_startproc
# %bb.0:
	pushq	%rbp
	.cfi_def_cfa_offset 16
	.cfi_offset %rbp, -16
	movq	%rsp, %rbp
	.cfi_def_cfa_register %rbp
	pushq	%rbx
	pushq	%rax
	.cfi_offset %rbx, -24
	movq	%rdi, %rbx
	movq	(%rdi), %rdi
	callq	_ZSt18_Rb_tree_incrementPKSt18_Rb_tree_node_base
	movq	%rax, (%rbx)
	movq	%rbx, %rax
	addq	$8, %rsp
	popq	%rbx
	popq	%rbp
	.cfi_def_cfa %rsp, 8
	retq
.Lfunc_end41:
	.size	_ZNSt23_Rb_tree_const_iteratorIdEppEv, .Lfunc_end41-_ZNSt23_Rb_tree_const_iteratorIdEppEv
	.cfi_endproc
                                        # -- End function
	.section	.text._ZNKSt23_Rb_tree_const_iteratorIdEdeEv,"axG",@progbits,_ZNKSt23_Rb_tree_const_iteratorIdEdeEv,comdat
	.weak	_ZNKSt23_Rb_tree_const_iteratorIdEdeEv # -- Begin function _ZNKSt23_Rb_tree_const_iteratorIdEdeEv
	.p2align	4, 0x90
	.type	_ZNKSt23_Rb_tree_const_iteratorIdEdeEv,@function
_ZNKSt23_Rb_tree_const_iteratorIdEdeEv: # @_ZNKSt23_Rb_tree_const_iteratorIdEdeEv
	.cfi_startproc
# %bb.0:
	pushq	%rbp
	.cfi_def_cfa_offset 16
	.cfi_offset %rbp, -16
	movq	%rsp, %rbp
	.cfi_def_cfa_register %rbp
	movq	(%rdi), %rdi
	popq	%rbp
	.cfi_def_cfa %rsp, 8
	jmp	_ZNKSt13_Rb_tree_nodeIdE9_M_valptrEv # TAILCALL
.Lfunc_end42:
	.size	_ZNKSt23_Rb_tree_const_iteratorIdEdeEv, .Lfunc_end42-_ZNKSt23_Rb_tree_const_iteratorIdEdeEv
	.cfi_endproc
                                        # -- End function
	.section	.text._ZNSt8multisetIdSt4lessIdESaIdEE5eraseB5cxx11ESt23_Rb_tree_const_iteratorIdE,"axG",@progbits,_ZNSt8multisetIdSt4lessIdESaIdEE5eraseB5cxx11ESt23_Rb_tree_const_iteratorIdE,comdat
	.weak	_ZNSt8multisetIdSt4lessIdESaIdEE5eraseB5cxx11ESt23_Rb_tree_const_iteratorIdE # -- Begin function _ZNSt8multisetIdSt4lessIdESaIdEE5eraseB5cxx11ESt23_Rb_tree_const_iteratorIdE
	.p2align	4, 0x90
	.type	_ZNSt8multisetIdSt4lessIdESaIdEE5eraseB5cxx11ESt23_Rb_tree_const_iteratorIdE,@function
_ZNSt8multisetIdSt4lessIdESaIdEE5eraseB5cxx11ESt23_Rb_tree_const_iteratorIdE: # @_ZNSt8multisetIdSt4lessIdESaIdEE5eraseB5cxx11ESt23_Rb_tree_const_iteratorIdE
	.cfi_startproc
# %bb.0:
	pushq	%rbp
	.cfi_def_cfa_offset 16
	.cfi_offset %rbp, -16
	movq	%rsp, %rbp
	.cfi_def_cfa_register %rbp
	subq	$16, %rsp
	callq	_ZNSt8_Rb_treeIddSt9_IdentityIdESt4lessIdESaIdEE5eraseB5cxx11ESt23_Rb_tree_const_iteratorIdE
	movq	%rax, -8(%rbp)
	leaq	-16(%rbp), %rdi
	leaq	-8(%rbp), %rsi
	callq	_ZNSt23_Rb_tree_const_iteratorIdEC2ERKSt17_Rb_tree_iteratorIdE
	movq	-16(%rbp), %rax
	addq	$16, %rsp
	popq	%rbp
	.cfi_def_cfa %rsp, 8
	retq
.Lfunc_end43:
	.size	_ZNSt8multisetIdSt4lessIdESaIdEE5eraseB5cxx11ESt23_Rb_tree_const_iteratorIdE, .Lfunc_end43-_ZNSt8multisetIdSt4lessIdESaIdEE5eraseB5cxx11ESt23_Rb_tree_const_iteratorIdE
	.cfi_endproc
                                        # -- End function
	.section	.text._ZNSt8multisetIdSt4lessIdESaIdEED2Ev,"axG",@progbits,_ZNSt8multisetIdSt4lessIdESaIdEED2Ev,comdat
	.weak	_ZNSt8multisetIdSt4lessIdESaIdEED2Ev # -- Begin function _ZNSt8multisetIdSt4lessIdESaIdEED2Ev
	.p2align	4, 0x90
	.type	_ZNSt8multisetIdSt4lessIdESaIdEED2Ev,@function
_ZNSt8multisetIdSt4lessIdESaIdEED2Ev:   # @_ZNSt8multisetIdSt4lessIdESaIdEED2Ev
	.cfi_startproc
# %bb.0:
	pushq	%rbp
	.cfi_def_cfa_offset 16
	.cfi_offset %rbp, -16
	movq	%rsp, %rbp
	.cfi_def_cfa_register %rbp
	popq	%rbp
	.cfi_def_cfa %rsp, 8
	jmp	_ZNSt8_Rb_treeIddSt9_IdentityIdESt4lessIdESaIdEED2Ev # TAILCALL
.Lfunc_end44:
	.size	_ZNSt8multisetIdSt4lessIdESaIdEED2Ev, .Lfunc_end44-_ZNSt8multisetIdSt4lessIdESaIdEED2Ev
	.cfi_endproc
                                        # -- End function
	.section	.rodata.cst8,"aM",@progbits,8
	.p2align	3               # -- Begin function _Z10initializePdS_
.LCPI45_0:
	.quad	4607182418800017408     # double 1
	.text
	.globl	_Z10initializePdS_
	.p2align	4, 0x90
	.type	_Z10initializePdS_,@function
_Z10initializePdS_:                     # @_Z10initializePdS_
	.cfi_startproc
# %bb.0:
	pushq	%rbp
	.cfi_def_cfa_offset 16
	.cfi_offset %rbp, -16
	movq	%rsp, %rbp
	.cfi_def_cfa_register %rbp
	xorpd	%xmm0, %xmm0
	movsd	.LCPI45_0(%rip), %xmm1  # xmm1 = mem[0],zero
	cmpq	%rdi, %rsi
	je	.LBB45_3
	.p2align	4, 0x90
.LBB45_2:                               # =>This Inner Loop Header: Depth=1
	movsd	%xmm0, (%rdi)
	addq	$8, %rdi
	addsd	%xmm1, %xmm0
	cmpq	%rdi, %rsi
	jne	.LBB45_2
.LBB45_3:
	popq	%rbp
	.cfi_def_cfa %rsp, 8
	retq
.Lfunc_end45:
	.size	_Z10initializePdS_, .Lfunc_end45-_Z10initializePdS_
	.cfi_endproc
                                        # -- End function
	.section	.rodata.cst8,"aM",@progbits,8
	.p2align	3               # -- Begin function _Z6logtwod
.LCPI46_0:
	.quad	4604418534313441775     # double 0.69314718055994529
	.text
	.globl	_Z6logtwod
	.p2align	4, 0x90
	.type	_Z6logtwod,@function
_Z6logtwod:                             # @_Z6logtwod
	.cfi_startproc
# %bb.0:
	pushq	%rbp
	.cfi_def_cfa_offset 16
	.cfi_offset %rbp, -16
	movq	%rsp, %rbp
	.cfi_def_cfa_register %rbp
	callq	log
	divsd	.LCPI46_0(%rip), %xmm0
	popq	%rbp
	.cfi_def_cfa %rsp, 8
	retq
.Lfunc_end46:
	.size	_Z6logtwod, .Lfunc_end46-_Z6logtwod
	.cfi_endproc
                                        # -- End function
	.section	.rodata.cst8,"aM",@progbits,8
	.p2align	3               # -- Begin function _Z15number_of_testsi
.LCPI47_0:
	.quad	4696837146684686336     # double 1.0E+6
	.text
	.globl	_Z15number_of_testsi
	.p2align	4, 0x90
	.type	_Z15number_of_testsi,@function
_Z15number_of_testsi:                   # @_Z15number_of_testsi
	.cfi_startproc
# %bb.0:
	pushq	%rbp
	.cfi_def_cfa_offset 16
	.cfi_offset %rbp, -16
	movq	%rsp, %rbp
	.cfi_def_cfa_register %rbp
	subq	$16, %rsp
	cvtsi2sd	%edi, %xmm0
	movsd	%xmm0, -8(%rbp)         # 8-byte Spill
	movsd	.LCPI47_0(%rip), %xmm0  # xmm0 = mem[0],zero
	callq	_Z6logtwod
	mulsd	.LCPI47_0(%rip), %xmm0
	movsd	%xmm0, -16(%rbp)        # 8-byte Spill
	movsd	-8(%rbp), %xmm0         # 8-byte Reload
                                        # xmm0 = mem[0],zero
	callq	_Z6logtwod
	mulsd	-8(%rbp), %xmm0         # 8-byte Folded Reload
	movsd	-16(%rbp), %xmm1        # 8-byte Reload
                                        # xmm1 = mem[0],zero
	divsd	%xmm0, %xmm1
	movapd	%xmm1, %xmm0
	callq	floor
	cvttsd2si	%xmm0, %eax
	addq	$16, %rsp
	popq	%rbp
	.cfi_def_cfa %rsp, 8
	retq
.Lfunc_end47:
	.size	_Z15number_of_testsi, .Lfunc_end47-_Z15number_of_testsi
	.cfi_endproc
                                        # -- End function
	.globl	_Z9run_testsi           # -- Begin function _Z9run_testsi
	.p2align	4, 0x90
	.type	_Z9run_testsi,@function
_Z9run_testsi:                          # @_Z9run_testsi
.Lfunc_begin12:
	.cfi_startproc
	.cfi_personality 3, __gxx_personality_v0
	.cfi_lsda 3, .Lexception12
# %bb.0:
	pushq	%rbp
	.cfi_def_cfa_offset 16
	.cfi_offset %rbp, -16
	movq	%rsp, %rbp
	.cfi_def_cfa_register %rbp
	pushq	%r15
	pushq	%r14
	pushq	%r12
	pushq	%rbx
	subq	$32, %rsp
	.cfi_offset %rbx, -48
	.cfi_offset %r12, -40
	.cfi_offset %r14, -32
	.cfi_offset %r15, -24
	movl	%edi, %r12d
	callq	_Z15number_of_testsi
	movl	%eax, %r14d
	leal	(%r12,%r12), %eax
	movslq	%eax, %r15
	movl	$result_times, %edi
	callq	_ZNSt6vectorIdSaIdEE5clearEv
	leaq	-40(%rbp), %rbx
	movq	%rbx, %rdi
	callq	_ZNSaIdEC2Ev
.Ltmp65:
	leaq	-64(%rbp), %rdi
	movq	%r15, %rsi
	movq	%rbx, %rdx
	callq	_ZNSt6vectorIdSaIdEEC2EmRKS0_
.Ltmp66:
# %bb.1:
	leaq	-40(%rbp), %rdi
	callq	_ZNSaIdED2Ev
	leaq	-64(%rbp), %rdi
	xorl	%esi, %esi
	callq	_ZNSt6vectorIdSaIdEEixEm
	movq	%rax, %rbx
	leaq	(%rax,%r15,8), %r15
	movslq	%r12d, %rax
	leaq	(%rbx,%rax,8), %r12
	movq	%rbx, %rdi
	movq	%r12, %rsi
	callq	_Z10initializePdS_
	movq	%r12, %rdi
	movq	%r15, %rsi
	callq	_Z10initializePdS_
	movq	%rbx, %rdi
	movq	%r15, %rsi
	callq	_ZSt14random_shuffleIPdEvT_S1_
.Ltmp68:
	movl	$_Z10array_testPdS_i, %edi
	movq	%rbx, %rsi
	movq	%r15, %rdx
	movl	%r14d, %ecx
	callq	_Z3runPFvPdS_iES_S_i
.Ltmp69:
# %bb.2:
.Ltmp70:
	movl	$_Z19vector_pointer_testPdS_i, %edi
	movq	%rbx, %rsi
	movq	%r15, %rdx
	movl	%r14d, %ecx
	callq	_Z3runPFvPdS_iES_S_i
.Ltmp71:
# %bb.3:
.Ltmp72:
	movl	$_Z20vector_iterator_testPdS_i, %edi
	movq	%rbx, %rsi
	movq	%r15, %rdx
	movl	%r14d, %ecx
	callq	_Z3runPFvPdS_iES_S_i
.Ltmp73:
# %bb.4:
.Ltmp74:
	movl	$_Z10deque_testPdS_i, %edi
	movq	%rbx, %rsi
	movq	%r15, %rdx
	movl	%r14d, %ecx
	callq	_Z3runPFvPdS_iES_S_i
.Ltmp75:
# %bb.5:
.Ltmp76:
	movl	$_Z9list_testPdS_i, %edi
	movq	%rbx, %rsi
	movq	%r15, %rdx
	movl	%r14d, %ecx
	callq	_Z3runPFvPdS_iES_S_i
.Ltmp77:
# %bb.6:
.Ltmp78:
	movl	$_Z8set_testPdS_i, %edi
	movq	%rbx, %rsi
	movq	%r15, %rdx
	movl	%r14d, %ecx
	callq	_Z3runPFvPdS_iES_S_i
.Ltmp79:
# %bb.7:
.Ltmp80:
	movl	$_Z13multiset_testPdS_i, %edi
	movq	%rbx, %rsi
	movq	%r15, %rdx
	movl	%r14d, %ecx
	callq	_Z3runPFvPdS_iES_S_i
.Ltmp81:
# %bb.8:
	leaq	-64(%rbp), %rdi
	callq	_ZNSt6vectorIdSaIdEED2Ev
	addq	$32, %rsp
	popq	%rbx
	popq	%r12
	popq	%r14
	popq	%r15
	popq	%rbp
	.cfi_def_cfa %rsp, 8
	retq
.LBB48_9:
	.cfi_def_cfa %rbp, 16
.Ltmp67:
	movq	%rax, %rbx
	leaq	-40(%rbp), %rdi
	callq	_ZNSaIdED2Ev
	movq	%rbx, %rdi
	callq	_Unwind_Resume
.LBB48_10:
.Ltmp82:
	movq	%rax, %rbx
	leaq	-64(%rbp), %rdi
	callq	_ZNSt6vectorIdSaIdEED2Ev
	movq	%rbx, %rdi
	callq	_Unwind_Resume
.Lfunc_end48:
	.size	_Z9run_testsi, .Lfunc_end48-_Z9run_testsi
	.cfi_endproc
	.section	.gcc_except_table,"a",@progbits
	.p2align	2
GCC_except_table48:
.Lexception12:
	.byte	255                     # @LPStart Encoding = omit
	.byte	255                     # @TType Encoding = omit
	.byte	1                       # Call site Encoding = uleb128
	.uleb128 .Lcst_end12-.Lcst_begin12
.Lcst_begin12:
	.uleb128 .Ltmp65-.Lfunc_begin12 # >> Call Site 1 <<
	.uleb128 .Ltmp66-.Ltmp65        #   Call between .Ltmp65 and .Ltmp66
	.uleb128 .Ltmp67-.Lfunc_begin12 #     jumps to .Ltmp67
	.byte	0                       #   On action: cleanup
	.uleb128 .Ltmp68-.Lfunc_begin12 # >> Call Site 2 <<
	.uleb128 .Ltmp81-.Ltmp68        #   Call between .Ltmp68 and .Ltmp81
	.uleb128 .Ltmp82-.Lfunc_begin12 #     jumps to .Ltmp82
	.byte	0                       #   On action: cleanup
	.uleb128 .Ltmp81-.Lfunc_begin12 # >> Call Site 3 <<
	.uleb128 .Lfunc_end48-.Ltmp81   #   Call between .Ltmp81 and .Lfunc_end48
	.byte	0                       #     has no landing pad
	.byte	0                       #   On action: cleanup
.Lcst_end12:
	.p2align	2
                                        # -- End function
	.section	.text._ZNSt6vectorIdSaIdEE5clearEv,"axG",@progbits,_ZNSt6vectorIdSaIdEE5clearEv,comdat
	.weak	_ZNSt6vectorIdSaIdEE5clearEv # -- Begin function _ZNSt6vectorIdSaIdEE5clearEv
	.p2align	4, 0x90
	.type	_ZNSt6vectorIdSaIdEE5clearEv,@function
_ZNSt6vectorIdSaIdEE5clearEv:           # @_ZNSt6vectorIdSaIdEE5clearEv
	.cfi_startproc
# %bb.0:
	pushq	%rbp
	.cfi_def_cfa_offset 16
	.cfi_offset %rbp, -16
	movq	%rsp, %rbp
	.cfi_def_cfa_register %rbp
	movq	(%rdi), %rsi
	popq	%rbp
	.cfi_def_cfa %rsp, 8
	jmp	_ZNSt6vectorIdSaIdEE15_M_erase_at_endEPd # TAILCALL
.Lfunc_end49:
	.size	_ZNSt6vectorIdSaIdEE5clearEv, .Lfunc_end49-_ZNSt6vectorIdSaIdEE5clearEv
	.cfi_endproc
                                        # -- End function
	.section	.text._ZNSt6vectorIdSaIdEEC2EmRKS0_,"axG",@progbits,_ZNSt6vectorIdSaIdEEC2EmRKS0_,comdat
	.weak	_ZNSt6vectorIdSaIdEEC2EmRKS0_ # -- Begin function _ZNSt6vectorIdSaIdEEC2EmRKS0_
	.p2align	4, 0x90
	.type	_ZNSt6vectorIdSaIdEEC2EmRKS0_,@function
_ZNSt6vectorIdSaIdEEC2EmRKS0_:          # @_ZNSt6vectorIdSaIdEEC2EmRKS0_
.Lfunc_begin13:
	.cfi_startproc
	.cfi_personality 3, __gxx_personality_v0
	.cfi_lsda 3, .Lexception13
# %bb.0:
	pushq	%rbp
	.cfi_def_cfa_offset 16
	.cfi_offset %rbp, -16
	movq	%rsp, %rbp
	.cfi_def_cfa_register %rbp
	pushq	%r15
	pushq	%r14
	pushq	%rbx
	pushq	%rax
	.cfi_offset %rbx, -40
	.cfi_offset %r14, -32
	.cfi_offset %r15, -24
	movq	%rdx, %rbx
	movq	%rsi, %r15
	movq	%rdi, %r14
	movq	%rsi, %rdi
	movq	%rdx, %rsi
	callq	_ZNSt6vectorIdSaIdEE17_S_check_init_lenEmRKS0_
	movq	%r14, %rdi
	movq	%rax, %rsi
	movq	%rbx, %rdx
	callq	_ZNSt12_Vector_baseIdSaIdEEC2EmRKS0_
.Ltmp83:
	movq	%r14, %rdi
	movq	%r15, %rsi
	callq	_ZNSt6vectorIdSaIdEE21_M_default_initializeEm
.Ltmp84:
# %bb.1:
	addq	$8, %rsp
	popq	%rbx
	popq	%r14
	popq	%r15
	popq	%rbp
	.cfi_def_cfa %rsp, 8
	retq
.LBB50_2:
	.cfi_def_cfa %rbp, 16
.Ltmp85:
	movq	%rax, %rbx
	movq	%r14, %rdi
	callq	_ZNSt12_Vector_baseIdSaIdEED2Ev
	movq	%rbx, %rdi
	callq	_Unwind_Resume
.Lfunc_end50:
	.size	_ZNSt6vectorIdSaIdEEC2EmRKS0_, .Lfunc_end50-_ZNSt6vectorIdSaIdEEC2EmRKS0_
	.cfi_endproc
	.section	.gcc_except_table,"a",@progbits
	.p2align	2
GCC_except_table50:
.Lexception13:
	.byte	255                     # @LPStart Encoding = omit
	.byte	255                     # @TType Encoding = omit
	.byte	1                       # Call site Encoding = uleb128
	.uleb128 .Lcst_end13-.Lcst_begin13
.Lcst_begin13:
	.uleb128 .Lfunc_begin13-.Lfunc_begin13 # >> Call Site 1 <<
	.uleb128 .Ltmp83-.Lfunc_begin13 #   Call between .Lfunc_begin13 and .Ltmp83
	.byte	0                       #     has no landing pad
	.byte	0                       #   On action: cleanup
	.uleb128 .Ltmp83-.Lfunc_begin13 # >> Call Site 2 <<
	.uleb128 .Ltmp84-.Ltmp83        #   Call between .Ltmp83 and .Ltmp84
	.uleb128 .Ltmp85-.Lfunc_begin13 #     jumps to .Ltmp85
	.byte	0                       #   On action: cleanup
	.uleb128 .Ltmp84-.Lfunc_begin13 # >> Call Site 3 <<
	.uleb128 .Lfunc_end50-.Ltmp84   #   Call between .Ltmp84 and .Lfunc_end50
	.byte	0                       #     has no landing pad
	.byte	0                       #   On action: cleanup
.Lcst_end13:
	.p2align	2
                                        # -- End function
	.section	.text._ZNSt6vectorIdSaIdEEixEm,"axG",@progbits,_ZNSt6vectorIdSaIdEEixEm,comdat
	.weak	_ZNSt6vectorIdSaIdEEixEm # -- Begin function _ZNSt6vectorIdSaIdEEixEm
	.p2align	4, 0x90
	.type	_ZNSt6vectorIdSaIdEEixEm,@function
_ZNSt6vectorIdSaIdEEixEm:               # @_ZNSt6vectorIdSaIdEEixEm
	.cfi_startproc
# %bb.0:
	pushq	%rbp
	.cfi_def_cfa_offset 16
	.cfi_offset %rbp, -16
	movq	%rsp, %rbp
	.cfi_def_cfa_register %rbp
	leaq	(,%rsi,8), %rax
	addq	(%rdi), %rax
	popq	%rbp
	.cfi_def_cfa %rsp, 8
	retq
.Lfunc_end51:
	.size	_ZNSt6vectorIdSaIdEEixEm, .Lfunc_end51-_ZNSt6vectorIdSaIdEEixEm
	.cfi_endproc
                                        # -- End function
	.section	.text._ZSt14random_shuffleIPdEvT_S1_,"axG",@progbits,_ZSt14random_shuffleIPdEvT_S1_,comdat
	.weak	_ZSt14random_shuffleIPdEvT_S1_ # -- Begin function _ZSt14random_shuffleIPdEvT_S1_
	.p2align	4, 0x90
	.type	_ZSt14random_shuffleIPdEvT_S1_,@function
_ZSt14random_shuffleIPdEvT_S1_:         # @_ZSt14random_shuffleIPdEvT_S1_
	.cfi_startproc
# %bb.0:
	pushq	%rbp
	.cfi_def_cfa_offset 16
	.cfi_offset %rbp, -16
	movq	%rsp, %rbp
	.cfi_def_cfa_register %rbp
	pushq	%r15
	pushq	%r14
	pushq	%rbx
	pushq	%rax
	.cfi_offset %rbx, -40
	.cfi_offset %r14, -32
	.cfi_offset %r15, -24
	cmpq	%rsi, %rdi
	je	.LBB52_6
# %bb.1:                                # %.preheader
	movq	%rsi, %r14
	movq	%rdi, %r15
	leaq	8(%rdi), %rbx
	cmpq	%rbx, %r14
	jne	.LBB52_3
	jmp	.LBB52_6
	.p2align	4, 0x90
.LBB52_4:                               # %.backedge
                                        #   in Loop: Header=BB52_3 Depth=1
	addq	$8, %rbx
	cmpq	%rbx, %r14
	je	.LBB52_6
.LBB52_3:                               # =>This Inner Loop Header: Depth=1
	callq	rand
	cltq
	movq	%rbx, %rcx
	subq	%r15, %rcx
	sarq	$3, %rcx
	addq	$1, %rcx
	cqto
	idivq	%rcx
	leaq	(%r15,%rdx,8), %rsi
	cmpq	%rsi, %rbx
	je	.LBB52_4
# %bb.5:                                #   in Loop: Header=BB52_3 Depth=1
	movq	%rbx, %rdi
	callq	_ZSt9iter_swapIPdS0_EvT_T0_
	addq	$8, %rbx
	cmpq	%rbx, %r14
	jne	.LBB52_3
.LBB52_6:                               # %.loopexit
	addq	$8, %rsp
	popq	%rbx
	popq	%r14
	popq	%r15
	popq	%rbp
	.cfi_def_cfa %rsp, 8
	retq
.Lfunc_end52:
	.size	_ZSt14random_shuffleIPdEvT_S1_, .Lfunc_end52-_ZSt14random_shuffleIPdEvT_S1_
	.cfi_endproc
                                        # -- End function
	.text
	.globl	main                    # -- Begin function main
	.p2align	4, 0x90
	.type	main,@function
main:                                   # @main
	.cfi_startproc
# %bb.0:                                # %.critedge
	pushq	%rbp
	.cfi_def_cfa_offset 16
	.cfi_offset %rbp, -16
	movq	%rsp, %rbp
	.cfi_def_cfa_register %rbp
	movl	$100000, %edi           # imm = 0x186A0
	callq	_Z9run_testsi
	xorl	%eax, %eax
	popq	%rbp
	.cfi_def_cfa %rsp, 8
	retq
.Lfunc_end53:
	.size	main, .Lfunc_end53-main
	.cfi_endproc
                                        # -- End function
	.section	.text._ZNSt12_Vector_baseIdSaIdEEC2Ev,"axG",@progbits,_ZNSt12_Vector_baseIdSaIdEEC2Ev,comdat
	.weak	_ZNSt12_Vector_baseIdSaIdEEC2Ev # -- Begin function _ZNSt12_Vector_baseIdSaIdEEC2Ev
	.p2align	4, 0x90
	.type	_ZNSt12_Vector_baseIdSaIdEEC2Ev,@function
_ZNSt12_Vector_baseIdSaIdEEC2Ev:        # @_ZNSt12_Vector_baseIdSaIdEEC2Ev
	.cfi_startproc
# %bb.0:
	pushq	%rbp
	.cfi_def_cfa_offset 16
	.cfi_offset %rbp, -16
	movq	%rsp, %rbp
	.cfi_def_cfa_register %rbp
	popq	%rbp
	.cfi_def_cfa %rsp, 8
	jmp	_ZNSt12_Vector_baseIdSaIdEE12_Vector_implC2Ev # TAILCALL
.Lfunc_end54:
	.size	_ZNSt12_Vector_baseIdSaIdEEC2Ev, .Lfunc_end54-_ZNSt12_Vector_baseIdSaIdEEC2Ev
	.cfi_endproc
                                        # -- End function
	.section	.text._ZNSt12_Vector_baseIdSaIdEE12_Vector_implC2Ev,"axG",@progbits,_ZNSt12_Vector_baseIdSaIdEE12_Vector_implC2Ev,comdat
	.weak	_ZNSt12_Vector_baseIdSaIdEE12_Vector_implC2Ev # -- Begin function _ZNSt12_Vector_baseIdSaIdEE12_Vector_implC2Ev
	.p2align	4, 0x90
	.type	_ZNSt12_Vector_baseIdSaIdEE12_Vector_implC2Ev,@function
_ZNSt12_Vector_baseIdSaIdEE12_Vector_implC2Ev: # @_ZNSt12_Vector_baseIdSaIdEE12_Vector_implC2Ev
	.cfi_startproc
# %bb.0:
	pushq	%rbp
	.cfi_def_cfa_offset 16
	.cfi_offset %rbp, -16
	movq	%rsp, %rbp
	.cfi_def_cfa_register %rbp
	pushq	%rbx
	pushq	%rax
	.cfi_offset %rbx, -24
	movq	%rdi, %rbx
	callq	_ZNSaIdEC2Ev
	movq	%rbx, %rdi
	addq	$8, %rsp
	popq	%rbx
	popq	%rbp
	.cfi_def_cfa %rsp, 8
	jmp	_ZNSt12_Vector_baseIdSaIdEE17_Vector_impl_dataC2Ev # TAILCALL
.Lfunc_end55:
	.size	_ZNSt12_Vector_baseIdSaIdEE12_Vector_implC2Ev, .Lfunc_end55-_ZNSt12_Vector_baseIdSaIdEE12_Vector_implC2Ev
	.cfi_endproc
                                        # -- End function
	.section	.text._ZNSt12_Vector_baseIdSaIdEE17_Vector_impl_dataC2Ev,"axG",@progbits,_ZNSt12_Vector_baseIdSaIdEE17_Vector_impl_dataC2Ev,comdat
	.weak	_ZNSt12_Vector_baseIdSaIdEE17_Vector_impl_dataC2Ev # -- Begin function _ZNSt12_Vector_baseIdSaIdEE17_Vector_impl_dataC2Ev
	.p2align	4, 0x90
	.type	_ZNSt12_Vector_baseIdSaIdEE17_Vector_impl_dataC2Ev,@function
_ZNSt12_Vector_baseIdSaIdEE17_Vector_impl_dataC2Ev: # @_ZNSt12_Vector_baseIdSaIdEE17_Vector_impl_dataC2Ev
	.cfi_startproc
# %bb.0:
	pushq	%rbp
	.cfi_def_cfa_offset 16
	.cfi_offset %rbp, -16
	movq	%rsp, %rbp
	.cfi_def_cfa_register %rbp
	xorps	%xmm0, %xmm0
	movups	%xmm0, (%rdi)
	movq	$0, 16(%rdi)
	popq	%rbp
	.cfi_def_cfa %rsp, 8
	retq
.Lfunc_end56:
	.size	_ZNSt12_Vector_baseIdSaIdEE17_Vector_impl_dataC2Ev, .Lfunc_end56-_ZNSt12_Vector_baseIdSaIdEE17_Vector_impl_dataC2Ev
	.cfi_endproc
                                        # -- End function
	.section	.text._ZN9__gnu_cxx13new_allocatorIdEC2Ev,"axG",@progbits,_ZN9__gnu_cxx13new_allocatorIdEC2Ev,comdat
	.weak	_ZN9__gnu_cxx13new_allocatorIdEC2Ev # -- Begin function _ZN9__gnu_cxx13new_allocatorIdEC2Ev
	.p2align	4, 0x90
	.type	_ZN9__gnu_cxx13new_allocatorIdEC2Ev,@function
_ZN9__gnu_cxx13new_allocatorIdEC2Ev:    # @_ZN9__gnu_cxx13new_allocatorIdEC2Ev
	.cfi_startproc
# %bb.0:
	pushq	%rbp
	.cfi_def_cfa_offset 16
	.cfi_offset %rbp, -16
	movq	%rsp, %rbp
	.cfi_def_cfa_register %rbp
	popq	%rbp
	.cfi_def_cfa %rsp, 8
	retq
.Lfunc_end57:
	.size	_ZN9__gnu_cxx13new_allocatorIdEC2Ev, .Lfunc_end57-_ZN9__gnu_cxx13new_allocatorIdEC2Ev
	.cfi_endproc
                                        # -- End function
	.section	.text._ZNSt7__cxx1110_List_baseIdSaIdEED2Ev,"axG",@progbits,_ZNSt7__cxx1110_List_baseIdSaIdEED2Ev,comdat
	.weak	_ZNSt7__cxx1110_List_baseIdSaIdEED2Ev # -- Begin function _ZNSt7__cxx1110_List_baseIdSaIdEED2Ev
	.p2align	4, 0x90
	.type	_ZNSt7__cxx1110_List_baseIdSaIdEED2Ev,@function
_ZNSt7__cxx1110_List_baseIdSaIdEED2Ev:  # @_ZNSt7__cxx1110_List_baseIdSaIdEED2Ev
	.cfi_startproc
# %bb.0:
	pushq	%rbp
	.cfi_def_cfa_offset 16
	.cfi_offset %rbp, -16
	movq	%rsp, %rbp
	.cfi_def_cfa_register %rbp
	pushq	%rbx
	pushq	%rax
	.cfi_offset %rbx, -24
	movq	%rdi, %rbx
	callq	_ZNSt7__cxx1110_List_baseIdSaIdEE8_M_clearEv
	movq	%rbx, %rdi
	addq	$8, %rsp
	popq	%rbx
	popq	%rbp
	.cfi_def_cfa %rsp, 8
	jmp	_ZNSt7__cxx1110_List_baseIdSaIdEE10_List_implD2Ev # TAILCALL
.Lfunc_end58:
	.size	_ZNSt7__cxx1110_List_baseIdSaIdEED2Ev, .Lfunc_end58-_ZNSt7__cxx1110_List_baseIdSaIdEED2Ev
	.cfi_endproc
                                        # -- End function
	.section	.text._ZNSt7__cxx1110_List_baseIdSaIdEE8_M_clearEv,"axG",@progbits,_ZNSt7__cxx1110_List_baseIdSaIdEE8_M_clearEv,comdat
	.weak	_ZNSt7__cxx1110_List_baseIdSaIdEE8_M_clearEv # -- Begin function _ZNSt7__cxx1110_List_baseIdSaIdEE8_M_clearEv
	.p2align	4, 0x90
	.type	_ZNSt7__cxx1110_List_baseIdSaIdEE8_M_clearEv,@function
_ZNSt7__cxx1110_List_baseIdSaIdEE8_M_clearEv: # @_ZNSt7__cxx1110_List_baseIdSaIdEE8_M_clearEv
	.cfi_startproc
# %bb.0:
	pushq	%rbp
	.cfi_def_cfa_offset 16
	.cfi_offset %rbp, -16
	movq	%rsp, %rbp
	.cfi_def_cfa_register %rbp
	pushq	%r15
	pushq	%r14
	pushq	%r12
	pushq	%rbx
	.cfi_offset %rbx, -48
	.cfi_offset %r12, -40
	.cfi_offset %r14, -32
	.cfi_offset %r15, -24
	movq	%rdi, %r14
	movq	(%rdi), %rbx
	cmpq	%r14, %rbx
	je	.LBB59_3
	.p2align	4, 0x90
.LBB59_2:                               # =>This Inner Loop Header: Depth=1
	movq	(%rbx), %r12
	movq	%rbx, %rdi
	callq	_ZNSt10_List_nodeIdE9_M_valptrEv
	movq	%rax, %r15
	movq	%r14, %rdi
	callq	_ZNSt7__cxx1110_List_baseIdSaIdEE21_M_get_Node_allocatorEv
	movq	%rax, %rdi
	movq	%r15, %rsi
	callq	_ZNSt16allocator_traitsISaISt10_List_nodeIdEEE7destroyIdEEvRS2_PT_
	movq	%r14, %rdi
	movq	%rbx, %rsi
	callq	_ZNSt7__cxx1110_List_baseIdSaIdEE11_M_put_nodeEPSt10_List_nodeIdE
	movq	%r12, %rbx
	cmpq	%r14, %rbx
	jne	.LBB59_2
.LBB59_3:
	popq	%rbx
	popq	%r12
	popq	%r14
	popq	%r15
	popq	%rbp
	.cfi_def_cfa %rsp, 8
	retq
.Lfunc_end59:
	.size	_ZNSt7__cxx1110_List_baseIdSaIdEE8_M_clearEv, .Lfunc_end59-_ZNSt7__cxx1110_List_baseIdSaIdEE8_M_clearEv
	.cfi_endproc
                                        # -- End function
	.section	.text._ZNSt7__cxx1110_List_baseIdSaIdEE10_List_implD2Ev,"axG",@progbits,_ZNSt7__cxx1110_List_baseIdSaIdEE10_List_implD2Ev,comdat
	.weak	_ZNSt7__cxx1110_List_baseIdSaIdEE10_List_implD2Ev # -- Begin function _ZNSt7__cxx1110_List_baseIdSaIdEE10_List_implD2Ev
	.p2align	4, 0x90
	.type	_ZNSt7__cxx1110_List_baseIdSaIdEE10_List_implD2Ev,@function
_ZNSt7__cxx1110_List_baseIdSaIdEE10_List_implD2Ev: # @_ZNSt7__cxx1110_List_baseIdSaIdEE10_List_implD2Ev
	.cfi_startproc
# %bb.0:
	pushq	%rbp
	.cfi_def_cfa_offset 16
	.cfi_offset %rbp, -16
	movq	%rsp, %rbp
	.cfi_def_cfa_register %rbp
	popq	%rbp
	.cfi_def_cfa %rsp, 8
	jmp	_ZNSaISt10_List_nodeIdEED2Ev # TAILCALL
.Lfunc_end60:
	.size	_ZNSt7__cxx1110_List_baseIdSaIdEE10_List_implD2Ev, .Lfunc_end60-_ZNSt7__cxx1110_List_baseIdSaIdEE10_List_implD2Ev
	.cfi_endproc
                                        # -- End function
	.section	.text._ZNSt10_List_nodeIdE9_M_valptrEv,"axG",@progbits,_ZNSt10_List_nodeIdE9_M_valptrEv,comdat
	.weak	_ZNSt10_List_nodeIdE9_M_valptrEv # -- Begin function _ZNSt10_List_nodeIdE9_M_valptrEv
	.p2align	4, 0x90
	.type	_ZNSt10_List_nodeIdE9_M_valptrEv,@function
_ZNSt10_List_nodeIdE9_M_valptrEv:       # @_ZNSt10_List_nodeIdE9_M_valptrEv
	.cfi_startproc
# %bb.0:
	pushq	%rbp
	.cfi_def_cfa_offset 16
	.cfi_offset %rbp, -16
	movq	%rsp, %rbp
	.cfi_def_cfa_register %rbp
	addq	$16, %rdi
	popq	%rbp
	.cfi_def_cfa %rsp, 8
	jmp	_ZN9__gnu_cxx16__aligned_membufIdE6_M_ptrEv # TAILCALL
.Lfunc_end61:
	.size	_ZNSt10_List_nodeIdE9_M_valptrEv, .Lfunc_end61-_ZNSt10_List_nodeIdE9_M_valptrEv
	.cfi_endproc
                                        # -- End function
	.section	.text.__clang_call_terminate,"axG",@progbits,__clang_call_terminate,comdat
	.hidden	__clang_call_terminate  # -- Begin function __clang_call_terminate
	.weak	__clang_call_terminate
	.p2align	4, 0x90
	.type	__clang_call_terminate,@function
__clang_call_terminate:                 # @__clang_call_terminate
# %bb.0:
	pushq	%rax
	callq	__cxa_begin_catch
	callq	_ZSt9terminatev
.Lfunc_end62:
	.size	__clang_call_terminate, .Lfunc_end62-__clang_call_terminate
                                        # -- End function
	.section	.text._ZNSt16allocator_traitsISaISt10_List_nodeIdEEE7destroyIdEEvRS2_PT_,"axG",@progbits,_ZNSt16allocator_traitsISaISt10_List_nodeIdEEE7destroyIdEEvRS2_PT_,comdat
	.weak	_ZNSt16allocator_traitsISaISt10_List_nodeIdEEE7destroyIdEEvRS2_PT_ # -- Begin function _ZNSt16allocator_traitsISaISt10_List_nodeIdEEE7destroyIdEEvRS2_PT_
	.p2align	4, 0x90
	.type	_ZNSt16allocator_traitsISaISt10_List_nodeIdEEE7destroyIdEEvRS2_PT_,@function
_ZNSt16allocator_traitsISaISt10_List_nodeIdEEE7destroyIdEEvRS2_PT_: # @_ZNSt16allocator_traitsISaISt10_List_nodeIdEEE7destroyIdEEvRS2_PT_
	.cfi_startproc
# %bb.0:
	pushq	%rbp
	.cfi_def_cfa_offset 16
	.cfi_offset %rbp, -16
	movq	%rsp, %rbp
	.cfi_def_cfa_register %rbp
	popq	%rbp
	.cfi_def_cfa %rsp, 8
	jmp	_ZN9__gnu_cxx13new_allocatorISt10_List_nodeIdEE7destroyIdEEvPT_ # TAILCALL
.Lfunc_end63:
	.size	_ZNSt16allocator_traitsISaISt10_List_nodeIdEEE7destroyIdEEvRS2_PT_, .Lfunc_end63-_ZNSt16allocator_traitsISaISt10_List_nodeIdEEE7destroyIdEEvRS2_PT_
	.cfi_endproc
                                        # -- End function
	.section	.text._ZNSt7__cxx1110_List_baseIdSaIdEE21_M_get_Node_allocatorEv,"axG",@progbits,_ZNSt7__cxx1110_List_baseIdSaIdEE21_M_get_Node_allocatorEv,comdat
	.weak	_ZNSt7__cxx1110_List_baseIdSaIdEE21_M_get_Node_allocatorEv # -- Begin function _ZNSt7__cxx1110_List_baseIdSaIdEE21_M_get_Node_allocatorEv
	.p2align	4, 0x90
	.type	_ZNSt7__cxx1110_List_baseIdSaIdEE21_M_get_Node_allocatorEv,@function
_ZNSt7__cxx1110_List_baseIdSaIdEE21_M_get_Node_allocatorEv: # @_ZNSt7__cxx1110_List_baseIdSaIdEE21_M_get_Node_allocatorEv
	.cfi_startproc
# %bb.0:
	pushq	%rbp
	.cfi_def_cfa_offset 16
	.cfi_offset %rbp, -16
	movq	%rsp, %rbp
	.cfi_def_cfa_register %rbp
	movq	%rdi, %rax
	popq	%rbp
	.cfi_def_cfa %rsp, 8
	retq
.Lfunc_end64:
	.size	_ZNSt7__cxx1110_List_baseIdSaIdEE21_M_get_Node_allocatorEv, .Lfunc_end64-_ZNSt7__cxx1110_List_baseIdSaIdEE21_M_get_Node_allocatorEv
	.cfi_endproc
                                        # -- End function
	.section	.text._ZNSt7__cxx1110_List_baseIdSaIdEE11_M_put_nodeEPSt10_List_nodeIdE,"axG",@progbits,_ZNSt7__cxx1110_List_baseIdSaIdEE11_M_put_nodeEPSt10_List_nodeIdE,comdat
	.weak	_ZNSt7__cxx1110_List_baseIdSaIdEE11_M_put_nodeEPSt10_List_nodeIdE # -- Begin function _ZNSt7__cxx1110_List_baseIdSaIdEE11_M_put_nodeEPSt10_List_nodeIdE
	.p2align	4, 0x90
	.type	_ZNSt7__cxx1110_List_baseIdSaIdEE11_M_put_nodeEPSt10_List_nodeIdE,@function
_ZNSt7__cxx1110_List_baseIdSaIdEE11_M_put_nodeEPSt10_List_nodeIdE: # @_ZNSt7__cxx1110_List_baseIdSaIdEE11_M_put_nodeEPSt10_List_nodeIdE
.Lfunc_begin14:
	.cfi_startproc
	.cfi_personality 3, __gxx_personality_v0
	.cfi_lsda 3, .Lexception14
# %bb.0:
	pushq	%rbp
	.cfi_def_cfa_offset 16
	.cfi_offset %rbp, -16
	movq	%rsp, %rbp
	.cfi_def_cfa_register %rbp
.Ltmp86:
	movl	$1, %edx
	callq	_ZNSt16allocator_traitsISaISt10_List_nodeIdEEE10deallocateERS2_PS1_m
.Ltmp87:
# %bb.1:
	popq	%rbp
	.cfi_def_cfa %rsp, 8
	retq
.LBB65_2:
	.cfi_def_cfa %rbp, 16
.Ltmp88:
	movq	%rax, %rdi
	callq	__clang_call_terminate
.Lfunc_end65:
	.size	_ZNSt7__cxx1110_List_baseIdSaIdEE11_M_put_nodeEPSt10_List_nodeIdE, .Lfunc_end65-_ZNSt7__cxx1110_List_baseIdSaIdEE11_M_put_nodeEPSt10_List_nodeIdE
	.cfi_endproc
	.section	.gcc_except_table,"a",@progbits
	.p2align	2
GCC_except_table65:
.Lexception14:
	.byte	255                     # @LPStart Encoding = omit
	.byte	3                       # @TType Encoding = udata4
	.uleb128 .Lttbase2-.Lttbaseref2
.Lttbaseref2:
	.byte	1                       # Call site Encoding = uleb128
	.uleb128 .Lcst_end14-.Lcst_begin14
.Lcst_begin14:
	.uleb128 .Ltmp86-.Lfunc_begin14 # >> Call Site 1 <<
	.uleb128 .Ltmp87-.Ltmp86        #   Call between .Ltmp86 and .Ltmp87
	.uleb128 .Ltmp88-.Lfunc_begin14 #     jumps to .Ltmp88
	.byte	1                       #   On action: 1
.Lcst_end14:
	.byte	1                       # >> Action Record 1 <<
                                        #   Catch TypeInfo 1
	.byte	0                       #   No further actions
	.p2align	2
                                        # >> Catch TypeInfos <<
	.long	0                       # TypeInfo 1
.Lttbase2:
	.p2align	2
                                        # -- End function
	.section	.text._ZN9__gnu_cxx16__aligned_membufIdE6_M_ptrEv,"axG",@progbits,_ZN9__gnu_cxx16__aligned_membufIdE6_M_ptrEv,comdat
	.weak	_ZN9__gnu_cxx16__aligned_membufIdE6_M_ptrEv # -- Begin function _ZN9__gnu_cxx16__aligned_membufIdE6_M_ptrEv
	.p2align	4, 0x90
	.type	_ZN9__gnu_cxx16__aligned_membufIdE6_M_ptrEv,@function
_ZN9__gnu_cxx16__aligned_membufIdE6_M_ptrEv: # @_ZN9__gnu_cxx16__aligned_membufIdE6_M_ptrEv
	.cfi_startproc
# %bb.0:
	pushq	%rbp
	.cfi_def_cfa_offset 16
	.cfi_offset %rbp, -16
	movq	%rsp, %rbp
	.cfi_def_cfa_register %rbp
	popq	%rbp
	.cfi_def_cfa %rsp, 8
	jmp	_ZN9__gnu_cxx16__aligned_membufIdE7_M_addrEv # TAILCALL
.Lfunc_end66:
	.size	_ZN9__gnu_cxx16__aligned_membufIdE6_M_ptrEv, .Lfunc_end66-_ZN9__gnu_cxx16__aligned_membufIdE6_M_ptrEv
	.cfi_endproc
                                        # -- End function
	.section	.text._ZN9__gnu_cxx16__aligned_membufIdE7_M_addrEv,"axG",@progbits,_ZN9__gnu_cxx16__aligned_membufIdE7_M_addrEv,comdat
	.weak	_ZN9__gnu_cxx16__aligned_membufIdE7_M_addrEv # -- Begin function _ZN9__gnu_cxx16__aligned_membufIdE7_M_addrEv
	.p2align	4, 0x90
	.type	_ZN9__gnu_cxx16__aligned_membufIdE7_M_addrEv,@function
_ZN9__gnu_cxx16__aligned_membufIdE7_M_addrEv: # @_ZN9__gnu_cxx16__aligned_membufIdE7_M_addrEv
	.cfi_startproc
# %bb.0:
	pushq	%rbp
	.cfi_def_cfa_offset 16
	.cfi_offset %rbp, -16
	movq	%rsp, %rbp
	.cfi_def_cfa_register %rbp
	movq	%rdi, %rax
	popq	%rbp
	.cfi_def_cfa %rsp, 8
	retq
.Lfunc_end67:
	.size	_ZN9__gnu_cxx16__aligned_membufIdE7_M_addrEv, .Lfunc_end67-_ZN9__gnu_cxx16__aligned_membufIdE7_M_addrEv
	.cfi_endproc
                                        # -- End function
	.section	.text._ZN9__gnu_cxx13new_allocatorISt10_List_nodeIdEE7destroyIdEEvPT_,"axG",@progbits,_ZN9__gnu_cxx13new_allocatorISt10_List_nodeIdEE7destroyIdEEvPT_,comdat
	.weak	_ZN9__gnu_cxx13new_allocatorISt10_List_nodeIdEE7destroyIdEEvPT_ # -- Begin function _ZN9__gnu_cxx13new_allocatorISt10_List_nodeIdEE7destroyIdEEvPT_
	.p2align	4, 0x90
	.type	_ZN9__gnu_cxx13new_allocatorISt10_List_nodeIdEE7destroyIdEEvPT_,@function
_ZN9__gnu_cxx13new_allocatorISt10_List_nodeIdEE7destroyIdEEvPT_: # @_ZN9__gnu_cxx13new_allocatorISt10_List_nodeIdEE7destroyIdEEvPT_
	.cfi_startproc
# %bb.0:
	pushq	%rbp
	.cfi_def_cfa_offset 16
	.cfi_offset %rbp, -16
	movq	%rsp, %rbp
	.cfi_def_cfa_register %rbp
	popq	%rbp
	.cfi_def_cfa %rsp, 8
	retq
.Lfunc_end68:
	.size	_ZN9__gnu_cxx13new_allocatorISt10_List_nodeIdEE7destroyIdEEvPT_, .Lfunc_end68-_ZN9__gnu_cxx13new_allocatorISt10_List_nodeIdEE7destroyIdEEvPT_
	.cfi_endproc
                                        # -- End function
	.section	.text._ZNSt16allocator_traitsISaISt10_List_nodeIdEEE10deallocateERS2_PS1_m,"axG",@progbits,_ZNSt16allocator_traitsISaISt10_List_nodeIdEEE10deallocateERS2_PS1_m,comdat
	.weak	_ZNSt16allocator_traitsISaISt10_List_nodeIdEEE10deallocateERS2_PS1_m # -- Begin function _ZNSt16allocator_traitsISaISt10_List_nodeIdEEE10deallocateERS2_PS1_m
	.p2align	4, 0x90
	.type	_ZNSt16allocator_traitsISaISt10_List_nodeIdEEE10deallocateERS2_PS1_m,@function
_ZNSt16allocator_traitsISaISt10_List_nodeIdEEE10deallocateERS2_PS1_m: # @_ZNSt16allocator_traitsISaISt10_List_nodeIdEEE10deallocateERS2_PS1_m
	.cfi_startproc
# %bb.0:
	pushq	%rbp
	.cfi_def_cfa_offset 16
	.cfi_offset %rbp, -16
	movq	%rsp, %rbp
	.cfi_def_cfa_register %rbp
	popq	%rbp
	.cfi_def_cfa %rsp, 8
	jmp	_ZN9__gnu_cxx13new_allocatorISt10_List_nodeIdEE10deallocateEPS2_m # TAILCALL
.Lfunc_end69:
	.size	_ZNSt16allocator_traitsISaISt10_List_nodeIdEEE10deallocateERS2_PS1_m, .Lfunc_end69-_ZNSt16allocator_traitsISaISt10_List_nodeIdEEE10deallocateERS2_PS1_m
	.cfi_endproc
                                        # -- End function
	.section	.text._ZN9__gnu_cxx13new_allocatorISt10_List_nodeIdEE10deallocateEPS2_m,"axG",@progbits,_ZN9__gnu_cxx13new_allocatorISt10_List_nodeIdEE10deallocateEPS2_m,comdat
	.weak	_ZN9__gnu_cxx13new_allocatorISt10_List_nodeIdEE10deallocateEPS2_m # -- Begin function _ZN9__gnu_cxx13new_allocatorISt10_List_nodeIdEE10deallocateEPS2_m
	.p2align	4, 0x90
	.type	_ZN9__gnu_cxx13new_allocatorISt10_List_nodeIdEE10deallocateEPS2_m,@function
_ZN9__gnu_cxx13new_allocatorISt10_List_nodeIdEE10deallocateEPS2_m: # @_ZN9__gnu_cxx13new_allocatorISt10_List_nodeIdEE10deallocateEPS2_m
	.cfi_startproc
# %bb.0:
	pushq	%rbp
	.cfi_def_cfa_offset 16
	.cfi_offset %rbp, -16
	movq	%rsp, %rbp
	.cfi_def_cfa_register %rbp
	movq	%rsi, %rdi
	popq	%rbp
	.cfi_def_cfa %rsp, 8
	jmp	_ZdlPv                  # TAILCALL
.Lfunc_end70:
	.size	_ZN9__gnu_cxx13new_allocatorISt10_List_nodeIdEE10deallocateEPS2_m, .Lfunc_end70-_ZN9__gnu_cxx13new_allocatorISt10_List_nodeIdEE10deallocateEPS2_m
	.cfi_endproc
                                        # -- End function
	.section	.text._ZN9__gnu_cxx13new_allocatorISt10_List_nodeIdEED2Ev,"axG",@progbits,_ZN9__gnu_cxx13new_allocatorISt10_List_nodeIdEED2Ev,comdat
	.weak	_ZN9__gnu_cxx13new_allocatorISt10_List_nodeIdEED2Ev # -- Begin function _ZN9__gnu_cxx13new_allocatorISt10_List_nodeIdEED2Ev
	.p2align	4, 0x90
	.type	_ZN9__gnu_cxx13new_allocatorISt10_List_nodeIdEED2Ev,@function
_ZN9__gnu_cxx13new_allocatorISt10_List_nodeIdEED2Ev: # @_ZN9__gnu_cxx13new_allocatorISt10_List_nodeIdEED2Ev
	.cfi_startproc
# %bb.0:
	pushq	%rbp
	.cfi_def_cfa_offset 16
	.cfi_offset %rbp, -16
	movq	%rsp, %rbp
	.cfi_def_cfa_register %rbp
	popq	%rbp
	.cfi_def_cfa %rsp, 8
	retq
.Lfunc_end71:
	.size	_ZN9__gnu_cxx13new_allocatorISt10_List_nodeIdEED2Ev, .Lfunc_end71-_ZN9__gnu_cxx13new_allocatorISt10_List_nodeIdEED2Ev
	.cfi_endproc
                                        # -- End function
	.section	.text._ZNSt8_Rb_treeIddSt9_IdentityIdESt4lessIdESaIdEED2Ev,"axG",@progbits,_ZNSt8_Rb_treeIddSt9_IdentityIdESt4lessIdESaIdEED2Ev,comdat
	.weak	_ZNSt8_Rb_treeIddSt9_IdentityIdESt4lessIdESaIdEED2Ev # -- Begin function _ZNSt8_Rb_treeIddSt9_IdentityIdESt4lessIdESaIdEED2Ev
	.p2align	4, 0x90
	.type	_ZNSt8_Rb_treeIddSt9_IdentityIdESt4lessIdESaIdEED2Ev,@function
_ZNSt8_Rb_treeIddSt9_IdentityIdESt4lessIdESaIdEED2Ev: # @_ZNSt8_Rb_treeIddSt9_IdentityIdESt4lessIdESaIdEED2Ev
.Lfunc_begin15:
	.cfi_startproc
	.cfi_personality 3, __gxx_personality_v0
	.cfi_lsda 3, .Lexception15
# %bb.0:
	pushq	%rbp
	.cfi_def_cfa_offset 16
	.cfi_offset %rbp, -16
	movq	%rsp, %rbp
	.cfi_def_cfa_register %rbp
	pushq	%r14
	pushq	%rbx
	.cfi_offset %rbx, -32
	.cfi_offset %r14, -24
	movq	%rdi, %rbx
	callq	_ZNSt8_Rb_treeIddSt9_IdentityIdESt4lessIdESaIdEE8_M_beginEv
.Ltmp89:
	movq	%rbx, %rdi
	movq	%rax, %rsi
	callq	_ZNSt8_Rb_treeIddSt9_IdentityIdESt4lessIdESaIdEE8_M_eraseEPSt13_Rb_tree_nodeIdE
.Ltmp90:
# %bb.1:
	movq	%rbx, %rdi
	popq	%rbx
	popq	%r14
	popq	%rbp
	.cfi_def_cfa %rsp, 8
	jmp	_ZNSt8_Rb_treeIddSt9_IdentityIdESt4lessIdESaIdEE13_Rb_tree_implIS3_Lb1EED2Ev # TAILCALL
.LBB72_2:
	.cfi_def_cfa %rbp, 16
.Ltmp91:
	movq	%rax, %r14
	movq	%rbx, %rdi
	callq	_ZNSt8_Rb_treeIddSt9_IdentityIdESt4lessIdESaIdEE13_Rb_tree_implIS3_Lb1EED2Ev
	movq	%r14, %rdi
	callq	__clang_call_terminate
.Lfunc_end72:
	.size	_ZNSt8_Rb_treeIddSt9_IdentityIdESt4lessIdESaIdEED2Ev, .Lfunc_end72-_ZNSt8_Rb_treeIddSt9_IdentityIdESt4lessIdESaIdEED2Ev
	.cfi_endproc
	.section	.gcc_except_table,"a",@progbits
	.p2align	2
GCC_except_table72:
.Lexception15:
	.byte	255                     # @LPStart Encoding = omit
	.byte	3                       # @TType Encoding = udata4
	.uleb128 .Lttbase3-.Lttbaseref3
.Lttbaseref3:
	.byte	1                       # Call site Encoding = uleb128
	.uleb128 .Lcst_end15-.Lcst_begin15
.Lcst_begin15:
	.uleb128 .Ltmp89-.Lfunc_begin15 # >> Call Site 1 <<
	.uleb128 .Ltmp90-.Ltmp89        #   Call between .Ltmp89 and .Ltmp90
	.uleb128 .Ltmp91-.Lfunc_begin15 #     jumps to .Ltmp91
	.byte	1                       #   On action: 1
.Lcst_end15:
	.byte	1                       # >> Action Record 1 <<
                                        #   Catch TypeInfo 1
	.byte	0                       #   No further actions
	.p2align	2
                                        # >> Catch TypeInfos <<
	.long	0                       # TypeInfo 1
.Lttbase3:
	.p2align	2
                                        # -- End function
	.section	.text._ZNSt8_Rb_treeIddSt9_IdentityIdESt4lessIdESaIdEE8_M_eraseEPSt13_Rb_tree_nodeIdE,"axG",@progbits,_ZNSt8_Rb_treeIddSt9_IdentityIdESt4lessIdESaIdEE8_M_eraseEPSt13_Rb_tree_nodeIdE,comdat
	.weak	_ZNSt8_Rb_treeIddSt9_IdentityIdESt4lessIdESaIdEE8_M_eraseEPSt13_Rb_tree_nodeIdE # -- Begin function _ZNSt8_Rb_treeIddSt9_IdentityIdESt4lessIdESaIdEE8_M_eraseEPSt13_Rb_tree_nodeIdE
	.p2align	4, 0x90
	.type	_ZNSt8_Rb_treeIddSt9_IdentityIdESt4lessIdESaIdEE8_M_eraseEPSt13_Rb_tree_nodeIdE,@function
_ZNSt8_Rb_treeIddSt9_IdentityIdESt4lessIdESaIdEE8_M_eraseEPSt13_Rb_tree_nodeIdE: # @_ZNSt8_Rb_treeIddSt9_IdentityIdESt4lessIdESaIdEE8_M_eraseEPSt13_Rb_tree_nodeIdE
	.cfi_startproc
# %bb.0:
	pushq	%rbp
	.cfi_def_cfa_offset 16
	.cfi_offset %rbp, -16
	movq	%rsp, %rbp
	.cfi_def_cfa_register %rbp
	pushq	%r15
	pushq	%r14
	pushq	%rbx
	pushq	%rax
	.cfi_offset %rbx, -40
	.cfi_offset %r14, -32
	.cfi_offset %r15, -24
	movq	%rsi, %rbx
	movq	%rdi, %r14
	testq	%rbx, %rbx
	je	.LBB73_3
	.p2align	4, 0x90
.LBB73_2:                               # =>This Inner Loop Header: Depth=1
	movq	%rbx, %rdi
	callq	_ZNSt8_Rb_treeIddSt9_IdentityIdESt4lessIdESaIdEE8_S_rightEPSt18_Rb_tree_node_base
	movq	%r14, %rdi
	movq	%rax, %rsi
	callq	_ZNSt8_Rb_treeIddSt9_IdentityIdESt4lessIdESaIdEE8_M_eraseEPSt13_Rb_tree_nodeIdE
	movq	%rbx, %rdi
	callq	_ZNSt8_Rb_treeIddSt9_IdentityIdESt4lessIdESaIdEE7_S_leftEPSt18_Rb_tree_node_base
	movq	%rax, %r15
	movq	%r14, %rdi
	movq	%rbx, %rsi
	callq	_ZNSt8_Rb_treeIddSt9_IdentityIdESt4lessIdESaIdEE12_M_drop_nodeEPSt13_Rb_tree_nodeIdE
	movq	%r15, %rbx
	testq	%rbx, %rbx
	jne	.LBB73_2
.LBB73_3:
	addq	$8, %rsp
	popq	%rbx
	popq	%r14
	popq	%r15
	popq	%rbp
	.cfi_def_cfa %rsp, 8
	retq
.Lfunc_end73:
	.size	_ZNSt8_Rb_treeIddSt9_IdentityIdESt4lessIdESaIdEE8_M_eraseEPSt13_Rb_tree_nodeIdE, .Lfunc_end73-_ZNSt8_Rb_treeIddSt9_IdentityIdESt4lessIdESaIdEE8_M_eraseEPSt13_Rb_tree_nodeIdE
	.cfi_endproc
                                        # -- End function
	.section	.text._ZNSt8_Rb_treeIddSt9_IdentityIdESt4lessIdESaIdEE8_M_beginEv,"axG",@progbits,_ZNSt8_Rb_treeIddSt9_IdentityIdESt4lessIdESaIdEE8_M_beginEv,comdat
	.weak	_ZNSt8_Rb_treeIddSt9_IdentityIdESt4lessIdESaIdEE8_M_beginEv # -- Begin function _ZNSt8_Rb_treeIddSt9_IdentityIdESt4lessIdESaIdEE8_M_beginEv
	.p2align	4, 0x90
	.type	_ZNSt8_Rb_treeIddSt9_IdentityIdESt4lessIdESaIdEE8_M_beginEv,@function
_ZNSt8_Rb_treeIddSt9_IdentityIdESt4lessIdESaIdEE8_M_beginEv: # @_ZNSt8_Rb_treeIddSt9_IdentityIdESt4lessIdESaIdEE8_M_beginEv
	.cfi_startproc
# %bb.0:
	pushq	%rbp
	.cfi_def_cfa_offset 16
	.cfi_offset %rbp, -16
	movq	%rsp, %rbp
	.cfi_def_cfa_register %rbp
	movq	16(%rdi), %rax
	popq	%rbp
	.cfi_def_cfa %rsp, 8
	retq
.Lfunc_end74:
	.size	_ZNSt8_Rb_treeIddSt9_IdentityIdESt4lessIdESaIdEE8_M_beginEv, .Lfunc_end74-_ZNSt8_Rb_treeIddSt9_IdentityIdESt4lessIdESaIdEE8_M_beginEv
	.cfi_endproc
                                        # -- End function
	.section	.text._ZNSt8_Rb_treeIddSt9_IdentityIdESt4lessIdESaIdEE13_Rb_tree_implIS3_Lb1EED2Ev,"axG",@progbits,_ZNSt8_Rb_treeIddSt9_IdentityIdESt4lessIdESaIdEE13_Rb_tree_implIS3_Lb1EED2Ev,comdat
	.weak	_ZNSt8_Rb_treeIddSt9_IdentityIdESt4lessIdESaIdEE13_Rb_tree_implIS3_Lb1EED2Ev # -- Begin function _ZNSt8_Rb_treeIddSt9_IdentityIdESt4lessIdESaIdEE13_Rb_tree_implIS3_Lb1EED2Ev
	.p2align	4, 0x90
	.type	_ZNSt8_Rb_treeIddSt9_IdentityIdESt4lessIdESaIdEE13_Rb_tree_implIS3_Lb1EED2Ev,@function
_ZNSt8_Rb_treeIddSt9_IdentityIdESt4lessIdESaIdEE13_Rb_tree_implIS3_Lb1EED2Ev: # @_ZNSt8_Rb_treeIddSt9_IdentityIdESt4lessIdESaIdEE13_Rb_tree_implIS3_Lb1EED2Ev
	.cfi_startproc
# %bb.0:
	pushq	%rbp
	.cfi_def_cfa_offset 16
	.cfi_offset %rbp, -16
	movq	%rsp, %rbp
	.cfi_def_cfa_register %rbp
	popq	%rbp
	.cfi_def_cfa %rsp, 8
	jmp	_ZNSaISt13_Rb_tree_nodeIdEED2Ev # TAILCALL
.Lfunc_end75:
	.size	_ZNSt8_Rb_treeIddSt9_IdentityIdESt4lessIdESaIdEE13_Rb_tree_implIS3_Lb1EED2Ev, .Lfunc_end75-_ZNSt8_Rb_treeIddSt9_IdentityIdESt4lessIdESaIdEE13_Rb_tree_implIS3_Lb1EED2Ev
	.cfi_endproc
                                        # -- End function
	.section	.text._ZNSt8_Rb_treeIddSt9_IdentityIdESt4lessIdESaIdEE8_S_rightEPSt18_Rb_tree_node_base,"axG",@progbits,_ZNSt8_Rb_treeIddSt9_IdentityIdESt4lessIdESaIdEE8_S_rightEPSt18_Rb_tree_node_base,comdat
	.weak	_ZNSt8_Rb_treeIddSt9_IdentityIdESt4lessIdESaIdEE8_S_rightEPSt18_Rb_tree_node_base # -- Begin function _ZNSt8_Rb_treeIddSt9_IdentityIdESt4lessIdESaIdEE8_S_rightEPSt18_Rb_tree_node_base
	.p2align	4, 0x90
	.type	_ZNSt8_Rb_treeIddSt9_IdentityIdESt4lessIdESaIdEE8_S_rightEPSt18_Rb_tree_node_base,@function
_ZNSt8_Rb_treeIddSt9_IdentityIdESt4lessIdESaIdEE8_S_rightEPSt18_Rb_tree_node_base: # @_ZNSt8_Rb_treeIddSt9_IdentityIdESt4lessIdESaIdEE8_S_rightEPSt18_Rb_tree_node_base
	.cfi_startproc
# %bb.0:
	pushq	%rbp
	.cfi_def_cfa_offset 16
	.cfi_offset %rbp, -16
	movq	%rsp, %rbp
	.cfi_def_cfa_register %rbp
	movq	24(%rdi), %rax
	popq	%rbp
	.cfi_def_cfa %rsp, 8
	retq
.Lfunc_end76:
	.size	_ZNSt8_Rb_treeIddSt9_IdentityIdESt4lessIdESaIdEE8_S_rightEPSt18_Rb_tree_node_base, .Lfunc_end76-_ZNSt8_Rb_treeIddSt9_IdentityIdESt4lessIdESaIdEE8_S_rightEPSt18_Rb_tree_node_base
	.cfi_endproc
                                        # -- End function
	.section	.text._ZNSt8_Rb_treeIddSt9_IdentityIdESt4lessIdESaIdEE7_S_leftEPSt18_Rb_tree_node_base,"axG",@progbits,_ZNSt8_Rb_treeIddSt9_IdentityIdESt4lessIdESaIdEE7_S_leftEPSt18_Rb_tree_node_base,comdat
	.weak	_ZNSt8_Rb_treeIddSt9_IdentityIdESt4lessIdESaIdEE7_S_leftEPSt18_Rb_tree_node_base # -- Begin function _ZNSt8_Rb_treeIddSt9_IdentityIdESt4lessIdESaIdEE7_S_leftEPSt18_Rb_tree_node_base
	.p2align	4, 0x90
	.type	_ZNSt8_Rb_treeIddSt9_IdentityIdESt4lessIdESaIdEE7_S_leftEPSt18_Rb_tree_node_base,@function
_ZNSt8_Rb_treeIddSt9_IdentityIdESt4lessIdESaIdEE7_S_leftEPSt18_Rb_tree_node_base: # @_ZNSt8_Rb_treeIddSt9_IdentityIdESt4lessIdESaIdEE7_S_leftEPSt18_Rb_tree_node_base
	.cfi_startproc
# %bb.0:
	pushq	%rbp
	.cfi_def_cfa_offset 16
	.cfi_offset %rbp, -16
	movq	%rsp, %rbp
	.cfi_def_cfa_register %rbp
	movq	16(%rdi), %rax
	popq	%rbp
	.cfi_def_cfa %rsp, 8
	retq
.Lfunc_end77:
	.size	_ZNSt8_Rb_treeIddSt9_IdentityIdESt4lessIdESaIdEE7_S_leftEPSt18_Rb_tree_node_base, .Lfunc_end77-_ZNSt8_Rb_treeIddSt9_IdentityIdESt4lessIdESaIdEE7_S_leftEPSt18_Rb_tree_node_base
	.cfi_endproc
                                        # -- End function
	.section	.text._ZNSt8_Rb_treeIddSt9_IdentityIdESt4lessIdESaIdEE12_M_drop_nodeEPSt13_Rb_tree_nodeIdE,"axG",@progbits,_ZNSt8_Rb_treeIddSt9_IdentityIdESt4lessIdESaIdEE12_M_drop_nodeEPSt13_Rb_tree_nodeIdE,comdat
	.weak	_ZNSt8_Rb_treeIddSt9_IdentityIdESt4lessIdESaIdEE12_M_drop_nodeEPSt13_Rb_tree_nodeIdE # -- Begin function _ZNSt8_Rb_treeIddSt9_IdentityIdESt4lessIdESaIdEE12_M_drop_nodeEPSt13_Rb_tree_nodeIdE
	.p2align	4, 0x90
	.type	_ZNSt8_Rb_treeIddSt9_IdentityIdESt4lessIdESaIdEE12_M_drop_nodeEPSt13_Rb_tree_nodeIdE,@function
_ZNSt8_Rb_treeIddSt9_IdentityIdESt4lessIdESaIdEE12_M_drop_nodeEPSt13_Rb_tree_nodeIdE: # @_ZNSt8_Rb_treeIddSt9_IdentityIdESt4lessIdESaIdEE12_M_drop_nodeEPSt13_Rb_tree_nodeIdE
	.cfi_startproc
# %bb.0:
	pushq	%rbp
	.cfi_def_cfa_offset 16
	.cfi_offset %rbp, -16
	movq	%rsp, %rbp
	.cfi_def_cfa_register %rbp
	pushq	%r14
	pushq	%rbx
	.cfi_offset %rbx, -32
	.cfi_offset %r14, -24
	movq	%rsi, %r14
	movq	%rdi, %rbx
	callq	_ZNSt8_Rb_treeIddSt9_IdentityIdESt4lessIdESaIdEE15_M_destroy_nodeEPSt13_Rb_tree_nodeIdE
	movq	%rbx, %rdi
	movq	%r14, %rsi
	popq	%rbx
	popq	%r14
	popq	%rbp
	.cfi_def_cfa %rsp, 8
	jmp	_ZNSt8_Rb_treeIddSt9_IdentityIdESt4lessIdESaIdEE11_M_put_nodeEPSt13_Rb_tree_nodeIdE # TAILCALL
.Lfunc_end78:
	.size	_ZNSt8_Rb_treeIddSt9_IdentityIdESt4lessIdESaIdEE12_M_drop_nodeEPSt13_Rb_tree_nodeIdE, .Lfunc_end78-_ZNSt8_Rb_treeIddSt9_IdentityIdESt4lessIdESaIdEE12_M_drop_nodeEPSt13_Rb_tree_nodeIdE
	.cfi_endproc
                                        # -- End function
	.section	.text._ZNSt8_Rb_treeIddSt9_IdentityIdESt4lessIdESaIdEE15_M_destroy_nodeEPSt13_Rb_tree_nodeIdE,"axG",@progbits,_ZNSt8_Rb_treeIddSt9_IdentityIdESt4lessIdESaIdEE15_M_destroy_nodeEPSt13_Rb_tree_nodeIdE,comdat
	.weak	_ZNSt8_Rb_treeIddSt9_IdentityIdESt4lessIdESaIdEE15_M_destroy_nodeEPSt13_Rb_tree_nodeIdE # -- Begin function _ZNSt8_Rb_treeIddSt9_IdentityIdESt4lessIdESaIdEE15_M_destroy_nodeEPSt13_Rb_tree_nodeIdE
	.p2align	4, 0x90
	.type	_ZNSt8_Rb_treeIddSt9_IdentityIdESt4lessIdESaIdEE15_M_destroy_nodeEPSt13_Rb_tree_nodeIdE,@function
_ZNSt8_Rb_treeIddSt9_IdentityIdESt4lessIdESaIdEE15_M_destroy_nodeEPSt13_Rb_tree_nodeIdE: # @_ZNSt8_Rb_treeIddSt9_IdentityIdESt4lessIdESaIdEE15_M_destroy_nodeEPSt13_Rb_tree_nodeIdE
	.cfi_startproc
# %bb.0:
	pushq	%rbp
	.cfi_def_cfa_offset 16
	.cfi_offset %rbp, -16
	movq	%rsp, %rbp
	.cfi_def_cfa_register %rbp
	pushq	%r14
	pushq	%rbx
	.cfi_offset %rbx, -32
	.cfi_offset %r14, -24
	movq	%rsi, %r14
	callq	_ZNSt8_Rb_treeIddSt9_IdentityIdESt4lessIdESaIdEE21_M_get_Node_allocatorEv
	movq	%rax, %rbx
	movq	%r14, %rdi
	callq	_ZNSt13_Rb_tree_nodeIdE9_M_valptrEv
	movq	%rbx, %rdi
	movq	%rax, %rsi
	popq	%rbx
	popq	%r14
	popq	%rbp
	.cfi_def_cfa %rsp, 8
	jmp	_ZNSt16allocator_traitsISaISt13_Rb_tree_nodeIdEEE7destroyIdEEvRS2_PT_ # TAILCALL
.Lfunc_end79:
	.size	_ZNSt8_Rb_treeIddSt9_IdentityIdESt4lessIdESaIdEE15_M_destroy_nodeEPSt13_Rb_tree_nodeIdE, .Lfunc_end79-_ZNSt8_Rb_treeIddSt9_IdentityIdESt4lessIdESaIdEE15_M_destroy_nodeEPSt13_Rb_tree_nodeIdE
	.cfi_endproc
                                        # -- End function
	.section	.text._ZNSt8_Rb_treeIddSt9_IdentityIdESt4lessIdESaIdEE11_M_put_nodeEPSt13_Rb_tree_nodeIdE,"axG",@progbits,_ZNSt8_Rb_treeIddSt9_IdentityIdESt4lessIdESaIdEE11_M_put_nodeEPSt13_Rb_tree_nodeIdE,comdat
	.weak	_ZNSt8_Rb_treeIddSt9_IdentityIdESt4lessIdESaIdEE11_M_put_nodeEPSt13_Rb_tree_nodeIdE # -- Begin function _ZNSt8_Rb_treeIddSt9_IdentityIdESt4lessIdESaIdEE11_M_put_nodeEPSt13_Rb_tree_nodeIdE
	.p2align	4, 0x90
	.type	_ZNSt8_Rb_treeIddSt9_IdentityIdESt4lessIdESaIdEE11_M_put_nodeEPSt13_Rb_tree_nodeIdE,@function
_ZNSt8_Rb_treeIddSt9_IdentityIdESt4lessIdESaIdEE11_M_put_nodeEPSt13_Rb_tree_nodeIdE: # @_ZNSt8_Rb_treeIddSt9_IdentityIdESt4lessIdESaIdEE11_M_put_nodeEPSt13_Rb_tree_nodeIdE
.Lfunc_begin16:
	.cfi_startproc
	.cfi_personality 3, __gxx_personality_v0
	.cfi_lsda 3, .Lexception16
# %bb.0:
	pushq	%rbp
	.cfi_def_cfa_offset 16
	.cfi_offset %rbp, -16
	movq	%rsp, %rbp
	.cfi_def_cfa_register %rbp
	pushq	%rbx
	pushq	%rax
	.cfi_offset %rbx, -24
	movq	%rsi, %rbx
	callq	_ZNSt8_Rb_treeIddSt9_IdentityIdESt4lessIdESaIdEE21_M_get_Node_allocatorEv
.Ltmp92:
	movl	$1, %edx
	movq	%rax, %rdi
	movq	%rbx, %rsi
	callq	_ZNSt16allocator_traitsISaISt13_Rb_tree_nodeIdEEE10deallocateERS2_PS1_m
.Ltmp93:
# %bb.1:
	addq	$8, %rsp
	popq	%rbx
	popq	%rbp
	.cfi_def_cfa %rsp, 8
	retq
.LBB80_2:
	.cfi_def_cfa %rbp, 16
.Ltmp94:
	movq	%rax, %rdi
	callq	__clang_call_terminate
.Lfunc_end80:
	.size	_ZNSt8_Rb_treeIddSt9_IdentityIdESt4lessIdESaIdEE11_M_put_nodeEPSt13_Rb_tree_nodeIdE, .Lfunc_end80-_ZNSt8_Rb_treeIddSt9_IdentityIdESt4lessIdESaIdEE11_M_put_nodeEPSt13_Rb_tree_nodeIdE
	.cfi_endproc
	.section	.gcc_except_table,"a",@progbits
	.p2align	2
GCC_except_table80:
.Lexception16:
	.byte	255                     # @LPStart Encoding = omit
	.byte	3                       # @TType Encoding = udata4
	.uleb128 .Lttbase4-.Lttbaseref4
.Lttbaseref4:
	.byte	1                       # Call site Encoding = uleb128
	.uleb128 .Lcst_end16-.Lcst_begin16
.Lcst_begin16:
	.uleb128 .Ltmp92-.Lfunc_begin16 # >> Call Site 1 <<
	.uleb128 .Ltmp93-.Ltmp92        #   Call between .Ltmp92 and .Ltmp93
	.uleb128 .Ltmp94-.Lfunc_begin16 #     jumps to .Ltmp94
	.byte	1                       #   On action: 1
.Lcst_end16:
	.byte	1                       # >> Action Record 1 <<
                                        #   Catch TypeInfo 1
	.byte	0                       #   No further actions
	.p2align	2
                                        # >> Catch TypeInfos <<
	.long	0                       # TypeInfo 1
.Lttbase4:
	.p2align	2
                                        # -- End function
	.section	.text._ZNSt16allocator_traitsISaISt13_Rb_tree_nodeIdEEE7destroyIdEEvRS2_PT_,"axG",@progbits,_ZNSt16allocator_traitsISaISt13_Rb_tree_nodeIdEEE7destroyIdEEvRS2_PT_,comdat
	.weak	_ZNSt16allocator_traitsISaISt13_Rb_tree_nodeIdEEE7destroyIdEEvRS2_PT_ # -- Begin function _ZNSt16allocator_traitsISaISt13_Rb_tree_nodeIdEEE7destroyIdEEvRS2_PT_
	.p2align	4, 0x90
	.type	_ZNSt16allocator_traitsISaISt13_Rb_tree_nodeIdEEE7destroyIdEEvRS2_PT_,@function
_ZNSt16allocator_traitsISaISt13_Rb_tree_nodeIdEEE7destroyIdEEvRS2_PT_: # @_ZNSt16allocator_traitsISaISt13_Rb_tree_nodeIdEEE7destroyIdEEvRS2_PT_
	.cfi_startproc
# %bb.0:
	pushq	%rbp
	.cfi_def_cfa_offset 16
	.cfi_offset %rbp, -16
	movq	%rsp, %rbp
	.cfi_def_cfa_register %rbp
	popq	%rbp
	.cfi_def_cfa %rsp, 8
	jmp	_ZN9__gnu_cxx13new_allocatorISt13_Rb_tree_nodeIdEE7destroyIdEEvPT_ # TAILCALL
.Lfunc_end81:
	.size	_ZNSt16allocator_traitsISaISt13_Rb_tree_nodeIdEEE7destroyIdEEvRS2_PT_, .Lfunc_end81-_ZNSt16allocator_traitsISaISt13_Rb_tree_nodeIdEEE7destroyIdEEvRS2_PT_
	.cfi_endproc
                                        # -- End function
	.section	.text._ZNSt8_Rb_treeIddSt9_IdentityIdESt4lessIdESaIdEE21_M_get_Node_allocatorEv,"axG",@progbits,_ZNSt8_Rb_treeIddSt9_IdentityIdESt4lessIdESaIdEE21_M_get_Node_allocatorEv,comdat
	.weak	_ZNSt8_Rb_treeIddSt9_IdentityIdESt4lessIdESaIdEE21_M_get_Node_allocatorEv # -- Begin function _ZNSt8_Rb_treeIddSt9_IdentityIdESt4lessIdESaIdEE21_M_get_Node_allocatorEv
	.p2align	4, 0x90
	.type	_ZNSt8_Rb_treeIddSt9_IdentityIdESt4lessIdESaIdEE21_M_get_Node_allocatorEv,@function
_ZNSt8_Rb_treeIddSt9_IdentityIdESt4lessIdESaIdEE21_M_get_Node_allocatorEv: # @_ZNSt8_Rb_treeIddSt9_IdentityIdESt4lessIdESaIdEE21_M_get_Node_allocatorEv
	.cfi_startproc
# %bb.0:
	pushq	%rbp
	.cfi_def_cfa_offset 16
	.cfi_offset %rbp, -16
	movq	%rsp, %rbp
	.cfi_def_cfa_register %rbp
	movq	%rdi, %rax
	popq	%rbp
	.cfi_def_cfa %rsp, 8
	retq
.Lfunc_end82:
	.size	_ZNSt8_Rb_treeIddSt9_IdentityIdESt4lessIdESaIdEE21_M_get_Node_allocatorEv, .Lfunc_end82-_ZNSt8_Rb_treeIddSt9_IdentityIdESt4lessIdESaIdEE21_M_get_Node_allocatorEv
	.cfi_endproc
                                        # -- End function
	.section	.text._ZNSt13_Rb_tree_nodeIdE9_M_valptrEv,"axG",@progbits,_ZNSt13_Rb_tree_nodeIdE9_M_valptrEv,comdat
	.weak	_ZNSt13_Rb_tree_nodeIdE9_M_valptrEv # -- Begin function _ZNSt13_Rb_tree_nodeIdE9_M_valptrEv
	.p2align	4, 0x90
	.type	_ZNSt13_Rb_tree_nodeIdE9_M_valptrEv,@function
_ZNSt13_Rb_tree_nodeIdE9_M_valptrEv:    # @_ZNSt13_Rb_tree_nodeIdE9_M_valptrEv
	.cfi_startproc
# %bb.0:
	pushq	%rbp
	.cfi_def_cfa_offset 16
	.cfi_offset %rbp, -16
	movq	%rsp, %rbp
	.cfi_def_cfa_register %rbp
	addq	$32, %rdi
	popq	%rbp
	.cfi_def_cfa %rsp, 8
	jmp	_ZN9__gnu_cxx16__aligned_membufIdE6_M_ptrEv # TAILCALL
.Lfunc_end83:
	.size	_ZNSt13_Rb_tree_nodeIdE9_M_valptrEv, .Lfunc_end83-_ZNSt13_Rb_tree_nodeIdE9_M_valptrEv
	.cfi_endproc
                                        # -- End function
	.section	.text._ZN9__gnu_cxx13new_allocatorISt13_Rb_tree_nodeIdEE7destroyIdEEvPT_,"axG",@progbits,_ZN9__gnu_cxx13new_allocatorISt13_Rb_tree_nodeIdEE7destroyIdEEvPT_,comdat
	.weak	_ZN9__gnu_cxx13new_allocatorISt13_Rb_tree_nodeIdEE7destroyIdEEvPT_ # -- Begin function _ZN9__gnu_cxx13new_allocatorISt13_Rb_tree_nodeIdEE7destroyIdEEvPT_
	.p2align	4, 0x90
	.type	_ZN9__gnu_cxx13new_allocatorISt13_Rb_tree_nodeIdEE7destroyIdEEvPT_,@function
_ZN9__gnu_cxx13new_allocatorISt13_Rb_tree_nodeIdEE7destroyIdEEvPT_: # @_ZN9__gnu_cxx13new_allocatorISt13_Rb_tree_nodeIdEE7destroyIdEEvPT_
	.cfi_startproc
# %bb.0:
	pushq	%rbp
	.cfi_def_cfa_offset 16
	.cfi_offset %rbp, -16
	movq	%rsp, %rbp
	.cfi_def_cfa_register %rbp
	popq	%rbp
	.cfi_def_cfa %rsp, 8
	retq
.Lfunc_end84:
	.size	_ZN9__gnu_cxx13new_allocatorISt13_Rb_tree_nodeIdEE7destroyIdEEvPT_, .Lfunc_end84-_ZN9__gnu_cxx13new_allocatorISt13_Rb_tree_nodeIdEE7destroyIdEEvPT_
	.cfi_endproc
                                        # -- End function
	.section	.text._ZNSt16allocator_traitsISaISt13_Rb_tree_nodeIdEEE10deallocateERS2_PS1_m,"axG",@progbits,_ZNSt16allocator_traitsISaISt13_Rb_tree_nodeIdEEE10deallocateERS2_PS1_m,comdat
	.weak	_ZNSt16allocator_traitsISaISt13_Rb_tree_nodeIdEEE10deallocateERS2_PS1_m # -- Begin function _ZNSt16allocator_traitsISaISt13_Rb_tree_nodeIdEEE10deallocateERS2_PS1_m
	.p2align	4, 0x90
	.type	_ZNSt16allocator_traitsISaISt13_Rb_tree_nodeIdEEE10deallocateERS2_PS1_m,@function
_ZNSt16allocator_traitsISaISt13_Rb_tree_nodeIdEEE10deallocateERS2_PS1_m: # @_ZNSt16allocator_traitsISaISt13_Rb_tree_nodeIdEEE10deallocateERS2_PS1_m
	.cfi_startproc
# %bb.0:
	pushq	%rbp
	.cfi_def_cfa_offset 16
	.cfi_offset %rbp, -16
	movq	%rsp, %rbp
	.cfi_def_cfa_register %rbp
	popq	%rbp
	.cfi_def_cfa %rsp, 8
	jmp	_ZN9__gnu_cxx13new_allocatorISt13_Rb_tree_nodeIdEE10deallocateEPS2_m # TAILCALL
.Lfunc_end85:
	.size	_ZNSt16allocator_traitsISaISt13_Rb_tree_nodeIdEEE10deallocateERS2_PS1_m, .Lfunc_end85-_ZNSt16allocator_traitsISaISt13_Rb_tree_nodeIdEEE10deallocateERS2_PS1_m
	.cfi_endproc
                                        # -- End function
	.section	.text._ZN9__gnu_cxx13new_allocatorISt13_Rb_tree_nodeIdEE10deallocateEPS2_m,"axG",@progbits,_ZN9__gnu_cxx13new_allocatorISt13_Rb_tree_nodeIdEE10deallocateEPS2_m,comdat
	.weak	_ZN9__gnu_cxx13new_allocatorISt13_Rb_tree_nodeIdEE10deallocateEPS2_m # -- Begin function _ZN9__gnu_cxx13new_allocatorISt13_Rb_tree_nodeIdEE10deallocateEPS2_m
	.p2align	4, 0x90
	.type	_ZN9__gnu_cxx13new_allocatorISt13_Rb_tree_nodeIdEE10deallocateEPS2_m,@function
_ZN9__gnu_cxx13new_allocatorISt13_Rb_tree_nodeIdEE10deallocateEPS2_m: # @_ZN9__gnu_cxx13new_allocatorISt13_Rb_tree_nodeIdEE10deallocateEPS2_m
	.cfi_startproc
# %bb.0:
	pushq	%rbp
	.cfi_def_cfa_offset 16
	.cfi_offset %rbp, -16
	movq	%rsp, %rbp
	.cfi_def_cfa_register %rbp
	movq	%rsi, %rdi
	popq	%rbp
	.cfi_def_cfa %rsp, 8
	jmp	_ZdlPv                  # TAILCALL
.Lfunc_end86:
	.size	_ZN9__gnu_cxx13new_allocatorISt13_Rb_tree_nodeIdEE10deallocateEPS2_m, .Lfunc_end86-_ZN9__gnu_cxx13new_allocatorISt13_Rb_tree_nodeIdEE10deallocateEPS2_m
	.cfi_endproc
                                        # -- End function
	.section	.text._ZNSaISt13_Rb_tree_nodeIdEED2Ev,"axG",@progbits,_ZNSaISt13_Rb_tree_nodeIdEED2Ev,comdat
	.weak	_ZNSaISt13_Rb_tree_nodeIdEED2Ev # -- Begin function _ZNSaISt13_Rb_tree_nodeIdEED2Ev
	.p2align	4, 0x90
	.type	_ZNSaISt13_Rb_tree_nodeIdEED2Ev,@function
_ZNSaISt13_Rb_tree_nodeIdEED2Ev:        # @_ZNSaISt13_Rb_tree_nodeIdEED2Ev
	.cfi_startproc
# %bb.0:
	pushq	%rbp
	.cfi_def_cfa_offset 16
	.cfi_offset %rbp, -16
	movq	%rsp, %rbp
	.cfi_def_cfa_register %rbp
	popq	%rbp
	.cfi_def_cfa %rsp, 8
	jmp	_ZN9__gnu_cxx13new_allocatorISt13_Rb_tree_nodeIdEED2Ev # TAILCALL
.Lfunc_end87:
	.size	_ZNSaISt13_Rb_tree_nodeIdEED2Ev, .Lfunc_end87-_ZNSaISt13_Rb_tree_nodeIdEED2Ev
	.cfi_endproc
                                        # -- End function
	.section	.text._ZN9__gnu_cxx13new_allocatorISt13_Rb_tree_nodeIdEED2Ev,"axG",@progbits,_ZN9__gnu_cxx13new_allocatorISt13_Rb_tree_nodeIdEED2Ev,comdat
	.weak	_ZN9__gnu_cxx13new_allocatorISt13_Rb_tree_nodeIdEED2Ev # -- Begin function _ZN9__gnu_cxx13new_allocatorISt13_Rb_tree_nodeIdEED2Ev
	.p2align	4, 0x90
	.type	_ZN9__gnu_cxx13new_allocatorISt13_Rb_tree_nodeIdEED2Ev,@function
_ZN9__gnu_cxx13new_allocatorISt13_Rb_tree_nodeIdEED2Ev: # @_ZN9__gnu_cxx13new_allocatorISt13_Rb_tree_nodeIdEED2Ev
	.cfi_startproc
# %bb.0:
	pushq	%rbp
	.cfi_def_cfa_offset 16
	.cfi_offset %rbp, -16
	movq	%rsp, %rbp
	.cfi_def_cfa_register %rbp
	popq	%rbp
	.cfi_def_cfa %rsp, 8
	retq
.Lfunc_end88:
	.size	_ZN9__gnu_cxx13new_allocatorISt13_Rb_tree_nodeIdEED2Ev, .Lfunc_end88-_ZN9__gnu_cxx13new_allocatorISt13_Rb_tree_nodeIdEED2Ev
	.cfi_endproc
                                        # -- End function
	.section	.text._ZN9__gnu_cxx13new_allocatorIdED2Ev,"axG",@progbits,_ZN9__gnu_cxx13new_allocatorIdED2Ev,comdat
	.weak	_ZN9__gnu_cxx13new_allocatorIdED2Ev # -- Begin function _ZN9__gnu_cxx13new_allocatorIdED2Ev
	.p2align	4, 0x90
	.type	_ZN9__gnu_cxx13new_allocatorIdED2Ev,@function
_ZN9__gnu_cxx13new_allocatorIdED2Ev:    # @_ZN9__gnu_cxx13new_allocatorIdED2Ev
	.cfi_startproc
# %bb.0:
	pushq	%rbp
	.cfi_def_cfa_offset 16
	.cfi_offset %rbp, -16
	movq	%rsp, %rbp
	.cfi_def_cfa_register %rbp
	popq	%rbp
	.cfi_def_cfa %rsp, 8
	retq
.Lfunc_end89:
	.size	_ZN9__gnu_cxx13new_allocatorIdED2Ev, .Lfunc_end89-_ZN9__gnu_cxx13new_allocatorIdED2Ev
	.cfi_endproc
                                        # -- End function
	.section	.text._ZSt8_DestroyIPddEvT_S1_RSaIT0_E,"axG",@progbits,_ZSt8_DestroyIPddEvT_S1_RSaIT0_E,comdat
	.weak	_ZSt8_DestroyIPddEvT_S1_RSaIT0_E # -- Begin function _ZSt8_DestroyIPddEvT_S1_RSaIT0_E
	.p2align	4, 0x90
	.type	_ZSt8_DestroyIPddEvT_S1_RSaIT0_E,@function
_ZSt8_DestroyIPddEvT_S1_RSaIT0_E:       # @_ZSt8_DestroyIPddEvT_S1_RSaIT0_E
	.cfi_startproc
# %bb.0:
	pushq	%rbp
	.cfi_def_cfa_offset 16
	.cfi_offset %rbp, -16
	movq	%rsp, %rbp
	.cfi_def_cfa_register %rbp
	popq	%rbp
	.cfi_def_cfa %rsp, 8
	jmp	_ZSt8_DestroyIPdEvT_S1_ # TAILCALL
.Lfunc_end90:
	.size	_ZSt8_DestroyIPddEvT_S1_RSaIT0_E, .Lfunc_end90-_ZSt8_DestroyIPddEvT_S1_RSaIT0_E
	.cfi_endproc
                                        # -- End function
	.section	.text._ZNSt12_Vector_baseIdSaIdEE19_M_get_Tp_allocatorEv,"axG",@progbits,_ZNSt12_Vector_baseIdSaIdEE19_M_get_Tp_allocatorEv,comdat
	.weak	_ZNSt12_Vector_baseIdSaIdEE19_M_get_Tp_allocatorEv # -- Begin function _ZNSt12_Vector_baseIdSaIdEE19_M_get_Tp_allocatorEv
	.p2align	4, 0x90
	.type	_ZNSt12_Vector_baseIdSaIdEE19_M_get_Tp_allocatorEv,@function
_ZNSt12_Vector_baseIdSaIdEE19_M_get_Tp_allocatorEv: # @_ZNSt12_Vector_baseIdSaIdEE19_M_get_Tp_allocatorEv
	.cfi_startproc
# %bb.0:
	pushq	%rbp
	.cfi_def_cfa_offset 16
	.cfi_offset %rbp, -16
	movq	%rsp, %rbp
	.cfi_def_cfa_register %rbp
	movq	%rdi, %rax
	popq	%rbp
	.cfi_def_cfa %rsp, 8
	retq
.Lfunc_end91:
	.size	_ZNSt12_Vector_baseIdSaIdEE19_M_get_Tp_allocatorEv, .Lfunc_end91-_ZNSt12_Vector_baseIdSaIdEE19_M_get_Tp_allocatorEv
	.cfi_endproc
                                        # -- End function
	.section	.text._ZNSt12_Vector_baseIdSaIdEED2Ev,"axG",@progbits,_ZNSt12_Vector_baseIdSaIdEED2Ev,comdat
	.weak	_ZNSt12_Vector_baseIdSaIdEED2Ev # -- Begin function _ZNSt12_Vector_baseIdSaIdEED2Ev
	.p2align	4, 0x90
	.type	_ZNSt12_Vector_baseIdSaIdEED2Ev,@function
_ZNSt12_Vector_baseIdSaIdEED2Ev:        # @_ZNSt12_Vector_baseIdSaIdEED2Ev
.Lfunc_begin17:
	.cfi_startproc
	.cfi_personality 3, __gxx_personality_v0
	.cfi_lsda 3, .Lexception17
# %bb.0:
	pushq	%rbp
	.cfi_def_cfa_offset 16
	.cfi_offset %rbp, -16
	movq	%rsp, %rbp
	.cfi_def_cfa_register %rbp
	pushq	%r14
	pushq	%rbx
	.cfi_offset %rbx, -32
	.cfi_offset %r14, -24
	movq	%rdi, %rbx
	movq	(%rdi), %rsi
	movq	16(%rdi), %rdx
	subq	%rsi, %rdx
	sarq	$3, %rdx
.Ltmp95:
	callq	_ZNSt12_Vector_baseIdSaIdEE13_M_deallocateEPdm
.Ltmp96:
# %bb.1:
	movq	%rbx, %rdi
	popq	%rbx
	popq	%r14
	popq	%rbp
	.cfi_def_cfa %rsp, 8
	jmp	_ZNSt12_Vector_baseIdSaIdEE12_Vector_implD2Ev # TAILCALL
.LBB92_2:
	.cfi_def_cfa %rbp, 16
.Ltmp97:
	movq	%rax, %r14
	movq	%rbx, %rdi
	callq	_ZNSt12_Vector_baseIdSaIdEE12_Vector_implD2Ev
	movq	%r14, %rdi
	callq	__clang_call_terminate
.Lfunc_end92:
	.size	_ZNSt12_Vector_baseIdSaIdEED2Ev, .Lfunc_end92-_ZNSt12_Vector_baseIdSaIdEED2Ev
	.cfi_endproc
	.section	.gcc_except_table,"a",@progbits
	.p2align	2
GCC_except_table92:
.Lexception17:
	.byte	255                     # @LPStart Encoding = omit
	.byte	3                       # @TType Encoding = udata4
	.uleb128 .Lttbase5-.Lttbaseref5
.Lttbaseref5:
	.byte	1                       # Call site Encoding = uleb128
	.uleb128 .Lcst_end17-.Lcst_begin17
.Lcst_begin17:
	.uleb128 .Ltmp95-.Lfunc_begin17 # >> Call Site 1 <<
	.uleb128 .Ltmp96-.Ltmp95        #   Call between .Ltmp95 and .Ltmp96
	.uleb128 .Ltmp97-.Lfunc_begin17 #     jumps to .Ltmp97
	.byte	1                       #   On action: 1
.Lcst_end17:
	.byte	1                       # >> Action Record 1 <<
                                        #   Catch TypeInfo 1
	.byte	0                       #   No further actions
	.p2align	2
                                        # >> Catch TypeInfos <<
	.long	0                       # TypeInfo 1
.Lttbase5:
	.p2align	2
                                        # -- End function
	.section	.text._ZSt8_DestroyIPdEvT_S1_,"axG",@progbits,_ZSt8_DestroyIPdEvT_S1_,comdat
	.weak	_ZSt8_DestroyIPdEvT_S1_ # -- Begin function _ZSt8_DestroyIPdEvT_S1_
	.p2align	4, 0x90
	.type	_ZSt8_DestroyIPdEvT_S1_,@function
_ZSt8_DestroyIPdEvT_S1_:                # @_ZSt8_DestroyIPdEvT_S1_
	.cfi_startproc
# %bb.0:
	pushq	%rbp
	.cfi_def_cfa_offset 16
	.cfi_offset %rbp, -16
	movq	%rsp, %rbp
	.cfi_def_cfa_register %rbp
	popq	%rbp
	.cfi_def_cfa %rsp, 8
	jmp	_ZNSt12_Destroy_auxILb1EE9__destroyIPdEEvT_S3_ # TAILCALL
.Lfunc_end93:
	.size	_ZSt8_DestroyIPdEvT_S1_, .Lfunc_end93-_ZSt8_DestroyIPdEvT_S1_
	.cfi_endproc
                                        # -- End function
	.section	.text._ZNSt12_Destroy_auxILb1EE9__destroyIPdEEvT_S3_,"axG",@progbits,_ZNSt12_Destroy_auxILb1EE9__destroyIPdEEvT_S3_,comdat
	.weak	_ZNSt12_Destroy_auxILb1EE9__destroyIPdEEvT_S3_ # -- Begin function _ZNSt12_Destroy_auxILb1EE9__destroyIPdEEvT_S3_
	.p2align	4, 0x90
	.type	_ZNSt12_Destroy_auxILb1EE9__destroyIPdEEvT_S3_,@function
_ZNSt12_Destroy_auxILb1EE9__destroyIPdEEvT_S3_: # @_ZNSt12_Destroy_auxILb1EE9__destroyIPdEEvT_S3_
	.cfi_startproc
# %bb.0:
	pushq	%rbp
	.cfi_def_cfa_offset 16
	.cfi_offset %rbp, -16
	movq	%rsp, %rbp
	.cfi_def_cfa_register %rbp
	popq	%rbp
	.cfi_def_cfa %rsp, 8
	retq
.Lfunc_end94:
	.size	_ZNSt12_Destroy_auxILb1EE9__destroyIPdEEvT_S3_, .Lfunc_end94-_ZNSt12_Destroy_auxILb1EE9__destroyIPdEEvT_S3_
	.cfi_endproc
                                        # -- End function
	.section	.text._ZNSt12_Vector_baseIdSaIdEE13_M_deallocateEPdm,"axG",@progbits,_ZNSt12_Vector_baseIdSaIdEE13_M_deallocateEPdm,comdat
	.weak	_ZNSt12_Vector_baseIdSaIdEE13_M_deallocateEPdm # -- Begin function _ZNSt12_Vector_baseIdSaIdEE13_M_deallocateEPdm
	.p2align	4, 0x90
	.type	_ZNSt12_Vector_baseIdSaIdEE13_M_deallocateEPdm,@function
_ZNSt12_Vector_baseIdSaIdEE13_M_deallocateEPdm: # @_ZNSt12_Vector_baseIdSaIdEE13_M_deallocateEPdm
	.cfi_startproc
# %bb.0:
	pushq	%rbp
	.cfi_def_cfa_offset 16
	.cfi_offset %rbp, -16
	movq	%rsp, %rbp
	.cfi_def_cfa_register %rbp
	testq	%rsi, %rsi
	je	.LBB95_1
# %bb.2:
	popq	%rbp
	.cfi_def_cfa %rsp, 8
	jmp	_ZNSt16allocator_traitsISaIdEE10deallocateERS0_Pdm # TAILCALL
.LBB95_1:
	.cfi_def_cfa %rbp, 16
	popq	%rbp
	.cfi_def_cfa %rsp, 8
	retq
.Lfunc_end95:
	.size	_ZNSt12_Vector_baseIdSaIdEE13_M_deallocateEPdm, .Lfunc_end95-_ZNSt12_Vector_baseIdSaIdEE13_M_deallocateEPdm
	.cfi_endproc
                                        # -- End function
	.section	.text._ZNSt12_Vector_baseIdSaIdEE12_Vector_implD2Ev,"axG",@progbits,_ZNSt12_Vector_baseIdSaIdEE12_Vector_implD2Ev,comdat
	.weak	_ZNSt12_Vector_baseIdSaIdEE12_Vector_implD2Ev # -- Begin function _ZNSt12_Vector_baseIdSaIdEE12_Vector_implD2Ev
	.p2align	4, 0x90
	.type	_ZNSt12_Vector_baseIdSaIdEE12_Vector_implD2Ev,@function
_ZNSt12_Vector_baseIdSaIdEE12_Vector_implD2Ev: # @_ZNSt12_Vector_baseIdSaIdEE12_Vector_implD2Ev
	.cfi_startproc
# %bb.0:
	pushq	%rbp
	.cfi_def_cfa_offset 16
	.cfi_offset %rbp, -16
	movq	%rsp, %rbp
	.cfi_def_cfa_register %rbp
	popq	%rbp
	.cfi_def_cfa %rsp, 8
	jmp	_ZNSaIdED2Ev            # TAILCALL
.Lfunc_end96:
	.size	_ZNSt12_Vector_baseIdSaIdEE12_Vector_implD2Ev, .Lfunc_end96-_ZNSt12_Vector_baseIdSaIdEE12_Vector_implD2Ev
	.cfi_endproc
                                        # -- End function
	.section	.text._ZNSt16allocator_traitsISaIdEE10deallocateERS0_Pdm,"axG",@progbits,_ZNSt16allocator_traitsISaIdEE10deallocateERS0_Pdm,comdat
	.weak	_ZNSt16allocator_traitsISaIdEE10deallocateERS0_Pdm # -- Begin function _ZNSt16allocator_traitsISaIdEE10deallocateERS0_Pdm
	.p2align	4, 0x90
	.type	_ZNSt16allocator_traitsISaIdEE10deallocateERS0_Pdm,@function
_ZNSt16allocator_traitsISaIdEE10deallocateERS0_Pdm: # @_ZNSt16allocator_traitsISaIdEE10deallocateERS0_Pdm
	.cfi_startproc
# %bb.0:
	pushq	%rbp
	.cfi_def_cfa_offset 16
	.cfi_offset %rbp, -16
	movq	%rsp, %rbp
	.cfi_def_cfa_register %rbp
	popq	%rbp
	.cfi_def_cfa %rsp, 8
	jmp	_ZN9__gnu_cxx13new_allocatorIdE10deallocateEPdm # TAILCALL
.Lfunc_end97:
	.size	_ZNSt16allocator_traitsISaIdEE10deallocateERS0_Pdm, .Lfunc_end97-_ZNSt16allocator_traitsISaIdEE10deallocateERS0_Pdm
	.cfi_endproc
                                        # -- End function
	.section	.text._ZN9__gnu_cxx13new_allocatorIdE10deallocateEPdm,"axG",@progbits,_ZN9__gnu_cxx13new_allocatorIdE10deallocateEPdm,comdat
	.weak	_ZN9__gnu_cxx13new_allocatorIdE10deallocateEPdm # -- Begin function _ZN9__gnu_cxx13new_allocatorIdE10deallocateEPdm
	.p2align	4, 0x90
	.type	_ZN9__gnu_cxx13new_allocatorIdE10deallocateEPdm,@function
_ZN9__gnu_cxx13new_allocatorIdE10deallocateEPdm: # @_ZN9__gnu_cxx13new_allocatorIdE10deallocateEPdm
	.cfi_startproc
# %bb.0:
	pushq	%rbp
	.cfi_def_cfa_offset 16
	.cfi_offset %rbp, -16
	movq	%rsp, %rbp
	.cfi_def_cfa_register %rbp
	movq	%rsi, %rdi
	popq	%rbp
	.cfi_def_cfa %rsp, 8
	jmp	_ZdlPv                  # TAILCALL
.Lfunc_end98:
	.size	_ZN9__gnu_cxx13new_allocatorIdE10deallocateEPdm, .Lfunc_end98-_ZN9__gnu_cxx13new_allocatorIdE10deallocateEPdm
	.cfi_endproc
                                        # -- End function
	.section	.text._ZSt14__copy_move_a2ILb0EPdS0_ET1_T0_S2_S1_,"axG",@progbits,_ZSt14__copy_move_a2ILb0EPdS0_ET1_T0_S2_S1_,comdat
	.weak	_ZSt14__copy_move_a2ILb0EPdS0_ET1_T0_S2_S1_ # -- Begin function _ZSt14__copy_move_a2ILb0EPdS0_ET1_T0_S2_S1_
	.p2align	4, 0x90
	.type	_ZSt14__copy_move_a2ILb0EPdS0_ET1_T0_S2_S1_,@function
_ZSt14__copy_move_a2ILb0EPdS0_ET1_T0_S2_S1_: # @_ZSt14__copy_move_a2ILb0EPdS0_ET1_T0_S2_S1_
	.cfi_startproc
# %bb.0:
	pushq	%rbp
	.cfi_def_cfa_offset 16
	.cfi_offset %rbp, -16
	movq	%rsp, %rbp
	.cfi_def_cfa_register %rbp
	pushq	%r15
	pushq	%r14
	pushq	%rbx
	pushq	%rax
	.cfi_offset %rbx, -40
	.cfi_offset %r14, -32
	.cfi_offset %r15, -24
	movq	%rdx, %rbx
	movq	%rsi, %r14
	movq	%rdx, -32(%rbp)
	callq	_ZSt12__niter_baseIPdET_S1_
	movq	%rax, %r15
	movq	%r14, %rdi
	callq	_ZSt12__niter_baseIPdET_S1_
	movq	%rax, %r14
	movq	%rbx, %rdi
	callq	_ZSt12__niter_baseIPdET_S1_
	movq	%r15, %rdi
	movq	%r14, %rsi
	movq	%rax, %rdx
	callq	_ZSt13__copy_move_aILb0EPdS0_ET1_T0_S2_S1_
	leaq	-32(%rbp), %rdi
	movq	%rax, %rsi
	callq	_ZSt12__niter_wrapIPdET_RKS1_S1_
	addq	$8, %rsp
	popq	%rbx
	popq	%r14
	popq	%r15
	popq	%rbp
	.cfi_def_cfa %rsp, 8
	retq
.Lfunc_end99:
	.size	_ZSt14__copy_move_a2ILb0EPdS0_ET1_T0_S2_S1_, .Lfunc_end99-_ZSt14__copy_move_a2ILb0EPdS0_ET1_T0_S2_S1_
	.cfi_endproc
                                        # -- End function
	.section	.text._ZSt12__miter_baseIPdET_S1_,"axG",@progbits,_ZSt12__miter_baseIPdET_S1_,comdat
	.weak	_ZSt12__miter_baseIPdET_S1_ # -- Begin function _ZSt12__miter_baseIPdET_S1_
	.p2align	4, 0x90
	.type	_ZSt12__miter_baseIPdET_S1_,@function
_ZSt12__miter_baseIPdET_S1_:            # @_ZSt12__miter_baseIPdET_S1_
	.cfi_startproc
# %bb.0:
	pushq	%rbp
	.cfi_def_cfa_offset 16
	.cfi_offset %rbp, -16
	movq	%rsp, %rbp
	.cfi_def_cfa_register %rbp
	movq	%rdi, %rax
	popq	%rbp
	.cfi_def_cfa %rsp, 8
	retq
.Lfunc_end100:
	.size	_ZSt12__miter_baseIPdET_S1_, .Lfunc_end100-_ZSt12__miter_baseIPdET_S1_
	.cfi_endproc
                                        # -- End function
	.section	.text._ZSt12__niter_wrapIPdET_RKS1_S1_,"axG",@progbits,_ZSt12__niter_wrapIPdET_RKS1_S1_,comdat
	.weak	_ZSt12__niter_wrapIPdET_RKS1_S1_ # -- Begin function _ZSt12__niter_wrapIPdET_RKS1_S1_
	.p2align	4, 0x90
	.type	_ZSt12__niter_wrapIPdET_RKS1_S1_,@function
_ZSt12__niter_wrapIPdET_RKS1_S1_:       # @_ZSt12__niter_wrapIPdET_RKS1_S1_
	.cfi_startproc
# %bb.0:
	pushq	%rbp
	.cfi_def_cfa_offset 16
	.cfi_offset %rbp, -16
	movq	%rsp, %rbp
	.cfi_def_cfa_register %rbp
	movq	%rsi, %rax
	popq	%rbp
	.cfi_def_cfa %rsp, 8
	retq
.Lfunc_end101:
	.size	_ZSt12__niter_wrapIPdET_RKS1_S1_, .Lfunc_end101-_ZSt12__niter_wrapIPdET_RKS1_S1_
	.cfi_endproc
                                        # -- End function
	.section	.text._ZSt13__copy_move_aILb0EPdS0_ET1_T0_S2_S1_,"axG",@progbits,_ZSt13__copy_move_aILb0EPdS0_ET1_T0_S2_S1_,comdat
	.weak	_ZSt13__copy_move_aILb0EPdS0_ET1_T0_S2_S1_ # -- Begin function _ZSt13__copy_move_aILb0EPdS0_ET1_T0_S2_S1_
	.p2align	4, 0x90
	.type	_ZSt13__copy_move_aILb0EPdS0_ET1_T0_S2_S1_,@function
_ZSt13__copy_move_aILb0EPdS0_ET1_T0_S2_S1_: # @_ZSt13__copy_move_aILb0EPdS0_ET1_T0_S2_S1_
	.cfi_startproc
# %bb.0:
	pushq	%rbp
	.cfi_def_cfa_offset 16
	.cfi_offset %rbp, -16
	movq	%rsp, %rbp
	.cfi_def_cfa_register %rbp
	popq	%rbp
	.cfi_def_cfa %rsp, 8
	jmp	_ZNSt11__copy_moveILb0ELb1ESt26random_access_iterator_tagE8__copy_mIdEEPT_PKS3_S6_S4_ # TAILCALL
.Lfunc_end102:
	.size	_ZSt13__copy_move_aILb0EPdS0_ET1_T0_S2_S1_, .Lfunc_end102-_ZSt13__copy_move_aILb0EPdS0_ET1_T0_S2_S1_
	.cfi_endproc
                                        # -- End function
	.section	.text._ZSt12__niter_baseIPdET_S1_,"axG",@progbits,_ZSt12__niter_baseIPdET_S1_,comdat
	.weak	_ZSt12__niter_baseIPdET_S1_ # -- Begin function _ZSt12__niter_baseIPdET_S1_
	.p2align	4, 0x90
	.type	_ZSt12__niter_baseIPdET_S1_,@function
_ZSt12__niter_baseIPdET_S1_:            # @_ZSt12__niter_baseIPdET_S1_
	.cfi_startproc
# %bb.0:
	pushq	%rbp
	.cfi_def_cfa_offset 16
	.cfi_offset %rbp, -16
	movq	%rsp, %rbp
	.cfi_def_cfa_register %rbp
	movq	%rdi, %rax
	popq	%rbp
	.cfi_def_cfa %rsp, 8
	retq
.Lfunc_end103:
	.size	_ZSt12__niter_baseIPdET_S1_, .Lfunc_end103-_ZSt12__niter_baseIPdET_S1_
	.cfi_endproc
                                        # -- End function
	.section	.text._ZNSt11__copy_moveILb0ELb1ESt26random_access_iterator_tagE8__copy_mIdEEPT_PKS3_S6_S4_,"axG",@progbits,_ZNSt11__copy_moveILb0ELb1ESt26random_access_iterator_tagE8__copy_mIdEEPT_PKS3_S6_S4_,comdat
	.weak	_ZNSt11__copy_moveILb0ELb1ESt26random_access_iterator_tagE8__copy_mIdEEPT_PKS3_S6_S4_ # -- Begin function _ZNSt11__copy_moveILb0ELb1ESt26random_access_iterator_tagE8__copy_mIdEEPT_PKS3_S6_S4_
	.p2align	4, 0x90
	.type	_ZNSt11__copy_moveILb0ELb1ESt26random_access_iterator_tagE8__copy_mIdEEPT_PKS3_S6_S4_,@function
_ZNSt11__copy_moveILb0ELb1ESt26random_access_iterator_tagE8__copy_mIdEEPT_PKS3_S6_S4_: # @_ZNSt11__copy_moveILb0ELb1ESt26random_access_iterator_tagE8__copy_mIdEEPT_PKS3_S6_S4_
	.cfi_startproc
# %bb.0:
	pushq	%rbp
	.cfi_def_cfa_offset 16
	.cfi_offset %rbp, -16
	movq	%rsp, %rbp
	.cfi_def_cfa_register %rbp
	pushq	%r14
	pushq	%rbx
	.cfi_offset %rbx, -32
	.cfi_offset %r14, -24
	movq	%rdx, %r14
	movq	%rsi, %rdx
	subq	%rdi, %rdx
	movq	%rdx, %rbx
	sarq	$3, %rbx
	testq	%rdx, %rdx
	je	.LBB104_2
# %bb.1:
	movq	%rdi, %rsi
	movq	%r14, %rdi
	callq	memmove
.LBB104_2:
	leaq	(%r14,%rbx,8), %rax
	popq	%rbx
	popq	%r14
	popq	%rbp
	.cfi_def_cfa %rsp, 8
	retq
.Lfunc_end104:
	.size	_ZNSt11__copy_moveILb0ELb1ESt26random_access_iterator_tagE8__copy_mIdEEPT_PKS3_S6_S4_, .Lfunc_end104-_ZNSt11__copy_moveILb0ELb1ESt26random_access_iterator_tagE8__copy_mIdEEPT_PKS3_S6_S4_
	.cfi_endproc
                                        # -- End function
	.section	.text._ZSt6__sortIPdN9__gnu_cxx5__ops15_Iter_less_iterEEvT_S4_T0_,"axG",@progbits,_ZSt6__sortIPdN9__gnu_cxx5__ops15_Iter_less_iterEEvT_S4_T0_,comdat
	.weak	_ZSt6__sortIPdN9__gnu_cxx5__ops15_Iter_less_iterEEvT_S4_T0_ # -- Begin function _ZSt6__sortIPdN9__gnu_cxx5__ops15_Iter_less_iterEEvT_S4_T0_
	.p2align	4, 0x90
	.type	_ZSt6__sortIPdN9__gnu_cxx5__ops15_Iter_less_iterEEvT_S4_T0_,@function
_ZSt6__sortIPdN9__gnu_cxx5__ops15_Iter_less_iterEEvT_S4_T0_: # @_ZSt6__sortIPdN9__gnu_cxx5__ops15_Iter_less_iterEEvT_S4_T0_
	.cfi_startproc
# %bb.0:
	cmpq	%rsi, %rdi
	je	.LBB105_1
# %bb.2:
	pushq	%rbp
	.cfi_def_cfa_offset 16
	.cfi_offset %rbp, -16
	movq	%rsp, %rbp
	.cfi_def_cfa_register %rbp
	pushq	%r14
	pushq	%rbx
	.cfi_offset %rbx, -32
	.cfi_offset %r14, -24
	movq	%rsi, %r14
	movq	%rdi, %rbx
	movq	%rsi, %rdi
	subq	%rbx, %rdi
	sarq	$3, %rdi
	callq	_ZSt4__lgl
	leaq	(%rax,%rax), %rdx
	movq	%rbx, %rdi
	movq	%r14, %rsi
	callq	_ZSt16__introsort_loopIPdlN9__gnu_cxx5__ops15_Iter_less_iterEEvT_S4_T0_T1_
	movq	%rbx, %rdi
	movq	%r14, %rsi
	popq	%rbx
	popq	%r14
	popq	%rbp
	.cfi_def_cfa %rsp, 8
	jmp	_ZSt22__final_insertion_sortIPdN9__gnu_cxx5__ops15_Iter_less_iterEEvT_S4_T0_ # TAILCALL
.LBB105_1:
	retq
.Lfunc_end105:
	.size	_ZSt6__sortIPdN9__gnu_cxx5__ops15_Iter_less_iterEEvT_S4_T0_, .Lfunc_end105-_ZSt6__sortIPdN9__gnu_cxx5__ops15_Iter_less_iterEEvT_S4_T0_
	.cfi_endproc
                                        # -- End function
	.section	.text._ZN9__gnu_cxx5__ops16__iter_less_iterEv,"axG",@progbits,_ZN9__gnu_cxx5__ops16__iter_less_iterEv,comdat
	.weak	_ZN9__gnu_cxx5__ops16__iter_less_iterEv # -- Begin function _ZN9__gnu_cxx5__ops16__iter_less_iterEv
	.p2align	4, 0x90
	.type	_ZN9__gnu_cxx5__ops16__iter_less_iterEv,@function
_ZN9__gnu_cxx5__ops16__iter_less_iterEv: # @_ZN9__gnu_cxx5__ops16__iter_less_iterEv
	.cfi_startproc
# %bb.0:
	pushq	%rbp
	.cfi_def_cfa_offset 16
	.cfi_offset %rbp, -16
	movq	%rsp, %rbp
	.cfi_def_cfa_register %rbp
	popq	%rbp
	.cfi_def_cfa %rsp, 8
	retq
.Lfunc_end106:
	.size	_ZN9__gnu_cxx5__ops16__iter_less_iterEv, .Lfunc_end106-_ZN9__gnu_cxx5__ops16__iter_less_iterEv
	.cfi_endproc
                                        # -- End function
	.section	.text._ZSt16__introsort_loopIPdlN9__gnu_cxx5__ops15_Iter_less_iterEEvT_S4_T0_T1_,"axG",@progbits,_ZSt16__introsort_loopIPdlN9__gnu_cxx5__ops15_Iter_less_iterEEvT_S4_T0_T1_,comdat
	.weak	_ZSt16__introsort_loopIPdlN9__gnu_cxx5__ops15_Iter_less_iterEEvT_S4_T0_T1_ # -- Begin function _ZSt16__introsort_loopIPdlN9__gnu_cxx5__ops15_Iter_less_iterEEvT_S4_T0_T1_
	.p2align	4, 0x90
	.type	_ZSt16__introsort_loopIPdlN9__gnu_cxx5__ops15_Iter_less_iterEEvT_S4_T0_T1_,@function
_ZSt16__introsort_loopIPdlN9__gnu_cxx5__ops15_Iter_less_iterEEvT_S4_T0_T1_: # @_ZSt16__introsort_loopIPdlN9__gnu_cxx5__ops15_Iter_less_iterEEvT_S4_T0_T1_
	.cfi_startproc
# %bb.0:
	pushq	%rbp
	.cfi_def_cfa_offset 16
	.cfi_offset %rbp, -16
	movq	%rsp, %rbp
	.cfi_def_cfa_register %rbp
	pushq	%r15
	pushq	%r14
	pushq	%r12
	pushq	%rbx
	.cfi_offset %rbx, -48
	.cfi_offset %r12, -40
	.cfi_offset %r14, -32
	.cfi_offset %r15, -24
	movq	%rdx, %r15
	movq	%rsi, %r12
	movq	%rdi, %r14
	addq	$-1, %r15
	.p2align	4, 0x90
.LBB107_1:                              # =>This Inner Loop Header: Depth=1
	movq	%r12, %rax
	subq	%r14, %rax
	cmpq	$129, %rax
	jl	.LBB107_4
# %bb.2:                                #   in Loop: Header=BB107_1 Depth=1
	cmpq	$-1, %r15
	je	.LBB107_5
# %bb.3:                                #   in Loop: Header=BB107_1 Depth=1
	movq	%r14, %rdi
	movq	%r12, %rsi
	callq	_ZSt27__unguarded_partition_pivotIPdN9__gnu_cxx5__ops15_Iter_less_iterEET_S4_S4_T0_
	movq	%rax, %rbx
	movq	%rax, %rdi
	movq	%r12, %rsi
	movq	%r15, %rdx
	callq	_ZSt16__introsort_loopIPdlN9__gnu_cxx5__ops15_Iter_less_iterEEvT_S4_T0_T1_
	addq	$-1, %r15
	movq	%rbx, %r12
	jmp	.LBB107_1
.LBB107_4:                              # %.loopexit
	popq	%rbx
	popq	%r12
	popq	%r14
	popq	%r15
	popq	%rbp
	.cfi_def_cfa %rsp, 8
	retq
.LBB107_5:
	.cfi_def_cfa %rbp, 16
	movq	%r14, %rdi
	movq	%r12, %rsi
	movq	%r12, %rdx
	popq	%rbx
	popq	%r12
	popq	%r14
	popq	%r15
	popq	%rbp
	.cfi_def_cfa %rsp, 8
	jmp	_ZSt14__partial_sortIPdN9__gnu_cxx5__ops15_Iter_less_iterEEvT_S4_S4_T0_ # TAILCALL
.Lfunc_end107:
	.size	_ZSt16__introsort_loopIPdlN9__gnu_cxx5__ops15_Iter_less_iterEEvT_S4_T0_T1_, .Lfunc_end107-_ZSt16__introsort_loopIPdlN9__gnu_cxx5__ops15_Iter_less_iterEEvT_S4_T0_T1_
	.cfi_endproc
                                        # -- End function
	.section	.text._ZSt4__lgl,"axG",@progbits,_ZSt4__lgl,comdat
	.weak	_ZSt4__lgl              # -- Begin function _ZSt4__lgl
	.p2align	4, 0x90
	.type	_ZSt4__lgl,@function
_ZSt4__lgl:                             # @_ZSt4__lgl
	.cfi_startproc
# %bb.0:
	pushq	%rbp
	.cfi_def_cfa_offset 16
	.cfi_offset %rbp, -16
	movq	%rsp, %rbp
	.cfi_def_cfa_register %rbp
	bsrq	%rdi, %rax
	popq	%rbp
	.cfi_def_cfa %rsp, 8
	retq
.Lfunc_end108:
	.size	_ZSt4__lgl, .Lfunc_end108-_ZSt4__lgl
	.cfi_endproc
                                        # -- End function
	.section	.text._ZSt22__final_insertion_sortIPdN9__gnu_cxx5__ops15_Iter_less_iterEEvT_S4_T0_,"axG",@progbits,_ZSt22__final_insertion_sortIPdN9__gnu_cxx5__ops15_Iter_less_iterEEvT_S4_T0_,comdat
	.weak	_ZSt22__final_insertion_sortIPdN9__gnu_cxx5__ops15_Iter_less_iterEEvT_S4_T0_ # -- Begin function _ZSt22__final_insertion_sortIPdN9__gnu_cxx5__ops15_Iter_less_iterEEvT_S4_T0_
	.p2align	4, 0x90
	.type	_ZSt22__final_insertion_sortIPdN9__gnu_cxx5__ops15_Iter_less_iterEEvT_S4_T0_,@function
_ZSt22__final_insertion_sortIPdN9__gnu_cxx5__ops15_Iter_less_iterEEvT_S4_T0_: # @_ZSt22__final_insertion_sortIPdN9__gnu_cxx5__ops15_Iter_less_iterEEvT_S4_T0_
	.cfi_startproc
# %bb.0:
	pushq	%rbp
	.cfi_def_cfa_offset 16
	.cfi_offset %rbp, -16
	movq	%rsp, %rbp
	.cfi_def_cfa_register %rbp
	pushq	%r14
	pushq	%rbx
	.cfi_offset %rbx, -32
	.cfi_offset %r14, -24
	movq	%rsi, %rbx
	movq	%rsi, %rax
	subq	%rdi, %rax
	cmpq	$129, %rax
	jl	.LBB109_2
# %bb.1:
	leaq	128(%rdi), %r14
	movq	%r14, %rsi
	callq	_ZSt16__insertion_sortIPdN9__gnu_cxx5__ops15_Iter_less_iterEEvT_S4_T0_
	movq	%r14, %rdi
	movq	%rbx, %rsi
	popq	%rbx
	popq	%r14
	popq	%rbp
	.cfi_def_cfa %rsp, 8
	jmp	_ZSt26__unguarded_insertion_sortIPdN9__gnu_cxx5__ops15_Iter_less_iterEEvT_S4_T0_ # TAILCALL
.LBB109_2:
	.cfi_def_cfa %rbp, 16
	movq	%rbx, %rsi
	popq	%rbx
	popq	%r14
	popq	%rbp
	.cfi_def_cfa %rsp, 8
	jmp	_ZSt16__insertion_sortIPdN9__gnu_cxx5__ops15_Iter_less_iterEEvT_S4_T0_ # TAILCALL
.Lfunc_end109:
	.size	_ZSt22__final_insertion_sortIPdN9__gnu_cxx5__ops15_Iter_less_iterEEvT_S4_T0_, .Lfunc_end109-_ZSt22__final_insertion_sortIPdN9__gnu_cxx5__ops15_Iter_less_iterEEvT_S4_T0_
	.cfi_endproc
                                        # -- End function
	.section	.text._ZSt14__partial_sortIPdN9__gnu_cxx5__ops15_Iter_less_iterEEvT_S4_S4_T0_,"axG",@progbits,_ZSt14__partial_sortIPdN9__gnu_cxx5__ops15_Iter_less_iterEEvT_S4_S4_T0_,comdat
	.weak	_ZSt14__partial_sortIPdN9__gnu_cxx5__ops15_Iter_less_iterEEvT_S4_S4_T0_ # -- Begin function _ZSt14__partial_sortIPdN9__gnu_cxx5__ops15_Iter_less_iterEEvT_S4_S4_T0_
	.p2align	4, 0x90
	.type	_ZSt14__partial_sortIPdN9__gnu_cxx5__ops15_Iter_less_iterEEvT_S4_S4_T0_,@function
_ZSt14__partial_sortIPdN9__gnu_cxx5__ops15_Iter_less_iterEEvT_S4_S4_T0_: # @_ZSt14__partial_sortIPdN9__gnu_cxx5__ops15_Iter_less_iterEEvT_S4_S4_T0_
	.cfi_startproc
# %bb.0:
	pushq	%rbp
	.cfi_def_cfa_offset 16
	.cfi_offset %rbp, -16
	movq	%rsp, %rbp
	.cfi_def_cfa_register %rbp
	pushq	%r14
	pushq	%rbx
	subq	$16, %rsp
	.cfi_offset %rbx, -32
	.cfi_offset %r14, -24
	movq	%rsi, %r14
	movq	%rdi, %rbx
	callq	_ZSt13__heap_selectIPdN9__gnu_cxx5__ops15_Iter_less_iterEEvT_S4_S4_T0_
	leaq	-24(%rbp), %rdx
	movq	%rbx, %rdi
	movq	%r14, %rsi
	callq	_ZSt11__sort_heapIPdN9__gnu_cxx5__ops15_Iter_less_iterEEvT_S4_RT0_
	addq	$16, %rsp
	popq	%rbx
	popq	%r14
	popq	%rbp
	.cfi_def_cfa %rsp, 8
	retq
.Lfunc_end110:
	.size	_ZSt14__partial_sortIPdN9__gnu_cxx5__ops15_Iter_less_iterEEvT_S4_S4_T0_, .Lfunc_end110-_ZSt14__partial_sortIPdN9__gnu_cxx5__ops15_Iter_less_iterEEvT_S4_S4_T0_
	.cfi_endproc
                                        # -- End function
	.section	.text._ZSt27__unguarded_partition_pivotIPdN9__gnu_cxx5__ops15_Iter_less_iterEET_S4_S4_T0_,"axG",@progbits,_ZSt27__unguarded_partition_pivotIPdN9__gnu_cxx5__ops15_Iter_less_iterEET_S4_S4_T0_,comdat
	.weak	_ZSt27__unguarded_partition_pivotIPdN9__gnu_cxx5__ops15_Iter_less_iterEET_S4_S4_T0_ # -- Begin function _ZSt27__unguarded_partition_pivotIPdN9__gnu_cxx5__ops15_Iter_less_iterEET_S4_S4_T0_
	.p2align	4, 0x90
	.type	_ZSt27__unguarded_partition_pivotIPdN9__gnu_cxx5__ops15_Iter_less_iterEET_S4_S4_T0_,@function
_ZSt27__unguarded_partition_pivotIPdN9__gnu_cxx5__ops15_Iter_less_iterEET_S4_S4_T0_: # @_ZSt27__unguarded_partition_pivotIPdN9__gnu_cxx5__ops15_Iter_less_iterEET_S4_S4_T0_
	.cfi_startproc
# %bb.0:
	pushq	%rbp
	.cfi_def_cfa_offset 16
	.cfi_offset %rbp, -16
	movq	%rsp, %rbp
	.cfi_def_cfa_register %rbp
	pushq	%r15
	pushq	%r14
	pushq	%rbx
	pushq	%rax
	.cfi_offset %rbx, -40
	.cfi_offset %r14, -32
	.cfi_offset %r15, -24
	movq	%rsi, %r14
	movq	%rdi, %rbx
	movq	%rsi, %rax
	subq	%rdi, %rax
	movq	%rax, %rcx
	sarq	$3, %rcx
	shrq	$63, %rax
	addq	%rcx, %rax
	andq	$-2, %rax
	leaq	(%rdi,%rax,4), %rdx
	leaq	8(%rdi), %r15
	leaq	-8(%rsi), %rcx
	movq	%r15, %rsi
	callq	_ZSt22__move_median_to_firstIPdN9__gnu_cxx5__ops15_Iter_less_iterEEvT_S4_S4_S4_T0_
	movq	%r15, %rdi
	movq	%r14, %rsi
	movq	%rbx, %rdx
	addq	$8, %rsp
	popq	%rbx
	popq	%r14
	popq	%r15
	popq	%rbp
	.cfi_def_cfa %rsp, 8
	jmp	_ZSt21__unguarded_partitionIPdN9__gnu_cxx5__ops15_Iter_less_iterEET_S4_S4_S4_T0_ # TAILCALL
.Lfunc_end111:
	.size	_ZSt27__unguarded_partition_pivotIPdN9__gnu_cxx5__ops15_Iter_less_iterEET_S4_S4_T0_, .Lfunc_end111-_ZSt27__unguarded_partition_pivotIPdN9__gnu_cxx5__ops15_Iter_less_iterEET_S4_S4_T0_
	.cfi_endproc
                                        # -- End function
	.section	.text._ZSt13__heap_selectIPdN9__gnu_cxx5__ops15_Iter_less_iterEEvT_S4_S4_T0_,"axG",@progbits,_ZSt13__heap_selectIPdN9__gnu_cxx5__ops15_Iter_less_iterEEvT_S4_S4_T0_,comdat
	.weak	_ZSt13__heap_selectIPdN9__gnu_cxx5__ops15_Iter_less_iterEEvT_S4_S4_T0_ # -- Begin function _ZSt13__heap_selectIPdN9__gnu_cxx5__ops15_Iter_less_iterEEvT_S4_S4_T0_
	.p2align	4, 0x90
	.type	_ZSt13__heap_selectIPdN9__gnu_cxx5__ops15_Iter_less_iterEEvT_S4_S4_T0_,@function
_ZSt13__heap_selectIPdN9__gnu_cxx5__ops15_Iter_less_iterEEvT_S4_S4_T0_: # @_ZSt13__heap_selectIPdN9__gnu_cxx5__ops15_Iter_less_iterEEvT_S4_S4_T0_
	.cfi_startproc
# %bb.0:
	pushq	%rbp
	.cfi_def_cfa_offset 16
	.cfi_offset %rbp, -16
	movq	%rsp, %rbp
	.cfi_def_cfa_register %rbp
	pushq	%r15
	pushq	%r14
	pushq	%r13
	pushq	%r12
	pushq	%rbx
	pushq	%rax
	.cfi_offset %rbx, -56
	.cfi_offset %r12, -48
	.cfi_offset %r13, -40
	.cfi_offset %r14, -32
	.cfi_offset %r15, -24
	movq	%rdx, %r15
	movq	%rsi, %r14
	movq	%rdi, %r13
	leaq	-48(%rbp), %r12
	movq	%r12, %rdx
	callq	_ZSt11__make_heapIPdN9__gnu_cxx5__ops15_Iter_less_iterEEvT_S4_RT0_
	movq	%r14, %rbx
	jmp	.LBB112_1
	.p2align	4, 0x90
.LBB112_4:                              #   in Loop: Header=BB112_1 Depth=1
	addq	$8, %rbx
.LBB112_1:                              # =>This Inner Loop Header: Depth=1
	cmpq	%r15, %rbx
	jae	.LBB112_5
# %bb.2:                                #   in Loop: Header=BB112_1 Depth=1
	movq	%r12, %rdi
	movq	%rbx, %rsi
	movq	%r13, %rdx
	callq	_ZNK9__gnu_cxx5__ops15_Iter_less_iterclIPdS3_EEbT_T0_
	testb	%al, %al
	je	.LBB112_4
# %bb.3:                                #   in Loop: Header=BB112_1 Depth=1
	movq	%r13, %rdi
	movq	%r14, %rsi
	movq	%rbx, %rdx
	movq	%r12, %rcx
	callq	_ZSt10__pop_heapIPdN9__gnu_cxx5__ops15_Iter_less_iterEEvT_S4_S4_RT0_
	jmp	.LBB112_4
.LBB112_5:
	addq	$8, %rsp
	popq	%rbx
	popq	%r12
	popq	%r13
	popq	%r14
	popq	%r15
	popq	%rbp
	.cfi_def_cfa %rsp, 8
	retq
.Lfunc_end112:
	.size	_ZSt13__heap_selectIPdN9__gnu_cxx5__ops15_Iter_less_iterEEvT_S4_S4_T0_, .Lfunc_end112-_ZSt13__heap_selectIPdN9__gnu_cxx5__ops15_Iter_less_iterEEvT_S4_S4_T0_
	.cfi_endproc
                                        # -- End function
	.section	.text._ZSt11__sort_heapIPdN9__gnu_cxx5__ops15_Iter_less_iterEEvT_S4_RT0_,"axG",@progbits,_ZSt11__sort_heapIPdN9__gnu_cxx5__ops15_Iter_less_iterEEvT_S4_RT0_,comdat
	.weak	_ZSt11__sort_heapIPdN9__gnu_cxx5__ops15_Iter_less_iterEEvT_S4_RT0_ # -- Begin function _ZSt11__sort_heapIPdN9__gnu_cxx5__ops15_Iter_less_iterEEvT_S4_RT0_
	.p2align	4, 0x90
	.type	_ZSt11__sort_heapIPdN9__gnu_cxx5__ops15_Iter_less_iterEEvT_S4_RT0_,@function
_ZSt11__sort_heapIPdN9__gnu_cxx5__ops15_Iter_less_iterEEvT_S4_RT0_: # @_ZSt11__sort_heapIPdN9__gnu_cxx5__ops15_Iter_less_iterEEvT_S4_RT0_
	.cfi_startproc
# %bb.0:
	pushq	%rbp
	.cfi_def_cfa_offset 16
	.cfi_offset %rbp, -16
	movq	%rsp, %rbp
	.cfi_def_cfa_register %rbp
	pushq	%r15
	pushq	%r14
	pushq	%rbx
	pushq	%rax
	.cfi_offset %rbx, -40
	.cfi_offset %r14, -32
	.cfi_offset %r15, -24
	movq	%rdx, %r14
	movq	%rsi, %rbx
	movq	%rdi, %r15
	.p2align	4, 0x90
.LBB113_1:                              # =>This Inner Loop Header: Depth=1
	movq	%rbx, %rax
	subq	%r15, %rax
	cmpq	$9, %rax
	jl	.LBB113_3
# %bb.2:                                #   in Loop: Header=BB113_1 Depth=1
	addq	$-8, %rbx
	movq	%r15, %rdi
	movq	%rbx, %rsi
	movq	%rbx, %rdx
	movq	%r14, %rcx
	callq	_ZSt10__pop_heapIPdN9__gnu_cxx5__ops15_Iter_less_iterEEvT_S4_S4_RT0_
	jmp	.LBB113_1
.LBB113_3:
	addq	$8, %rsp
	popq	%rbx
	popq	%r14
	popq	%r15
	popq	%rbp
	.cfi_def_cfa %rsp, 8
	retq
.Lfunc_end113:
	.size	_ZSt11__sort_heapIPdN9__gnu_cxx5__ops15_Iter_less_iterEEvT_S4_RT0_, .Lfunc_end113-_ZSt11__sort_heapIPdN9__gnu_cxx5__ops15_Iter_less_iterEEvT_S4_RT0_
	.cfi_endproc
                                        # -- End function
	.section	.text._ZSt11__make_heapIPdN9__gnu_cxx5__ops15_Iter_less_iterEEvT_S4_RT0_,"axG",@progbits,_ZSt11__make_heapIPdN9__gnu_cxx5__ops15_Iter_less_iterEEvT_S4_RT0_,comdat
	.weak	_ZSt11__make_heapIPdN9__gnu_cxx5__ops15_Iter_less_iterEEvT_S4_RT0_ # -- Begin function _ZSt11__make_heapIPdN9__gnu_cxx5__ops15_Iter_less_iterEEvT_S4_RT0_
	.p2align	4, 0x90
	.type	_ZSt11__make_heapIPdN9__gnu_cxx5__ops15_Iter_less_iterEEvT_S4_RT0_,@function
_ZSt11__make_heapIPdN9__gnu_cxx5__ops15_Iter_less_iterEEvT_S4_RT0_: # @_ZSt11__make_heapIPdN9__gnu_cxx5__ops15_Iter_less_iterEEvT_S4_RT0_
	.cfi_startproc
# %bb.0:
	pushq	%rbp
	.cfi_def_cfa_offset 16
	.cfi_offset %rbp, -16
	movq	%rsp, %rbp
	.cfi_def_cfa_register %rbp
	pushq	%r15
	pushq	%r14
	pushq	%r13
	pushq	%r12
	pushq	%rbx
	pushq	%rax
	.cfi_offset %rbx, -56
	.cfi_offset %r12, -48
	.cfi_offset %r13, -40
	.cfi_offset %r14, -32
	.cfi_offset %r15, -24
	movq	%rsi, %r15
	subq	%rdi, %r15
	cmpq	$16, %r15
	jl	.LBB114_3
# %bb.1:
	movq	%rdi, %r14
	sarq	$3, %r15
	leaq	-2(%r15), %rax
	shrq	$63, %rax
	leaq	(%r15,%rax), %r12
	addq	$-2, %r12
	sarq	%r12
	leaq	(%rdi,%r12,8), %rbx
	leaq	-48(%rbp), %r13
	.p2align	4, 0x90
.LBB114_2:                              # =>This Inner Loop Header: Depth=1
	movq	%rbx, %rdi
	callq	_ZSt4moveIRdEONSt16remove_referenceIT_E4typeEOS2_
	movq	(%rax), %rax
	movq	%rax, -48(%rbp)
	movq	%r13, %rdi
	callq	_ZSt4moveIRdEONSt16remove_referenceIT_E4typeEOS2_
	movsd	(%rax), %xmm0           # xmm0 = mem[0],zero
	movq	%r14, %rdi
	movq	%r12, %rsi
	movq	%r15, %rdx
	callq	_ZSt13__adjust_heapIPdldN9__gnu_cxx5__ops15_Iter_less_iterEEvT_T0_S5_T1_T2_
	addq	$-8, %rbx
	addq	$-1, %r12
	jb	.LBB114_2
.LBB114_3:                              # %.loopexit
	addq	$8, %rsp
	popq	%rbx
	popq	%r12
	popq	%r13
	popq	%r14
	popq	%r15
	popq	%rbp
	.cfi_def_cfa %rsp, 8
	retq
.Lfunc_end114:
	.size	_ZSt11__make_heapIPdN9__gnu_cxx5__ops15_Iter_less_iterEEvT_S4_RT0_, .Lfunc_end114-_ZSt11__make_heapIPdN9__gnu_cxx5__ops15_Iter_less_iterEEvT_S4_RT0_
	.cfi_endproc
                                        # -- End function
	.section	.text._ZNK9__gnu_cxx5__ops15_Iter_less_iterclIPdS3_EEbT_T0_,"axG",@progbits,_ZNK9__gnu_cxx5__ops15_Iter_less_iterclIPdS3_EEbT_T0_,comdat
	.weak	_ZNK9__gnu_cxx5__ops15_Iter_less_iterclIPdS3_EEbT_T0_ # -- Begin function _ZNK9__gnu_cxx5__ops15_Iter_less_iterclIPdS3_EEbT_T0_
	.p2align	4, 0x90
	.type	_ZNK9__gnu_cxx5__ops15_Iter_less_iterclIPdS3_EEbT_T0_,@function
_ZNK9__gnu_cxx5__ops15_Iter_less_iterclIPdS3_EEbT_T0_: # @_ZNK9__gnu_cxx5__ops15_Iter_less_iterclIPdS3_EEbT_T0_
	.cfi_startproc
# %bb.0:
	pushq	%rbp
	.cfi_def_cfa_offset 16
	.cfi_offset %rbp, -16
	movq	%rsp, %rbp
	.cfi_def_cfa_register %rbp
	movsd	(%rdx), %xmm0           # xmm0 = mem[0],zero
	ucomisd	(%rsi), %xmm0
	seta	%al
	popq	%rbp
	.cfi_def_cfa %rsp, 8
	retq
.Lfunc_end115:
	.size	_ZNK9__gnu_cxx5__ops15_Iter_less_iterclIPdS3_EEbT_T0_, .Lfunc_end115-_ZNK9__gnu_cxx5__ops15_Iter_less_iterclIPdS3_EEbT_T0_
	.cfi_endproc
                                        # -- End function
	.section	.text._ZSt10__pop_heapIPdN9__gnu_cxx5__ops15_Iter_less_iterEEvT_S4_S4_RT0_,"axG",@progbits,_ZSt10__pop_heapIPdN9__gnu_cxx5__ops15_Iter_less_iterEEvT_S4_S4_RT0_,comdat
	.weak	_ZSt10__pop_heapIPdN9__gnu_cxx5__ops15_Iter_less_iterEEvT_S4_S4_RT0_ # -- Begin function _ZSt10__pop_heapIPdN9__gnu_cxx5__ops15_Iter_less_iterEEvT_S4_S4_RT0_
	.p2align	4, 0x90
	.type	_ZSt10__pop_heapIPdN9__gnu_cxx5__ops15_Iter_less_iterEEvT_S4_S4_RT0_,@function
_ZSt10__pop_heapIPdN9__gnu_cxx5__ops15_Iter_less_iterEEvT_S4_S4_RT0_: # @_ZSt10__pop_heapIPdN9__gnu_cxx5__ops15_Iter_less_iterEEvT_S4_S4_RT0_
	.cfi_startproc
# %bb.0:
	pushq	%rbp
	.cfi_def_cfa_offset 16
	.cfi_offset %rbp, -16
	movq	%rsp, %rbp
	.cfi_def_cfa_register %rbp
	pushq	%r15
	pushq	%r14
	pushq	%rbx
	pushq	%rax
	.cfi_offset %rbx, -40
	.cfi_offset %r14, -32
	.cfi_offset %r15, -24
	movq	%rdx, %r14
	movq	%rsi, %rbx
	movq	%rdi, %r15
	movq	%rdx, %rdi
	callq	_ZSt4moveIRdEONSt16remove_referenceIT_E4typeEOS2_
	movq	(%rax), %rax
	movq	%rax, -32(%rbp)
	movq	%r15, %rdi
	callq	_ZSt4moveIRdEONSt16remove_referenceIT_E4typeEOS2_
	movq	(%rax), %rax
	movq	%rax, (%r14)
	subq	%r15, %rbx
	sarq	$3, %rbx
	leaq	-32(%rbp), %rdi
	callq	_ZSt4moveIRdEONSt16remove_referenceIT_E4typeEOS2_
	movsd	(%rax), %xmm0           # xmm0 = mem[0],zero
	movq	%r15, %rdi
	xorl	%esi, %esi
	movq	%rbx, %rdx
	callq	_ZSt13__adjust_heapIPdldN9__gnu_cxx5__ops15_Iter_less_iterEEvT_T0_S5_T1_T2_
	addq	$8, %rsp
	popq	%rbx
	popq	%r14
	popq	%r15
	popq	%rbp
	.cfi_def_cfa %rsp, 8
	retq
.Lfunc_end116:
	.size	_ZSt10__pop_heapIPdN9__gnu_cxx5__ops15_Iter_less_iterEEvT_S4_S4_RT0_, .Lfunc_end116-_ZSt10__pop_heapIPdN9__gnu_cxx5__ops15_Iter_less_iterEEvT_S4_S4_RT0_
	.cfi_endproc
                                        # -- End function
	.section	.text._ZSt4moveIRdEONSt16remove_referenceIT_E4typeEOS2_,"axG",@progbits,_ZSt4moveIRdEONSt16remove_referenceIT_E4typeEOS2_,comdat
	.weak	_ZSt4moveIRdEONSt16remove_referenceIT_E4typeEOS2_ # -- Begin function _ZSt4moveIRdEONSt16remove_referenceIT_E4typeEOS2_
	.p2align	4, 0x90
	.type	_ZSt4moveIRdEONSt16remove_referenceIT_E4typeEOS2_,@function
_ZSt4moveIRdEONSt16remove_referenceIT_E4typeEOS2_: # @_ZSt4moveIRdEONSt16remove_referenceIT_E4typeEOS2_
	.cfi_startproc
# %bb.0:
	pushq	%rbp
	.cfi_def_cfa_offset 16
	.cfi_offset %rbp, -16
	movq	%rsp, %rbp
	.cfi_def_cfa_register %rbp
	movq	%rdi, %rax
	popq	%rbp
	.cfi_def_cfa %rsp, 8
	retq
.Lfunc_end117:
	.size	_ZSt4moveIRdEONSt16remove_referenceIT_E4typeEOS2_, .Lfunc_end117-_ZSt4moveIRdEONSt16remove_referenceIT_E4typeEOS2_
	.cfi_endproc
                                        # -- End function
	.section	.text._ZSt13__adjust_heapIPdldN9__gnu_cxx5__ops15_Iter_less_iterEEvT_T0_S5_T1_T2_,"axG",@progbits,_ZSt13__adjust_heapIPdldN9__gnu_cxx5__ops15_Iter_less_iterEEvT_T0_S5_T1_T2_,comdat
	.weak	_ZSt13__adjust_heapIPdldN9__gnu_cxx5__ops15_Iter_less_iterEEvT_T0_S5_T1_T2_ # -- Begin function _ZSt13__adjust_heapIPdldN9__gnu_cxx5__ops15_Iter_less_iterEEvT_T0_S5_T1_T2_
	.p2align	4, 0x90
	.type	_ZSt13__adjust_heapIPdldN9__gnu_cxx5__ops15_Iter_less_iterEEvT_T0_S5_T1_T2_,@function
_ZSt13__adjust_heapIPdldN9__gnu_cxx5__ops15_Iter_less_iterEEvT_T0_S5_T1_T2_: # @_ZSt13__adjust_heapIPdldN9__gnu_cxx5__ops15_Iter_less_iterEEvT_T0_S5_T1_T2_
	.cfi_startproc
# %bb.0:
	pushq	%rbp
	.cfi_def_cfa_offset 16
	.cfi_offset %rbp, -16
	movq	%rsp, %rbp
	.cfi_def_cfa_register %rbp
	pushq	%r15
	pushq	%r14
	pushq	%r13
	pushq	%r12
	pushq	%rbx
	subq	$40, %rsp
	.cfi_offset %rbx, -56
	.cfi_offset %r12, -48
	.cfi_offset %r13, -40
	.cfi_offset %r14, -32
	.cfi_offset %r15, -24
	movq	%rsi, %r12
	movq	%rdi, %r15
	movsd	%xmm0, -80(%rbp)
	leaq	-1(%rdx), %rax
	shrq	$63, %rax
	movq	%rdx, -72(%rbp)         # 8-byte Spill
	leaq	(%rdx,%rax), %r14
	addq	$-1, %r14
	sarq	%r14
	leaq	-48(%rbp), %r13
	movq	%rsi, -64(%rbp)         # 8-byte Spill
	jmp	.LBB118_1
	.p2align	4, 0x90
.LBB118_4:                              #   in Loop: Header=BB118_1 Depth=1
	leaq	(%r12,%r12), %rbx
	addq	$2, %rbx
.LBB118_5:                              #   in Loop: Header=BB118_1 Depth=1
	leaq	(%r15,%rbx,8), %rdi
	callq	_ZSt4moveIRdEONSt16remove_referenceIT_E4typeEOS2_
	movq	(%rax), %rax
	movq	%rax, (%r15,%r12,8)
	movq	%rbx, %r12
.LBB118_1:                              # =>This Inner Loop Header: Depth=1
	cmpq	%r14, %r12
	jge	.LBB118_6
# %bb.2:                                #   in Loop: Header=BB118_1 Depth=1
	leaq	(%r12,%r12), %rax
	leaq	(%r15,%rax,8), %rsi
	addq	$16, %rsi
	leaq	(%r15,%rax,8), %rdx
	addq	$8, %rdx
	movq	%r13, %rdi
	callq	_ZNK9__gnu_cxx5__ops15_Iter_less_iterclIPdS3_EEbT_T0_
	testb	%al, %al
	je	.LBB118_4
# %bb.3:                                #   in Loop: Header=BB118_1 Depth=1
	leaq	(%r12,%r12), %rbx
	addq	$1, %rbx
	jmp	.LBB118_5
.LBB118_6:
	movq	-72(%rbp), %rcx         # 8-byte Reload
	testb	$1, %cl
	jne	.LBB118_7
# %bb.8:
	leaq	-2(%rcx), %rax
	shrq	$63, %rax
	addq	%rcx, %rax
	addq	$-2, %rax
	sarq	%rax
	cmpq	%rax, %r12
	movq	-64(%rbp), %r14         # 8-byte Reload
	jne	.LBB118_10
# %bb.9:
	leaq	(%r12,%r12), %rax
	leaq	(%r12,%r12), %rbx
	addq	$1, %rbx
	leaq	(%r15,%rax,8), %rdi
	addq	$8, %rdi
	callq	_ZSt4moveIRdEONSt16remove_referenceIT_E4typeEOS2_
	movq	(%rax), %rax
	movq	%rax, (%r15,%r12,8)
	movq	%rbx, %r12
	jmp	.LBB118_10
.LBB118_7:
	movq	-64(%rbp), %r14         # 8-byte Reload
.LBB118_10:
	leaq	-48(%rbp), %rdi
	callq	_ZSt4moveIRN9__gnu_cxx5__ops15_Iter_less_iterEEONSt16remove_referenceIT_E4typeEOS5_
	leaq	-56(%rbp), %rbx
	movq	%rbx, %rdi
	callq	_ZN9__gnu_cxx5__ops14_Iter_less_valC2ENS0_15_Iter_less_iterE
	leaq	-80(%rbp), %rdi
	callq	_ZSt4moveIRdEONSt16remove_referenceIT_E4typeEOS2_
	movsd	(%rax), %xmm0           # xmm0 = mem[0],zero
	movq	%r15, %rdi
	movq	%r12, %rsi
	movq	%r14, %rdx
	movq	%rbx, %rcx
	callq	_ZSt11__push_heapIPdldN9__gnu_cxx5__ops14_Iter_less_valEEvT_T0_S5_T1_RT2_
	addq	$40, %rsp
	popq	%rbx
	popq	%r12
	popq	%r13
	popq	%r14
	popq	%r15
	popq	%rbp
	.cfi_def_cfa %rsp, 8
	retq
.Lfunc_end118:
	.size	_ZSt13__adjust_heapIPdldN9__gnu_cxx5__ops15_Iter_less_iterEEvT_T0_S5_T1_T2_, .Lfunc_end118-_ZSt13__adjust_heapIPdldN9__gnu_cxx5__ops15_Iter_less_iterEEvT_T0_S5_T1_T2_
	.cfi_endproc
                                        # -- End function
	.section	.text._ZSt4moveIRN9__gnu_cxx5__ops15_Iter_less_iterEEONSt16remove_referenceIT_E4typeEOS5_,"axG",@progbits,_ZSt4moveIRN9__gnu_cxx5__ops15_Iter_less_iterEEONSt16remove_referenceIT_E4typeEOS5_,comdat
	.weak	_ZSt4moveIRN9__gnu_cxx5__ops15_Iter_less_iterEEONSt16remove_referenceIT_E4typeEOS5_ # -- Begin function _ZSt4moveIRN9__gnu_cxx5__ops15_Iter_less_iterEEONSt16remove_referenceIT_E4typeEOS5_
	.p2align	4, 0x90
	.type	_ZSt4moveIRN9__gnu_cxx5__ops15_Iter_less_iterEEONSt16remove_referenceIT_E4typeEOS5_,@function
_ZSt4moveIRN9__gnu_cxx5__ops15_Iter_less_iterEEONSt16remove_referenceIT_E4typeEOS5_: # @_ZSt4moveIRN9__gnu_cxx5__ops15_Iter_less_iterEEONSt16remove_referenceIT_E4typeEOS5_
	.cfi_startproc
# %bb.0:
	pushq	%rbp
	.cfi_def_cfa_offset 16
	.cfi_offset %rbp, -16
	movq	%rsp, %rbp
	.cfi_def_cfa_register %rbp
	movq	%rdi, %rax
	popq	%rbp
	.cfi_def_cfa %rsp, 8
	retq
.Lfunc_end119:
	.size	_ZSt4moveIRN9__gnu_cxx5__ops15_Iter_less_iterEEONSt16remove_referenceIT_E4typeEOS5_, .Lfunc_end119-_ZSt4moveIRN9__gnu_cxx5__ops15_Iter_less_iterEEONSt16remove_referenceIT_E4typeEOS5_
	.cfi_endproc
                                        # -- End function
	.section	.text._ZN9__gnu_cxx5__ops14_Iter_less_valC2ENS0_15_Iter_less_iterE,"axG",@progbits,_ZN9__gnu_cxx5__ops14_Iter_less_valC2ENS0_15_Iter_less_iterE,comdat
	.weak	_ZN9__gnu_cxx5__ops14_Iter_less_valC2ENS0_15_Iter_less_iterE # -- Begin function _ZN9__gnu_cxx5__ops14_Iter_less_valC2ENS0_15_Iter_less_iterE
	.p2align	4, 0x90
	.type	_ZN9__gnu_cxx5__ops14_Iter_less_valC2ENS0_15_Iter_less_iterE,@function
_ZN9__gnu_cxx5__ops14_Iter_less_valC2ENS0_15_Iter_less_iterE: # @_ZN9__gnu_cxx5__ops14_Iter_less_valC2ENS0_15_Iter_less_iterE
	.cfi_startproc
# %bb.0:
	pushq	%rbp
	.cfi_def_cfa_offset 16
	.cfi_offset %rbp, -16
	movq	%rsp, %rbp
	.cfi_def_cfa_register %rbp
	popq	%rbp
	.cfi_def_cfa %rsp, 8
	retq
.Lfunc_end120:
	.size	_ZN9__gnu_cxx5__ops14_Iter_less_valC2ENS0_15_Iter_less_iterE, .Lfunc_end120-_ZN9__gnu_cxx5__ops14_Iter_less_valC2ENS0_15_Iter_less_iterE
	.cfi_endproc
                                        # -- End function
	.section	.text._ZSt11__push_heapIPdldN9__gnu_cxx5__ops14_Iter_less_valEEvT_T0_S5_T1_RT2_,"axG",@progbits,_ZSt11__push_heapIPdldN9__gnu_cxx5__ops14_Iter_less_valEEvT_T0_S5_T1_RT2_,comdat
	.weak	_ZSt11__push_heapIPdldN9__gnu_cxx5__ops14_Iter_less_valEEvT_T0_S5_T1_RT2_ # -- Begin function _ZSt11__push_heapIPdldN9__gnu_cxx5__ops14_Iter_less_valEEvT_T0_S5_T1_RT2_
	.p2align	4, 0x90
	.type	_ZSt11__push_heapIPdldN9__gnu_cxx5__ops14_Iter_less_valEEvT_T0_S5_T1_RT2_,@function
_ZSt11__push_heapIPdldN9__gnu_cxx5__ops14_Iter_less_valEEvT_T0_S5_T1_RT2_: # @_ZSt11__push_heapIPdldN9__gnu_cxx5__ops14_Iter_less_valEEvT_T0_S5_T1_RT2_
	.cfi_startproc
# %bb.0:
	pushq	%rbp
	.cfi_def_cfa_offset 16
	.cfi_offset %rbp, -16
	movq	%rsp, %rbp
	.cfi_def_cfa_register %rbp
	pushq	%r15
	pushq	%r14
	pushq	%r13
	pushq	%r12
	pushq	%rbx
	subq	$24, %rsp
	.cfi_offset %rbx, -56
	.cfi_offset %r12, -48
	.cfi_offset %r13, -40
	.cfi_offset %r14, -32
	.cfi_offset %r15, -24
	movq	%rcx, -56(%rbp)         # 8-byte Spill
	movq	%rdx, %r12
	movq	%rsi, %r15
	movq	%rdi, %r14
	movsd	%xmm0, -48(%rbp)
	cmpq	%r12, %r15
	jle	.LBB121_4
	.p2align	4, 0x90
.LBB121_2:                              # =>This Inner Loop Header: Depth=1
	leaq	-1(%r15), %rax
	shrq	$63, %rax
	leaq	(%r15,%rax), %rbx
	addq	$-1, %rbx
	sarq	%rbx
	leaq	(%r14,%rbx,8), %r13
	movq	-56(%rbp), %rdi         # 8-byte Reload
	movq	%r13, %rsi
	leaq	-48(%rbp), %rdx
	callq	_ZNK9__gnu_cxx5__ops14_Iter_less_valclIPddEEbT_RT0_
	testb	%al, %al
	je	.LBB121_4
# %bb.3:                                #   in Loop: Header=BB121_2 Depth=1
	movq	%r13, %rdi
	callq	_ZSt4moveIRdEONSt16remove_referenceIT_E4typeEOS2_
	movq	(%rax), %rax
	movq	%rax, (%r14,%r15,8)
	movq	%rbx, %r15
	cmpq	%r12, %r15
	jg	.LBB121_2
.LBB121_4:                              # %.critedge
	leaq	-48(%rbp), %rdi
	callq	_ZSt4moveIRdEONSt16remove_referenceIT_E4typeEOS2_
	movq	(%rax), %rax
	movq	%rax, (%r14,%r15,8)
	addq	$24, %rsp
	popq	%rbx
	popq	%r12
	popq	%r13
	popq	%r14
	popq	%r15
	popq	%rbp
	.cfi_def_cfa %rsp, 8
	retq
.Lfunc_end121:
	.size	_ZSt11__push_heapIPdldN9__gnu_cxx5__ops14_Iter_less_valEEvT_T0_S5_T1_RT2_, .Lfunc_end121-_ZSt11__push_heapIPdldN9__gnu_cxx5__ops14_Iter_less_valEEvT_T0_S5_T1_RT2_
	.cfi_endproc
                                        # -- End function
	.section	.text._ZNK9__gnu_cxx5__ops14_Iter_less_valclIPddEEbT_RT0_,"axG",@progbits,_ZNK9__gnu_cxx5__ops14_Iter_less_valclIPddEEbT_RT0_,comdat
	.weak	_ZNK9__gnu_cxx5__ops14_Iter_less_valclIPddEEbT_RT0_ # -- Begin function _ZNK9__gnu_cxx5__ops14_Iter_less_valclIPddEEbT_RT0_
	.p2align	4, 0x90
	.type	_ZNK9__gnu_cxx5__ops14_Iter_less_valclIPddEEbT_RT0_,@function
_ZNK9__gnu_cxx5__ops14_Iter_less_valclIPddEEbT_RT0_: # @_ZNK9__gnu_cxx5__ops14_Iter_less_valclIPddEEbT_RT0_
	.cfi_startproc
# %bb.0:
	pushq	%rbp
	.cfi_def_cfa_offset 16
	.cfi_offset %rbp, -16
	movq	%rsp, %rbp
	.cfi_def_cfa_register %rbp
	movsd	(%rdx), %xmm0           # xmm0 = mem[0],zero
	ucomisd	(%rsi), %xmm0
	seta	%al
	popq	%rbp
	.cfi_def_cfa %rsp, 8
	retq
.Lfunc_end122:
	.size	_ZNK9__gnu_cxx5__ops14_Iter_less_valclIPddEEbT_RT0_, .Lfunc_end122-_ZNK9__gnu_cxx5__ops14_Iter_less_valclIPddEEbT_RT0_
	.cfi_endproc
                                        # -- End function
	.section	.text._ZSt22__move_median_to_firstIPdN9__gnu_cxx5__ops15_Iter_less_iterEEvT_S4_S4_S4_T0_,"axG",@progbits,_ZSt22__move_median_to_firstIPdN9__gnu_cxx5__ops15_Iter_less_iterEEvT_S4_S4_S4_T0_,comdat
	.weak	_ZSt22__move_median_to_firstIPdN9__gnu_cxx5__ops15_Iter_less_iterEEvT_S4_S4_S4_T0_ # -- Begin function _ZSt22__move_median_to_firstIPdN9__gnu_cxx5__ops15_Iter_less_iterEEvT_S4_S4_S4_T0_
	.p2align	4, 0x90
	.type	_ZSt22__move_median_to_firstIPdN9__gnu_cxx5__ops15_Iter_less_iterEEvT_S4_S4_S4_T0_,@function
_ZSt22__move_median_to_firstIPdN9__gnu_cxx5__ops15_Iter_less_iterEEvT_S4_S4_S4_T0_: # @_ZSt22__move_median_to_firstIPdN9__gnu_cxx5__ops15_Iter_less_iterEEvT_S4_S4_S4_T0_
	.cfi_startproc
# %bb.0:
	pushq	%rbp
	.cfi_def_cfa_offset 16
	.cfi_offset %rbp, -16
	movq	%rsp, %rbp
	.cfi_def_cfa_register %rbp
	pushq	%r15
	pushq	%r14
	pushq	%r12
	pushq	%rbx
	subq	$16, %rsp
	.cfi_offset %rbx, -48
	.cfi_offset %r12, -40
	.cfi_offset %r14, -32
	.cfi_offset %r15, -24
	movq	%rcx, %r15
	movq	%rdx, %r12
	movq	%rsi, %rbx
	movq	%rdi, %r14
	leaq	-40(%rbp), %rdi
	callq	_ZNK9__gnu_cxx5__ops15_Iter_less_iterclIPdS3_EEbT_T0_
	leaq	-40(%rbp), %rdi
	testb	%al, %al
	je	.LBB123_3
# %bb.1:
	movq	%r12, %rsi
	movq	%r15, %rdx
	callq	_ZNK9__gnu_cxx5__ops15_Iter_less_iterclIPdS3_EEbT_T0_
	movq	%r12, %rsi
	testb	%al, %al
	jne	.LBB123_5
# %bb.2:
	leaq	-40(%rbp), %rdi
	movq	%rbx, %rsi
	movq	%r15, %rdx
	callq	_ZNK9__gnu_cxx5__ops15_Iter_less_iterclIPdS3_EEbT_T0_
	testb	%al, %al
	cmovneq	%r15, %rbx
	movq	%rbx, %rsi
	jmp	.LBB123_5
.LBB123_3:
	movq	%rbx, %rsi
	movq	%r15, %rdx
	callq	_ZNK9__gnu_cxx5__ops15_Iter_less_iterclIPdS3_EEbT_T0_
	movq	%rbx, %rsi
	testb	%al, %al
	jne	.LBB123_5
# %bb.4:
	leaq	-40(%rbp), %rdi
	movq	%r12, %rsi
	movq	%r15, %rdx
	callq	_ZNK9__gnu_cxx5__ops15_Iter_less_iterclIPdS3_EEbT_T0_
	testb	%al, %al
	cmovneq	%r15, %r12
	movq	%r12, %rsi
.LBB123_5:
	movq	%r14, %rdi
	callq	_ZSt9iter_swapIPdS0_EvT_T0_
	addq	$16, %rsp
	popq	%rbx
	popq	%r12
	popq	%r14
	popq	%r15
	popq	%rbp
	.cfi_def_cfa %rsp, 8
	retq
.Lfunc_end123:
	.size	_ZSt22__move_median_to_firstIPdN9__gnu_cxx5__ops15_Iter_less_iterEEvT_S4_S4_S4_T0_, .Lfunc_end123-_ZSt22__move_median_to_firstIPdN9__gnu_cxx5__ops15_Iter_less_iterEEvT_S4_S4_S4_T0_
	.cfi_endproc
                                        # -- End function
	.section	.text._ZSt21__unguarded_partitionIPdN9__gnu_cxx5__ops15_Iter_less_iterEET_S4_S4_S4_T0_,"axG",@progbits,_ZSt21__unguarded_partitionIPdN9__gnu_cxx5__ops15_Iter_less_iterEET_S4_S4_S4_T0_,comdat
	.weak	_ZSt21__unguarded_partitionIPdN9__gnu_cxx5__ops15_Iter_less_iterEET_S4_S4_S4_T0_ # -- Begin function _ZSt21__unguarded_partitionIPdN9__gnu_cxx5__ops15_Iter_less_iterEET_S4_S4_S4_T0_
	.p2align	4, 0x90
	.type	_ZSt21__unguarded_partitionIPdN9__gnu_cxx5__ops15_Iter_less_iterEET_S4_S4_S4_T0_,@function
_ZSt21__unguarded_partitionIPdN9__gnu_cxx5__ops15_Iter_less_iterEET_S4_S4_S4_T0_: # @_ZSt21__unguarded_partitionIPdN9__gnu_cxx5__ops15_Iter_less_iterEET_S4_S4_S4_T0_
	.cfi_startproc
# %bb.0:
	pushq	%rbp
	.cfi_def_cfa_offset 16
	.cfi_offset %rbp, -16
	movq	%rsp, %rbp
	.cfi_def_cfa_register %rbp
	pushq	%r15
	pushq	%r14
	pushq	%r13
	pushq	%r12
	pushq	%rbx
	pushq	%rax
	.cfi_offset %rbx, -56
	.cfi_offset %r12, -48
	.cfi_offset %r13, -40
	.cfi_offset %r14, -32
	.cfi_offset %r15, -24
	movq	%rdx, %r14
	movq	%rsi, %r15
	movq	%rdi, %rbx
	leaq	-48(%rbp), %r12
	.p2align	4, 0x90
.LBB124_1:                              # =>This Loop Header: Depth=1
                                        #     Child Loop BB124_3 Depth 2
	movq	%r12, %rdi
	movq	%rbx, %rsi
	movq	%r14, %rdx
	callq	_ZNK9__gnu_cxx5__ops15_Iter_less_iterclIPdS3_EEbT_T0_
	addq	$8, %rbx
	testb	%al, %al
	jne	.LBB124_1
# %bb.2:                                # %.preheader.preheader
                                        #   in Loop: Header=BB124_1 Depth=1
	leaq	-8(%rbx), %r13
	.p2align	4, 0x90
.LBB124_3:                              # %.preheader
                                        #   Parent Loop BB124_1 Depth=1
                                        # =>  This Inner Loop Header: Depth=2
	addq	$-8, %r15
	movq	%r12, %rdi
	movq	%r14, %rsi
	movq	%r15, %rdx
	callq	_ZNK9__gnu_cxx5__ops15_Iter_less_iterclIPdS3_EEbT_T0_
	testb	%al, %al
	jne	.LBB124_3
# %bb.4:                                #   in Loop: Header=BB124_1 Depth=1
	cmpq	%r15, %r13
	jae	.LBB124_5
# %bb.6:                                #   in Loop: Header=BB124_1 Depth=1
	movq	%r13, %rdi
	movq	%r15, %rsi
	callq	_ZSt9iter_swapIPdS0_EvT_T0_
	jmp	.LBB124_1
.LBB124_5:
	movq	%r13, %rax
	addq	$8, %rsp
	popq	%rbx
	popq	%r12
	popq	%r13
	popq	%r14
	popq	%r15
	popq	%rbp
	.cfi_def_cfa %rsp, 8
	retq
.Lfunc_end124:
	.size	_ZSt21__unguarded_partitionIPdN9__gnu_cxx5__ops15_Iter_less_iterEET_S4_S4_S4_T0_, .Lfunc_end124-_ZSt21__unguarded_partitionIPdN9__gnu_cxx5__ops15_Iter_less_iterEET_S4_S4_S4_T0_
	.cfi_endproc
                                        # -- End function
	.section	.text._ZSt9iter_swapIPdS0_EvT_T0_,"axG",@progbits,_ZSt9iter_swapIPdS0_EvT_T0_,comdat
	.weak	_ZSt9iter_swapIPdS0_EvT_T0_ # -- Begin function _ZSt9iter_swapIPdS0_EvT_T0_
	.p2align	4, 0x90
	.type	_ZSt9iter_swapIPdS0_EvT_T0_,@function
_ZSt9iter_swapIPdS0_EvT_T0_:            # @_ZSt9iter_swapIPdS0_EvT_T0_
	.cfi_startproc
# %bb.0:
	pushq	%rbp
	.cfi_def_cfa_offset 16
	.cfi_offset %rbp, -16
	movq	%rsp, %rbp
	.cfi_def_cfa_register %rbp
	popq	%rbp
	.cfi_def_cfa %rsp, 8
	jmp	_ZSt4swapIdENSt9enable_ifIXsr6__and_ISt6__not_ISt15__is_tuple_likeIT_EESt21is_move_constructibleIS3_ESt18is_move_assignableIS3_EEE5valueEvE4typeERS3_SC_ # TAILCALL
.Lfunc_end125:
	.size	_ZSt9iter_swapIPdS0_EvT_T0_, .Lfunc_end125-_ZSt9iter_swapIPdS0_EvT_T0_
	.cfi_endproc
                                        # -- End function
	.section	.text._ZSt4swapIdENSt9enable_ifIXsr6__and_ISt6__not_ISt15__is_tuple_likeIT_EESt21is_move_constructibleIS3_ESt18is_move_assignableIS3_EEE5valueEvE4typeERS3_SC_,"axG",@progbits,_ZSt4swapIdENSt9enable_ifIXsr6__and_ISt6__not_ISt15__is_tuple_likeIT_EESt21is_move_constructibleIS3_ESt18is_move_assignableIS3_EEE5valueEvE4typeERS3_SC_,comdat
	.weak	_ZSt4swapIdENSt9enable_ifIXsr6__and_ISt6__not_ISt15__is_tuple_likeIT_EESt21is_move_constructibleIS3_ESt18is_move_assignableIS3_EEE5valueEvE4typeERS3_SC_ # -- Begin function _ZSt4swapIdENSt9enable_ifIXsr6__and_ISt6__not_ISt15__is_tuple_likeIT_EESt21is_move_constructibleIS3_ESt18is_move_assignableIS3_EEE5valueEvE4typeERS3_SC_
	.p2align	4, 0x90
	.type	_ZSt4swapIdENSt9enable_ifIXsr6__and_ISt6__not_ISt15__is_tuple_likeIT_EESt21is_move_constructibleIS3_ESt18is_move_assignableIS3_EEE5valueEvE4typeERS3_SC_,@function
_ZSt4swapIdENSt9enable_ifIXsr6__and_ISt6__not_ISt15__is_tuple_likeIT_EESt21is_move_constructibleIS3_ESt18is_move_assignableIS3_EEE5valueEvE4typeERS3_SC_: # @_ZSt4swapIdENSt9enable_ifIXsr6__and_ISt6__not_ISt15__is_tuple_likeIT_EESt21is_move_constructibleIS3_ESt18is_move_assignableIS3_EEE5valueEvE4typeERS3_SC_
	.cfi_startproc
# %bb.0:
	pushq	%rbp
	.cfi_def_cfa_offset 16
	.cfi_offset %rbp, -16
	movq	%rsp, %rbp
	.cfi_def_cfa_register %rbp
	pushq	%r14
	pushq	%rbx
	subq	$16, %rsp
	.cfi_offset %rbx, -32
	.cfi_offset %r14, -24
	movq	%rsi, %r14
	movq	%rdi, %rbx
	callq	_ZSt4moveIRdEONSt16remove_referenceIT_E4typeEOS2_
	movq	(%rax), %rax
	movq	%rax, -24(%rbp)
	movq	%r14, %rdi
	callq	_ZSt4moveIRdEONSt16remove_referenceIT_E4typeEOS2_
	movq	(%rax), %rax
	movq	%rax, (%rbx)
	leaq	-24(%rbp), %rdi
	callq	_ZSt4moveIRdEONSt16remove_referenceIT_E4typeEOS2_
	movq	(%rax), %rax
	movq	%rax, (%r14)
	addq	$16, %rsp
	popq	%rbx
	popq	%r14
	popq	%rbp
	.cfi_def_cfa %rsp, 8
	retq
.Lfunc_end126:
	.size	_ZSt4swapIdENSt9enable_ifIXsr6__and_ISt6__not_ISt15__is_tuple_likeIT_EESt21is_move_constructibleIS3_ESt18is_move_assignableIS3_EEE5valueEvE4typeERS3_SC_, .Lfunc_end126-_ZSt4swapIdENSt9enable_ifIXsr6__and_ISt6__not_ISt15__is_tuple_likeIT_EESt21is_move_constructibleIS3_ESt18is_move_assignableIS3_EEE5valueEvE4typeERS3_SC_
	.cfi_endproc
                                        # -- End function
	.section	.text._ZSt16__insertion_sortIPdN9__gnu_cxx5__ops15_Iter_less_iterEEvT_S4_T0_,"axG",@progbits,_ZSt16__insertion_sortIPdN9__gnu_cxx5__ops15_Iter_less_iterEEvT_S4_T0_,comdat
	.weak	_ZSt16__insertion_sortIPdN9__gnu_cxx5__ops15_Iter_less_iterEEvT_S4_T0_ # -- Begin function _ZSt16__insertion_sortIPdN9__gnu_cxx5__ops15_Iter_less_iterEEvT_S4_T0_
	.p2align	4, 0x90
	.type	_ZSt16__insertion_sortIPdN9__gnu_cxx5__ops15_Iter_less_iterEEvT_S4_T0_,@function
_ZSt16__insertion_sortIPdN9__gnu_cxx5__ops15_Iter_less_iterEEvT_S4_T0_: # @_ZSt16__insertion_sortIPdN9__gnu_cxx5__ops15_Iter_less_iterEEvT_S4_T0_
	.cfi_startproc
# %bb.0:
	pushq	%rbp
	.cfi_def_cfa_offset 16
	.cfi_offset %rbp, -16
	movq	%rsp, %rbp
	.cfi_def_cfa_register %rbp
	pushq	%r15
	pushq	%r14
	pushq	%r13
	pushq	%r12
	pushq	%rbx
	subq	$24, %rsp
	.cfi_offset %rbx, -56
	.cfi_offset %r12, -48
	.cfi_offset %r13, -40
	.cfi_offset %r14, -32
	.cfi_offset %r15, -24
	cmpq	%rsi, %rdi
	je	.LBB127_6
# %bb.1:                                # %.preheader
	movq	%rsi, %r14
	movq	%rdi, %r15
	leaq	8(%rdi), %rbx
	leaq	-48(%rbp), %r12
	leaq	-56(%rbp), %r13
	cmpq	%rbx, %r14
	jne	.LBB127_3
	jmp	.LBB127_6
	.p2align	4, 0x90
.LBB127_5:                              #   in Loop: Header=BB127_3 Depth=1
	callq	_ZN9__gnu_cxx5__ops15__val_comp_iterENS0_15_Iter_less_iterE
	movq	%rbx, %rdi
	callq	_ZSt25__unguarded_linear_insertIPdN9__gnu_cxx5__ops14_Val_less_iterEEvT_T0_
	addq	$8, %rbx
	cmpq	%rbx, %r14
	je	.LBB127_6
.LBB127_3:                              # =>This Inner Loop Header: Depth=1
	movq	%r12, %rdi
	movq	%rbx, %rsi
	movq	%r15, %rdx
	callq	_ZNK9__gnu_cxx5__ops15_Iter_less_iterclIPdS3_EEbT_T0_
	testb	%al, %al
	je	.LBB127_5
# %bb.4:                                #   in Loop: Header=BB127_3 Depth=1
	movq	%rbx, %rdi
	callq	_ZSt4moveIRdEONSt16remove_referenceIT_E4typeEOS2_
	movq	(%rax), %rax
	movq	%rax, -56(%rbp)
	movq	%rbx, %rsi
	addq	$8, %rbx
	movq	%r15, %rdi
	movq	%rbx, %rdx
	callq	_ZSt13move_backwardIPdS0_ET0_T_S2_S1_
	movq	%r13, %rdi
	callq	_ZSt4moveIRdEONSt16remove_referenceIT_E4typeEOS2_
	movq	(%rax), %rax
	movq	%rax, (%r15)
	cmpq	%rbx, %r14
	jne	.LBB127_3
.LBB127_6:                              # %.loopexit
	addq	$24, %rsp
	popq	%rbx
	popq	%r12
	popq	%r13
	popq	%r14
	popq	%r15
	popq	%rbp
	.cfi_def_cfa %rsp, 8
	retq
.Lfunc_end127:
	.size	_ZSt16__insertion_sortIPdN9__gnu_cxx5__ops15_Iter_less_iterEEvT_S4_T0_, .Lfunc_end127-_ZSt16__insertion_sortIPdN9__gnu_cxx5__ops15_Iter_less_iterEEvT_S4_T0_
	.cfi_endproc
                                        # -- End function
	.section	.text._ZSt26__unguarded_insertion_sortIPdN9__gnu_cxx5__ops15_Iter_less_iterEEvT_S4_T0_,"axG",@progbits,_ZSt26__unguarded_insertion_sortIPdN9__gnu_cxx5__ops15_Iter_less_iterEEvT_S4_T0_,comdat
	.weak	_ZSt26__unguarded_insertion_sortIPdN9__gnu_cxx5__ops15_Iter_less_iterEEvT_S4_T0_ # -- Begin function _ZSt26__unguarded_insertion_sortIPdN9__gnu_cxx5__ops15_Iter_less_iterEEvT_S4_T0_
	.p2align	4, 0x90
	.type	_ZSt26__unguarded_insertion_sortIPdN9__gnu_cxx5__ops15_Iter_less_iterEEvT_S4_T0_,@function
_ZSt26__unguarded_insertion_sortIPdN9__gnu_cxx5__ops15_Iter_less_iterEEvT_S4_T0_: # @_ZSt26__unguarded_insertion_sortIPdN9__gnu_cxx5__ops15_Iter_less_iterEEvT_S4_T0_
	.cfi_startproc
# %bb.0:
	pushq	%rbp
	.cfi_def_cfa_offset 16
	.cfi_offset %rbp, -16
	movq	%rsp, %rbp
	.cfi_def_cfa_register %rbp
	pushq	%r14
	pushq	%rbx
	.cfi_offset %rbx, -32
	.cfi_offset %r14, -24
	movq	%rsi, %r14
	movq	%rdi, %rbx
	cmpq	%rbx, %r14
	je	.LBB128_3
	.p2align	4, 0x90
.LBB128_2:                              # =>This Inner Loop Header: Depth=1
	callq	_ZN9__gnu_cxx5__ops15__val_comp_iterENS0_15_Iter_less_iterE
	movq	%rbx, %rdi
	callq	_ZSt25__unguarded_linear_insertIPdN9__gnu_cxx5__ops14_Val_less_iterEEvT_T0_
	addq	$8, %rbx
	cmpq	%rbx, %r14
	jne	.LBB128_2
.LBB128_3:
	popq	%rbx
	popq	%r14
	popq	%rbp
	.cfi_def_cfa %rsp, 8
	retq
.Lfunc_end128:
	.size	_ZSt26__unguarded_insertion_sortIPdN9__gnu_cxx5__ops15_Iter_less_iterEEvT_S4_T0_, .Lfunc_end128-_ZSt26__unguarded_insertion_sortIPdN9__gnu_cxx5__ops15_Iter_less_iterEEvT_S4_T0_
	.cfi_endproc
                                        # -- End function
	.section	.text._ZSt13move_backwardIPdS0_ET0_T_S2_S1_,"axG",@progbits,_ZSt13move_backwardIPdS0_ET0_T_S2_S1_,comdat
	.weak	_ZSt13move_backwardIPdS0_ET0_T_S2_S1_ # -- Begin function _ZSt13move_backwardIPdS0_ET0_T_S2_S1_
	.p2align	4, 0x90
	.type	_ZSt13move_backwardIPdS0_ET0_T_S2_S1_,@function
_ZSt13move_backwardIPdS0_ET0_T_S2_S1_:  # @_ZSt13move_backwardIPdS0_ET0_T_S2_S1_
	.cfi_startproc
# %bb.0:
	pushq	%rbp
	.cfi_def_cfa_offset 16
	.cfi_offset %rbp, -16
	movq	%rsp, %rbp
	.cfi_def_cfa_register %rbp
	pushq	%r15
	pushq	%r14
	pushq	%rbx
	pushq	%rax
	.cfi_offset %rbx, -40
	.cfi_offset %r14, -32
	.cfi_offset %r15, -24
	movq	%rdx, %r14
	movq	%rsi, %r15
	callq	_ZSt12__miter_baseIPdET_S1_
	movq	%rax, %rbx
	movq	%r15, %rdi
	callq	_ZSt12__miter_baseIPdET_S1_
	movq	%rbx, %rdi
	movq	%rax, %rsi
	movq	%r14, %rdx
	addq	$8, %rsp
	popq	%rbx
	popq	%r14
	popq	%r15
	popq	%rbp
	.cfi_def_cfa %rsp, 8
	jmp	_ZSt23__copy_move_backward_a2ILb1EPdS0_ET1_T0_S2_S1_ # TAILCALL
.Lfunc_end129:
	.size	_ZSt13move_backwardIPdS0_ET0_T_S2_S1_, .Lfunc_end129-_ZSt13move_backwardIPdS0_ET0_T_S2_S1_
	.cfi_endproc
                                        # -- End function
	.section	.text._ZSt25__unguarded_linear_insertIPdN9__gnu_cxx5__ops14_Val_less_iterEEvT_T0_,"axG",@progbits,_ZSt25__unguarded_linear_insertIPdN9__gnu_cxx5__ops14_Val_less_iterEEvT_T0_,comdat
	.weak	_ZSt25__unguarded_linear_insertIPdN9__gnu_cxx5__ops14_Val_less_iterEEvT_T0_ # -- Begin function _ZSt25__unguarded_linear_insertIPdN9__gnu_cxx5__ops14_Val_less_iterEEvT_T0_
	.p2align	4, 0x90
	.type	_ZSt25__unguarded_linear_insertIPdN9__gnu_cxx5__ops14_Val_less_iterEEvT_T0_,@function
_ZSt25__unguarded_linear_insertIPdN9__gnu_cxx5__ops14_Val_less_iterEEvT_T0_: # @_ZSt25__unguarded_linear_insertIPdN9__gnu_cxx5__ops14_Val_less_iterEEvT_T0_
	.cfi_startproc
# %bb.0:
	pushq	%rbp
	.cfi_def_cfa_offset 16
	.cfi_offset %rbp, -16
	movq	%rsp, %rbp
	.cfi_def_cfa_register %rbp
	pushq	%r15
	pushq	%r14
	pushq	%rbx
	subq	$24, %rsp
	.cfi_offset %rbx, -40
	.cfi_offset %r14, -32
	.cfi_offset %r15, -24
	movq	%rdi, %rbx
	callq	_ZSt4moveIRdEONSt16remove_referenceIT_E4typeEOS2_
	movq	(%rax), %rax
	movq	%rax, -40(%rbp)
	addq	$-8, %rbx
	leaq	-32(%rbp), %r14
	leaq	-40(%rbp), %r15
	.p2align	4, 0x90
.LBB130_1:                              # =>This Inner Loop Header: Depth=1
	movq	%r14, %rdi
	movq	%r15, %rsi
	movq	%rbx, %rdx
	callq	_ZNK9__gnu_cxx5__ops14_Val_less_iterclIdPdEEbRT_T0_
	testb	%al, %al
	je	.LBB130_3
# %bb.2:                                #   in Loop: Header=BB130_1 Depth=1
	movq	%rbx, %rdi
	callq	_ZSt4moveIRdEONSt16remove_referenceIT_E4typeEOS2_
	movq	(%rax), %rax
	movq	%rax, 8(%rbx)
	addq	$-8, %rbx
	jmp	.LBB130_1
.LBB130_3:
	leaq	-40(%rbp), %rdi
	callq	_ZSt4moveIRdEONSt16remove_referenceIT_E4typeEOS2_
	movq	(%rax), %rax
	movq	%rax, 8(%rbx)
	addq	$24, %rsp
	popq	%rbx
	popq	%r14
	popq	%r15
	popq	%rbp
	.cfi_def_cfa %rsp, 8
	retq
.Lfunc_end130:
	.size	_ZSt25__unguarded_linear_insertIPdN9__gnu_cxx5__ops14_Val_less_iterEEvT_T0_, .Lfunc_end130-_ZSt25__unguarded_linear_insertIPdN9__gnu_cxx5__ops14_Val_less_iterEEvT_T0_
	.cfi_endproc
                                        # -- End function
	.section	.text._ZN9__gnu_cxx5__ops15__val_comp_iterENS0_15_Iter_less_iterE,"axG",@progbits,_ZN9__gnu_cxx5__ops15__val_comp_iterENS0_15_Iter_less_iterE,comdat
	.weak	_ZN9__gnu_cxx5__ops15__val_comp_iterENS0_15_Iter_less_iterE # -- Begin function _ZN9__gnu_cxx5__ops15__val_comp_iterENS0_15_Iter_less_iterE
	.p2align	4, 0x90
	.type	_ZN9__gnu_cxx5__ops15__val_comp_iterENS0_15_Iter_less_iterE,@function
_ZN9__gnu_cxx5__ops15__val_comp_iterENS0_15_Iter_less_iterE: # @_ZN9__gnu_cxx5__ops15__val_comp_iterENS0_15_Iter_less_iterE
	.cfi_startproc
# %bb.0:
	pushq	%rbp
	.cfi_def_cfa_offset 16
	.cfi_offset %rbp, -16
	movq	%rsp, %rbp
	.cfi_def_cfa_register %rbp
	popq	%rbp
	.cfi_def_cfa %rsp, 8
	retq
.Lfunc_end131:
	.size	_ZN9__gnu_cxx5__ops15__val_comp_iterENS0_15_Iter_less_iterE, .Lfunc_end131-_ZN9__gnu_cxx5__ops15__val_comp_iterENS0_15_Iter_less_iterE
	.cfi_endproc
                                        # -- End function
	.section	.text._ZSt23__copy_move_backward_a2ILb1EPdS0_ET1_T0_S2_S1_,"axG",@progbits,_ZSt23__copy_move_backward_a2ILb1EPdS0_ET1_T0_S2_S1_,comdat
	.weak	_ZSt23__copy_move_backward_a2ILb1EPdS0_ET1_T0_S2_S1_ # -- Begin function _ZSt23__copy_move_backward_a2ILb1EPdS0_ET1_T0_S2_S1_
	.p2align	4, 0x90
	.type	_ZSt23__copy_move_backward_a2ILb1EPdS0_ET1_T0_S2_S1_,@function
_ZSt23__copy_move_backward_a2ILb1EPdS0_ET1_T0_S2_S1_: # @_ZSt23__copy_move_backward_a2ILb1EPdS0_ET1_T0_S2_S1_
	.cfi_startproc
# %bb.0:
	pushq	%rbp
	.cfi_def_cfa_offset 16
	.cfi_offset %rbp, -16
	movq	%rsp, %rbp
	.cfi_def_cfa_register %rbp
	pushq	%r15
	pushq	%r14
	pushq	%rbx
	pushq	%rax
	.cfi_offset %rbx, -40
	.cfi_offset %r14, -32
	.cfi_offset %r15, -24
	movq	%rdx, %rbx
	movq	%rsi, %r14
	movq	%rdx, -32(%rbp)
	callq	_ZSt12__niter_baseIPdET_S1_
	movq	%rax, %r15
	movq	%r14, %rdi
	callq	_ZSt12__niter_baseIPdET_S1_
	movq	%rax, %r14
	movq	%rbx, %rdi
	callq	_ZSt12__niter_baseIPdET_S1_
	movq	%r15, %rdi
	movq	%r14, %rsi
	movq	%rax, %rdx
	callq	_ZSt22__copy_move_backward_aILb1EPdS0_ET1_T0_S2_S1_
	leaq	-32(%rbp), %rdi
	movq	%rax, %rsi
	callq	_ZSt12__niter_wrapIPdET_RKS1_S1_
	addq	$8, %rsp
	popq	%rbx
	popq	%r14
	popq	%r15
	popq	%rbp
	.cfi_def_cfa %rsp, 8
	retq
.Lfunc_end132:
	.size	_ZSt23__copy_move_backward_a2ILb1EPdS0_ET1_T0_S2_S1_, .Lfunc_end132-_ZSt23__copy_move_backward_a2ILb1EPdS0_ET1_T0_S2_S1_
	.cfi_endproc
                                        # -- End function
	.section	.text._ZSt22__copy_move_backward_aILb1EPdS0_ET1_T0_S2_S1_,"axG",@progbits,_ZSt22__copy_move_backward_aILb1EPdS0_ET1_T0_S2_S1_,comdat
	.weak	_ZSt22__copy_move_backward_aILb1EPdS0_ET1_T0_S2_S1_ # -- Begin function _ZSt22__copy_move_backward_aILb1EPdS0_ET1_T0_S2_S1_
	.p2align	4, 0x90
	.type	_ZSt22__copy_move_backward_aILb1EPdS0_ET1_T0_S2_S1_,@function
_ZSt22__copy_move_backward_aILb1EPdS0_ET1_T0_S2_S1_: # @_ZSt22__copy_move_backward_aILb1EPdS0_ET1_T0_S2_S1_
	.cfi_startproc
# %bb.0:
	pushq	%rbp
	.cfi_def_cfa_offset 16
	.cfi_offset %rbp, -16
	movq	%rsp, %rbp
	.cfi_def_cfa_register %rbp
	popq	%rbp
	.cfi_def_cfa %rsp, 8
	jmp	_ZNSt20__copy_move_backwardILb1ELb1ESt26random_access_iterator_tagE13__copy_move_bIdEEPT_PKS3_S6_S4_ # TAILCALL
.Lfunc_end133:
	.size	_ZSt22__copy_move_backward_aILb1EPdS0_ET1_T0_S2_S1_, .Lfunc_end133-_ZSt22__copy_move_backward_aILb1EPdS0_ET1_T0_S2_S1_
	.cfi_endproc
                                        # -- End function
	.section	.text._ZNSt20__copy_move_backwardILb1ELb1ESt26random_access_iterator_tagE13__copy_move_bIdEEPT_PKS3_S6_S4_,"axG",@progbits,_ZNSt20__copy_move_backwardILb1ELb1ESt26random_access_iterator_tagE13__copy_move_bIdEEPT_PKS3_S6_S4_,comdat
	.weak	_ZNSt20__copy_move_backwardILb1ELb1ESt26random_access_iterator_tagE13__copy_move_bIdEEPT_PKS3_S6_S4_ # -- Begin function _ZNSt20__copy_move_backwardILb1ELb1ESt26random_access_iterator_tagE13__copy_move_bIdEEPT_PKS3_S6_S4_
	.p2align	4, 0x90
	.type	_ZNSt20__copy_move_backwardILb1ELb1ESt26random_access_iterator_tagE13__copy_move_bIdEEPT_PKS3_S6_S4_,@function
_ZNSt20__copy_move_backwardILb1ELb1ESt26random_access_iterator_tagE13__copy_move_bIdEEPT_PKS3_S6_S4_: # @_ZNSt20__copy_move_backwardILb1ELb1ESt26random_access_iterator_tagE13__copy_move_bIdEEPT_PKS3_S6_S4_
	.cfi_startproc
# %bb.0:
	pushq	%rbp
	.cfi_def_cfa_offset 16
	.cfi_offset %rbp, -16
	movq	%rsp, %rbp
	.cfi_def_cfa_register %rbp
	pushq	%r14
	pushq	%rbx
	.cfi_offset %rbx, -32
	.cfi_offset %r14, -24
	movq	%rdx, %r14
	movq	%rsi, %rdx
	subq	%rdi, %rdx
	movq	%rdx, %rbx
	sarq	$3, %rbx
	testq	%rdx, %rdx
	je	.LBB134_2
# %bb.1:
	movq	%rdi, %rsi
	leaq	(,%rbx,8), %rax
	movq	%r14, %rdi
	subq	%rax, %rdi
	callq	memmove
.LBB134_2:
	shlq	$3, %rbx
	subq	%rbx, %r14
	movq	%r14, %rax
	popq	%rbx
	popq	%r14
	popq	%rbp
	.cfi_def_cfa %rsp, 8
	retq
.Lfunc_end134:
	.size	_ZNSt20__copy_move_backwardILb1ELb1ESt26random_access_iterator_tagE13__copy_move_bIdEEPT_PKS3_S6_S4_, .Lfunc_end134-_ZNSt20__copy_move_backwardILb1ELb1ESt26random_access_iterator_tagE13__copy_move_bIdEEPT_PKS3_S6_S4_
	.cfi_endproc
                                        # -- End function
	.section	.text._ZNK9__gnu_cxx5__ops14_Val_less_iterclIdPdEEbRT_T0_,"axG",@progbits,_ZNK9__gnu_cxx5__ops14_Val_less_iterclIdPdEEbRT_T0_,comdat
	.weak	_ZNK9__gnu_cxx5__ops14_Val_less_iterclIdPdEEbRT_T0_ # -- Begin function _ZNK9__gnu_cxx5__ops14_Val_less_iterclIdPdEEbRT_T0_
	.p2align	4, 0x90
	.type	_ZNK9__gnu_cxx5__ops14_Val_less_iterclIdPdEEbRT_T0_,@function
_ZNK9__gnu_cxx5__ops14_Val_less_iterclIdPdEEbRT_T0_: # @_ZNK9__gnu_cxx5__ops14_Val_less_iterclIdPdEEbRT_T0_
	.cfi_startproc
# %bb.0:
	pushq	%rbp
	.cfi_def_cfa_offset 16
	.cfi_offset %rbp, -16
	movq	%rsp, %rbp
	.cfi_def_cfa_register %rbp
	movsd	(%rdx), %xmm0           # xmm0 = mem[0],zero
	ucomisd	(%rsi), %xmm0
	seta	%al
	popq	%rbp
	.cfi_def_cfa %rsp, 8
	retq
.Lfunc_end135:
	.size	_ZNK9__gnu_cxx5__ops14_Val_less_iterclIdPdEEbRT_T0_, .Lfunc_end135-_ZNK9__gnu_cxx5__ops14_Val_less_iterclIdPdEEbRT_T0_
	.cfi_endproc
                                        # -- End function
	.section	.text._ZSt8__uniqueIPdN9__gnu_cxx5__ops19_Iter_equal_to_iterEET_S4_S4_T0_,"axG",@progbits,_ZSt8__uniqueIPdN9__gnu_cxx5__ops19_Iter_equal_to_iterEET_S4_S4_T0_,comdat
	.weak	_ZSt8__uniqueIPdN9__gnu_cxx5__ops19_Iter_equal_to_iterEET_S4_S4_T0_ # -- Begin function _ZSt8__uniqueIPdN9__gnu_cxx5__ops19_Iter_equal_to_iterEET_S4_S4_T0_
	.p2align	4, 0x90
	.type	_ZSt8__uniqueIPdN9__gnu_cxx5__ops19_Iter_equal_to_iterEET_S4_S4_T0_,@function
_ZSt8__uniqueIPdN9__gnu_cxx5__ops19_Iter_equal_to_iterEET_S4_S4_T0_: # @_ZSt8__uniqueIPdN9__gnu_cxx5__ops19_Iter_equal_to_iterEET_S4_S4_T0_
	.cfi_startproc
# %bb.0:
	pushq	%rbp
	.cfi_def_cfa_offset 16
	.cfi_offset %rbp, -16
	movq	%rsp, %rbp
	.cfi_def_cfa_register %rbp
	pushq	%r15
	pushq	%r14
	pushq	%r12
	pushq	%rbx
	subq	$16, %rsp
	.cfi_offset %rbx, -48
	.cfi_offset %r12, -40
	.cfi_offset %r14, -32
	.cfi_offset %r15, -24
	movq	%rsi, %r14
	callq	_ZSt15__adjacent_findIPdN9__gnu_cxx5__ops19_Iter_equal_to_iterEET_S4_S4_T0_
	cmpq	%r14, %rax
	je	.LBB136_6
# %bb.1:
	movq	%rax, %r15
	movq	%rax, %rbx
	addq	$8, %rbx
	addq	$-8, %r14
	leaq	-40(%rbp), %r12
	.p2align	4, 0x90
.LBB136_2:                              # =>This Inner Loop Header: Depth=1
	cmpq	%rbx, %r14
	je	.LBB136_5
# %bb.3:                                #   in Loop: Header=BB136_2 Depth=1
	addq	$8, %rbx
	movq	%r12, %rdi
	movq	%r15, %rsi
	movq	%rbx, %rdx
	callq	_ZNK9__gnu_cxx5__ops19_Iter_equal_to_iterclIPdS3_EEbT_T0_
	testb	%al, %al
	jne	.LBB136_2
# %bb.4:                                #   in Loop: Header=BB136_2 Depth=1
	movq	%rbx, %rdi
	callq	_ZSt4moveIRdEONSt16remove_referenceIT_E4typeEOS2_
	movq	(%rax), %rax
	movq	%rax, 8(%r15)
	addq	$8, %r15
	jmp	.LBB136_2
.LBB136_5:
	addq	$8, %r15
	movq	%r15, %r14
.LBB136_6:
	movq	%r14, %rax
	addq	$16, %rsp
	popq	%rbx
	popq	%r12
	popq	%r14
	popq	%r15
	popq	%rbp
	.cfi_def_cfa %rsp, 8
	retq
.Lfunc_end136:
	.size	_ZSt8__uniqueIPdN9__gnu_cxx5__ops19_Iter_equal_to_iterEET_S4_S4_T0_, .Lfunc_end136-_ZSt8__uniqueIPdN9__gnu_cxx5__ops19_Iter_equal_to_iterEET_S4_S4_T0_
	.cfi_endproc
                                        # -- End function
	.section	.text._ZN9__gnu_cxx5__ops20__iter_equal_to_iterEv,"axG",@progbits,_ZN9__gnu_cxx5__ops20__iter_equal_to_iterEv,comdat
	.weak	_ZN9__gnu_cxx5__ops20__iter_equal_to_iterEv # -- Begin function _ZN9__gnu_cxx5__ops20__iter_equal_to_iterEv
	.p2align	4, 0x90
	.type	_ZN9__gnu_cxx5__ops20__iter_equal_to_iterEv,@function
_ZN9__gnu_cxx5__ops20__iter_equal_to_iterEv: # @_ZN9__gnu_cxx5__ops20__iter_equal_to_iterEv
	.cfi_startproc
# %bb.0:
	pushq	%rbp
	.cfi_def_cfa_offset 16
	.cfi_offset %rbp, -16
	movq	%rsp, %rbp
	.cfi_def_cfa_register %rbp
	popq	%rbp
	.cfi_def_cfa %rsp, 8
	retq
.Lfunc_end137:
	.size	_ZN9__gnu_cxx5__ops20__iter_equal_to_iterEv, .Lfunc_end137-_ZN9__gnu_cxx5__ops20__iter_equal_to_iterEv
	.cfi_endproc
                                        # -- End function
	.section	.text._ZSt15__adjacent_findIPdN9__gnu_cxx5__ops19_Iter_equal_to_iterEET_S4_S4_T0_,"axG",@progbits,_ZSt15__adjacent_findIPdN9__gnu_cxx5__ops19_Iter_equal_to_iterEET_S4_S4_T0_,comdat
	.weak	_ZSt15__adjacent_findIPdN9__gnu_cxx5__ops19_Iter_equal_to_iterEET_S4_S4_T0_ # -- Begin function _ZSt15__adjacent_findIPdN9__gnu_cxx5__ops19_Iter_equal_to_iterEET_S4_S4_T0_
	.p2align	4, 0x90
	.type	_ZSt15__adjacent_findIPdN9__gnu_cxx5__ops19_Iter_equal_to_iterEET_S4_S4_T0_,@function
_ZSt15__adjacent_findIPdN9__gnu_cxx5__ops19_Iter_equal_to_iterEET_S4_S4_T0_: # @_ZSt15__adjacent_findIPdN9__gnu_cxx5__ops19_Iter_equal_to_iterEET_S4_S4_T0_
	.cfi_startproc
# %bb.0:
	pushq	%rbp
	.cfi_def_cfa_offset 16
	.cfi_offset %rbp, -16
	movq	%rsp, %rbp
	.cfi_def_cfa_register %rbp
	pushq	%r15
	pushq	%r14
	pushq	%rbx
	pushq	%rax
	.cfi_offset %rbx, -40
	.cfi_offset %r14, -32
	.cfi_offset %r15, -24
	movq	%rsi, %r14
	cmpq	%rsi, %rdi
	je	.LBB138_5
# %bb.1:                                # %.preheader.preheader
	movq	%rdi, %rbx
	addq	$8, %rbx
	leaq	-32(%rbp), %r15
	.p2align	4, 0x90
.LBB138_2:                              # %.preheader
                                        # =>This Inner Loop Header: Depth=1
	cmpq	%rbx, %r14
	je	.LBB138_5
# %bb.3:                                #   in Loop: Header=BB138_2 Depth=1
	leaq	-8(%rbx), %rsi
	movq	%r15, %rdi
	movq	%rbx, %rdx
	callq	_ZNK9__gnu_cxx5__ops19_Iter_equal_to_iterclIPdS3_EEbT_T0_
	addq	$8, %rbx
	testb	%al, %al
	je	.LBB138_2
# %bb.4:                                # %..loopexit.loopexit_crit_edge
	addq	$-16, %rbx
	movq	%rbx, %r14
.LBB138_5:                              # %.loopexit
	movq	%r14, %rax
	addq	$8, %rsp
	popq	%rbx
	popq	%r14
	popq	%r15
	popq	%rbp
	.cfi_def_cfa %rsp, 8
	retq
.Lfunc_end138:
	.size	_ZSt15__adjacent_findIPdN9__gnu_cxx5__ops19_Iter_equal_to_iterEET_S4_S4_T0_, .Lfunc_end138-_ZSt15__adjacent_findIPdN9__gnu_cxx5__ops19_Iter_equal_to_iterEET_S4_S4_T0_
	.cfi_endproc
                                        # -- End function
	.section	.text._ZNK9__gnu_cxx5__ops19_Iter_equal_to_iterclIPdS3_EEbT_T0_,"axG",@progbits,_ZNK9__gnu_cxx5__ops19_Iter_equal_to_iterclIPdS3_EEbT_T0_,comdat
	.weak	_ZNK9__gnu_cxx5__ops19_Iter_equal_to_iterclIPdS3_EEbT_T0_ # -- Begin function _ZNK9__gnu_cxx5__ops19_Iter_equal_to_iterclIPdS3_EEbT_T0_
	.p2align	4, 0x90
	.type	_ZNK9__gnu_cxx5__ops19_Iter_equal_to_iterclIPdS3_EEbT_T0_,@function
_ZNK9__gnu_cxx5__ops19_Iter_equal_to_iterclIPdS3_EEbT_T0_: # @_ZNK9__gnu_cxx5__ops19_Iter_equal_to_iterclIPdS3_EEbT_T0_
	.cfi_startproc
# %bb.0:
	pushq	%rbp
	.cfi_def_cfa_offset 16
	.cfi_offset %rbp, -16
	movq	%rsp, %rbp
	.cfi_def_cfa_register %rbp
	movsd	(%rdx), %xmm0           # xmm0 = mem[0],zero
	cmpeqsd	(%rsi), %xmm0
	movq	%xmm0, %rax
	andl	$1, %eax
                                        # kill: def $al killed $al killed $rax
	popq	%rbp
	.cfi_def_cfa %rsp, 8
	retq
.Lfunc_end139:
	.size	_ZNK9__gnu_cxx5__ops19_Iter_equal_to_iterclIPdS3_EEbT_T0_, .Lfunc_end139-_ZNK9__gnu_cxx5__ops19_Iter_equal_to_iterclIPdS3_EEbT_T0_
	.cfi_endproc
                                        # -- End function
	.section	.text._ZNSt12_Vector_baseIdSaIdEEC2ERKS0_,"axG",@progbits,_ZNSt12_Vector_baseIdSaIdEEC2ERKS0_,comdat
	.weak	_ZNSt12_Vector_baseIdSaIdEEC2ERKS0_ # -- Begin function _ZNSt12_Vector_baseIdSaIdEEC2ERKS0_
	.p2align	4, 0x90
	.type	_ZNSt12_Vector_baseIdSaIdEEC2ERKS0_,@function
_ZNSt12_Vector_baseIdSaIdEEC2ERKS0_:    # @_ZNSt12_Vector_baseIdSaIdEEC2ERKS0_
	.cfi_startproc
# %bb.0:
	pushq	%rbp
	.cfi_def_cfa_offset 16
	.cfi_offset %rbp, -16
	movq	%rsp, %rbp
	.cfi_def_cfa_register %rbp
	popq	%rbp
	.cfi_def_cfa %rsp, 8
	jmp	_ZNSt12_Vector_baseIdSaIdEE12_Vector_implC2ERKS0_ # TAILCALL
.Lfunc_end140:
	.size	_ZNSt12_Vector_baseIdSaIdEEC2ERKS0_, .Lfunc_end140-_ZNSt12_Vector_baseIdSaIdEEC2ERKS0_
	.cfi_endproc
                                        # -- End function
	.section	.text._ZNSt6vectorIdSaIdEE19_M_range_initializeIPdEEvT_S4_St20forward_iterator_tag,"axG",@progbits,_ZNSt6vectorIdSaIdEE19_M_range_initializeIPdEEvT_S4_St20forward_iterator_tag,comdat
	.weak	_ZNSt6vectorIdSaIdEE19_M_range_initializeIPdEEvT_S4_St20forward_iterator_tag # -- Begin function _ZNSt6vectorIdSaIdEE19_M_range_initializeIPdEEvT_S4_St20forward_iterator_tag
	.p2align	4, 0x90
	.type	_ZNSt6vectorIdSaIdEE19_M_range_initializeIPdEEvT_S4_St20forward_iterator_tag,@function
_ZNSt6vectorIdSaIdEE19_M_range_initializeIPdEEvT_S4_St20forward_iterator_tag: # @_ZNSt6vectorIdSaIdEE19_M_range_initializeIPdEEvT_S4_St20forward_iterator_tag
	.cfi_startproc
# %bb.0:
	pushq	%rbp
	.cfi_def_cfa_offset 16
	.cfi_offset %rbp, -16
	movq	%rsp, %rbp
	.cfi_def_cfa_register %rbp
	pushq	%r15
	pushq	%r14
	pushq	%r13
	pushq	%r12
	pushq	%rbx
	pushq	%rax
	.cfi_offset %rbx, -56
	.cfi_offset %r12, -48
	.cfi_offset %r13, -40
	.cfi_offset %r14, -32
	.cfi_offset %r15, -24
	movq	%rdx, %r14
	movq	%rsi, %r15
	movq	%rdi, %r13
	movq	%rsi, %rdi
	movq	%rdx, %rsi
	callq	_ZSt8distanceIPdENSt15iterator_traitsIT_E15difference_typeES2_S2_
	movq	%rax, %r12
	movq	%r13, %rdi
	callq	_ZNSt12_Vector_baseIdSaIdEE19_M_get_Tp_allocatorEv
	movq	%r12, %rdi
	movq	%rax, %rsi
	callq	_ZNSt6vectorIdSaIdEE17_S_check_init_lenEmRKS0_
	movq	%r13, %rdi
	movq	%rax, %rsi
	callq	_ZNSt12_Vector_baseIdSaIdEE11_M_allocateEm
	movq	%rax, %rbx
	movq	%rax, (%r13)
	leaq	(%rax,%r12,8), %rax
	movq	%rax, 16(%r13)
	movq	%r13, %rdi
	callq	_ZNSt12_Vector_baseIdSaIdEE19_M_get_Tp_allocatorEv
	movq	%r15, %rdi
	movq	%r14, %rsi
	movq	%rbx, %rdx
	movq	%rax, %rcx
	callq	_ZSt22__uninitialized_copy_aIPdS0_dET0_T_S2_S1_RSaIT1_E
	movq	%rax, 8(%r13)
	addq	$8, %rsp
	popq	%rbx
	popq	%r12
	popq	%r13
	popq	%r14
	popq	%r15
	popq	%rbp
	.cfi_def_cfa %rsp, 8
	retq
.Lfunc_end141:
	.size	_ZNSt6vectorIdSaIdEE19_M_range_initializeIPdEEvT_S4_St20forward_iterator_tag, .Lfunc_end141-_ZNSt6vectorIdSaIdEE19_M_range_initializeIPdEEvT_S4_St20forward_iterator_tag
	.cfi_endproc
                                        # -- End function
	.section	.text._ZSt19__iterator_categoryIPdENSt15iterator_traitsIT_E17iterator_categoryERKS2_,"axG",@progbits,_ZSt19__iterator_categoryIPdENSt15iterator_traitsIT_E17iterator_categoryERKS2_,comdat
	.weak	_ZSt19__iterator_categoryIPdENSt15iterator_traitsIT_E17iterator_categoryERKS2_ # -- Begin function _ZSt19__iterator_categoryIPdENSt15iterator_traitsIT_E17iterator_categoryERKS2_
	.p2align	4, 0x90
	.type	_ZSt19__iterator_categoryIPdENSt15iterator_traitsIT_E17iterator_categoryERKS2_,@function
_ZSt19__iterator_categoryIPdENSt15iterator_traitsIT_E17iterator_categoryERKS2_: # @_ZSt19__iterator_categoryIPdENSt15iterator_traitsIT_E17iterator_categoryERKS2_
	.cfi_startproc
# %bb.0:
	pushq	%rbp
	.cfi_def_cfa_offset 16
	.cfi_offset %rbp, -16
	movq	%rsp, %rbp
	.cfi_def_cfa_register %rbp
	popq	%rbp
	.cfi_def_cfa %rsp, 8
	retq
.Lfunc_end142:
	.size	_ZSt19__iterator_categoryIPdENSt15iterator_traitsIT_E17iterator_categoryERKS2_, .Lfunc_end142-_ZSt19__iterator_categoryIPdENSt15iterator_traitsIT_E17iterator_categoryERKS2_
	.cfi_endproc
                                        # -- End function
	.section	.text._ZNSt12_Vector_baseIdSaIdEE12_Vector_implC2ERKS0_,"axG",@progbits,_ZNSt12_Vector_baseIdSaIdEE12_Vector_implC2ERKS0_,comdat
	.weak	_ZNSt12_Vector_baseIdSaIdEE12_Vector_implC2ERKS0_ # -- Begin function _ZNSt12_Vector_baseIdSaIdEE12_Vector_implC2ERKS0_
	.p2align	4, 0x90
	.type	_ZNSt12_Vector_baseIdSaIdEE12_Vector_implC2ERKS0_,@function
_ZNSt12_Vector_baseIdSaIdEE12_Vector_implC2ERKS0_: # @_ZNSt12_Vector_baseIdSaIdEE12_Vector_implC2ERKS0_
	.cfi_startproc
# %bb.0:
	pushq	%rbp
	.cfi_def_cfa_offset 16
	.cfi_offset %rbp, -16
	movq	%rsp, %rbp
	.cfi_def_cfa_register %rbp
	pushq	%rbx
	pushq	%rax
	.cfi_offset %rbx, -24
	movq	%rdi, %rbx
	callq	_ZNSaIdEC2ERKS_
	movq	%rbx, %rdi
	addq	$8, %rsp
	popq	%rbx
	popq	%rbp
	.cfi_def_cfa %rsp, 8
	jmp	_ZNSt12_Vector_baseIdSaIdEE17_Vector_impl_dataC2Ev # TAILCALL
.Lfunc_end143:
	.size	_ZNSt12_Vector_baseIdSaIdEE12_Vector_implC2ERKS0_, .Lfunc_end143-_ZNSt12_Vector_baseIdSaIdEE12_Vector_implC2ERKS0_
	.cfi_endproc
                                        # -- End function
	.section	.text._ZN9__gnu_cxx13new_allocatorIdEC2ERKS1_,"axG",@progbits,_ZN9__gnu_cxx13new_allocatorIdEC2ERKS1_,comdat
	.weak	_ZN9__gnu_cxx13new_allocatorIdEC2ERKS1_ # -- Begin function _ZN9__gnu_cxx13new_allocatorIdEC2ERKS1_
	.p2align	4, 0x90
	.type	_ZN9__gnu_cxx13new_allocatorIdEC2ERKS1_,@function
_ZN9__gnu_cxx13new_allocatorIdEC2ERKS1_: # @_ZN9__gnu_cxx13new_allocatorIdEC2ERKS1_
	.cfi_startproc
# %bb.0:
	pushq	%rbp
	.cfi_def_cfa_offset 16
	.cfi_offset %rbp, -16
	movq	%rsp, %rbp
	.cfi_def_cfa_register %rbp
	popq	%rbp
	.cfi_def_cfa %rsp, 8
	retq
.Lfunc_end144:
	.size	_ZN9__gnu_cxx13new_allocatorIdEC2ERKS1_, .Lfunc_end144-_ZN9__gnu_cxx13new_allocatorIdEC2ERKS1_
	.cfi_endproc
                                        # -- End function
	.section	.text._ZSt8distanceIPdENSt15iterator_traitsIT_E15difference_typeES2_S2_,"axG",@progbits,_ZSt8distanceIPdENSt15iterator_traitsIT_E15difference_typeES2_S2_,comdat
	.weak	_ZSt8distanceIPdENSt15iterator_traitsIT_E15difference_typeES2_S2_ # -- Begin function _ZSt8distanceIPdENSt15iterator_traitsIT_E15difference_typeES2_S2_
	.p2align	4, 0x90
	.type	_ZSt8distanceIPdENSt15iterator_traitsIT_E15difference_typeES2_S2_,@function
_ZSt8distanceIPdENSt15iterator_traitsIT_E15difference_typeES2_S2_: # @_ZSt8distanceIPdENSt15iterator_traitsIT_E15difference_typeES2_S2_
	.cfi_startproc
# %bb.0:
	pushq	%rbp
	.cfi_def_cfa_offset 16
	.cfi_offset %rbp, -16
	movq	%rsp, %rbp
	.cfi_def_cfa_register %rbp
	pushq	%r14
	pushq	%rbx
	subq	$16, %rsp
	.cfi_offset %rbx, -32
	.cfi_offset %r14, -24
	movq	%rsi, %r14
	movq	%rdi, %rbx
	movq	%rdi, -24(%rbp)
	leaq	-24(%rbp), %rdi
	callq	_ZSt19__iterator_categoryIPdENSt15iterator_traitsIT_E17iterator_categoryERKS2_
	movq	%rbx, %rdi
	movq	%r14, %rsi
	callq	_ZSt10__distanceIPdENSt15iterator_traitsIT_E15difference_typeES2_S2_St26random_access_iterator_tag
	addq	$16, %rsp
	popq	%rbx
	popq	%r14
	popq	%rbp
	.cfi_def_cfa %rsp, 8
	retq
.Lfunc_end145:
	.size	_ZSt8distanceIPdENSt15iterator_traitsIT_E15difference_typeES2_S2_, .Lfunc_end145-_ZSt8distanceIPdENSt15iterator_traitsIT_E15difference_typeES2_S2_
	.cfi_endproc
                                        # -- End function
	.section	.text._ZNSt12_Vector_baseIdSaIdEE11_M_allocateEm,"axG",@progbits,_ZNSt12_Vector_baseIdSaIdEE11_M_allocateEm,comdat
	.weak	_ZNSt12_Vector_baseIdSaIdEE11_M_allocateEm # -- Begin function _ZNSt12_Vector_baseIdSaIdEE11_M_allocateEm
	.p2align	4, 0x90
	.type	_ZNSt12_Vector_baseIdSaIdEE11_M_allocateEm,@function
_ZNSt12_Vector_baseIdSaIdEE11_M_allocateEm: # @_ZNSt12_Vector_baseIdSaIdEE11_M_allocateEm
	.cfi_startproc
# %bb.0:
	pushq	%rbp
	.cfi_def_cfa_offset 16
	.cfi_offset %rbp, -16
	movq	%rsp, %rbp
	.cfi_def_cfa_register %rbp
	testq	%rsi, %rsi
	je	.LBB146_1
# %bb.2:
	popq	%rbp
	.cfi_def_cfa %rsp, 8
	jmp	_ZNSt16allocator_traitsISaIdEE8allocateERS0_m # TAILCALL
.LBB146_1:
	.cfi_def_cfa %rbp, 16
	xorl	%eax, %eax
	popq	%rbp
	.cfi_def_cfa %rsp, 8
	retq
.Lfunc_end146:
	.size	_ZNSt12_Vector_baseIdSaIdEE11_M_allocateEm, .Lfunc_end146-_ZNSt12_Vector_baseIdSaIdEE11_M_allocateEm
	.cfi_endproc
                                        # -- End function
	.section	.text._ZNSt6vectorIdSaIdEE17_S_check_init_lenEmRKS0_,"axG",@progbits,_ZNSt6vectorIdSaIdEE17_S_check_init_lenEmRKS0_,comdat
	.weak	_ZNSt6vectorIdSaIdEE17_S_check_init_lenEmRKS0_ # -- Begin function _ZNSt6vectorIdSaIdEE17_S_check_init_lenEmRKS0_
	.p2align	4, 0x90
	.type	_ZNSt6vectorIdSaIdEE17_S_check_init_lenEmRKS0_,@function
_ZNSt6vectorIdSaIdEE17_S_check_init_lenEmRKS0_: # @_ZNSt6vectorIdSaIdEE17_S_check_init_lenEmRKS0_
	.cfi_startproc
# %bb.0:
	pushq	%rbp
	.cfi_def_cfa_offset 16
	.cfi_offset %rbp, -16
	movq	%rsp, %rbp
	.cfi_def_cfa_register %rbp
	pushq	%r15
	pushq	%r14
	pushq	%rbx
	pushq	%rax
	.cfi_offset %rbx, -40
	.cfi_offset %r14, -32
	.cfi_offset %r15, -24
	movq	%rdi, %rbx
	leaq	-32(%rbp), %r14
	movq	%r14, %rdi
	callq	_ZNSaIdEC2ERKS_
	movq	%r14, %rdi
	callq	_ZNSt6vectorIdSaIdEE11_S_max_sizeERKS0_
	movq	%rax, %r15
	movq	%r14, %rdi
	callq	_ZNSaIdED2Ev
	cmpq	%rbx, %r15
	jb	.LBB147_2
# %bb.1:
	movq	%rbx, %rax
	addq	$8, %rsp
	popq	%rbx
	popq	%r14
	popq	%r15
	popq	%rbp
	.cfi_def_cfa %rsp, 8
	retq
.LBB147_2:
	.cfi_def_cfa %rbp, 16
	movl	$.L.str, %edi
	callq	_ZSt20__throw_length_errorPKc
.Lfunc_end147:
	.size	_ZNSt6vectorIdSaIdEE17_S_check_init_lenEmRKS0_, .Lfunc_end147-_ZNSt6vectorIdSaIdEE17_S_check_init_lenEmRKS0_
	.cfi_endproc
                                        # -- End function
	.section	.text._ZSt22__uninitialized_copy_aIPdS0_dET0_T_S2_S1_RSaIT1_E,"axG",@progbits,_ZSt22__uninitialized_copy_aIPdS0_dET0_T_S2_S1_RSaIT1_E,comdat
	.weak	_ZSt22__uninitialized_copy_aIPdS0_dET0_T_S2_S1_RSaIT1_E # -- Begin function _ZSt22__uninitialized_copy_aIPdS0_dET0_T_S2_S1_RSaIT1_E
	.p2align	4, 0x90
	.type	_ZSt22__uninitialized_copy_aIPdS0_dET0_T_S2_S1_RSaIT1_E,@function
_ZSt22__uninitialized_copy_aIPdS0_dET0_T_S2_S1_RSaIT1_E: # @_ZSt22__uninitialized_copy_aIPdS0_dET0_T_S2_S1_RSaIT1_E
	.cfi_startproc
# %bb.0:
	pushq	%rbp
	.cfi_def_cfa_offset 16
	.cfi_offset %rbp, -16
	movq	%rsp, %rbp
	.cfi_def_cfa_register %rbp
	popq	%rbp
	.cfi_def_cfa %rsp, 8
	jmp	_ZSt18uninitialized_copyIPdS0_ET0_T_S2_S1_ # TAILCALL
.Lfunc_end148:
	.size	_ZSt22__uninitialized_copy_aIPdS0_dET0_T_S2_S1_RSaIT1_E, .Lfunc_end148-_ZSt22__uninitialized_copy_aIPdS0_dET0_T_S2_S1_RSaIT1_E
	.cfi_endproc
                                        # -- End function
	.section	.text._ZSt10__distanceIPdENSt15iterator_traitsIT_E15difference_typeES2_S2_St26random_access_iterator_tag,"axG",@progbits,_ZSt10__distanceIPdENSt15iterator_traitsIT_E15difference_typeES2_S2_St26random_access_iterator_tag,comdat
	.weak	_ZSt10__distanceIPdENSt15iterator_traitsIT_E15difference_typeES2_S2_St26random_access_iterator_tag # -- Begin function _ZSt10__distanceIPdENSt15iterator_traitsIT_E15difference_typeES2_S2_St26random_access_iterator_tag
	.p2align	4, 0x90
	.type	_ZSt10__distanceIPdENSt15iterator_traitsIT_E15difference_typeES2_S2_St26random_access_iterator_tag,@function
_ZSt10__distanceIPdENSt15iterator_traitsIT_E15difference_typeES2_S2_St26random_access_iterator_tag: # @_ZSt10__distanceIPdENSt15iterator_traitsIT_E15difference_typeES2_S2_St26random_access_iterator_tag
	.cfi_startproc
# %bb.0:
	pushq	%rbp
	.cfi_def_cfa_offset 16
	.cfi_offset %rbp, -16
	movq	%rsp, %rbp
	.cfi_def_cfa_register %rbp
	movq	%rsi, %rax
	subq	%rdi, %rax
	sarq	$3, %rax
	popq	%rbp
	.cfi_def_cfa %rsp, 8
	retq
.Lfunc_end149:
	.size	_ZSt10__distanceIPdENSt15iterator_traitsIT_E15difference_typeES2_S2_St26random_access_iterator_tag, .Lfunc_end149-_ZSt10__distanceIPdENSt15iterator_traitsIT_E15difference_typeES2_S2_St26random_access_iterator_tag
	.cfi_endproc
                                        # -- End function
	.section	.text._ZNSt16allocator_traitsISaIdEE8allocateERS0_m,"axG",@progbits,_ZNSt16allocator_traitsISaIdEE8allocateERS0_m,comdat
	.weak	_ZNSt16allocator_traitsISaIdEE8allocateERS0_m # -- Begin function _ZNSt16allocator_traitsISaIdEE8allocateERS0_m
	.p2align	4, 0x90
	.type	_ZNSt16allocator_traitsISaIdEE8allocateERS0_m,@function
_ZNSt16allocator_traitsISaIdEE8allocateERS0_m: # @_ZNSt16allocator_traitsISaIdEE8allocateERS0_m
	.cfi_startproc
# %bb.0:
	pushq	%rbp
	.cfi_def_cfa_offset 16
	.cfi_offset %rbp, -16
	movq	%rsp, %rbp
	.cfi_def_cfa_register %rbp
	xorl	%edx, %edx
	popq	%rbp
	.cfi_def_cfa %rsp, 8
	jmp	_ZN9__gnu_cxx13new_allocatorIdE8allocateEmPKv # TAILCALL
.Lfunc_end150:
	.size	_ZNSt16allocator_traitsISaIdEE8allocateERS0_m, .Lfunc_end150-_ZNSt16allocator_traitsISaIdEE8allocateERS0_m
	.cfi_endproc
                                        # -- End function
	.section	.text._ZN9__gnu_cxx13new_allocatorIdE8allocateEmPKv,"axG",@progbits,_ZN9__gnu_cxx13new_allocatorIdE8allocateEmPKv,comdat
	.weak	_ZN9__gnu_cxx13new_allocatorIdE8allocateEmPKv # -- Begin function _ZN9__gnu_cxx13new_allocatorIdE8allocateEmPKv
	.p2align	4, 0x90
	.type	_ZN9__gnu_cxx13new_allocatorIdE8allocateEmPKv,@function
_ZN9__gnu_cxx13new_allocatorIdE8allocateEmPKv: # @_ZN9__gnu_cxx13new_allocatorIdE8allocateEmPKv
	.cfi_startproc
# %bb.0:
	pushq	%rbp
	.cfi_def_cfa_offset 16
	.cfi_offset %rbp, -16
	movq	%rsp, %rbp
	.cfi_def_cfa_register %rbp
	pushq	%rbx
	pushq	%rax
	.cfi_offset %rbx, -24
	movq	%rsi, %rbx
	callq	_ZNK9__gnu_cxx13new_allocatorIdE8max_sizeEv
	cmpq	%rbx, %rax
	jb	.LBB151_1
# %bb.2:
	shlq	$3, %rbx
	movq	%rbx, %rdi
	addq	$8, %rsp
	popq	%rbx
	popq	%rbp
	.cfi_def_cfa %rsp, 8
	jmp	_Znwm                   # TAILCALL
.LBB151_1:
	.cfi_def_cfa %rbp, 16
	callq	_ZSt17__throw_bad_allocv
.Lfunc_end151:
	.size	_ZN9__gnu_cxx13new_allocatorIdE8allocateEmPKv, .Lfunc_end151-_ZN9__gnu_cxx13new_allocatorIdE8allocateEmPKv
	.cfi_endproc
                                        # -- End function
	.section	.text._ZNK9__gnu_cxx13new_allocatorIdE8max_sizeEv,"axG",@progbits,_ZNK9__gnu_cxx13new_allocatorIdE8max_sizeEv,comdat
	.weak	_ZNK9__gnu_cxx13new_allocatorIdE8max_sizeEv # -- Begin function _ZNK9__gnu_cxx13new_allocatorIdE8max_sizeEv
	.p2align	4, 0x90
	.type	_ZNK9__gnu_cxx13new_allocatorIdE8max_sizeEv,@function
_ZNK9__gnu_cxx13new_allocatorIdE8max_sizeEv: # @_ZNK9__gnu_cxx13new_allocatorIdE8max_sizeEv
	.cfi_startproc
# %bb.0:
	pushq	%rbp
	.cfi_def_cfa_offset 16
	.cfi_offset %rbp, -16
	movq	%rsp, %rbp
	.cfi_def_cfa_register %rbp
	movabsq	$1152921504606846975, %rax # imm = 0xFFFFFFFFFFFFFFF
	popq	%rbp
	.cfi_def_cfa %rsp, 8
	retq
.Lfunc_end152:
	.size	_ZNK9__gnu_cxx13new_allocatorIdE8max_sizeEv, .Lfunc_end152-_ZNK9__gnu_cxx13new_allocatorIdE8max_sizeEv
	.cfi_endproc
                                        # -- End function
	.section	.text._ZNSt6vectorIdSaIdEE11_S_max_sizeERKS0_,"axG",@progbits,_ZNSt6vectorIdSaIdEE11_S_max_sizeERKS0_,comdat
	.weak	_ZNSt6vectorIdSaIdEE11_S_max_sizeERKS0_ # -- Begin function _ZNSt6vectorIdSaIdEE11_S_max_sizeERKS0_
	.p2align	4, 0x90
	.type	_ZNSt6vectorIdSaIdEE11_S_max_sizeERKS0_,@function
_ZNSt6vectorIdSaIdEE11_S_max_sizeERKS0_: # @_ZNSt6vectorIdSaIdEE11_S_max_sizeERKS0_
	.cfi_startproc
# %bb.0:
	pushq	%rbp
	.cfi_def_cfa_offset 16
	.cfi_offset %rbp, -16
	movq	%rsp, %rbp
	.cfi_def_cfa_register %rbp
	subq	$16, %rsp
	movabsq	$1152921504606846975, %rax # imm = 0xFFFFFFFFFFFFFFF
	movq	%rax, -16(%rbp)
	callq	_ZNSt16allocator_traitsISaIdEE8max_sizeERKS0_
	movq	%rax, -8(%rbp)
	leaq	-16(%rbp), %rdi
	leaq	-8(%rbp), %rsi
	callq	_ZSt3minImERKT_S2_S2_
	movq	(%rax), %rax
	addq	$16, %rsp
	popq	%rbp
	.cfi_def_cfa %rsp, 8
	retq
.Lfunc_end153:
	.size	_ZNSt6vectorIdSaIdEE11_S_max_sizeERKS0_, .Lfunc_end153-_ZNSt6vectorIdSaIdEE11_S_max_sizeERKS0_
	.cfi_endproc
                                        # -- End function
	.section	.text._ZNSaIdEC2ERKS_,"axG",@progbits,_ZNSaIdEC2ERKS_,comdat
	.weak	_ZNSaIdEC2ERKS_         # -- Begin function _ZNSaIdEC2ERKS_
	.p2align	4, 0x90
	.type	_ZNSaIdEC2ERKS_,@function
_ZNSaIdEC2ERKS_:                        # @_ZNSaIdEC2ERKS_
	.cfi_startproc
# %bb.0:
	pushq	%rbp
	.cfi_def_cfa_offset 16
	.cfi_offset %rbp, -16
	movq	%rsp, %rbp
	.cfi_def_cfa_register %rbp
	popq	%rbp
	.cfi_def_cfa %rsp, 8
	jmp	_ZN9__gnu_cxx13new_allocatorIdEC2ERKS1_ # TAILCALL
.Lfunc_end154:
	.size	_ZNSaIdEC2ERKS_, .Lfunc_end154-_ZNSaIdEC2ERKS_
	.cfi_endproc
                                        # -- End function
	.section	.text._ZNSt16allocator_traitsISaIdEE8max_sizeERKS0_,"axG",@progbits,_ZNSt16allocator_traitsISaIdEE8max_sizeERKS0_,comdat
	.weak	_ZNSt16allocator_traitsISaIdEE8max_sizeERKS0_ # -- Begin function _ZNSt16allocator_traitsISaIdEE8max_sizeERKS0_
	.p2align	4, 0x90
	.type	_ZNSt16allocator_traitsISaIdEE8max_sizeERKS0_,@function
_ZNSt16allocator_traitsISaIdEE8max_sizeERKS0_: # @_ZNSt16allocator_traitsISaIdEE8max_sizeERKS0_
	.cfi_startproc
# %bb.0:
	pushq	%rbp
	.cfi_def_cfa_offset 16
	.cfi_offset %rbp, -16
	movq	%rsp, %rbp
	.cfi_def_cfa_register %rbp
	popq	%rbp
	.cfi_def_cfa %rsp, 8
	jmp	_ZNK9__gnu_cxx13new_allocatorIdE8max_sizeEv # TAILCALL
.Lfunc_end155:
	.size	_ZNSt16allocator_traitsISaIdEE8max_sizeERKS0_, .Lfunc_end155-_ZNSt16allocator_traitsISaIdEE8max_sizeERKS0_
	.cfi_endproc
                                        # -- End function
	.section	.text._ZSt3minImERKT_S2_S2_,"axG",@progbits,_ZSt3minImERKT_S2_S2_,comdat
	.weak	_ZSt3minImERKT_S2_S2_   # -- Begin function _ZSt3minImERKT_S2_S2_
	.p2align	4, 0x90
	.type	_ZSt3minImERKT_S2_S2_,@function
_ZSt3minImERKT_S2_S2_:                  # @_ZSt3minImERKT_S2_S2_
	.cfi_startproc
# %bb.0:
	pushq	%rbp
	.cfi_def_cfa_offset 16
	.cfi_offset %rbp, -16
	movq	%rsp, %rbp
	.cfi_def_cfa_register %rbp
	movq	%rdi, %rax
	movq	(%rsi), %rcx
	cmpq	(%rdi), %rcx
	cmovbq	%rsi, %rax
	popq	%rbp
	.cfi_def_cfa %rsp, 8
	retq
.Lfunc_end156:
	.size	_ZSt3minImERKT_S2_S2_, .Lfunc_end156-_ZSt3minImERKT_S2_S2_
	.cfi_endproc
                                        # -- End function
	.section	.text._ZSt18uninitialized_copyIPdS0_ET0_T_S2_S1_,"axG",@progbits,_ZSt18uninitialized_copyIPdS0_ET0_T_S2_S1_,comdat
	.weak	_ZSt18uninitialized_copyIPdS0_ET0_T_S2_S1_ # -- Begin function _ZSt18uninitialized_copyIPdS0_ET0_T_S2_S1_
	.p2align	4, 0x90
	.type	_ZSt18uninitialized_copyIPdS0_ET0_T_S2_S1_,@function
_ZSt18uninitialized_copyIPdS0_ET0_T_S2_S1_: # @_ZSt18uninitialized_copyIPdS0_ET0_T_S2_S1_
	.cfi_startproc
# %bb.0:
	pushq	%rbp
	.cfi_def_cfa_offset 16
	.cfi_offset %rbp, -16
	movq	%rsp, %rbp
	.cfi_def_cfa_register %rbp
	popq	%rbp
	.cfi_def_cfa %rsp, 8
	jmp	_ZNSt20__uninitialized_copyILb1EE13__uninit_copyIPdS2_EET0_T_S4_S3_ # TAILCALL
.Lfunc_end157:
	.size	_ZSt18uninitialized_copyIPdS0_ET0_T_S2_S1_, .Lfunc_end157-_ZSt18uninitialized_copyIPdS0_ET0_T_S2_S1_
	.cfi_endproc
                                        # -- End function
	.section	.text._ZNSt20__uninitialized_copyILb1EE13__uninit_copyIPdS2_EET0_T_S4_S3_,"axG",@progbits,_ZNSt20__uninitialized_copyILb1EE13__uninit_copyIPdS2_EET0_T_S4_S3_,comdat
	.weak	_ZNSt20__uninitialized_copyILb1EE13__uninit_copyIPdS2_EET0_T_S4_S3_ # -- Begin function _ZNSt20__uninitialized_copyILb1EE13__uninit_copyIPdS2_EET0_T_S4_S3_
	.p2align	4, 0x90
	.type	_ZNSt20__uninitialized_copyILb1EE13__uninit_copyIPdS2_EET0_T_S4_S3_,@function
_ZNSt20__uninitialized_copyILb1EE13__uninit_copyIPdS2_EET0_T_S4_S3_: # @_ZNSt20__uninitialized_copyILb1EE13__uninit_copyIPdS2_EET0_T_S4_S3_
	.cfi_startproc
# %bb.0:
	pushq	%rbp
	.cfi_def_cfa_offset 16
	.cfi_offset %rbp, -16
	movq	%rsp, %rbp
	.cfi_def_cfa_register %rbp
	popq	%rbp
	.cfi_def_cfa %rsp, 8
	jmp	_ZSt4copyIPdS0_ET0_T_S2_S1_ # TAILCALL
.Lfunc_end158:
	.size	_ZNSt20__uninitialized_copyILb1EE13__uninit_copyIPdS2_EET0_T_S4_S3_, .Lfunc_end158-_ZNSt20__uninitialized_copyILb1EE13__uninit_copyIPdS2_EET0_T_S4_S3_
	.cfi_endproc
                                        # -- End function
	.section	.text._ZN9__gnu_cxx17__normal_iteratorIPdSt6vectorIdSaIdEEEC2ERKS1_,"axG",@progbits,_ZN9__gnu_cxx17__normal_iteratorIPdSt6vectorIdSaIdEEEC2ERKS1_,comdat
	.weak	_ZN9__gnu_cxx17__normal_iteratorIPdSt6vectorIdSaIdEEEC2ERKS1_ # -- Begin function _ZN9__gnu_cxx17__normal_iteratorIPdSt6vectorIdSaIdEEEC2ERKS1_
	.p2align	4, 0x90
	.type	_ZN9__gnu_cxx17__normal_iteratorIPdSt6vectorIdSaIdEEEC2ERKS1_,@function
_ZN9__gnu_cxx17__normal_iteratorIPdSt6vectorIdSaIdEEEC2ERKS1_: # @_ZN9__gnu_cxx17__normal_iteratorIPdSt6vectorIdSaIdEEEC2ERKS1_
	.cfi_startproc
# %bb.0:
	pushq	%rbp
	.cfi_def_cfa_offset 16
	.cfi_offset %rbp, -16
	movq	%rsp, %rbp
	.cfi_def_cfa_register %rbp
	movq	(%rsi), %rax
	movq	%rax, (%rdi)
	popq	%rbp
	.cfi_def_cfa %rsp, 8
	retq
.Lfunc_end159:
	.size	_ZN9__gnu_cxx17__normal_iteratorIPdSt6vectorIdSaIdEEEC2ERKS1_, .Lfunc_end159-_ZN9__gnu_cxx17__normal_iteratorIPdSt6vectorIdSaIdEEEC2ERKS1_
	.cfi_endproc
                                        # -- End function
	.section	.text._ZSt6__sortIN9__gnu_cxx17__normal_iteratorIPdSt6vectorIdSaIdEEEENS0_5__ops15_Iter_less_iterEEvT_S9_T0_,"axG",@progbits,_ZSt6__sortIN9__gnu_cxx17__normal_iteratorIPdSt6vectorIdSaIdEEEENS0_5__ops15_Iter_less_iterEEvT_S9_T0_,comdat
	.weak	_ZSt6__sortIN9__gnu_cxx17__normal_iteratorIPdSt6vectorIdSaIdEEEENS0_5__ops15_Iter_less_iterEEvT_S9_T0_ # -- Begin function _ZSt6__sortIN9__gnu_cxx17__normal_iteratorIPdSt6vectorIdSaIdEEEENS0_5__ops15_Iter_less_iterEEvT_S9_T0_
	.p2align	4, 0x90
	.type	_ZSt6__sortIN9__gnu_cxx17__normal_iteratorIPdSt6vectorIdSaIdEEEENS0_5__ops15_Iter_less_iterEEvT_S9_T0_,@function
_ZSt6__sortIN9__gnu_cxx17__normal_iteratorIPdSt6vectorIdSaIdEEEENS0_5__ops15_Iter_less_iterEEvT_S9_T0_: # @_ZSt6__sortIN9__gnu_cxx17__normal_iteratorIPdSt6vectorIdSaIdEEEENS0_5__ops15_Iter_less_iterEEvT_S9_T0_
	.cfi_startproc
# %bb.0:
	pushq	%rbp
	.cfi_def_cfa_offset 16
	.cfi_offset %rbp, -16
	movq	%rsp, %rbp
	.cfi_def_cfa_register %rbp
	pushq	%r14
	pushq	%rbx
	subq	$16, %rsp
	.cfi_offset %rbx, -32
	.cfi_offset %r14, -24
	movq	%rdi, -32(%rbp)
	movq	%rsi, -24(%rbp)
	leaq	-32(%rbp), %rdi
	leaq	-24(%rbp), %rsi
	callq	_ZN9__gnu_cxxneIPdSt6vectorIdSaIdEEEEbRKNS_17__normal_iteratorIT_T0_EESA_
	testb	%al, %al
	je	.LBB160_2
# %bb.1:
	movq	-32(%rbp), %rbx
	movq	-24(%rbp), %r14
	leaq	-24(%rbp), %rdi
	leaq	-32(%rbp), %rsi
	callq	_ZN9__gnu_cxxmiIPdSt6vectorIdSaIdEEEENS_17__normal_iteratorIT_T0_E15difference_typeERKS8_SB_
	movq	%rax, %rdi
	callq	_ZSt4__lgl
	leaq	(%rax,%rax), %rdx
	movq	%rbx, %rdi
	movq	%r14, %rsi
	callq	_ZSt16__introsort_loopIN9__gnu_cxx17__normal_iteratorIPdSt6vectorIdSaIdEEEElNS0_5__ops15_Iter_less_iterEEvT_S9_T0_T1_
	movq	-32(%rbp), %rdi
	movq	-24(%rbp), %rsi
	callq	_ZSt22__final_insertion_sortIN9__gnu_cxx17__normal_iteratorIPdSt6vectorIdSaIdEEEENS0_5__ops15_Iter_less_iterEEvT_S9_T0_
.LBB160_2:
	addq	$16, %rsp
	popq	%rbx
	popq	%r14
	popq	%rbp
	.cfi_def_cfa %rsp, 8
	retq
.Lfunc_end160:
	.size	_ZSt6__sortIN9__gnu_cxx17__normal_iteratorIPdSt6vectorIdSaIdEEEENS0_5__ops15_Iter_less_iterEEvT_S9_T0_, .Lfunc_end160-_ZSt6__sortIN9__gnu_cxx17__normal_iteratorIPdSt6vectorIdSaIdEEEENS0_5__ops15_Iter_less_iterEEvT_S9_T0_
	.cfi_endproc
                                        # -- End function
	.section	.text._ZN9__gnu_cxxneIPdSt6vectorIdSaIdEEEEbRKNS_17__normal_iteratorIT_T0_EESA_,"axG",@progbits,_ZN9__gnu_cxxneIPdSt6vectorIdSaIdEEEEbRKNS_17__normal_iteratorIT_T0_EESA_,comdat
	.weak	_ZN9__gnu_cxxneIPdSt6vectorIdSaIdEEEEbRKNS_17__normal_iteratorIT_T0_EESA_ # -- Begin function _ZN9__gnu_cxxneIPdSt6vectorIdSaIdEEEEbRKNS_17__normal_iteratorIT_T0_EESA_
	.p2align	4, 0x90
	.type	_ZN9__gnu_cxxneIPdSt6vectorIdSaIdEEEEbRKNS_17__normal_iteratorIT_T0_EESA_,@function
_ZN9__gnu_cxxneIPdSt6vectorIdSaIdEEEEbRKNS_17__normal_iteratorIT_T0_EESA_: # @_ZN9__gnu_cxxneIPdSt6vectorIdSaIdEEEEbRKNS_17__normal_iteratorIT_T0_EESA_
	.cfi_startproc
# %bb.0:
	pushq	%rbp
	.cfi_def_cfa_offset 16
	.cfi_offset %rbp, -16
	movq	%rsp, %rbp
	.cfi_def_cfa_register %rbp
	pushq	%r14
	pushq	%rbx
	.cfi_offset %rbx, -32
	.cfi_offset %r14, -24
	movq	%rsi, %r14
	callq	_ZNK9__gnu_cxx17__normal_iteratorIPdSt6vectorIdSaIdEEE4baseEv
	movq	(%rax), %rbx
	movq	%r14, %rdi
	callq	_ZNK9__gnu_cxx17__normal_iteratorIPdSt6vectorIdSaIdEEE4baseEv
	cmpq	(%rax), %rbx
	setne	%al
	popq	%rbx
	popq	%r14
	popq	%rbp
	.cfi_def_cfa %rsp, 8
	retq
.Lfunc_end161:
	.size	_ZN9__gnu_cxxneIPdSt6vectorIdSaIdEEEEbRKNS_17__normal_iteratorIT_T0_EESA_, .Lfunc_end161-_ZN9__gnu_cxxneIPdSt6vectorIdSaIdEEEEbRKNS_17__normal_iteratorIT_T0_EESA_
	.cfi_endproc
                                        # -- End function
	.section	.text._ZSt16__introsort_loopIN9__gnu_cxx17__normal_iteratorIPdSt6vectorIdSaIdEEEElNS0_5__ops15_Iter_less_iterEEvT_S9_T0_T1_,"axG",@progbits,_ZSt16__introsort_loopIN9__gnu_cxx17__normal_iteratorIPdSt6vectorIdSaIdEEEElNS0_5__ops15_Iter_less_iterEEvT_S9_T0_T1_,comdat
	.weak	_ZSt16__introsort_loopIN9__gnu_cxx17__normal_iteratorIPdSt6vectorIdSaIdEEEElNS0_5__ops15_Iter_less_iterEEvT_S9_T0_T1_ # -- Begin function _ZSt16__introsort_loopIN9__gnu_cxx17__normal_iteratorIPdSt6vectorIdSaIdEEEElNS0_5__ops15_Iter_less_iterEEvT_S9_T0_T1_
	.p2align	4, 0x90
	.type	_ZSt16__introsort_loopIN9__gnu_cxx17__normal_iteratorIPdSt6vectorIdSaIdEEEElNS0_5__ops15_Iter_less_iterEEvT_S9_T0_T1_,@function
_ZSt16__introsort_loopIN9__gnu_cxx17__normal_iteratorIPdSt6vectorIdSaIdEEEElNS0_5__ops15_Iter_less_iterEEvT_S9_T0_T1_: # @_ZSt16__introsort_loopIN9__gnu_cxx17__normal_iteratorIPdSt6vectorIdSaIdEEEElNS0_5__ops15_Iter_less_iterEEvT_S9_T0_T1_
	.cfi_startproc
# %bb.0:
	pushq	%rbp
	.cfi_def_cfa_offset 16
	.cfi_offset %rbp, -16
	movq	%rsp, %rbp
	.cfi_def_cfa_register %rbp
	pushq	%r15
	pushq	%r14
	pushq	%r12
	pushq	%rbx
	subq	$16, %rsp
	.cfi_offset %rbx, -48
	.cfi_offset %r12, -40
	.cfi_offset %r14, -32
	.cfi_offset %r15, -24
	movq	%rdx, %r12
	movq	%rsi, %rbx
	movq	%rdi, -48(%rbp)
	addq	$-1, %r12
	leaq	-40(%rbp), %r14
	leaq	-48(%rbp), %r15
	.p2align	4, 0x90
.LBB162_1:                              # =>This Inner Loop Header: Depth=1
	movq	%rbx, -40(%rbp)
	movq	%r14, %rdi
	movq	%r15, %rsi
	callq	_ZN9__gnu_cxxmiIPdSt6vectorIdSaIdEEEENS_17__normal_iteratorIT_T0_E15difference_typeERKS8_SB_
	cmpq	$17, %rax
	jl	.LBB162_4
# %bb.2:                                #   in Loop: Header=BB162_1 Depth=1
	cmpq	$-1, %r12
	je	.LBB162_3
# %bb.5:                                #   in Loop: Header=BB162_1 Depth=1
	movq	-48(%rbp), %rdi
	movq	-40(%rbp), %rsi
	callq	_ZSt27__unguarded_partition_pivotIN9__gnu_cxx17__normal_iteratorIPdSt6vectorIdSaIdEEEENS0_5__ops15_Iter_less_iterEET_S9_S9_T0_
	movq	%rax, %rbx
	movq	-40(%rbp), %rsi
	movq	%rax, %rdi
	movq	%r12, %rdx
	callq	_ZSt16__introsort_loopIN9__gnu_cxx17__normal_iteratorIPdSt6vectorIdSaIdEEEElNS0_5__ops15_Iter_less_iterEEvT_S9_T0_T1_
	addq	$-1, %r12
	jmp	.LBB162_1
.LBB162_3:
	movq	-48(%rbp), %rdi
	movq	-40(%rbp), %rdx
	movq	%rdx, %rsi
	callq	_ZSt14__partial_sortIN9__gnu_cxx17__normal_iteratorIPdSt6vectorIdSaIdEEEENS0_5__ops15_Iter_less_iterEEvT_S9_S9_T0_
.LBB162_4:                              # %.loopexit
	addq	$16, %rsp
	popq	%rbx
	popq	%r12
	popq	%r14
	popq	%r15
	popq	%rbp
	.cfi_def_cfa %rsp, 8
	retq
.Lfunc_end162:
	.size	_ZSt16__introsort_loopIN9__gnu_cxx17__normal_iteratorIPdSt6vectorIdSaIdEEEElNS0_5__ops15_Iter_less_iterEEvT_S9_T0_T1_, .Lfunc_end162-_ZSt16__introsort_loopIN9__gnu_cxx17__normal_iteratorIPdSt6vectorIdSaIdEEEElNS0_5__ops15_Iter_less_iterEEvT_S9_T0_T1_
	.cfi_endproc
                                        # -- End function
	.section	.text._ZN9__gnu_cxxmiIPdSt6vectorIdSaIdEEEENS_17__normal_iteratorIT_T0_E15difference_typeERKS8_SB_,"axG",@progbits,_ZN9__gnu_cxxmiIPdSt6vectorIdSaIdEEEENS_17__normal_iteratorIT_T0_E15difference_typeERKS8_SB_,comdat
	.weak	_ZN9__gnu_cxxmiIPdSt6vectorIdSaIdEEEENS_17__normal_iteratorIT_T0_E15difference_typeERKS8_SB_ # -- Begin function _ZN9__gnu_cxxmiIPdSt6vectorIdSaIdEEEENS_17__normal_iteratorIT_T0_E15difference_typeERKS8_SB_
	.p2align	4, 0x90
	.type	_ZN9__gnu_cxxmiIPdSt6vectorIdSaIdEEEENS_17__normal_iteratorIT_T0_E15difference_typeERKS8_SB_,@function
_ZN9__gnu_cxxmiIPdSt6vectorIdSaIdEEEENS_17__normal_iteratorIT_T0_E15difference_typeERKS8_SB_: # @_ZN9__gnu_cxxmiIPdSt6vectorIdSaIdEEEENS_17__normal_iteratorIT_T0_E15difference_typeERKS8_SB_
	.cfi_startproc
# %bb.0:
	pushq	%rbp
	.cfi_def_cfa_offset 16
	.cfi_offset %rbp, -16
	movq	%rsp, %rbp
	.cfi_def_cfa_register %rbp
	pushq	%r14
	pushq	%rbx
	.cfi_offset %rbx, -32
	.cfi_offset %r14, -24
	movq	%rsi, %r14
	callq	_ZNK9__gnu_cxx17__normal_iteratorIPdSt6vectorIdSaIdEEE4baseEv
	movq	(%rax), %rbx
	movq	%r14, %rdi
	callq	_ZNK9__gnu_cxx17__normal_iteratorIPdSt6vectorIdSaIdEEE4baseEv
	subq	(%rax), %rbx
	sarq	$3, %rbx
	movq	%rbx, %rax
	popq	%rbx
	popq	%r14
	popq	%rbp
	.cfi_def_cfa %rsp, 8
	retq
.Lfunc_end163:
	.size	_ZN9__gnu_cxxmiIPdSt6vectorIdSaIdEEEENS_17__normal_iteratorIT_T0_E15difference_typeERKS8_SB_, .Lfunc_end163-_ZN9__gnu_cxxmiIPdSt6vectorIdSaIdEEEENS_17__normal_iteratorIT_T0_E15difference_typeERKS8_SB_
	.cfi_endproc
                                        # -- End function
	.section	.text._ZSt22__final_insertion_sortIN9__gnu_cxx17__normal_iteratorIPdSt6vectorIdSaIdEEEENS0_5__ops15_Iter_less_iterEEvT_S9_T0_,"axG",@progbits,_ZSt22__final_insertion_sortIN9__gnu_cxx17__normal_iteratorIPdSt6vectorIdSaIdEEEENS0_5__ops15_Iter_less_iterEEvT_S9_T0_,comdat
	.weak	_ZSt22__final_insertion_sortIN9__gnu_cxx17__normal_iteratorIPdSt6vectorIdSaIdEEEENS0_5__ops15_Iter_less_iterEEvT_S9_T0_ # -- Begin function _ZSt22__final_insertion_sortIN9__gnu_cxx17__normal_iteratorIPdSt6vectorIdSaIdEEEENS0_5__ops15_Iter_less_iterEEvT_S9_T0_
	.p2align	4, 0x90
	.type	_ZSt22__final_insertion_sortIN9__gnu_cxx17__normal_iteratorIPdSt6vectorIdSaIdEEEENS0_5__ops15_Iter_less_iterEEvT_S9_T0_,@function
_ZSt22__final_insertion_sortIN9__gnu_cxx17__normal_iteratorIPdSt6vectorIdSaIdEEEENS0_5__ops15_Iter_less_iterEEvT_S9_T0_: # @_ZSt22__final_insertion_sortIN9__gnu_cxx17__normal_iteratorIPdSt6vectorIdSaIdEEEENS0_5__ops15_Iter_less_iterEEvT_S9_T0_
	.cfi_startproc
# %bb.0:
	pushq	%rbp
	.cfi_def_cfa_offset 16
	.cfi_offset %rbp, -16
	movq	%rsp, %rbp
	.cfi_def_cfa_register %rbp
	pushq	%r14
	pushq	%rbx
	subq	$16, %rsp
	.cfi_offset %rbx, -32
	.cfi_offset %r14, -24
	movq	%rdi, -32(%rbp)
	movq	%rsi, -24(%rbp)
	leaq	-24(%rbp), %rdi
	leaq	-32(%rbp), %rsi
	callq	_ZN9__gnu_cxxmiIPdSt6vectorIdSaIdEEEENS_17__normal_iteratorIT_T0_E15difference_typeERKS8_SB_
	movq	-32(%rbp), %rbx
	cmpq	$17, %rax
	jl	.LBB164_2
# %bb.1:
	leaq	-32(%rbp), %r14
	movl	$16, %esi
	movq	%r14, %rdi
	callq	_ZNK9__gnu_cxx17__normal_iteratorIPdSt6vectorIdSaIdEEEplEl
	movq	%rbx, %rdi
	movq	%rax, %rsi
	callq	_ZSt16__insertion_sortIN9__gnu_cxx17__normal_iteratorIPdSt6vectorIdSaIdEEEENS0_5__ops15_Iter_less_iterEEvT_S9_T0_
	movl	$16, %esi
	movq	%r14, %rdi
	callq	_ZNK9__gnu_cxx17__normal_iteratorIPdSt6vectorIdSaIdEEEplEl
	movq	-24(%rbp), %rsi
	movq	%rax, %rdi
	callq	_ZSt26__unguarded_insertion_sortIN9__gnu_cxx17__normal_iteratorIPdSt6vectorIdSaIdEEEENS0_5__ops15_Iter_less_iterEEvT_S9_T0_
	jmp	.LBB164_3
.LBB164_2:
	movq	-24(%rbp), %rsi
	movq	%rbx, %rdi
	callq	_ZSt16__insertion_sortIN9__gnu_cxx17__normal_iteratorIPdSt6vectorIdSaIdEEEENS0_5__ops15_Iter_less_iterEEvT_S9_T0_
.LBB164_3:
	addq	$16, %rsp
	popq	%rbx
	popq	%r14
	popq	%rbp
	.cfi_def_cfa %rsp, 8
	retq
.Lfunc_end164:
	.size	_ZSt22__final_insertion_sortIN9__gnu_cxx17__normal_iteratorIPdSt6vectorIdSaIdEEEENS0_5__ops15_Iter_less_iterEEvT_S9_T0_, .Lfunc_end164-_ZSt22__final_insertion_sortIN9__gnu_cxx17__normal_iteratorIPdSt6vectorIdSaIdEEEENS0_5__ops15_Iter_less_iterEEvT_S9_T0_
	.cfi_endproc
                                        # -- End function
	.section	.text._ZNK9__gnu_cxx17__normal_iteratorIPdSt6vectorIdSaIdEEE4baseEv,"axG",@progbits,_ZNK9__gnu_cxx17__normal_iteratorIPdSt6vectorIdSaIdEEE4baseEv,comdat
	.weak	_ZNK9__gnu_cxx17__normal_iteratorIPdSt6vectorIdSaIdEEE4baseEv # -- Begin function _ZNK9__gnu_cxx17__normal_iteratorIPdSt6vectorIdSaIdEEE4baseEv
	.p2align	4, 0x90
	.type	_ZNK9__gnu_cxx17__normal_iteratorIPdSt6vectorIdSaIdEEE4baseEv,@function
_ZNK9__gnu_cxx17__normal_iteratorIPdSt6vectorIdSaIdEEE4baseEv: # @_ZNK9__gnu_cxx17__normal_iteratorIPdSt6vectorIdSaIdEEE4baseEv
	.cfi_startproc
# %bb.0:
	pushq	%rbp
	.cfi_def_cfa_offset 16
	.cfi_offset %rbp, -16
	movq	%rsp, %rbp
	.cfi_def_cfa_register %rbp
	movq	%rdi, %rax
	popq	%rbp
	.cfi_def_cfa %rsp, 8
	retq
.Lfunc_end165:
	.size	_ZNK9__gnu_cxx17__normal_iteratorIPdSt6vectorIdSaIdEEE4baseEv, .Lfunc_end165-_ZNK9__gnu_cxx17__normal_iteratorIPdSt6vectorIdSaIdEEE4baseEv
	.cfi_endproc
                                        # -- End function
	.section	.text._ZSt14__partial_sortIN9__gnu_cxx17__normal_iteratorIPdSt6vectorIdSaIdEEEENS0_5__ops15_Iter_less_iterEEvT_S9_S9_T0_,"axG",@progbits,_ZSt14__partial_sortIN9__gnu_cxx17__normal_iteratorIPdSt6vectorIdSaIdEEEENS0_5__ops15_Iter_less_iterEEvT_S9_S9_T0_,comdat
	.weak	_ZSt14__partial_sortIN9__gnu_cxx17__normal_iteratorIPdSt6vectorIdSaIdEEEENS0_5__ops15_Iter_less_iterEEvT_S9_S9_T0_ # -- Begin function _ZSt14__partial_sortIN9__gnu_cxx17__normal_iteratorIPdSt6vectorIdSaIdEEEENS0_5__ops15_Iter_less_iterEEvT_S9_S9_T0_
	.p2align	4, 0x90
	.type	_ZSt14__partial_sortIN9__gnu_cxx17__normal_iteratorIPdSt6vectorIdSaIdEEEENS0_5__ops15_Iter_less_iterEEvT_S9_S9_T0_,@function
_ZSt14__partial_sortIN9__gnu_cxx17__normal_iteratorIPdSt6vectorIdSaIdEEEENS0_5__ops15_Iter_less_iterEEvT_S9_S9_T0_: # @_ZSt14__partial_sortIN9__gnu_cxx17__normal_iteratorIPdSt6vectorIdSaIdEEEENS0_5__ops15_Iter_less_iterEEvT_S9_S9_T0_
	.cfi_startproc
# %bb.0:
	pushq	%rbp
	.cfi_def_cfa_offset 16
	.cfi_offset %rbp, -16
	movq	%rsp, %rbp
	.cfi_def_cfa_register %rbp
	pushq	%r14
	pushq	%rbx
	subq	$16, %rsp
	.cfi_offset %rbx, -32
	.cfi_offset %r14, -24
	movq	%rsi, %r14
	movq	%rdi, %rbx
	callq	_ZSt13__heap_selectIN9__gnu_cxx17__normal_iteratorIPdSt6vectorIdSaIdEEEENS0_5__ops15_Iter_less_iterEEvT_S9_S9_T0_
	leaq	-24(%rbp), %rdx
	movq	%rbx, %rdi
	movq	%r14, %rsi
	callq	_ZSt11__sort_heapIN9__gnu_cxx17__normal_iteratorIPdSt6vectorIdSaIdEEEENS0_5__ops15_Iter_less_iterEEvT_S9_RT0_
	addq	$16, %rsp
	popq	%rbx
	popq	%r14
	popq	%rbp
	.cfi_def_cfa %rsp, 8
	retq
.Lfunc_end166:
	.size	_ZSt14__partial_sortIN9__gnu_cxx17__normal_iteratorIPdSt6vectorIdSaIdEEEENS0_5__ops15_Iter_less_iterEEvT_S9_S9_T0_, .Lfunc_end166-_ZSt14__partial_sortIN9__gnu_cxx17__normal_iteratorIPdSt6vectorIdSaIdEEEENS0_5__ops15_Iter_less_iterEEvT_S9_S9_T0_
	.cfi_endproc
                                        # -- End function
	.section	.text._ZSt27__unguarded_partition_pivotIN9__gnu_cxx17__normal_iteratorIPdSt6vectorIdSaIdEEEENS0_5__ops15_Iter_less_iterEET_S9_S9_T0_,"axG",@progbits,_ZSt27__unguarded_partition_pivotIN9__gnu_cxx17__normal_iteratorIPdSt6vectorIdSaIdEEEENS0_5__ops15_Iter_less_iterEET_S9_S9_T0_,comdat
	.weak	_ZSt27__unguarded_partition_pivotIN9__gnu_cxx17__normal_iteratorIPdSt6vectorIdSaIdEEEENS0_5__ops15_Iter_less_iterEET_S9_S9_T0_ # -- Begin function _ZSt27__unguarded_partition_pivotIN9__gnu_cxx17__normal_iteratorIPdSt6vectorIdSaIdEEEENS0_5__ops15_Iter_less_iterEET_S9_S9_T0_
	.p2align	4, 0x90
	.type	_ZSt27__unguarded_partition_pivotIN9__gnu_cxx17__normal_iteratorIPdSt6vectorIdSaIdEEEENS0_5__ops15_Iter_less_iterEET_S9_S9_T0_,@function
_ZSt27__unguarded_partition_pivotIN9__gnu_cxx17__normal_iteratorIPdSt6vectorIdSaIdEEEENS0_5__ops15_Iter_less_iterEET_S9_S9_T0_: # @_ZSt27__unguarded_partition_pivotIN9__gnu_cxx17__normal_iteratorIPdSt6vectorIdSaIdEEEENS0_5__ops15_Iter_less_iterEET_S9_S9_T0_
	.cfi_startproc
# %bb.0:
	pushq	%rbp
	.cfi_def_cfa_offset 16
	.cfi_offset %rbp, -16
	movq	%rsp, %rbp
	.cfi_def_cfa_register %rbp
	pushq	%r15
	pushq	%r14
	pushq	%r13
	pushq	%r12
	pushq	%rbx
	subq	$24, %rsp
	.cfi_offset %rbx, -56
	.cfi_offset %r12, -48
	.cfi_offset %r13, -40
	.cfi_offset %r14, -32
	.cfi_offset %r15, -24
	movq	%rdi, -48(%rbp)
	movq	%rsi, -56(%rbp)
	leaq	-56(%rbp), %r14
	leaq	-48(%rbp), %r15
	movq	%r14, %rdi
	movq	%r15, %rsi
	callq	_ZN9__gnu_cxxmiIPdSt6vectorIdSaIdEEEENS_17__normal_iteratorIT_T0_E15difference_typeERKS8_SB_
	movq	%rax, %rcx
	shrq	$63, %rcx
	leaq	(%rcx,%rax), %rsi
	sarq	%rsi
	movq	%r15, %rdi
	callq	_ZNK9__gnu_cxx17__normal_iteratorIPdSt6vectorIdSaIdEEEplEl
	movq	%rax, %r12
	movq	-48(%rbp), %r13
	movl	$1, %esi
	movq	%r15, %rdi
	callq	_ZNK9__gnu_cxx17__normal_iteratorIPdSt6vectorIdSaIdEEEplEl
	movq	%rax, %rbx
	movl	$1, %esi
	movq	%r14, %rdi
	callq	_ZNK9__gnu_cxx17__normal_iteratorIPdSt6vectorIdSaIdEEEmiEl
	movq	%r13, %rdi
	movq	%rbx, %rsi
	movq	%r12, %rdx
	movq	%rax, %rcx
	callq	_ZSt22__move_median_to_firstIN9__gnu_cxx17__normal_iteratorIPdSt6vectorIdSaIdEEEENS0_5__ops15_Iter_less_iterEEvT_S9_S9_S9_T0_
	movl	$1, %esi
	movq	%r15, %rdi
	callq	_ZNK9__gnu_cxx17__normal_iteratorIPdSt6vectorIdSaIdEEEplEl
	movq	-56(%rbp), %rsi
	movq	-48(%rbp), %rdx
	movq	%rax, %rdi
	callq	_ZSt21__unguarded_partitionIN9__gnu_cxx17__normal_iteratorIPdSt6vectorIdSaIdEEEENS0_5__ops15_Iter_less_iterEET_S9_S9_S9_T0_
	addq	$24, %rsp
	popq	%rbx
	popq	%r12
	popq	%r13
	popq	%r14
	popq	%r15
	popq	%rbp
	.cfi_def_cfa %rsp, 8
	retq
.Lfunc_end167:
	.size	_ZSt27__unguarded_partition_pivotIN9__gnu_cxx17__normal_iteratorIPdSt6vectorIdSaIdEEEENS0_5__ops15_Iter_less_iterEET_S9_S9_T0_, .Lfunc_end167-_ZSt27__unguarded_partition_pivotIN9__gnu_cxx17__normal_iteratorIPdSt6vectorIdSaIdEEEENS0_5__ops15_Iter_less_iterEET_S9_S9_T0_
	.cfi_endproc
                                        # -- End function
	.section	.text._ZSt13__heap_selectIN9__gnu_cxx17__normal_iteratorIPdSt6vectorIdSaIdEEEENS0_5__ops15_Iter_less_iterEEvT_S9_S9_T0_,"axG",@progbits,_ZSt13__heap_selectIN9__gnu_cxx17__normal_iteratorIPdSt6vectorIdSaIdEEEENS0_5__ops15_Iter_less_iterEEvT_S9_S9_T0_,comdat
	.weak	_ZSt13__heap_selectIN9__gnu_cxx17__normal_iteratorIPdSt6vectorIdSaIdEEEENS0_5__ops15_Iter_less_iterEEvT_S9_S9_T0_ # -- Begin function _ZSt13__heap_selectIN9__gnu_cxx17__normal_iteratorIPdSt6vectorIdSaIdEEEENS0_5__ops15_Iter_less_iterEEvT_S9_S9_T0_
	.p2align	4, 0x90
	.type	_ZSt13__heap_selectIN9__gnu_cxx17__normal_iteratorIPdSt6vectorIdSaIdEEEENS0_5__ops15_Iter_less_iterEEvT_S9_S9_T0_,@function
_ZSt13__heap_selectIN9__gnu_cxx17__normal_iteratorIPdSt6vectorIdSaIdEEEENS0_5__ops15_Iter_less_iterEEvT_S9_S9_T0_: # @_ZSt13__heap_selectIN9__gnu_cxx17__normal_iteratorIPdSt6vectorIdSaIdEEEENS0_5__ops15_Iter_less_iterEEvT_S9_S9_T0_
	.cfi_startproc
# %bb.0:
	pushq	%rbp
	.cfi_def_cfa_offset 16
	.cfi_offset %rbp, -16
	movq	%rsp, %rbp
	.cfi_def_cfa_register %rbp
	pushq	%r15
	pushq	%r14
	pushq	%r13
	pushq	%r12
	pushq	%rbx
	subq	$24, %rsp
	.cfi_offset %rbx, -56
	.cfi_offset %r12, -48
	.cfi_offset %r13, -40
	.cfi_offset %r14, -32
	.cfi_offset %r15, -24
	movq	%rsi, %r14
	movq	%rdi, %rbx
	movq	%rdx, -64(%rbp)
	leaq	-48(%rbp), %r15
	movq	%r15, %rdx
	callq	_ZSt11__make_heapIN9__gnu_cxx17__normal_iteratorIPdSt6vectorIdSaIdEEEENS0_5__ops15_Iter_less_iterEEvT_S9_RT0_
	movq	%r14, -56(%rbp)
	leaq	-56(%rbp), %r12
	leaq	-64(%rbp), %r13
	jmp	.LBB168_1
	.p2align	4, 0x90
.LBB168_4:                              #   in Loop: Header=BB168_1 Depth=1
	movq	%r12, %rdi
	callq	_ZN9__gnu_cxx17__normal_iteratorIPdSt6vectorIdSaIdEEEppEv
.LBB168_1:                              # =>This Inner Loop Header: Depth=1
	movq	%r12, %rdi
	movq	%r13, %rsi
	callq	_ZN9__gnu_cxxltIPdSt6vectorIdSaIdEEEEbRKNS_17__normal_iteratorIT_T0_EESA_
	testb	%al, %al
	je	.LBB168_5
# %bb.2:                                #   in Loop: Header=BB168_1 Depth=1
	movq	-56(%rbp), %rsi
	movq	%r15, %rdi
	movq	%rbx, %rdx
	callq	_ZNK9__gnu_cxx5__ops15_Iter_less_iterclINS_17__normal_iteratorIPdSt6vectorIdSaIdEEEES8_EEbT_T0_
	testb	%al, %al
	je	.LBB168_4
# %bb.3:                                #   in Loop: Header=BB168_1 Depth=1
	movq	-56(%rbp), %rdx
	movq	%rbx, %rdi
	movq	%r14, %rsi
	movq	%r15, %rcx
	callq	_ZSt10__pop_heapIN9__gnu_cxx17__normal_iteratorIPdSt6vectorIdSaIdEEEENS0_5__ops15_Iter_less_iterEEvT_S9_S9_RT0_
	jmp	.LBB168_4
.LBB168_5:
	addq	$24, %rsp
	popq	%rbx
	popq	%r12
	popq	%r13
	popq	%r14
	popq	%r15
	popq	%rbp
	.cfi_def_cfa %rsp, 8
	retq
.Lfunc_end168:
	.size	_ZSt13__heap_selectIN9__gnu_cxx17__normal_iteratorIPdSt6vectorIdSaIdEEEENS0_5__ops15_Iter_less_iterEEvT_S9_S9_T0_, .Lfunc_end168-_ZSt13__heap_selectIN9__gnu_cxx17__normal_iteratorIPdSt6vectorIdSaIdEEEENS0_5__ops15_Iter_less_iterEEvT_S9_S9_T0_
	.cfi_endproc
                                        # -- End function
	.section	.text._ZSt11__sort_heapIN9__gnu_cxx17__normal_iteratorIPdSt6vectorIdSaIdEEEENS0_5__ops15_Iter_less_iterEEvT_S9_RT0_,"axG",@progbits,_ZSt11__sort_heapIN9__gnu_cxx17__normal_iteratorIPdSt6vectorIdSaIdEEEENS0_5__ops15_Iter_less_iterEEvT_S9_RT0_,comdat
	.weak	_ZSt11__sort_heapIN9__gnu_cxx17__normal_iteratorIPdSt6vectorIdSaIdEEEENS0_5__ops15_Iter_less_iterEEvT_S9_RT0_ # -- Begin function _ZSt11__sort_heapIN9__gnu_cxx17__normal_iteratorIPdSt6vectorIdSaIdEEEENS0_5__ops15_Iter_less_iterEEvT_S9_RT0_
	.p2align	4, 0x90
	.type	_ZSt11__sort_heapIN9__gnu_cxx17__normal_iteratorIPdSt6vectorIdSaIdEEEENS0_5__ops15_Iter_less_iterEEvT_S9_RT0_,@function
_ZSt11__sort_heapIN9__gnu_cxx17__normal_iteratorIPdSt6vectorIdSaIdEEEENS0_5__ops15_Iter_less_iterEEvT_S9_RT0_: # @_ZSt11__sort_heapIN9__gnu_cxx17__normal_iteratorIPdSt6vectorIdSaIdEEEENS0_5__ops15_Iter_less_iterEEvT_S9_RT0_
	.cfi_startproc
# %bb.0:
	pushq	%rbp
	.cfi_def_cfa_offset 16
	.cfi_offset %rbp, -16
	movq	%rsp, %rbp
	.cfi_def_cfa_register %rbp
	pushq	%r15
	pushq	%r14
	pushq	%rbx
	subq	$24, %rsp
	.cfi_offset %rbx, -40
	.cfi_offset %r14, -32
	.cfi_offset %r15, -24
	movq	%rdx, %r14
	movq	%rdi, -40(%rbp)
	movq	%rsi, -32(%rbp)
	leaq	-32(%rbp), %rbx
	leaq	-40(%rbp), %r15
	.p2align	4, 0x90
.LBB169_1:                              # =>This Inner Loop Header: Depth=1
	movq	%rbx, %rdi
	movq	%r15, %rsi
	callq	_ZN9__gnu_cxxmiIPdSt6vectorIdSaIdEEEENS_17__normal_iteratorIT_T0_E15difference_typeERKS8_SB_
	cmpq	$2, %rax
	jl	.LBB169_3
# %bb.2:                                #   in Loop: Header=BB169_1 Depth=1
	movq	%rbx, %rdi
	callq	_ZN9__gnu_cxx17__normal_iteratorIPdSt6vectorIdSaIdEEEmmEv
	movq	-40(%rbp), %rdi
	movq	-32(%rbp), %rdx
	movq	%rdx, %rsi
	movq	%r14, %rcx
	callq	_ZSt10__pop_heapIN9__gnu_cxx17__normal_iteratorIPdSt6vectorIdSaIdEEEENS0_5__ops15_Iter_less_iterEEvT_S9_S9_RT0_
	jmp	.LBB169_1
.LBB169_3:
	addq	$24, %rsp
	popq	%rbx
	popq	%r14
	popq	%r15
	popq	%rbp
	.cfi_def_cfa %rsp, 8
	retq
.Lfunc_end169:
	.size	_ZSt11__sort_heapIN9__gnu_cxx17__normal_iteratorIPdSt6vectorIdSaIdEEEENS0_5__ops15_Iter_less_iterEEvT_S9_RT0_, .Lfunc_end169-_ZSt11__sort_heapIN9__gnu_cxx17__normal_iteratorIPdSt6vectorIdSaIdEEEENS0_5__ops15_Iter_less_iterEEvT_S9_RT0_
	.cfi_endproc
                                        # -- End function
	.section	.text._ZSt11__make_heapIN9__gnu_cxx17__normal_iteratorIPdSt6vectorIdSaIdEEEENS0_5__ops15_Iter_less_iterEEvT_S9_RT0_,"axG",@progbits,_ZSt11__make_heapIN9__gnu_cxx17__normal_iteratorIPdSt6vectorIdSaIdEEEENS0_5__ops15_Iter_less_iterEEvT_S9_RT0_,comdat
	.weak	_ZSt11__make_heapIN9__gnu_cxx17__normal_iteratorIPdSt6vectorIdSaIdEEEENS0_5__ops15_Iter_less_iterEEvT_S9_RT0_ # -- Begin function _ZSt11__make_heapIN9__gnu_cxx17__normal_iteratorIPdSt6vectorIdSaIdEEEENS0_5__ops15_Iter_less_iterEEvT_S9_RT0_
	.p2align	4, 0x90
	.type	_ZSt11__make_heapIN9__gnu_cxx17__normal_iteratorIPdSt6vectorIdSaIdEEEENS0_5__ops15_Iter_less_iterEEvT_S9_RT0_,@function
_ZSt11__make_heapIN9__gnu_cxx17__normal_iteratorIPdSt6vectorIdSaIdEEEENS0_5__ops15_Iter_less_iterEEvT_S9_RT0_: # @_ZSt11__make_heapIN9__gnu_cxx17__normal_iteratorIPdSt6vectorIdSaIdEEEENS0_5__ops15_Iter_less_iterEEvT_S9_RT0_
	.cfi_startproc
# %bb.0:
	pushq	%rbp
	.cfi_def_cfa_offset 16
	.cfi_offset %rbp, -16
	movq	%rsp, %rbp
	.cfi_def_cfa_register %rbp
	pushq	%r15
	pushq	%r14
	pushq	%r13
	pushq	%r12
	pushq	%rbx
	subq	$40, %rsp
	.cfi_offset %rbx, -56
	.cfi_offset %r12, -48
	.cfi_offset %r13, -40
	.cfi_offset %r14, -32
	.cfi_offset %r15, -24
	movq	%rdi, -48(%rbp)
	movq	%rsi, -56(%rbp)
	leaq	-56(%rbp), %rdi
	leaq	-48(%rbp), %rsi
	callq	_ZN9__gnu_cxxmiIPdSt6vectorIdSaIdEEEENS_17__normal_iteratorIT_T0_E15difference_typeERKS8_SB_
	cmpq	$2, %rax
	jl	.LBB170_3
# %bb.1:
	leaq	-56(%rbp), %rdi
	leaq	-48(%rbp), %rsi
	callq	_ZN9__gnu_cxxmiIPdSt6vectorIdSaIdEEEENS_17__normal_iteratorIT_T0_E15difference_typeERKS8_SB_
	movq	%rax, %r15
	addq	$-2, %rax
	shrq	$63, %rax
	leaq	(%r15,%rax), %rbx
	addq	$-2, %rbx
	sarq	%rbx
	leaq	-64(%rbp), %r12
	leaq	-72(%rbp), %r13
	.p2align	4, 0x90
.LBB170_2:                              # =>This Inner Loop Header: Depth=1
	leaq	-48(%rbp), %rdi
	movq	%rbx, %rsi
	callq	_ZNK9__gnu_cxx17__normal_iteratorIPdSt6vectorIdSaIdEEEplEl
	movq	%rax, -64(%rbp)
	movq	%r12, %rdi
	callq	_ZNK9__gnu_cxx17__normal_iteratorIPdSt6vectorIdSaIdEEEdeEv
	movq	%rax, %rdi
	callq	_ZSt4moveIRdEONSt16remove_referenceIT_E4typeEOS2_
	movq	(%rax), %rax
	movq	%rax, -72(%rbp)
	movq	-48(%rbp), %r14
	movq	%r13, %rdi
	callq	_ZSt4moveIRdEONSt16remove_referenceIT_E4typeEOS2_
	movsd	(%rax), %xmm0           # xmm0 = mem[0],zero
	movq	%r14, %rdi
	movq	%rbx, %rsi
	movq	%r15, %rdx
	callq	_ZSt13__adjust_heapIN9__gnu_cxx17__normal_iteratorIPdSt6vectorIdSaIdEEEEldNS0_5__ops15_Iter_less_iterEEvT_T0_SA_T1_T2_
	addq	$-1, %rbx
	jb	.LBB170_2
.LBB170_3:                              # %.loopexit
	addq	$40, %rsp
	popq	%rbx
	popq	%r12
	popq	%r13
	popq	%r14
	popq	%r15
	popq	%rbp
	.cfi_def_cfa %rsp, 8
