; ModuleID = '/home/intern24006/codebase/DifferentWaysToAddParenthesis.cpp'
source_filename = "/home/intern24006/codebase/DifferentWaysToAddParenthesis.cpp"
target datalayout = "e-m:e-p270:32:32-p271:32:32-p272:64:64-i64:64-f80:128-n8:16:32:64-S128"
target triple = "x86_64-unknown-linux-gnu"

%"class.std::ios_base::Init" = type { i8 }
%"class.std::basic_istream" = type { i32 (...)**, i64, %"class.std::basic_ios" }
%"class.std::basic_ios" = type { %"class.std::ios_base", %"class.std::basic_ostream"*, i8, i8, %"class.std::basic_streambuf"*, %"class.std::ctype"*, %"class.std::num_put"*, %"class.std::num_get"* }
%"class.std::ios_base" = type { i32 (...)**, i64, i64, i32, i32, i32, %"struct.std::ios_base::_Callback_list"*, %"struct.std::ios_base::_Words", [8 x %"struct.std::ios_base::_Words"], i32, %"struct.std::ios_base::_Words"*, %"class.std::locale" }
%"struct.std::ios_base::_Callback_list" = type { %"struct.std::ios_base::_Callback_list"*, void (i32, %"class.std::ios_base"*, i32)*, i32, i32 }
%"struct.std::ios_base::_Words" = type { i8*, i64 }
%"class.std::locale" = type { %"class.std::locale::_Impl"* }
%"class.std::locale::_Impl" = type { i32, %"class.std::locale::facet"**, i64, %"class.std::locale::facet"**, i8** }
%"class.std::locale::facet" = type <{ i32 (...)**, i32, [4 x i8] }>
%"class.std::basic_ostream" = type { i32 (...)**, %"class.std::basic_ios" }
%"class.std::basic_streambuf" = type { i32 (...)**, i8*, i8*, i8*, i8*, i8*, i8*, %"class.std::locale" }
%"class.std::ctype" = type <{ %"class.std::locale::facet.base", [4 x i8], %struct.__locale_struct*, i8, [7 x i8], i32*, i32*, i16*, i8, [256 x i8], [256 x i8], i8, [6 x i8] }>
%"class.std::locale::facet.base" = type <{ i32 (...)**, i32 }>
%struct.__locale_struct = type { [13 x %struct.__locale_data*], i16*, i32*, i32*, [13 x i8*] }
%struct.__locale_data = type opaque
%"class.std::num_put" = type { %"class.std::locale::facet.base", [4 x i8] }
%"class.std::num_get" = type { %"class.std::locale::facet.base", [4 x i8] }
%"struct.std::piecewise_construct_t" = type { i8 }
%"class.std::vector" = type { %"struct.std::_Vector_base" }
%"struct.std::_Vector_base" = type { %"struct.std::_Vector_base<int, std::allocator<int> >::_Vector_impl" }
%"struct.std::_Vector_base<int, std::allocator<int> >::_Vector_impl" = type { %"struct.std::_Vector_base<int, std::allocator<int> >::_Vector_impl_data" }
%"struct.std::_Vector_base<int, std::allocator<int> >::_Vector_impl_data" = type { i32*, i32*, i32* }
%"class.std::__cxx11::basic_string" = type { %"struct.std::__cxx11::basic_string<char, std::char_traits<char>, std::allocator<char> >::_Alloc_hider", i64, %union.anon }
%"struct.std::__cxx11::basic_string<char, std::char_traits<char>, std::allocator<char> >::_Alloc_hider" = type { i8* }
%union.anon = type { i64, [8 x i8] }
%"class.std::map" = type { %"class.std::_Rb_tree" }
%"class.std::_Rb_tree" = type { %"struct.std::_Rb_tree<std::__cxx11::basic_string<char>, std::pair<const std::__cxx11::basic_string<char>, std::vector<int, std::allocator<int> > >, std::_Select1st<std::pair<const std::__cxx11::basic_string<char>, std::vector<int, std::allocator<int> > > >, std::less<std::__cxx11::basic_string<char> >, std::allocator<std::pair<const std::__cxx11::basic_string<char>, std::vector<int, std::allocator<int> > > > >::_Rb_tree_impl" }
%"struct.std::_Rb_tree<std::__cxx11::basic_string<char>, std::pair<const std::__cxx11::basic_string<char>, std::vector<int, std::allocator<int> > >, std::_Select1st<std::pair<const std::__cxx11::basic_string<char>, std::vector<int, std::allocator<int> > > >, std::less<std::__cxx11::basic_string<char> >, std::allocator<std::pair<const std::__cxx11::basic_string<char>, std::vector<int, std::allocator<int> > > > >::_Rb_tree_impl" = type { %"struct.std::_Rb_tree_key_compare", %"struct.std::_Rb_tree_header" }
%"struct.std::_Rb_tree_key_compare" = type { %"struct.std::less" }
%"struct.std::less" = type { i8 }
%"struct.std::_Rb_tree_header" = type { %"struct.std::_Rb_tree_node_base", i64 }
%"struct.std::_Rb_tree_node_base" = type { i32, %"struct.std::_Rb_tree_node_base"*, %"struct.std::_Rb_tree_node_base"*, %"struct.std::_Rb_tree_node_base"* }
%"class.__gnu_cxx::__normal_iterator" = type { i32* }
%"class.std::initializer_list" = type { i32*, i64 }
%"class.std::allocator.0" = type { i8 }
%"struct.std::_Rb_tree_const_iterator" = type { %"struct.std::_Rb_tree_node_base"* }
%"struct.std::_Rb_tree_iterator" = type { %"struct.std::_Rb_tree_node_base"* }
%"class.std::tuple" = type { %"struct.std::_Tuple_impl" }
%"struct.std::_Tuple_impl" = type { %"struct.std::_Head_base" }
%"struct.std::_Head_base" = type { %"class.std::__cxx11::basic_string"* }
%"class.std::tuple.6" = type { i8 }
%"struct.std::pair" = type { %"class.std::__cxx11::basic_string", %"class.std::vector" }
%"class.__gnu_cxx::__normal_iterator.11" = type { i32* }
%"class.__gnu_cxx::new_allocator.1" = type { i8 }
%"struct.std::forward_iterator_tag" = type { i8 }
%"struct.std::random_access_iterator_tag" = type { i8 }
%struct._Save_errno = type { i32 }
%"struct.std::integral_constant" = type { i8 }
%"struct.std::is_same" = type { i8 }
%"class.std::allocator" = type { i8 }
%"class.__gnu_cxx::new_allocator" = type { i8 }
%"struct.std::_Rb_tree_node" = type { %"struct.std::_Rb_tree_node_base", %"struct.__gnu_cxx::__aligned_membuf" }
%"struct.__gnu_cxx::__aligned_membuf" = type { [56 x i8] }
%"struct.std::_Select1st" = type { i8 }
%"struct.std::pair.7" = type { %"struct.std::_Rb_tree_node_base"*, %"struct.std::_Rb_tree_node_base"* }
%"struct.std::_Index_tuple" = type { i8 }
%"struct.std::_Index_tuple.10" = type { i8 }
%"class.std::__pair_base" = type { i8 }
%"class.std::__pair_base.8" = type { i8 }

$_ZNKSt3mapINSt7__cxx1112basic_stringIcSt11char_traitsIcESaIcEEESt6vectorIiSaIiEESt4lessIS5_ESaISt4pairIKS5_S8_EEE5countERSC_ = comdat any

$_ZNSt3mapINSt7__cxx1112basic_stringIcSt11char_traitsIcESaIcEEESt6vectorIiSaIiEESt4lessIS5_ESaISt4pairIKS5_S8_EEEixERSC_ = comdat any

$_ZNSt6vectorIiSaIiEEC2ERKS1_ = comdat any

$_ZNSt6vectorIiSaIiEEC2Ev = comdat any

$_ZNSt6vectorIiSaIiEE5beginEv = comdat any

$_ZNSt6vectorIiSaIiEE3endEv = comdat any

$_ZN9__gnu_cxxneIPiSt6vectorIiSaIiEEEEbRKNS_17__normal_iteratorIT_T0_EESA_ = comdat any

$_ZNK9__gnu_cxx17__normal_iteratorIPiSt6vectorIiSaIiEEEdeEv = comdat any

$_ZNSt6vectorIiSaIiEE12emplace_backIJiEEEvDpOT_ = comdat any

$_ZN9__gnu_cxx17__normal_iteratorIPiSt6vectorIiSaIiEEEppEv = comdat any

$_ZNSt6vectorIiSaIiEED2Ev = comdat any

$_ZNKSt6vectorIiSaIiEE5emptyEv = comdat any

$_ZNSt7__cxx114stoiERKNS_12basic_stringIcSt11char_traitsIcESaIcEEEPmi = comdat any

$_ZNSaIiEC2Ev = comdat any

$_ZNSt6vectorIiSaIiEEC2ESt16initializer_listIiERKS0_ = comdat any

$_ZNSaIiED2Ev = comdat any

$_ZNSt6vectorIiSaIiEEC2EOS1_ = comdat any

$_ZNSt3mapINSt7__cxx1112basic_stringIcSt11char_traitsIcESaIcEEESt6vectorIiSaIiEESt4lessIS5_ESaISt4pairIKS5_S8_EEEC2Ev = comdat any

$_ZNSt3mapINSt7__cxx1112basic_stringIcSt11char_traitsIcESaIcEEESt6vectorIiSaIiEESt4lessIS5_ESaISt4pairIKS5_S8_EEED2Ev = comdat any

$_ZNSt12_Vector_baseIiSaIiEEC2Ev = comdat any

$_ZNSt12_Vector_baseIiSaIiEE12_Vector_implC2Ev = comdat any

$_ZNSt12_Vector_baseIiSaIiEE17_Vector_impl_dataC2Ev = comdat any

$_ZN9__gnu_cxx13new_allocatorIiEC2Ev = comdat any

$_ZN9__gnu_cxx6__stoaIlicJiEEET0_PFT_PKT1_PPS3_DpT2_EPKcS5_PmS9_ = comdat any

$_ZZN9__gnu_cxx6__stoaIlicJiEEET0_PFT_PKT1_PPS3_DpT2_EPKcS5_PmS9_EN11_Save_errnoC2Ev = comdat any

$_ZZN9__gnu_cxx6__stoaIlicJiEEET0_PFT_PKT1_PPS3_DpT2_EPKcS5_PmS9_EN10_Range_chk6_S_chkElSt17integral_constantIbLb1EE = comdat any

$_ZZN9__gnu_cxx6__stoaIlicJiEEET0_PFT_PKT1_PPS3_DpT2_EPKcS5_PmS9_EN11_Save_errnoD2Ev = comdat any

$_ZNSt12_Vector_baseIiSaIiEEC2EOS1_ = comdat any

$_ZNSt12_Vector_baseIiSaIiEE12_Vector_implC2EOS2_ = comdat any

$_ZSt4moveIRNSt12_Vector_baseIiSaIiEE12_Vector_implEEONSt16remove_referenceIT_E4typeEOS6_ = comdat any

$_ZNSt12_Vector_baseIiSaIiEE17_Vector_impl_dataC2EOS2_ = comdat any

$_ZN9__gnu_cxx13new_allocatorIiEC2ERKS1_ = comdat any

$_ZNSt8_Rb_treeINSt7__cxx1112basic_stringIcSt11char_traitsIcESaIcEEESt4pairIKS5_St6vectorIiSaIiEEESt10_Select1stISB_ESt4lessIS5_ESaISB_EEC2Ev = comdat any

$_ZNSt8_Rb_treeINSt7__cxx1112basic_stringIcSt11char_traitsIcESaIcEEESt4pairIKS5_St6vectorIiSaIiEEESt10_Select1stISB_ESt4lessIS5_ESaISB_EE13_Rb_tree_implISF_Lb1EEC2Ev = comdat any

$_ZNSaISt13_Rb_tree_nodeISt4pairIKNSt7__cxx1112basic_stringIcSt11char_traitsIcESaIcEEESt6vectorIiSaIiEEEEEC2Ev = comdat any

$_ZNSt20_Rb_tree_key_compareISt4lessINSt7__cxx1112basic_stringIcSt11char_traitsIcESaIcEEEEEC2Ev = comdat any

$_ZNSt15_Rb_tree_headerC2Ev = comdat any

$_ZN9__gnu_cxx13new_allocatorISt13_Rb_tree_nodeISt4pairIKNSt7__cxx1112basic_stringIcSt11char_traitsIcESaIcEEESt6vectorIiSaIiEEEEEC2Ev = comdat any

$_ZNSt15_Rb_tree_header8_M_resetEv = comdat any

$__clang_call_terminate = comdat any

$_ZNSt8_Rb_treeINSt7__cxx1112basic_stringIcSt11char_traitsIcESaIcEEESt4pairIKS5_St6vectorIiSaIiEEESt10_Select1stISB_ESt4lessIS5_ESaISB_EED2Ev = comdat any

$_ZNSt8_Rb_treeINSt7__cxx1112basic_stringIcSt11char_traitsIcESaIcEEESt4pairIKS5_St6vectorIiSaIiEEESt10_Select1stISB_ESt4lessIS5_ESaISB_EE8_M_eraseEPSt13_Rb_tree_nodeISB_E = comdat any

$_ZNSt8_Rb_treeINSt7__cxx1112basic_stringIcSt11char_traitsIcESaIcEEESt4pairIKS5_St6vectorIiSaIiEEESt10_Select1stISB_ESt4lessIS5_ESaISB_EE8_M_beginEv = comdat any

$_ZNSt8_Rb_treeINSt7__cxx1112basic_stringIcSt11char_traitsIcESaIcEEESt4pairIKS5_St6vectorIiSaIiEEESt10_Select1stISB_ESt4lessIS5_ESaISB_EE13_Rb_tree_implISF_Lb1EED2Ev = comdat any

$_ZNSt8_Rb_treeINSt7__cxx1112basic_stringIcSt11char_traitsIcESaIcEEESt4pairIKS5_St6vectorIiSaIiEEESt10_Select1stISB_ESt4lessIS5_ESaISB_EE8_S_rightEPSt18_Rb_tree_node_base = comdat any

$_ZNSt8_Rb_treeINSt7__cxx1112basic_stringIcSt11char_traitsIcESaIcEEESt4pairIKS5_St6vectorIiSaIiEEESt10_Select1stISB_ESt4lessIS5_ESaISB_EE7_S_leftEPSt18_Rb_tree_node_base = comdat any

$_ZNSt8_Rb_treeINSt7__cxx1112basic_stringIcSt11char_traitsIcESaIcEEESt4pairIKS5_St6vectorIiSaIiEEESt10_Select1stISB_ESt4lessIS5_ESaISB_EE12_M_drop_nodeEPSt13_Rb_tree_nodeISB_E = comdat any

$_ZNSt8_Rb_treeINSt7__cxx1112basic_stringIcSt11char_traitsIcESaIcEEESt4pairIKS5_St6vectorIiSaIiEEESt10_Select1stISB_ESt4lessIS5_ESaISB_EE15_M_destroy_nodeEPSt13_Rb_tree_nodeISB_E = comdat any

$_ZNSt8_Rb_treeINSt7__cxx1112basic_stringIcSt11char_traitsIcESaIcEEESt4pairIKS5_St6vectorIiSaIiEEESt10_Select1stISB_ESt4lessIS5_ESaISB_EE11_M_put_nodeEPSt13_Rb_tree_nodeISB_E = comdat any

$_ZNSt16allocator_traitsISaISt13_Rb_tree_nodeISt4pairIKNSt7__cxx1112basic_stringIcSt11char_traitsIcESaIcEEESt6vectorIiSaIiEEEEEE7destroyISC_EEvRSE_PT_ = comdat any

$_ZNSt8_Rb_treeINSt7__cxx1112basic_stringIcSt11char_traitsIcESaIcEEESt4pairIKS5_St6vectorIiSaIiEEESt10_Select1stISB_ESt4lessIS5_ESaISB_EE21_M_get_Node_allocatorEv = comdat any

$_ZNSt13_Rb_tree_nodeISt4pairIKNSt7__cxx1112basic_stringIcSt11char_traitsIcESaIcEEESt6vectorIiSaIiEEEE9_M_valptrEv = comdat any

$_ZN9__gnu_cxx13new_allocatorISt13_Rb_tree_nodeISt4pairIKNSt7__cxx1112basic_stringIcSt11char_traitsIcESaIcEEESt6vectorIiSaIiEEEEE7destroyISD_EEvPT_ = comdat any

$_ZNSt4pairIKNSt7__cxx1112basic_stringIcSt11char_traitsIcESaIcEEESt6vectorIiSaIiEEED2Ev = comdat any

$_ZN9__gnu_cxx16__aligned_membufISt4pairIKNSt7__cxx1112basic_stringIcSt11char_traitsIcESaIcEEESt6vectorIiSaIiEEEE6_M_ptrEv = comdat any

$_ZN9__gnu_cxx16__aligned_membufISt4pairIKNSt7__cxx1112basic_stringIcSt11char_traitsIcESaIcEEESt6vectorIiSaIiEEEE7_M_addrEv = comdat any

$_ZNSt16allocator_traitsISaISt13_Rb_tree_nodeISt4pairIKNSt7__cxx1112basic_stringIcSt11char_traitsIcESaIcEEESt6vectorIiSaIiEEEEEE10deallocateERSE_PSD_m = comdat any

$_ZN9__gnu_cxx13new_allocatorISt13_Rb_tree_nodeISt4pairIKNSt7__cxx1112basic_stringIcSt11char_traitsIcESaIcEEESt6vectorIiSaIiEEEEE10deallocateEPSE_m = comdat any

$_ZNKSt8_Rb_treeINSt7__cxx1112basic_stringIcSt11char_traitsIcESaIcEEESt4pairIKS5_St6vectorIiSaIiEEESt10_Select1stISB_ESt4lessIS5_ESaISB_EE9_M_mbeginEv = comdat any

$_ZNSaISt13_Rb_tree_nodeISt4pairIKNSt7__cxx1112basic_stringIcSt11char_traitsIcESaIcEEESt6vectorIiSaIiEEEEED2Ev = comdat any

$_ZN9__gnu_cxx13new_allocatorISt13_Rb_tree_nodeISt4pairIKNSt7__cxx1112basic_stringIcSt11char_traitsIcESaIcEEESt6vectorIiSaIiEEEEED2Ev = comdat any

$_ZN9__gnu_cxx13new_allocatorIiED2Ev = comdat any

$_ZSteqRKSt23_Rb_tree_const_iteratorISt4pairIKNSt7__cxx1112basic_stringIcSt11char_traitsIcESaIcEEESt6vectorIiSaIiEEEESE_ = comdat any

$_ZNKSt8_Rb_treeINSt7__cxx1112basic_stringIcSt11char_traitsIcESaIcEEESt4pairIKS5_St6vectorIiSaIiEEESt10_Select1stISB_ESt4lessIS5_ESaISB_EE4findERS7_ = comdat any

$_ZNKSt8_Rb_treeINSt7__cxx1112basic_stringIcSt11char_traitsIcESaIcEEESt4pairIKS5_St6vectorIiSaIiEEESt10_Select1stISB_ESt4lessIS5_ESaISB_EE3endEv = comdat any

$_ZNKSt8_Rb_treeINSt7__cxx1112basic_stringIcSt11char_traitsIcESaIcEEESt4pairIKS5_St6vectorIiSaIiEEESt10_Select1stISB_ESt4lessIS5_ESaISB_EE14_M_lower_boundEPKSt13_Rb_tree_nodeISB_EPKSt18_Rb_tree_node_baseRS7_ = comdat any

$_ZNKSt8_Rb_treeINSt7__cxx1112basic_stringIcSt11char_traitsIcESaIcEEESt4pairIKS5_St6vectorIiSaIiEEESt10_Select1stISB_ESt4lessIS5_ESaISB_EE8_M_beginEv = comdat any

$_ZNKSt8_Rb_treeINSt7__cxx1112basic_stringIcSt11char_traitsIcESaIcEEESt4pairIKS5_St6vectorIiSaIiEEESt10_Select1stISB_ESt4lessIS5_ESaISB_EE6_M_endEv = comdat any

$_ZNKSt4lessINSt7__cxx1112basic_stringIcSt11char_traitsIcESaIcEEEEclERKS5_S8_ = comdat any

$_ZNSt8_Rb_treeINSt7__cxx1112basic_stringIcSt11char_traitsIcESaIcEEESt4pairIKS5_St6vectorIiSaIiEEESt10_Select1stISB_ESt4lessIS5_ESaISB_EE6_S_keyEPKSt18_Rb_tree_node_base = comdat any

$_ZNSt8_Rb_treeINSt7__cxx1112basic_stringIcSt11char_traitsIcESaIcEEESt4pairIKS5_St6vectorIiSaIiEEESt10_Select1stISB_ESt4lessIS5_ESaISB_EE6_S_keyEPKSt13_Rb_tree_nodeISB_E = comdat any

$_ZNSt8_Rb_treeINSt7__cxx1112basic_stringIcSt11char_traitsIcESaIcEEESt4pairIKS5_St6vectorIiSaIiEEESt10_Select1stISB_ESt4lessIS5_ESaISB_EE7_S_leftEPKSt18_Rb_tree_node_base = comdat any

$_ZNSt8_Rb_treeINSt7__cxx1112basic_stringIcSt11char_traitsIcESaIcEEESt4pairIKS5_St6vectorIiSaIiEEESt10_Select1stISB_ESt4lessIS5_ESaISB_EE8_S_rightEPKSt18_Rb_tree_node_base = comdat any

$_ZNSt23_Rb_tree_const_iteratorISt4pairIKNSt7__cxx1112basic_stringIcSt11char_traitsIcESaIcEEESt6vectorIiSaIiEEEEC2EPKSt18_Rb_tree_node_base = comdat any

$_ZNKSt10_Select1stISt4pairIKNSt7__cxx1112basic_stringIcSt11char_traitsIcESaIcEEESt6vectorIiSaIiEEEEclERKSB_ = comdat any

$_ZNKSt13_Rb_tree_nodeISt4pairIKNSt7__cxx1112basic_stringIcSt11char_traitsIcESaIcEEESt6vectorIiSaIiEEEE9_M_valptrEv = comdat any

$_ZNK9__gnu_cxx16__aligned_membufISt4pairIKNSt7__cxx1112basic_stringIcSt11char_traitsIcESaIcEEESt6vectorIiSaIiEEEE6_M_ptrEv = comdat any

$_ZNK9__gnu_cxx16__aligned_membufISt4pairIKNSt7__cxx1112basic_stringIcSt11char_traitsIcESaIcEEESt6vectorIiSaIiEEEE7_M_addrEv = comdat any

$_ZStltIcSt11char_traitsIcESaIcEEbRKNSt7__cxx1112basic_stringIT_T0_T1_EESA_ = comdat any

$_ZNSt3mapINSt7__cxx1112basic_stringIcSt11char_traitsIcESaIcEEESt6vectorIiSaIiEESt4lessIS5_ESaISt4pairIKS5_S8_EEE11lower_boundERSC_ = comdat any

$_ZSteqRKSt17_Rb_tree_iteratorISt4pairIKNSt7__cxx1112basic_stringIcSt11char_traitsIcESaIcEEESt6vectorIiSaIiEEEESE_ = comdat any

$_ZNSt3mapINSt7__cxx1112basic_stringIcSt11char_traitsIcESaIcEEESt6vectorIiSaIiEESt4lessIS5_ESaISt4pairIKS5_S8_EEE3endEv = comdat any

$_ZNKSt3mapINSt7__cxx1112basic_stringIcSt11char_traitsIcESaIcEEESt6vectorIiSaIiEESt4lessIS5_ESaISt4pairIKS5_S8_EEE8key_compEv = comdat any

$_ZNKSt17_Rb_tree_iteratorISt4pairIKNSt7__cxx1112basic_stringIcSt11char_traitsIcESaIcEEESt6vectorIiSaIiEEEEdeEv = comdat any

$_ZNSt8_Rb_treeINSt7__cxx1112basic_stringIcSt11char_traitsIcESaIcEEESt4pairIKS5_St6vectorIiSaIiEEESt10_Select1stISB_ESt4lessIS5_ESaISB_EE22_M_emplace_hint_uniqueIJRKSt21piecewise_construct_tSt5tupleIJRS7_EESM_IJEEEEESt17_Rb_tree_iteratorISB_ESt23_Rb_tree_const_iteratorISB_EDpOT_ = comdat any

$_ZNSt23_Rb_tree_const_iteratorISt4pairIKNSt7__cxx1112basic_stringIcSt11char_traitsIcESaIcEEESt6vectorIiSaIiEEEEC2ERKSt17_Rb_tree_iteratorISB_E = comdat any

$_ZNSt5tupleIJRKNSt7__cxx1112basic_stringIcSt11char_traitsIcESaIcEEEEEC2ILb1ELb1EEES7_ = comdat any

$_ZNSt8_Rb_treeINSt7__cxx1112basic_stringIcSt11char_traitsIcESaIcEEESt4pairIKS5_St6vectorIiSaIiEEESt10_Select1stISB_ESt4lessIS5_ESaISB_EE11lower_boundERS7_ = comdat any

$_ZNSt8_Rb_treeINSt7__cxx1112basic_stringIcSt11char_traitsIcESaIcEEESt4pairIKS5_St6vectorIiSaIiEEESt10_Select1stISB_ESt4lessIS5_ESaISB_EE14_M_lower_boundEPSt13_Rb_tree_nodeISB_EPSt18_Rb_tree_node_baseRS7_ = comdat any

$_ZNSt8_Rb_treeINSt7__cxx1112basic_stringIcSt11char_traitsIcESaIcEEESt4pairIKS5_St6vectorIiSaIiEEESt10_Select1stISB_ESt4lessIS5_ESaISB_EE6_M_endEv = comdat any

$_ZNSt17_Rb_tree_iteratorISt4pairIKNSt7__cxx1112basic_stringIcSt11char_traitsIcESaIcEEESt6vectorIiSaIiEEEEC2EPSt18_Rb_tree_node_base = comdat any

$_ZNSt8_Rb_treeINSt7__cxx1112basic_stringIcSt11char_traitsIcESaIcEEESt4pairIKS5_St6vectorIiSaIiEEESt10_Select1stISB_ESt4lessIS5_ESaISB_EE3endEv = comdat any

$_ZNKSt8_Rb_treeINSt7__cxx1112basic_stringIcSt11char_traitsIcESaIcEEESt4pairIKS5_St6vectorIiSaIiEEESt10_Select1stISB_ESt4lessIS5_ESaISB_EE8key_compEv = comdat any

$_ZNSt8_Rb_treeINSt7__cxx1112basic_stringIcSt11char_traitsIcESaIcEEESt4pairIKS5_St6vectorIiSaIiEEESt10_Select1stISB_ESt4lessIS5_ESaISB_EE14_M_create_nodeIJRKSt21piecewise_construct_tSt5tupleIJRS7_EESM_IJEEEEEPSt13_Rb_tree_nodeISB_EDpOT_ = comdat any

$_ZSt7forwardIRKSt21piecewise_construct_tEOT_RNSt16remove_referenceIS3_E4typeE = comdat any

$_ZSt7forwardISt5tupleIJRKNSt7__cxx1112basic_stringIcSt11char_traitsIcESaIcEEEEEEOT_RNSt16remove_referenceISA_E4typeE = comdat any

$_ZSt7forwardISt5tupleIJEEEOT_RNSt16remove_referenceIS2_E4typeE = comdat any

$_ZNSt8_Rb_treeINSt7__cxx1112basic_stringIcSt11char_traitsIcESaIcEEESt4pairIKS5_St6vectorIiSaIiEEESt10_Select1stISB_ESt4lessIS5_ESaISB_EE29_M_get_insert_hint_unique_posESt23_Rb_tree_const_iteratorISB_ERS7_ = comdat any

$_ZNSt8_Rb_treeINSt7__cxx1112basic_stringIcSt11char_traitsIcESaIcEEESt4pairIKS5_St6vectorIiSaIiEEESt10_Select1stISB_ESt4lessIS5_ESaISB_EE14_M_insert_nodeEPSt18_Rb_tree_node_baseSJ_PSt13_Rb_tree_nodeISB_E = comdat any

$_ZNSt8_Rb_treeINSt7__cxx1112basic_stringIcSt11char_traitsIcESaIcEEESt4pairIKS5_St6vectorIiSaIiEEESt10_Select1stISB_ESt4lessIS5_ESaISB_EE11_M_get_nodeEv = comdat any

$_ZNSt8_Rb_treeINSt7__cxx1112basic_stringIcSt11char_traitsIcESaIcEEESt4pairIKS5_St6vectorIiSaIiEEESt10_Select1stISB_ESt4lessIS5_ESaISB_EE17_M_construct_nodeIJRKSt21piecewise_construct_tSt5tupleIJRS7_EESM_IJEEEEEvPSt13_Rb_tree_nodeISB_EDpOT_ = comdat any

$_ZNSt16allocator_traitsISaISt13_Rb_tree_nodeISt4pairIKNSt7__cxx1112basic_stringIcSt11char_traitsIcESaIcEEESt6vectorIiSaIiEEEEEE8allocateERSE_m = comdat any

$_ZN9__gnu_cxx13new_allocatorISt13_Rb_tree_nodeISt4pairIKNSt7__cxx1112basic_stringIcSt11char_traitsIcESaIcEEESt6vectorIiSaIiEEEEE8allocateEmPKv = comdat any

$_ZNK9__gnu_cxx13new_allocatorISt13_Rb_tree_nodeISt4pairIKNSt7__cxx1112basic_stringIcSt11char_traitsIcESaIcEEESt6vectorIiSaIiEEEEE11_M_max_sizeEv = comdat any

$_ZNSt16allocator_traitsISaISt13_Rb_tree_nodeISt4pairIKNSt7__cxx1112basic_stringIcSt11char_traitsIcESaIcEEESt6vectorIiSaIiEEEEEE9constructISC_JRKSt21piecewise_construct_tSt5tupleIJRS8_EESK_IJEEEEEvRSE_PT_DpOT0_ = comdat any

$_ZN9__gnu_cxx13new_allocatorISt13_Rb_tree_nodeISt4pairIKNSt7__cxx1112basic_stringIcSt11char_traitsIcESaIcEEESt6vectorIiSaIiEEEEE9constructISD_JRKSt21piecewise_construct_tSt5tupleIJRS9_EESK_IJEEEEEvPT_DpOT0_ = comdat any

$_ZNSt5tupleIJRKNSt7__cxx1112basic_stringIcSt11char_traitsIcESaIcEEEEEC2EOS8_ = comdat any

$_ZNSt4pairIKNSt7__cxx1112basic_stringIcSt11char_traitsIcESaIcEEESt6vectorIiSaIiEEEC2IJRS6_EJEEESt21piecewise_construct_tSt5tupleIJDpT_EESE_IJDpT0_EE = comdat any

$_ZNSt11_Tuple_implILm0EJRKNSt7__cxx1112basic_stringIcSt11char_traitsIcESaIcEEEEEC2EOS8_ = comdat any

$_ZNSt4pairIKNSt7__cxx1112basic_stringIcSt11char_traitsIcESaIcEEESt6vectorIiSaIiEEEC2IJRS6_EJLm0EEJEJEEERSt5tupleIJDpT_EERSD_IJDpT1_EESt12_Index_tupleIJXspT0_EEESM_IJXspT2_EEE = comdat any

$_ZSt7forwardIRKNSt7__cxx1112basic_stringIcSt11char_traitsIcESaIcEEEEOT_RNSt16remove_referenceIS8_E4typeE = comdat any

$_ZSt3getILm0EJRKNSt7__cxx1112basic_stringIcSt11char_traitsIcESaIcEEEEERNSt13tuple_elementIXT_ESt5tupleIJDpT0_EEE4typeERSC_ = comdat any

$_ZSt12__get_helperILm0ERKNSt7__cxx1112basic_stringIcSt11char_traitsIcESaIcEEEJEERT0_RSt11_Tuple_implIXT_EJS8_DpT1_EE = comdat any

$_ZNSt11_Tuple_implILm0EJRKNSt7__cxx1112basic_stringIcSt11char_traitsIcESaIcEEEEE7_M_headERS8_ = comdat any

$_ZNSt10_Head_baseILm0ERKNSt7__cxx1112basic_stringIcSt11char_traitsIcESaIcEEELb0EE7_M_headERS8_ = comdat any

$_ZNKSt23_Rb_tree_const_iteratorISt4pairIKNSt7__cxx1112basic_stringIcSt11char_traitsIcESaIcEEESt6vectorIiSaIiEEEE13_M_const_castEv = comdat any

$_ZNKSt8_Rb_treeINSt7__cxx1112basic_stringIcSt11char_traitsIcESaIcEEESt4pairIKS5_St6vectorIiSaIiEEESt10_Select1stISB_ESt4lessIS5_ESaISB_EE4sizeEv = comdat any

$_ZNSt8_Rb_treeINSt7__cxx1112basic_stringIcSt11char_traitsIcESaIcEEESt4pairIKS5_St6vectorIiSaIiEEESt10_Select1stISB_ESt4lessIS5_ESaISB_EE12_M_rightmostEv = comdat any

$_ZNSt4pairIPSt18_Rb_tree_node_baseS1_EC2IRS1_Lb1EEERKS1_OT_ = comdat any

$_ZNSt8_Rb_treeINSt7__cxx1112basic_stringIcSt11char_traitsIcESaIcEEESt4pairIKS5_St6vectorIiSaIiEEESt10_Select1stISB_ESt4lessIS5_ESaISB_EE24_M_get_insert_unique_posERS7_ = comdat any

$_ZNSt8_Rb_treeINSt7__cxx1112basic_stringIcSt11char_traitsIcESaIcEEESt4pairIKS5_St6vectorIiSaIiEEESt10_Select1stISB_ESt4lessIS5_ESaISB_EE11_M_leftmostEv = comdat any

$_ZNSt4pairIPSt18_Rb_tree_node_baseS1_EC2IRS1_S4_Lb1EEEOT_OT0_ = comdat any

$_ZNSt17_Rb_tree_iteratorISt4pairIKNSt7__cxx1112basic_stringIcSt11char_traitsIcESaIcEEESt6vectorIiSaIiEEEEmmEv = comdat any

$_ZNSt17_Rb_tree_iteratorISt4pairIKNSt7__cxx1112basic_stringIcSt11char_traitsIcESaIcEEESt6vectorIiSaIiEEEEppEv = comdat any

$_ZNSt4pairIPSt18_Rb_tree_node_baseS1_EC2IRS1_Lb1EEEOT_RKS1_ = comdat any

$_ZSt7forwardIRPSt18_Rb_tree_node_baseEOT_RNSt16remove_referenceIS3_E4typeE = comdat any

$_ZNSt8_Rb_treeINSt7__cxx1112basic_stringIcSt11char_traitsIcESaIcEEESt4pairIKS5_St6vectorIiSaIiEEESt10_Select1stISB_ESt4lessIS5_ESaISB_EE5beginEv = comdat any

$_ZNSt4pairIPSt18_Rb_tree_node_baseS1_EC2IRPSt13_Rb_tree_nodeIS_IKNSt7__cxx1112basic_stringIcSt11char_traitsIcESaIcEEESt6vectorIiSaIiEEEERS1_Lb1EEEOT_OT0_ = comdat any

$_ZSt7forwardIRPSt13_Rb_tree_nodeISt4pairIKNSt7__cxx1112basic_stringIcSt11char_traitsIcESaIcEEESt6vectorIiSaIiEEEEEOT_RNSt16remove_referenceISG_E4typeE = comdat any

$_ZNSt11_Tuple_implILm0EJRKNSt7__cxx1112basic_stringIcSt11char_traitsIcESaIcEEEEEC2ES7_ = comdat any

$_ZNSt10_Head_baseILm0ERKNSt7__cxx1112basic_stringIcSt11char_traitsIcESaIcEEELb0EEC2ES7_ = comdat any

$_ZNKSt6vectorIiSaIiEE4sizeEv = comdat any

$_ZN9__gnu_cxx14__alloc_traitsISaIiEiE17_S_select_on_copyERKS1_ = comdat any

$_ZNKSt12_Vector_baseIiSaIiEE19_M_get_Tp_allocatorEv = comdat any

$_ZNSt12_Vector_baseIiSaIiEEC2EmRKS0_ = comdat any

$_ZSt22__uninitialized_copy_aIN9__gnu_cxx17__normal_iteratorIPKiSt6vectorIiSaIiEEEEPiiET0_T_SA_S9_RSaIT1_E = comdat any

$_ZNKSt6vectorIiSaIiEE5beginEv = comdat any

$_ZNKSt6vectorIiSaIiEE3endEv = comdat any

$_ZNSt12_Vector_baseIiSaIiEE19_M_get_Tp_allocatorEv = comdat any

$_ZNSt12_Vector_baseIiSaIiEED2Ev = comdat any

$_ZNSt16allocator_traitsISaIiEE37select_on_container_copy_constructionERKS0_ = comdat any

$_ZNSaIiEC2ERKS_ = comdat any

$_ZNSt12_Vector_baseIiSaIiEE12_Vector_implC2ERKS0_ = comdat any

$_ZNSt12_Vector_baseIiSaIiEE17_M_create_storageEm = comdat any

$_ZNSt12_Vector_baseIiSaIiEE12_Vector_implD2Ev = comdat any

$_ZNSt12_Vector_baseIiSaIiEE11_M_allocateEm = comdat any

$_ZNSt16allocator_traitsISaIiEE8allocateERS0_m = comdat any

$_ZN9__gnu_cxx13new_allocatorIiE8allocateEmPKv = comdat any

$_ZNK9__gnu_cxx13new_allocatorIiE11_M_max_sizeEv = comdat any

$_ZSt18uninitialized_copyIN9__gnu_cxx17__normal_iteratorIPKiSt6vectorIiSaIiEEEEPiET0_T_SA_S9_ = comdat any

$_ZNSt20__uninitialized_copyILb1EE13__uninit_copyIN9__gnu_cxx17__normal_iteratorIPKiSt6vectorIiSaIiEEEEPiEET0_T_SC_SB_ = comdat any

$_ZSt4copyIN9__gnu_cxx17__normal_iteratorIPKiSt6vectorIiSaIiEEEEPiET0_T_SA_S9_ = comdat any

$_ZSt13__copy_move_aILb0EN9__gnu_cxx17__normal_iteratorIPKiSt6vectorIiSaIiEEEEPiET1_T0_SA_S9_ = comdat any

$_ZSt12__miter_baseIN9__gnu_cxx17__normal_iteratorIPKiSt6vectorIiSaIiEEEEET_S8_ = comdat any

$_ZSt12__niter_wrapIPiET_RKS1_S1_ = comdat any

$_ZSt14__copy_move_a1ILb0EPKiPiET1_T0_S4_S3_ = comdat any

$_ZSt12__niter_baseIPKiSt6vectorIiSaIiEEET_N9__gnu_cxx17__normal_iteratorIS5_T0_EE = comdat any

$_ZSt12__niter_baseIPiET_S1_ = comdat any

$_ZSt14__copy_move_a2ILb0EPKiPiET1_T0_S4_S3_ = comdat any

$_ZNSt11__copy_moveILb0ELb1ESt26random_access_iterator_tagE8__copy_mIiEEPT_PKS3_S6_S4_ = comdat any

$_ZNK9__gnu_cxx17__normal_iteratorIPKiSt6vectorIiSaIiEEE4baseEv = comdat any

$_ZN9__gnu_cxx17__normal_iteratorIPKiSt6vectorIiSaIiEEEC2ERKS2_ = comdat any

$_ZNSt12_Vector_baseIiSaIiEE13_M_deallocateEPim = comdat any

$_ZNSt16allocator_traitsISaIiEE10deallocateERS0_Pim = comdat any

$_ZN9__gnu_cxx13new_allocatorIiE10deallocateEPim = comdat any

$_ZSt8_DestroyIPiiEvT_S1_RSaIT0_E = comdat any

$_ZSt8_DestroyIPiEvT_S1_ = comdat any

$_ZNSt12_Destroy_auxILb1EE9__destroyIPiEEvT_S3_ = comdat any

$_ZN9__gnu_cxx17__normal_iteratorIPiSt6vectorIiSaIiEEEC2ERKS1_ = comdat any

$_ZNK9__gnu_cxx17__normal_iteratorIPiSt6vectorIiSaIiEEE4baseEv = comdat any

$_ZNSt16allocator_traitsISaIiEE9constructIiJiEEEvRS0_PT_DpOT0_ = comdat any

$_ZSt7forwardIiEOT_RNSt16remove_referenceIS0_E4typeE = comdat any

$_ZNSt6vectorIiSaIiEE17_M_realloc_insertIJiEEEvN9__gnu_cxx17__normal_iteratorIPiS1_EEDpOT_ = comdat any

$_ZN9__gnu_cxx13new_allocatorIiE9constructIiJiEEEvPT_DpOT0_ = comdat any

$_ZNKSt6vectorIiSaIiEE12_M_check_lenEmPKc = comdat any

$_ZN9__gnu_cxxmiIPiSt6vectorIiSaIiEEEENS_17__normal_iteratorIT_T0_E15difference_typeERKS8_SB_ = comdat any

$_ZNSt6vectorIiSaIiEE11_S_relocateEPiS2_S2_RS0_ = comdat any

$_ZNKSt6vectorIiSaIiEE8max_sizeEv = comdat any

$_ZSt3maxImERKT_S2_S2_ = comdat any

$_ZNSt6vectorIiSaIiEE11_S_max_sizeERKS0_ = comdat any

$_ZNSt16allocator_traitsISaIiEE8max_sizeERKS0_ = comdat any

$_ZSt3minImERKT_S2_S2_ = comdat any

$_ZNK9__gnu_cxx13new_allocatorIiE8max_sizeEv = comdat any

$_ZNSt6vectorIiSaIiEE14_S_do_relocateEPiS2_S2_RS0_St17integral_constantIbLb1EE = comdat any

$_ZSt12__relocate_aIPiS0_SaIiEET0_T_S3_S2_RT1_ = comdat any

$_ZSt14__relocate_a_1IiiENSt9enable_ifIXsr3std24__is_bitwise_relocatableIT_EE5valueEPS1_E4typeES2_S2_S2_RSaIT0_E = comdat any

$_ZN9__gnu_cxxeqIPKiSt6vectorIiSaIiEEEEbRKNS_17__normal_iteratorIT_T0_EESB_ = comdat any

$_ZNSt12_Vector_baseIiSaIiEEC2ERKS0_ = comdat any

$_ZNSt6vectorIiSaIiEE19_M_range_initializeIPKiEEvT_S5_St20forward_iterator_tag = comdat any

$_ZNKSt16initializer_listIiE5beginEv = comdat any

$_ZNKSt16initializer_listIiE3endEv = comdat any

$_ZSt8distanceIPKiENSt15iterator_traitsIT_E15difference_typeES3_S3_ = comdat any

$_ZNSt6vectorIiSaIiEE17_S_check_init_lenEmRKS0_ = comdat any

$_ZSt22__uninitialized_copy_aIPKiPiiET0_T_S4_S3_RSaIT1_E = comdat any

$_ZSt10__distanceIPKiENSt15iterator_traitsIT_E15difference_typeES3_S3_St26random_access_iterator_tag = comdat any

$_ZSt19__iterator_categoryIPKiENSt15iterator_traitsIT_E17iterator_categoryERKS3_ = comdat any

$_ZSt18uninitialized_copyIPKiPiET0_T_S4_S3_ = comdat any

$_ZNSt20__uninitialized_copyILb1EE13__uninit_copyIPKiPiEET0_T_S6_S5_ = comdat any

$_ZSt4copyIPKiPiET0_T_S4_S3_ = comdat any

$_ZSt13__copy_move_aILb0EPKiPiET1_T0_S4_S3_ = comdat any

$_ZSt12__miter_baseIPKiET_S2_ = comdat any

$_ZSt12__niter_baseIPKiET_S2_ = comdat any

$_ZNKSt16initializer_listIiE4sizeEv = comdat any

@_ZStL8__ioinit = internal global %"class.std::ios_base::Init" zeroinitializer, align 1
@__dso_handle = external hidden global i8
@_ZSt3cin = external dso_local global %"class.std::basic_istream", align 8
@_ZSt4cout = external dso_local global %"class.std::basic_ostream", align 8
@.str = private unnamed_addr constant [2 x i8] c" \00", align 1
@.str.1 = private unnamed_addr constant [5 x i8] c"stoi\00", align 1
@_ZStL19piecewise_construct = internal constant %"struct.std::piecewise_construct_t" undef, align 1
@.str.2 = private unnamed_addr constant [26 x i8] c"vector::_M_realloc_insert\00", align 1
@.str.3 = private unnamed_addr constant [49 x i8] c"cannot create std::vector larger than max_size()\00", align 1
@llvm.global_ctors = appending global [1 x { i32, void ()*, i8* }] [{ i32, void ()*, i8* } { i32 65535, void ()* @_GLOBAL__sub_I_DifferentWaysToAddParenthesis.cpp, i8* null }]

; Function Attrs: noinline uwtable
define internal void @__cxx_global_var_init() #0 section ".text.startup" {
entry:
  call void @_ZNSt8ios_base4InitC1Ev(%"class.std::ios_base::Init"* @_ZStL8__ioinit)
  %0 = call i32 @__cxa_atexit(void (i8*)* bitcast (void (%"class.std::ios_base::Init"*)* @_ZNSt8ios_base4InitD1Ev to void (i8*)*), i8* getelementptr inbounds (%"class.std::ios_base::Init", %"class.std::ios_base::Init"* @_ZStL8__ioinit, i32 0, i32 0), i8* @__dso_handle) #3
  ret void
}

declare dso_local void @_ZNSt8ios_base4InitC1Ev(%"class.std::ios_base::Init"*) unnamed_addr #1

; Function Attrs: nounwind
declare dso_local void @_ZNSt8ios_base4InitD1Ev(%"class.std::ios_base::Init"*) unnamed_addr #2

; Function Attrs: nounwind
declare dso_local i32 @__cxa_atexit(void (i8*)*, i8*, i8*) #3

; Function Attrs: noinline optnone uwtable
define dso_local void @_Z2dpNSt7__cxx1112basic_stringIcSt11char_traitsIcESaIcEEERSt3mapIS4_St6vectorIiSaIiEESt4lessIS4_ESaISt4pairIKS4_S8_EEE(%"class.std::vector"* noalias sret %agg.result, %"class.std::__cxx11::basic_string"* %str, %"class.std::map"* dereferenceable(48) %dpMap) #4 personality i8* bitcast (i32 (...)* @__gxx_personality_v0 to i8*) {
entry:
  %result.ptr = alloca i8*, align 8
  %dpMap.addr = alloca %"class.std::map"*, align 8
  %ret = alloca %"class.std::vector", align 8
  %i = alloca i32, align 4
  %exn.slot = alloca i8*
  %ehselector.slot = alloca i32
  %lef = alloca %"class.std::vector", align 8
  %agg.tmp = alloca %"class.std::__cxx11::basic_string", align 8
  %right = alloca %"class.std::vector", align 8
  %agg.tmp24 = alloca %"class.std::__cxx11::basic_string", align 8
  %__range3 = alloca %"class.std::vector"*, align 8
  %__begin3 = alloca %"class.__gnu_cxx::__normal_iterator", align 8
  %__end3 = alloca %"class.__gnu_cxx::__normal_iterator", align 8
  %x1 = alloca i32*, align 8
  %__range4 = alloca %"class.std::vector"*, align 8
  %__begin4 = alloca %"class.__gnu_cxx::__normal_iterator", align 8
  %__end4 = alloca %"class.__gnu_cxx::__normal_iterator", align 8
  %x2 = alloca i32*, align 8
  %ref.tmp = alloca i32, align 4
  %ref.tmp60 = alloca i32, align 4
  %ref.tmp63 = alloca i32, align 4
  %agg.tmp76 = alloca %"class.std::initializer_list", align 8
  %ref.tmp77 = alloca [1 x i32], align 4
  %ref.tmp80 = alloca %"class.std::allocator.0", align 1
  %cleanup.dest.slot = alloca i32, align 4
  %0 = bitcast %"class.std::vector"* %agg.result to i8*
  store i8* %0, i8** %result.ptr, align 8
  store %"class.std::map"* %dpMap, %"class.std::map"** %dpMap.addr, align 8
  %1 = load %"class.std::map"*, %"class.std::map"** %dpMap.addr, align 8
  %call = call i64 @_ZNKSt3mapINSt7__cxx1112basic_stringIcSt11char_traitsIcESaIcEEESt6vectorIiSaIiEESt4lessIS5_ESaISt4pairIKS5_S8_EEE5countERSC_(%"class.std::map"* %1, %"class.std::__cxx11::basic_string"* dereferenceable(32) %str)
  %cmp = icmp ugt i64 %call, 0
  br i1 %cmp, label %if.then, label %if.end

if.then:                                          ; preds = %entry
  %2 = load %"class.std::map"*, %"class.std::map"** %dpMap.addr, align 8
  %call1 = call dereferenceable(24) %"class.std::vector"* @_ZNSt3mapINSt7__cxx1112basic_stringIcSt11char_traitsIcESaIcEEESt6vectorIiSaIiEESt4lessIS5_ESaISt4pairIKS5_S8_EEEixERSC_(%"class.std::map"* %2, %"class.std::__cxx11::basic_string"* dereferenceable(32) %str)
  call void @_ZNSt6vectorIiSaIiEEC2ERKS1_(%"class.std::vector"* %agg.result, %"class.std::vector"* dereferenceable(24) %call1)
  br label %return

if.end:                                           ; preds = %entry
  call void @_ZNSt6vectorIiSaIiEEC2Ev(%"class.std::vector"* %ret) #3
  store i32 0, i32* %i, align 4
  br label %for.cond

for.cond:                                         ; preds = %for.inc72, %if.end
  %3 = load i32, i32* %i, align 4
  %conv = sext i32 %3 to i64
  %call2 = call i64 @_ZNKSt7__cxx1112basic_stringIcSt11char_traitsIcESaIcEE6lengthEv(%"class.std::__cxx11::basic_string"* %str) #3
  %cmp3 = icmp ult i64 %conv, %call2
  br i1 %cmp3, label %for.body, label %for.end73

for.body:                                         ; preds = %for.cond
  %4 = load i32, i32* %i, align 4
  %conv4 = sext i32 %4 to i64
  %call5 = invoke dereferenceable(1) i8* @_ZNSt7__cxx1112basic_stringIcSt11char_traitsIcESaIcEEixEm(%"class.std::__cxx11::basic_string"* %str, i64 %conv4)
          to label %invoke.cont unwind label %lpad

invoke.cont:                                      ; preds = %for.body
  %5 = load i8, i8* %call5, align 1
  %conv6 = sext i8 %5 to i32
  %cmp7 = icmp eq i32 %conv6, 43
  br i1 %cmp7, label %if.then19, label %lor.lhs.false

lor.lhs.false:                                    ; preds = %invoke.cont
  %6 = load i32, i32* %i, align 4
  %conv8 = sext i32 %6 to i64
  %call10 = invoke dereferenceable(1) i8* @_ZNSt7__cxx1112basic_stringIcSt11char_traitsIcESaIcEEixEm(%"class.std::__cxx11::basic_string"* %str, i64 %conv8)
          to label %invoke.cont9 unwind label %lpad

invoke.cont9:                                     ; preds = %lor.lhs.false
  %7 = load i8, i8* %call10, align 1
  %conv11 = sext i8 %7 to i32
  %cmp12 = icmp eq i32 %conv11, 45
  br i1 %cmp12, label %if.then19, label %lor.lhs.false13

lor.lhs.false13:                                  ; preds = %invoke.cont9
  %8 = load i32, i32* %i, align 4
  %conv14 = sext i32 %8 to i64
  %call16 = invoke dereferenceable(1) i8* @_ZNSt7__cxx1112basic_stringIcSt11char_traitsIcESaIcEEixEm(%"class.std::__cxx11::basic_string"* %str, i64 %conv14)
          to label %invoke.cont15 unwind label %lpad

invoke.cont15:                                    ; preds = %lor.lhs.false13
  %9 = load i8, i8* %call16, align 1
  %conv17 = sext i8 %9 to i32
  %cmp18 = icmp eq i32 %conv17, 42
  br i1 %cmp18, label %if.then19, label %if.end71

if.then19:                                        ; preds = %invoke.cont15, %invoke.cont9, %invoke.cont
  %10 = load i32, i32* %i, align 4
  %conv20 = sext i32 %10 to i64
  invoke void @_ZNKSt7__cxx1112basic_stringIcSt11char_traitsIcESaIcEE6substrEmm(%"class.std::__cxx11::basic_string"* sret %agg.tmp, %"class.std::__cxx11::basic_string"* %str, i64 0, i64 %conv20)
          to label %invoke.cont21 unwind label %lpad

invoke.cont21:                                    ; preds = %if.then19
  %11 = load %"class.std::map"*, %"class.std::map"** %dpMap.addr, align 8
  invoke void @_Z2dpNSt7__cxx1112basic_stringIcSt11char_traitsIcESaIcEEERSt3mapIS4_St6vectorIiSaIiEESt4lessIS4_ESaISt4pairIKS4_S8_EEE(%"class.std::vector"* sret %lef, %"class.std::__cxx11::basic_string"* %agg.tmp, %"class.std::map"* dereferenceable(48) %11)
          to label %invoke.cont23 unwind label %lpad22

invoke.cont23:                                    ; preds = %invoke.cont21
  call void @_ZNSt7__cxx1112basic_stringIcSt11char_traitsIcESaIcEED1Ev(%"class.std::__cxx11::basic_string"* %agg.tmp) #3
  %12 = load i32, i32* %i, align 4
  %add = add nsw i32 %12, 1
  %conv25 = sext i32 %add to i64
  invoke void @_ZNKSt7__cxx1112basic_stringIcSt11char_traitsIcESaIcEE6substrEmm(%"class.std::__cxx11::basic_string"* sret %agg.tmp24, %"class.std::__cxx11::basic_string"* %str, i64 %conv25, i64 -1)
          to label %invoke.cont27 unwind label %lpad26

invoke.cont27:                                    ; preds = %invoke.cont23
  %13 = load %"class.std::map"*, %"class.std::map"** %dpMap.addr, align 8
  invoke void @_Z2dpNSt7__cxx1112basic_stringIcSt11char_traitsIcESaIcEEERSt3mapIS4_St6vectorIiSaIiEESt4lessIS4_ESaISt4pairIKS4_S8_EEE(%"class.std::vector"* sret %right, %"class.std::__cxx11::basic_string"* %agg.tmp24, %"class.std::map"* dereferenceable(48) %13)
          to label %invoke.cont29 unwind label %lpad28

invoke.cont29:                                    ; preds = %invoke.cont27
  call void @_ZNSt7__cxx1112basic_stringIcSt11char_traitsIcESaIcEED1Ev(%"class.std::__cxx11::basic_string"* %agg.tmp24) #3
  store %"class.std::vector"* %lef, %"class.std::vector"** %__range3, align 8
  %14 = load %"class.std::vector"*, %"class.std::vector"** %__range3, align 8
  %call30 = call i32* @_ZNSt6vectorIiSaIiEE5beginEv(%"class.std::vector"* %14) #3
  %coerce.dive = getelementptr inbounds %"class.__gnu_cxx::__normal_iterator", %"class.__gnu_cxx::__normal_iterator"* %__begin3, i32 0, i32 0
  store i32* %call30, i32** %coerce.dive, align 8
  %15 = load %"class.std::vector"*, %"class.std::vector"** %__range3, align 8
  %call31 = call i32* @_ZNSt6vectorIiSaIiEE3endEv(%"class.std::vector"* %15) #3
  %coerce.dive32 = getelementptr inbounds %"class.__gnu_cxx::__normal_iterator", %"class.__gnu_cxx::__normal_iterator"* %__end3, i32 0, i32 0
  store i32* %call31, i32** %coerce.dive32, align 8
  br label %for.cond33

for.cond33:                                       ; preds = %for.inc68, %invoke.cont29
  %call34 = call zeroext i1 @_ZN9__gnu_cxxneIPiSt6vectorIiSaIiEEEEbRKNS_17__normal_iteratorIT_T0_EESA_(%"class.__gnu_cxx::__normal_iterator"* dereferenceable(8) %__begin3, %"class.__gnu_cxx::__normal_iterator"* dereferenceable(8) %__end3) #3
  br i1 %call34, label %for.body35, label %for.end70

for.body35:                                       ; preds = %for.cond33
  %call36 = call dereferenceable(4) i32* @_ZNK9__gnu_cxx17__normal_iteratorIPiSt6vectorIiSaIiEEEdeEv(%"class.__gnu_cxx::__normal_iterator"* %__begin3) #3
  store i32* %call36, i32** %x1, align 8
  store %"class.std::vector"* %right, %"class.std::vector"** %__range4, align 8
  %16 = load %"class.std::vector"*, %"class.std::vector"** %__range4, align 8
  %call37 = call i32* @_ZNSt6vectorIiSaIiEE5beginEv(%"class.std::vector"* %16) #3
  %coerce.dive38 = getelementptr inbounds %"class.__gnu_cxx::__normal_iterator", %"class.__gnu_cxx::__normal_iterator"* %__begin4, i32 0, i32 0
  store i32* %call37, i32** %coerce.dive38, align 8
  %17 = load %"class.std::vector"*, %"class.std::vector"** %__range4, align 8
  %call39 = call i32* @_ZNSt6vectorIiSaIiEE3endEv(%"class.std::vector"* %17) #3
  %coerce.dive40 = getelementptr inbounds %"class.__gnu_cxx::__normal_iterator", %"class.__gnu_cxx::__normal_iterator"* %__end4, i32 0, i32 0
  store i32* %call39, i32** %coerce.dive40, align 8
  br label %for.cond41

for.cond41:                                       ; preds = %for.inc, %for.body35
  %call42 = call zeroext i1 @_ZN9__gnu_cxxneIPiSt6vectorIiSaIiEEEEbRKNS_17__normal_iteratorIT_T0_EESA_(%"class.__gnu_cxx::__normal_iterator"* dereferenceable(8) %__begin4, %"class.__gnu_cxx::__normal_iterator"* dereferenceable(8) %__end4) #3
  br i1 %call42, label %for.body43, label %for.end

for.body43:                                       ; preds = %for.cond41
  %call44 = call dereferenceable(4) i32* @_ZNK9__gnu_cxx17__normal_iteratorIPiSt6vectorIiSaIiEEEdeEv(%"class.__gnu_cxx::__normal_iterator"* %__begin4) #3
  store i32* %call44, i32** %x2, align 8
  %18 = load i32, i32* %i, align 4
  %conv45 = sext i32 %18 to i64
  %call48 = invoke dereferenceable(1) i8* @_ZNSt7__cxx1112basic_stringIcSt11char_traitsIcESaIcEEixEm(%"class.std::__cxx11::basic_string"* %str, i64 %conv45)
          to label %invoke.cont47 unwind label %lpad46

invoke.cont47:                                    ; preds = %for.body43
  %19 = load i8, i8* %call48, align 1
  %conv49 = sext i8 %19 to i32
  %cmp50 = icmp eq i32 %conv49, 43
  br i1 %cmp50, label %if.then51, label %if.else

if.then51:                                        ; preds = %invoke.cont47
  %20 = load i32*, i32** %x1, align 8
  %21 = load i32, i32* %20, align 4
  %22 = load i32*, i32** %x2, align 8
  %23 = load i32, i32* %22, align 4
  %add52 = add nsw i32 %21, %23
  store i32 %add52, i32* %ref.tmp, align 4
  invoke void @_ZNSt6vectorIiSaIiEE12emplace_backIJiEEEvDpOT_(%"class.std::vector"* %ret, i32* dereferenceable(4) %ref.tmp)
          to label %invoke.cont53 unwind label %lpad46

invoke.cont53:                                    ; preds = %if.then51
  br label %if.end66

lpad:                                             ; preds = %if.then75, %if.then19, %lor.lhs.false13, %lor.lhs.false, %for.body
  %24 = landingpad { i8*, i32 }
          cleanup
  %25 = extractvalue { i8*, i32 } %24, 0
  store i8* %25, i8** %exn.slot, align 8
  %26 = extractvalue { i8*, i32 } %24, 1
  store i32 %26, i32* %ehselector.slot, align 4
  br label %ehcleanup85

lpad22:                                           ; preds = %invoke.cont21
  %27 = landingpad { i8*, i32 }
          cleanup
  %28 = extractvalue { i8*, i32 } %27, 0
  store i8* %28, i8** %exn.slot, align 8
  %29 = extractvalue { i8*, i32 } %27, 1
  store i32 %29, i32* %ehselector.slot, align 4
  call void @_ZNSt7__cxx1112basic_stringIcSt11char_traitsIcESaIcEED1Ev(%"class.std::__cxx11::basic_string"* %agg.tmp) #3
  br label %ehcleanup85

lpad26:                                           ; preds = %invoke.cont23
  %30 = landingpad { i8*, i32 }
          cleanup
  %31 = extractvalue { i8*, i32 } %30, 0
  store i8* %31, i8** %exn.slot, align 8
  %32 = extractvalue { i8*, i32 } %30, 1
  store i32 %32, i32* %ehselector.slot, align 4
  br label %ehcleanup

lpad28:                                           ; preds = %invoke.cont27
  %33 = landingpad { i8*, i32 }
          cleanup
  %34 = extractvalue { i8*, i32 } %33, 0
  store i8* %34, i8** %exn.slot, align 8
  %35 = extractvalue { i8*, i32 } %33, 1
  store i32 %35, i32* %ehselector.slot, align 4
  call void @_ZNSt7__cxx1112basic_stringIcSt11char_traitsIcESaIcEED1Ev(%"class.std::__cxx11::basic_string"* %agg.tmp24) #3
  br label %ehcleanup

lpad46:                                           ; preds = %if.else62, %if.then59, %if.else, %if.then51, %for.body43
  %36 = landingpad { i8*, i32 }
          cleanup
  %37 = extractvalue { i8*, i32 } %36, 0
  store i8* %37, i8** %exn.slot, align 8
  %38 = extractvalue { i8*, i32 } %36, 1
  store i32 %38, i32* %ehselector.slot, align 4
  call void @_ZNSt6vectorIiSaIiEED2Ev(%"class.std::vector"* %right) #3
  br label %ehcleanup

if.else:                                          ; preds = %invoke.cont47
  %39 = load i32, i32* %i, align 4
  %conv54 = sext i32 %39 to i64
  %call56 = invoke dereferenceable(1) i8* @_ZNSt7__cxx1112basic_stringIcSt11char_traitsIcESaIcEEixEm(%"class.std::__cxx11::basic_string"* %str, i64 %conv54)
          to label %invoke.cont55 unwind label %lpad46

invoke.cont55:                                    ; preds = %if.else
  %40 = load i8, i8* %call56, align 1
  %conv57 = sext i8 %40 to i32
  %cmp58 = icmp eq i32 %conv57, 45
  br i1 %cmp58, label %if.then59, label %if.else62

if.then59:                                        ; preds = %invoke.cont55
  %41 = load i32*, i32** %x1, align 8
  %42 = load i32, i32* %41, align 4
  %43 = load i32*, i32** %x2, align 8
  %44 = load i32, i32* %43, align 4
  %sub = sub nsw i32 %42, %44
  store i32 %sub, i32* %ref.tmp60, align 4
  invoke void @_ZNSt6vectorIiSaIiEE12emplace_backIJiEEEvDpOT_(%"class.std::vector"* %ret, i32* dereferenceable(4) %ref.tmp60)
          to label %invoke.cont61 unwind label %lpad46

invoke.cont61:                                    ; preds = %if.then59
  br label %if.end65

if.else62:                                        ; preds = %invoke.cont55
  %45 = load i32*, i32** %x1, align 8
  %46 = load i32, i32* %45, align 4
  %47 = load i32*, i32** %x2, align 8
  %48 = load i32, i32* %47, align 4
  %mul = mul nsw i32 %46, %48
  store i32 %mul, i32* %ref.tmp63, align 4
  invoke void @_ZNSt6vectorIiSaIiEE12emplace_backIJiEEEvDpOT_(%"class.std::vector"* %ret, i32* dereferenceable(4) %ref.tmp63)
          to label %invoke.cont64 unwind label %lpad46

invoke.cont64:                                    ; preds = %if.else62
  br label %if.end65

if.end65:                                         ; preds = %invoke.cont64, %invoke.cont61
  br label %if.end66

if.end66:                                         ; preds = %if.end65, %invoke.cont53
  br label %for.inc

for.inc:                                          ; preds = %if.end66
  %call67 = call dereferenceable(8) %"class.__gnu_cxx::__normal_iterator"* @_ZN9__gnu_cxx17__normal_iteratorIPiSt6vectorIiSaIiEEEppEv(%"class.__gnu_cxx::__normal_iterator"* %__begin4) #3
  br label %for.cond41

for.end:                                          ; preds = %for.cond41
  br label %for.inc68

for.inc68:                                        ; preds = %for.end
  %call69 = call dereferenceable(8) %"class.__gnu_cxx::__normal_iterator"* @_ZN9__gnu_cxx17__normal_iteratorIPiSt6vectorIiSaIiEEEppEv(%"class.__gnu_cxx::__normal_iterator"* %__begin3) #3
  br label %for.cond33

for.end70:                                        ; preds = %for.cond33
  call void @_ZNSt6vectorIiSaIiEED2Ev(%"class.std::vector"* %right) #3
  call void @_ZNSt6vectorIiSaIiEED2Ev(%"class.std::vector"* %lef) #3
  br label %if.end71

ehcleanup:                                        ; preds = %lpad46, %lpad28, %lpad26
  call void @_ZNSt6vectorIiSaIiEED2Ev(%"class.std::vector"* %lef) #3
  br label %ehcleanup85

if.end71:                                         ; preds = %for.end70, %invoke.cont15
  br label %for.inc72

for.inc72:                                        ; preds = %if.end71
  %49 = load i32, i32* %i, align 4
  %inc = add nsw i32 %49, 1
  store i32 %inc, i32* %i, align 4
  br label %for.cond

for.end73:                                        ; preds = %for.cond
  %call74 = call zeroext i1 @_ZNKSt6vectorIiSaIiEE5emptyEv(%"class.std::vector"* %ret) #3
  br i1 %call74, label %if.then75, label %if.end84

if.then75:                                        ; preds = %for.end73
  %arrayinit.begin = getelementptr inbounds [1 x i32], [1 x i32]* %ref.tmp77, i64 0, i64 0
  %call79 = invoke i32 @_ZNSt7__cxx114stoiERKNS_12basic_stringIcSt11char_traitsIcESaIcEEEPmi(%"class.std::__cxx11::basic_string"* dereferenceable(32) %str, i64* null, i32 10)
          to label %invoke.cont78 unwind label %lpad

invoke.cont78:                                    ; preds = %if.then75
  store i32 %call79, i32* %arrayinit.begin, align 4
  %_M_array = getelementptr inbounds %"class.std::initializer_list", %"class.std::initializer_list"* %agg.tmp76, i32 0, i32 0
  %arraystart = getelementptr inbounds [1 x i32], [1 x i32]* %ref.tmp77, i64 0, i64 0
  store i32* %arraystart, i32** %_M_array, align 8
  %_M_len = getelementptr inbounds %"class.std::initializer_list", %"class.std::initializer_list"* %agg.tmp76, i32 0, i32 1
  store i64 1, i64* %_M_len, align 8
  call void @_ZNSaIiEC2Ev(%"class.std::allocator.0"* %ref.tmp80) #3
  %50 = bitcast %"class.std::initializer_list"* %agg.tmp76 to { i32*, i64 }*
  %51 = getelementptr inbounds { i32*, i64 }, { i32*, i64 }* %50, i32 0, i32 0
  %52 = load i32*, i32** %51, align 8
  %53 = getelementptr inbounds { i32*, i64 }, { i32*, i64 }* %50, i32 0, i32 1
  %54 = load i64, i64* %53, align 8
  invoke void @_ZNSt6vectorIiSaIiEEC2ESt16initializer_listIiERKS0_(%"class.std::vector"* %agg.result, i32* %52, i64 %54, %"class.std::allocator.0"* dereferenceable(1) %ref.tmp80)
          to label %invoke.cont82 unwind label %lpad81

invoke.cont82:                                    ; preds = %invoke.cont78
  call void @_ZNSaIiED2Ev(%"class.std::allocator.0"* %ref.tmp80) #3
  store i32 1, i32* %cleanup.dest.slot, align 4
  br label %cleanup

lpad81:                                           ; preds = %invoke.cont78
  %55 = landingpad { i8*, i32 }
          cleanup
  %56 = extractvalue { i8*, i32 } %55, 0
  store i8* %56, i8** %exn.slot, align 8
  %57 = extractvalue { i8*, i32 } %55, 1
  store i32 %57, i32* %ehselector.slot, align 4
  call void @_ZNSaIiED2Ev(%"class.std::allocator.0"* %ref.tmp80) #3
  br label %ehcleanup85

if.end84:                                         ; preds = %for.end73
  call void @_ZNSt6vectorIiSaIiEEC2EOS1_(%"class.std::vector"* %agg.result, %"class.std::vector"* dereferenceable(24) %ret) #3
  store i32 1, i32* %cleanup.dest.slot, align 4
  br label %cleanup

cleanup:                                          ; preds = %if.end84, %invoke.cont82
  call void @_ZNSt6vectorIiSaIiEED2Ev(%"class.std::vector"* %ret) #3
  br label %return

ehcleanup85:                                      ; preds = %lpad81, %ehcleanup, %lpad22, %lpad
  call void @_ZNSt6vectorIiSaIiEED2Ev(%"class.std::vector"* %ret) #3
  br label %eh.resume

return:                                           ; preds = %cleanup, %if.then
  ret void

eh.resume:                                        ; preds = %ehcleanup85
  %exn = load i8*, i8** %exn.slot, align 8
  %sel = load i32, i32* %ehselector.slot, align 4
  %lpad.val = insertvalue { i8*, i32 } undef, i8* %exn, 0
  %lpad.val86 = insertvalue { i8*, i32 } %lpad.val, i32 %sel, 1
  resume { i8*, i32 } %lpad.val86
}

; Function Attrs: noinline optnone uwtable
define linkonce_odr dso_local i64 @_ZNKSt3mapINSt7__cxx1112basic_stringIcSt11char_traitsIcESaIcEEESt6vectorIiSaIiEESt4lessIS5_ESaISt4pairIKS5_S8_EEE5countERSC_(%"class.std::map"* %this, %"class.std::__cxx11::basic_string"* dereferenceable(32) %__x) #4 comdat align 2 {
entry:
  %this.addr = alloca %"class.std::map"*, align 8
  %__x.addr = alloca %"class.std::__cxx11::basic_string"*, align 8
  %ref.tmp = alloca %"struct.std::_Rb_tree_const_iterator", align 8
  %ref.tmp2 = alloca %"struct.std::_Rb_tree_const_iterator", align 8
  store %"class.std::map"* %this, %"class.std::map"** %this.addr, align 8
  store %"class.std::__cxx11::basic_string"* %__x, %"class.std::__cxx11::basic_string"** %__x.addr, align 8
  %this1 = load %"class.std::map"*, %"class.std::map"** %this.addr, align 8
  %_M_t = getelementptr inbounds %"class.std::map", %"class.std::map"* %this1, i32 0, i32 0
  %0 = load %"class.std::__cxx11::basic_string"*, %"class.std::__cxx11::basic_string"** %__x.addr, align 8
  %call = call %"struct.std::_Rb_tree_node_base"* @_ZNKSt8_Rb_treeINSt7__cxx1112basic_stringIcSt11char_traitsIcESaIcEEESt4pairIKS5_St6vectorIiSaIiEEESt10_Select1stISB_ESt4lessIS5_ESaISB_EE4findERS7_(%"class.std::_Rb_tree"* %_M_t, %"class.std::__cxx11::basic_string"* dereferenceable(32) %0)
  %coerce.dive = getelementptr inbounds %"struct.std::_Rb_tree_const_iterator", %"struct.std::_Rb_tree_const_iterator"* %ref.tmp, i32 0, i32 0
  store %"struct.std::_Rb_tree_node_base"* %call, %"struct.std::_Rb_tree_node_base"** %coerce.dive, align 8
  %_M_t3 = getelementptr inbounds %"class.std::map", %"class.std::map"* %this1, i32 0, i32 0
  %call4 = call %"struct.std::_Rb_tree_node_base"* @_ZNKSt8_Rb_treeINSt7__cxx1112basic_stringIcSt11char_traitsIcESaIcEEESt4pairIKS5_St6vectorIiSaIiEEESt10_Select1stISB_ESt4lessIS5_ESaISB_EE3endEv(%"class.std::_Rb_tree"* %_M_t3) #3
  %coerce.dive5 = getelementptr inbounds %"struct.std::_Rb_tree_const_iterator", %"struct.std::_Rb_tree_const_iterator"* %ref.tmp2, i32 0, i32 0
  store %"struct.std::_Rb_tree_node_base"* %call4, %"struct.std::_Rb_tree_node_base"** %coerce.dive5, align 8
  %call6 = call zeroext i1 @_ZSteqRKSt23_Rb_tree_const_iteratorISt4pairIKNSt7__cxx1112basic_stringIcSt11char_traitsIcESaIcEEESt6vectorIiSaIiEEEESE_(%"struct.std::_Rb_tree_const_iterator"* dereferenceable(8) %ref.tmp, %"struct.std::_Rb_tree_const_iterator"* dereferenceable(8) %ref.tmp2) #3
  %1 = zext i1 %call6 to i64
  %cond = select i1 %call6, i32 0, i32 1
  %conv = sext i32 %cond to i64
  ret i64 %conv
}

; Function Attrs: noinline optnone uwtable
define linkonce_odr dso_local dereferenceable(24) %"class.std::vector"* @_ZNSt3mapINSt7__cxx1112basic_stringIcSt11char_traitsIcESaIcEEESt6vectorIiSaIiEESt4lessIS5_ESaISt4pairIKS5_S8_EEEixERSC_(%"class.std::map"* %this, %"class.std::__cxx11::basic_string"* dereferenceable(32) %__k) #4 comdat align 2 {
entry:
  %this.addr = alloca %"class.std::map"*, align 8
  %__k.addr = alloca %"class.std::__cxx11::basic_string"*, align 8
  %__i = alloca %"struct.std::_Rb_tree_iterator", align 8
  %ref.tmp = alloca %"struct.std::_Rb_tree_iterator", align 8
  %ref.tmp5 = alloca %"struct.std::less", align 1
  %undef.agg.tmp = alloca %"struct.std::less", align 1
  %ref.tmp8 = alloca %"struct.std::_Rb_tree_iterator", align 8
  %agg.tmp = alloca %"struct.std::_Rb_tree_const_iterator", align 8
  %ref.tmp9 = alloca %"class.std::tuple", align 8
  %ref.tmp10 = alloca %"class.std::tuple.6", align 1
  store %"class.std::map"* %this, %"class.std::map"** %this.addr, align 8
  store %"class.std::__cxx11::basic_string"* %__k, %"class.std::__cxx11::basic_string"** %__k.addr, align 8
  %this1 = load %"class.std::map"*, %"class.std::map"** %this.addr, align 8
  %0 = load %"class.std::__cxx11::basic_string"*, %"class.std::__cxx11::basic_string"** %__k.addr, align 8
  %call = call %"struct.std::_Rb_tree_node_base"* @_ZNSt3mapINSt7__cxx1112basic_stringIcSt11char_traitsIcESaIcEEESt6vectorIiSaIiEESt4lessIS5_ESaISt4pairIKS5_S8_EEE11lower_boundERSC_(%"class.std::map"* %this1, %"class.std::__cxx11::basic_string"* dereferenceable(32) %0)
  %coerce.dive = getelementptr inbounds %"struct.std::_Rb_tree_iterator", %"struct.std::_Rb_tree_iterator"* %__i, i32 0, i32 0
  store %"struct.std::_Rb_tree_node_base"* %call, %"struct.std::_Rb_tree_node_base"** %coerce.dive, align 8
  %call2 = call %"struct.std::_Rb_tree_node_base"* @_ZNSt3mapINSt7__cxx1112basic_stringIcSt11char_traitsIcESaIcEEESt6vectorIiSaIiEESt4lessIS5_ESaISt4pairIKS5_S8_EEE3endEv(%"class.std::map"* %this1) #3
  %coerce.dive3 = getelementptr inbounds %"struct.std::_Rb_tree_iterator", %"struct.std::_Rb_tree_iterator"* %ref.tmp, i32 0, i32 0
  store %"struct.std::_Rb_tree_node_base"* %call2, %"struct.std::_Rb_tree_node_base"** %coerce.dive3, align 8
  %call4 = call zeroext i1 @_ZSteqRKSt17_Rb_tree_iteratorISt4pairIKNSt7__cxx1112basic_stringIcSt11char_traitsIcESaIcEEESt6vectorIiSaIiEEEESE_(%"struct.std::_Rb_tree_iterator"* dereferenceable(8) %__i, %"struct.std::_Rb_tree_iterator"* dereferenceable(8) %ref.tmp) #3
  br i1 %call4, label %lor.end, label %lor.rhs

lor.rhs:                                          ; preds = %entry
  call void @_ZNKSt3mapINSt7__cxx1112basic_stringIcSt11char_traitsIcESaIcEEESt6vectorIiSaIiEESt4lessIS5_ESaISt4pairIKS5_S8_EEE8key_compEv(%"class.std::map"* %this1)
  %1 = load %"class.std::__cxx11::basic_string"*, %"class.std::__cxx11::basic_string"** %__k.addr, align 8
  %call6 = call dereferenceable(56) %"struct.std::pair"* @_ZNKSt17_Rb_tree_iteratorISt4pairIKNSt7__cxx1112basic_stringIcSt11char_traitsIcESaIcEEESt6vectorIiSaIiEEEEdeEv(%"struct.std::_Rb_tree_iterator"* %__i) #3
  %first = getelementptr inbounds %"struct.std::pair", %"struct.std::pair"* %call6, i32 0, i32 0
  %call7 = call zeroext i1 @_ZNKSt4lessINSt7__cxx1112basic_stringIcSt11char_traitsIcESaIcEEEEclERKS5_S8_(%"struct.std::less"* %ref.tmp5, %"class.std::__cxx11::basic_string"* dereferenceable(32) %1, %"class.std::__cxx11::basic_string"* dereferenceable(32) %first)
  br label %lor.end

lor.end:                                          ; preds = %lor.rhs, %entry
  %2 = phi i1 [ true, %entry ], [ %call7, %lor.rhs ]
  br i1 %2, label %if.then, label %if.end

if.then:                                          ; preds = %lor.end
  %_M_t = getelementptr inbounds %"class.std::map", %"class.std::map"* %this1, i32 0, i32 0
  call void @_ZNSt23_Rb_tree_const_iteratorISt4pairIKNSt7__cxx1112basic_stringIcSt11char_traitsIcESaIcEEESt6vectorIiSaIiEEEEC2ERKSt17_Rb_tree_iteratorISB_E(%"struct.std::_Rb_tree_const_iterator"* %agg.tmp, %"struct.std::_Rb_tree_iterator"* dereferenceable(8) %__i) #3
  %3 = load %"class.std::__cxx11::basic_string"*, %"class.std::__cxx11::basic_string"** %__k.addr, align 8
  call void @_ZNSt5tupleIJRKNSt7__cxx1112basic_stringIcSt11char_traitsIcESaIcEEEEEC2ILb1ELb1EEES7_(%"class.std::tuple"* %ref.tmp9, %"class.std::__cxx11::basic_string"* dereferenceable(32) %3) #3
  %coerce.dive11 = getelementptr inbounds %"struct.std::_Rb_tree_const_iterator", %"struct.std::_Rb_tree_const_iterator"* %agg.tmp, i32 0, i32 0
  %4 = load %"struct.std::_Rb_tree_node_base"*, %"struct.std::_Rb_tree_node_base"** %coerce.dive11, align 8
  %call12 = call %"struct.std::_Rb_tree_node_base"* @_ZNSt8_Rb_treeINSt7__cxx1112basic_stringIcSt11char_traitsIcESaIcEEESt4pairIKS5_St6vectorIiSaIiEEESt10_Select1stISB_ESt4lessIS5_ESaISB_EE22_M_emplace_hint_uniqueIJRKSt21piecewise_construct_tSt5tupleIJRS7_EESM_IJEEEEESt17_Rb_tree_iteratorISB_ESt23_Rb_tree_const_iteratorISB_EDpOT_(%"class.std::_Rb_tree"* %_M_t, %"struct.std::_Rb_tree_node_base"* %4, %"struct.std::piecewise_construct_t"* dereferenceable(1) @_ZStL19piecewise_construct, %"class.std::tuple"* dereferenceable(8) %ref.tmp9, %"class.std::tuple.6"* dereferenceable(1) %ref.tmp10)
  %coerce.dive13 = getelementptr inbounds %"struct.std::_Rb_tree_iterator", %"struct.std::_Rb_tree_iterator"* %ref.tmp8, i32 0, i32 0
  store %"struct.std::_Rb_tree_node_base"* %call12, %"struct.std::_Rb_tree_node_base"** %coerce.dive13, align 8
  %5 = bitcast %"struct.std::_Rb_tree_iterator"* %__i to i8*
  %6 = bitcast %"struct.std::_Rb_tree_iterator"* %ref.tmp8 to i8*
  call void @llvm.memcpy.p0i8.p0i8.i64(i8* align 8 %5, i8* align 8 %6, i64 8, i1 false)
  br label %if.end

if.end:                                           ; preds = %if.then, %lor.end
  %call14 = call dereferenceable(56) %"struct.std::pair"* @_ZNKSt17_Rb_tree_iteratorISt4pairIKNSt7__cxx1112basic_stringIcSt11char_traitsIcESaIcEEESt6vectorIiSaIiEEEEdeEv(%"struct.std::_Rb_tree_iterator"* %__i) #3
  %second = getelementptr inbounds %"struct.std::pair", %"struct.std::pair"* %call14, i32 0, i32 1
  ret %"class.std::vector"* %second
}

; Function Attrs: noinline optnone uwtable
define linkonce_odr dso_local void @_ZNSt6vectorIiSaIiEEC2ERKS1_(%"class.std::vector"* %this, %"class.std::vector"* dereferenceable(24) %__x) unnamed_addr #4 comdat align 2 personality i8* bitcast (i32 (...)* @__gxx_personality_v0 to i8*) {
entry:
  %this.addr = alloca %"class.std::vector"*, align 8
  %__x.addr = alloca %"class.std::vector"*, align 8
  %ref.tmp = alloca %"class.std::allocator.0", align 1
  %exn.slot = alloca i8*
  %ehselector.slot = alloca i32
  %agg.tmp = alloca %"class.__gnu_cxx::__normal_iterator.11", align 8
  %agg.tmp4 = alloca %"class.__gnu_cxx::__normal_iterator.11", align 8
  store %"class.std::vector"* %this, %"class.std::vector"** %this.addr, align 8
  store %"class.std::vector"* %__x, %"class.std::vector"** %__x.addr, align 8
  %this1 = load %"class.std::vector"*, %"class.std::vector"** %this.addr, align 8
  %0 = bitcast %"class.std::vector"* %this1 to %"struct.std::_Vector_base"*
  %1 = load %"class.std::vector"*, %"class.std::vector"** %__x.addr, align 8
  %call = call i64 @_ZNKSt6vectorIiSaIiEE4sizeEv(%"class.std::vector"* %1) #3
  %2 = load %"class.std::vector"*, %"class.std::vector"** %__x.addr, align 8
  %3 = bitcast %"class.std::vector"* %2 to %"struct.std::_Vector_base"*
  %call2 = call dereferenceable(1) %"class.std::allocator.0"* @_ZNKSt12_Vector_baseIiSaIiEE19_M_get_Tp_allocatorEv(%"struct.std::_Vector_base"* %3) #3
  call void @_ZN9__gnu_cxx14__alloc_traitsISaIiEiE17_S_select_on_copyERKS1_(%"class.std::allocator.0"* sret %ref.tmp, %"class.std::allocator.0"* dereferenceable(1) %call2)
  invoke void @_ZNSt12_Vector_baseIiSaIiEEC2EmRKS0_(%"struct.std::_Vector_base"* %0, i64 %call, %"class.std::allocator.0"* dereferenceable(1) %ref.tmp)
          to label %invoke.cont unwind label %lpad

invoke.cont:                                      ; preds = %entry
  call void @_ZNSaIiED2Ev(%"class.std::allocator.0"* %ref.tmp) #3
  %4 = load %"class.std::vector"*, %"class.std::vector"** %__x.addr, align 8
  %call3 = call i32* @_ZNKSt6vectorIiSaIiEE5beginEv(%"class.std::vector"* %4) #3
  %coerce.dive = getelementptr inbounds %"class.__gnu_cxx::__normal_iterator.11", %"class.__gnu_cxx::__normal_iterator.11"* %agg.tmp, i32 0, i32 0
  store i32* %call3, i32** %coerce.dive, align 8
  %5 = load %"class.std::vector"*, %"class.std::vector"** %__x.addr, align 8
  %call5 = call i32* @_ZNKSt6vectorIiSaIiEE3endEv(%"class.std::vector"* %5) #3
  %coerce.dive6 = getelementptr inbounds %"class.__gnu_cxx::__normal_iterator.11", %"class.__gnu_cxx::__normal_iterator.11"* %agg.tmp4, i32 0, i32 0
  store i32* %call5, i32** %coerce.dive6, align 8
  %6 = bitcast %"class.std::vector"* %this1 to %"struct.std::_Vector_base"*
  %_M_impl = getelementptr inbounds %"struct.std::_Vector_base", %"struct.std::_Vector_base"* %6, i32 0, i32 0
  %7 = bitcast %"struct.std::_Vector_base<int, std::allocator<int> >::_Vector_impl"* %_M_impl to %"struct.std::_Vector_base<int, std::allocator<int> >::_Vector_impl_data"*
  %_M_start = getelementptr inbounds %"struct.std::_Vector_base<int, std::allocator<int> >::_Vector_impl_data", %"struct.std::_Vector_base<int, std::allocator<int> >::_Vector_impl_data"* %7, i32 0, i32 0
  %8 = load i32*, i32** %_M_start, align 8
  %9 = bitcast %"class.std::vector"* %this1 to %"struct.std::_Vector_base"*
  %call7 = call dereferenceable(1) %"class.std::allocator.0"* @_ZNSt12_Vector_baseIiSaIiEE19_M_get_Tp_allocatorEv(%"struct.std::_Vector_base"* %9) #3
  %coerce.dive8 = getelementptr inbounds %"class.__gnu_cxx::__normal_iterator.11", %"class.__gnu_cxx::__normal_iterator.11"* %agg.tmp, i32 0, i32 0
  %10 = load i32*, i32** %coerce.dive8, align 8
  %coerce.dive9 = getelementptr inbounds %"class.__gnu_cxx::__normal_iterator.11", %"class.__gnu_cxx::__normal_iterator.11"* %agg.tmp4, i32 0, i32 0
  %11 = load i32*, i32** %coerce.dive9, align 8
  %call12 = invoke i32* @_ZSt22__uninitialized_copy_aIN9__gnu_cxx17__normal_iteratorIPKiSt6vectorIiSaIiEEEEPiiET0_T_SA_S9_RSaIT1_E(i32* %10, i32* %11, i32* %8, %"class.std::allocator.0"* dereferenceable(1) %call7)
          to label %invoke.cont11 unwind label %lpad10

invoke.cont11:                                    ; preds = %invoke.cont
  %12 = bitcast %"class.std::vector"* %this1 to %"struct.std::_Vector_base"*
  %_M_impl13 = getelementptr inbounds %"struct.std::_Vector_base", %"struct.std::_Vector_base"* %12, i32 0, i32 0
  %13 = bitcast %"struct.std::_Vector_base<int, std::allocator<int> >::_Vector_impl"* %_M_impl13 to %"struct.std::_Vector_base<int, std::allocator<int> >::_Vector_impl_data"*
  %_M_finish = getelementptr inbounds %"struct.std::_Vector_base<int, std::allocator<int> >::_Vector_impl_data", %"struct.std::_Vector_base<int, std::allocator<int> >::_Vector_impl_data"* %13, i32 0, i32 1
  store i32* %call12, i32** %_M_finish, align 8
  ret void

lpad:                                             ; preds = %entry
  %14 = landingpad { i8*, i32 }
          cleanup
  %15 = extractvalue { i8*, i32 } %14, 0
  store i8* %15, i8** %exn.slot, align 8
  %16 = extractvalue { i8*, i32 } %14, 1
  store i32 %16, i32* %ehselector.slot, align 4
  call void @_ZNSaIiED2Ev(%"class.std::allocator.0"* %ref.tmp) #3
  br label %eh.resume

lpad10:                                           ; preds = %invoke.cont
  %17 = landingpad { i8*, i32 }
          cleanup
  %18 = extractvalue { i8*, i32 } %17, 0
  store i8* %18, i8** %exn.slot, align 8
  %19 = extractvalue { i8*, i32 } %17, 1
  store i32 %19, i32* %ehselector.slot, align 4
  %20 = bitcast %"class.std::vector"* %this1 to %"struct.std::_Vector_base"*
  call void @_ZNSt12_Vector_baseIiSaIiEED2Ev(%"struct.std::_Vector_base"* %20) #3
  br label %eh.resume

eh.resume:                                        ; preds = %lpad10, %lpad
  %exn = load i8*, i8** %exn.slot, align 8
  %sel = load i32, i32* %ehselector.slot, align 4
  %lpad.val = insertvalue { i8*, i32 } undef, i8* %exn, 0
  %lpad.val14 = insertvalue { i8*, i32 } %lpad.val, i32 %sel, 1
  resume { i8*, i32 } %lpad.val14
}

; Function Attrs: noinline nounwind optnone uwtable
define linkonce_odr dso_local void @_ZNSt6vectorIiSaIiEEC2Ev(%"class.std::vector"* %this) unnamed_addr #5 comdat align 2 {
entry:
  %this.addr = alloca %"class.std::vector"*, align 8
  store %"class.std::vector"* %this, %"class.std::vector"** %this.addr, align 8
  %this1 = load %"class.std::vector"*, %"class.std::vector"** %this.addr, align 8
  %0 = bitcast %"class.std::vector"* %this1 to %"struct.std::_Vector_base"*
  call void @_ZNSt12_Vector_baseIiSaIiEEC2Ev(%"struct.std::_Vector_base"* %0) #3
  ret void
}

; Function Attrs: nounwind
declare dso_local i64 @_ZNKSt7__cxx1112basic_stringIcSt11char_traitsIcESaIcEE6lengthEv(%"class.std::__cxx11::basic_string"*) #2

declare dso_local dereferenceable(1) i8* @_ZNSt7__cxx1112basic_stringIcSt11char_traitsIcESaIcEEixEm(%"class.std::__cxx11::basic_string"*, i64) #1

declare dso_local i32 @__gxx_personality_v0(...)

declare dso_local void @_ZNKSt7__cxx1112basic_stringIcSt11char_traitsIcESaIcEE6substrEmm(%"class.std::__cxx11::basic_string"* sret, %"class.std::__cxx11::basic_string"*, i64, i64) #1

; Function Attrs: nounwind
declare dso_local void @_ZNSt7__cxx1112basic_stringIcSt11char_traitsIcESaIcEED1Ev(%"class.std::__cxx11::basic_string"*) unnamed_addr #2

; Function Attrs: noinline nounwind optnone uwtable
define linkonce_odr dso_local i32* @_ZNSt6vectorIiSaIiEE5beginEv(%"class.std::vector"* %this) #5 comdat align 2 {
entry:
  %retval = alloca %"class.__gnu_cxx::__normal_iterator", align 8
  %this.addr = alloca %"class.std::vector"*, align 8
  store %"class.std::vector"* %this, %"class.std::vector"** %this.addr, align 8
  %this1 = load %"class.std::vector"*, %"class.std::vector"** %this.addr, align 8
  %0 = bitcast %"class.std::vector"* %this1 to %"struct.std::_Vector_base"*
  %_M_impl = getelementptr inbounds %"struct.std::_Vector_base", %"struct.std::_Vector_base"* %0, i32 0, i32 0
  %1 = bitcast %"struct.std::_Vector_base<int, std::allocator<int> >::_Vector_impl"* %_M_impl to %"struct.std::_Vector_base<int, std::allocator<int> >::_Vector_impl_data"*
  %_M_start = getelementptr inbounds %"struct.std::_Vector_base<int, std::allocator<int> >::_Vector_impl_data", %"struct.std::_Vector_base<int, std::allocator<int> >::_Vector_impl_data"* %1, i32 0, i32 0
  call void @_ZN9__gnu_cxx17__normal_iteratorIPiSt6vectorIiSaIiEEEC2ERKS1_(%"class.__gnu_cxx::__normal_iterator"* %retval, i32** dereferenceable(8) %_M_start) #3
  %coerce.dive = getelementptr inbounds %"class.__gnu_cxx::__normal_iterator", %"class.__gnu_cxx::__normal_iterator"* %retval, i32 0, i32 0
  %2 = load i32*, i32** %coerce.dive, align 8
  ret i32* %2
}

; Function Attrs: noinline nounwind optnone uwtable
define linkonce_odr dso_local i32* @_ZNSt6vectorIiSaIiEE3endEv(%"class.std::vector"* %this) #5 comdat align 2 {
entry:
  %retval = alloca %"class.__gnu_cxx::__normal_iterator", align 8
  %this.addr = alloca %"class.std::vector"*, align 8
  store %"class.std::vector"* %this, %"class.std::vector"** %this.addr, align 8
  %this1 = load %"class.std::vector"*, %"class.std::vector"** %this.addr, align 8
  %0 = bitcast %"class.std::vector"* %this1 to %"struct.std::_Vector_base"*
  %_M_impl = getelementptr inbounds %"struct.std::_Vector_base", %"struct.std::_Vector_base"* %0, i32 0, i32 0
  %1 = bitcast %"struct.std::_Vector_base<int, std::allocator<int> >::_Vector_impl"* %_M_impl to %"struct.std::_Vector_base<int, std::allocator<int> >::_Vector_impl_data"*
  %_M_finish = getelementptr inbounds %"struct.std::_Vector_base<int, std::allocator<int> >::_Vector_impl_data", %"struct.std::_Vector_base<int, std::allocator<int> >::_Vector_impl_data"* %1, i32 0, i32 1
  call void @_ZN9__gnu_cxx17__normal_iteratorIPiSt6vectorIiSaIiEEEC2ERKS1_(%"class.__gnu_cxx::__normal_iterator"* %retval, i32** dereferenceable(8) %_M_finish) #3
  %coerce.dive = getelementptr inbounds %"class.__gnu_cxx::__normal_iterator", %"class.__gnu_cxx::__normal_iterator"* %retval, i32 0, i32 0
  %2 = load i32*, i32** %coerce.dive, align 8
  ret i32* %2
}

; Function Attrs: noinline nounwind optnone uwtable
define linkonce_odr dso_local zeroext i1 @_ZN9__gnu_cxxneIPiSt6vectorIiSaIiEEEEbRKNS_17__normal_iteratorIT_T0_EESA_(%"class.__gnu_cxx::__normal_iterator"* dereferenceable(8) %__lhs, %"class.__gnu_cxx::__normal_iterator"* dereferenceable(8) %__rhs) #5 comdat {
entry:
  %__lhs.addr = alloca %"class.__gnu_cxx::__normal_iterator"*, align 8
  %__rhs.addr = alloca %"class.__gnu_cxx::__normal_iterator"*, align 8
  store %"class.__gnu_cxx::__normal_iterator"* %__lhs, %"class.__gnu_cxx::__normal_iterator"** %__lhs.addr, align 8
  store %"class.__gnu_cxx::__normal_iterator"* %__rhs, %"class.__gnu_cxx::__normal_iterator"** %__rhs.addr, align 8
  %0 = load %"class.__gnu_cxx::__normal_iterator"*, %"class.__gnu_cxx::__normal_iterator"** %__lhs.addr, align 8
  %call = call dereferenceable(8) i32** @_ZNK9__gnu_cxx17__normal_iteratorIPiSt6vectorIiSaIiEEE4baseEv(%"class.__gnu_cxx::__normal_iterator"* %0) #3
  %1 = load i32*, i32** %call, align 8
  %2 = load %"class.__gnu_cxx::__normal_iterator"*, %"class.__gnu_cxx::__normal_iterator"** %__rhs.addr, align 8
  %call1 = call dereferenceable(8) i32** @_ZNK9__gnu_cxx17__normal_iteratorIPiSt6vectorIiSaIiEEE4baseEv(%"class.__gnu_cxx::__normal_iterator"* %2) #3
  %3 = load i32*, i32** %call1, align 8
  %cmp = icmp ne i32* %1, %3
  ret i1 %cmp
}

; Function Attrs: noinline nounwind optnone uwtable
define linkonce_odr dso_local dereferenceable(4) i32* @_ZNK9__gnu_cxx17__normal_iteratorIPiSt6vectorIiSaIiEEEdeEv(%"class.__gnu_cxx::__normal_iterator"* %this) #5 comdat align 2 {
entry:
  %this.addr = alloca %"class.__gnu_cxx::__normal_iterator"*, align 8
  store %"class.__gnu_cxx::__normal_iterator"* %this, %"class.__gnu_cxx::__normal_iterator"** %this.addr, align 8
  %this1 = load %"class.__gnu_cxx::__normal_iterator"*, %"class.__gnu_cxx::__normal_iterator"** %this.addr, align 8
  %_M_current = getelementptr inbounds %"class.__gnu_cxx::__normal_iterator", %"class.__gnu_cxx::__normal_iterator"* %this1, i32 0, i32 0
  %0 = load i32*, i32** %_M_current, align 8
  ret i32* %0
}

; Function Attrs: noinline optnone uwtable
define linkonce_odr dso_local void @_ZNSt6vectorIiSaIiEE12emplace_backIJiEEEvDpOT_(%"class.std::vector"* %this, i32* dereferenceable(4) %__args) #4 comdat align 2 {
entry:
  %this.addr = alloca %"class.std::vector"*, align 8
  %__args.addr = alloca i32*, align 8
  %agg.tmp = alloca %"class.__gnu_cxx::__normal_iterator", align 8
  store %"class.std::vector"* %this, %"class.std::vector"** %this.addr, align 8
  store i32* %__args, i32** %__args.addr, align 8
  %this1 = load %"class.std::vector"*, %"class.std::vector"** %this.addr, align 8
  %0 = bitcast %"class.std::vector"* %this1 to %"struct.std::_Vector_base"*
  %_M_impl = getelementptr inbounds %"struct.std::_Vector_base", %"struct.std::_Vector_base"* %0, i32 0, i32 0
  %1 = bitcast %"struct.std::_Vector_base<int, std::allocator<int> >::_Vector_impl"* %_M_impl to %"struct.std::_Vector_base<int, std::allocator<int> >::_Vector_impl_data"*
  %_M_finish = getelementptr inbounds %"struct.std::_Vector_base<int, std::allocator<int> >::_Vector_impl_data", %"struct.std::_Vector_base<int, std::allocator<int> >::_Vector_impl_data"* %1, i32 0, i32 1
  %2 = load i32*, i32** %_M_finish, align 8
  %3 = bitcast %"class.std::vector"* %this1 to %"struct.std::_Vector_base"*
  %_M_impl2 = getelementptr inbounds %"struct.std::_Vector_base", %"struct.std::_Vector_base"* %3, i32 0, i32 0
  %4 = bitcast %"struct.std::_Vector_base<int, std::allocator<int> >::_Vector_impl"* %_M_impl2 to %"struct.std::_Vector_base<int, std::allocator<int> >::_Vector_impl_data"*
  %_M_end_of_storage = getelementptr inbounds %"struct.std::_Vector_base<int, std::allocator<int> >::_Vector_impl_data", %"struct.std::_Vector_base<int, std::allocator<int> >::_Vector_impl_data"* %4, i32 0, i32 2
  %5 = load i32*, i32** %_M_end_of_storage, align 8
  %cmp = icmp ne i32* %2, %5
  br i1 %cmp, label %if.then, label %if.else

if.then:                                          ; preds = %entry
  %6 = bitcast %"class.std::vector"* %this1 to %"struct.std::_Vector_base"*
  %_M_impl3 = getelementptr inbounds %"struct.std::_Vector_base", %"struct.std::_Vector_base"* %6, i32 0, i32 0
  %7 = bitcast %"struct.std::_Vector_base<int, std::allocator<int> >::_Vector_impl"* %_M_impl3 to %"class.std::allocator.0"*
  %8 = bitcast %"class.std::vector"* %this1 to %"struct.std::_Vector_base"*
  %_M_impl4 = getelementptr inbounds %"struct.std::_Vector_base", %"struct.std::_Vector_base"* %8, i32 0, i32 0
  %9 = bitcast %"struct.std::_Vector_base<int, std::allocator<int> >::_Vector_impl"* %_M_impl4 to %"struct.std::_Vector_base<int, std::allocator<int> >::_Vector_impl_data"*
  %_M_finish5 = getelementptr inbounds %"struct.std::_Vector_base<int, std::allocator<int> >::_Vector_impl_data", %"struct.std::_Vector_base<int, std::allocator<int> >::_Vector_impl_data"* %9, i32 0, i32 1
  %10 = load i32*, i32** %_M_finish5, align 8
  %11 = load i32*, i32** %__args.addr, align 8
  %call = call dereferenceable(4) i32* @_ZSt7forwardIiEOT_RNSt16remove_referenceIS0_E4typeE(i32* dereferenceable(4) %11) #3
  call void @_ZNSt16allocator_traitsISaIiEE9constructIiJiEEEvRS0_PT_DpOT0_(%"class.std::allocator.0"* dereferenceable(1) %7, i32* %10, i32* dereferenceable(4) %call) #3
  %12 = bitcast %"class.std::vector"* %this1 to %"struct.std::_Vector_base"*
  %_M_impl6 = getelementptr inbounds %"struct.std::_Vector_base", %"struct.std::_Vector_base"* %12, i32 0, i32 0
  %13 = bitcast %"struct.std::_Vector_base<int, std::allocator<int> >::_Vector_impl"* %_M_impl6 to %"struct.std::_Vector_base<int, std::allocator<int> >::_Vector_impl_data"*
  %_M_finish7 = getelementptr inbounds %"struct.std::_Vector_base<int, std::allocator<int> >::_Vector_impl_data", %"struct.std::_Vector_base<int, std::allocator<int> >::_Vector_impl_data"* %13, i32 0, i32 1
  %14 = load i32*, i32** %_M_finish7, align 8
  %incdec.ptr = getelementptr inbounds i32, i32* %14, i32 1
  store i32* %incdec.ptr, i32** %_M_finish7, align 8
  br label %if.end

if.else:                                          ; preds = %entry
  %call8 = call i32* @_ZNSt6vectorIiSaIiEE3endEv(%"class.std::vector"* %this1) #3
  %coerce.dive = getelementptr inbounds %"class.__gnu_cxx::__normal_iterator", %"class.__gnu_cxx::__normal_iterator"* %agg.tmp, i32 0, i32 0
  store i32* %call8, i32** %coerce.dive, align 8
  %15 = load i32*, i32** %__args.addr, align 8
  %call9 = call dereferenceable(4) i32* @_ZSt7forwardIiEOT_RNSt16remove_referenceIS0_E4typeE(i32* dereferenceable(4) %15) #3
  %coerce.dive10 = getelementptr inbounds %"class.__gnu_cxx::__normal_iterator", %"class.__gnu_cxx::__normal_iterator"* %agg.tmp, i32 0, i32 0
  %16 = load i32*, i32** %coerce.dive10, align 8
  call void @_ZNSt6vectorIiSaIiEE17_M_realloc_insertIJiEEEvN9__gnu_cxx17__normal_iteratorIPiS1_EEDpOT_(%"class.std::vector"* %this1, i32* %16, i32* dereferenceable(4) %call9)
  br label %if.end

if.end:                                           ; preds = %if.else, %if.then
  ret void
}

; Function Attrs: noinline nounwind optnone uwtable
define linkonce_odr dso_local dereferenceable(8) %"class.__gnu_cxx::__normal_iterator"* @_ZN9__gnu_cxx17__normal_iteratorIPiSt6vectorIiSaIiEEEppEv(%"class.__gnu_cxx::__normal_iterator"* %this) #5 comdat align 2 {
entry:
  %this.addr = alloca %"class.__gnu_cxx::__normal_iterator"*, align 8
  store %"class.__gnu_cxx::__normal_iterator"* %this, %"class.__gnu_cxx::__normal_iterator"** %this.addr, align 8
  %this1 = load %"class.__gnu_cxx::__normal_iterator"*, %"class.__gnu_cxx::__normal_iterator"** %this.addr, align 8
  %_M_current = getelementptr inbounds %"class.__gnu_cxx::__normal_iterator", %"class.__gnu_cxx::__normal_iterator"* %this1, i32 0, i32 0
  %0 = load i32*, i32** %_M_current, align 8
  %incdec.ptr = getelementptr inbounds i32, i32* %0, i32 1
  store i32* %incdec.ptr, i32** %_M_current, align 8
  ret %"class.__gnu_cxx::__normal_iterator"* %this1
}

; Function Attrs: noinline nounwind optnone uwtable
define linkonce_odr dso_local void @_ZNSt6vectorIiSaIiEED2Ev(%"class.std::vector"* %this) unnamed_addr #5 comdat align 2 personality i8* bitcast (i32 (...)* @__gxx_personality_v0 to i8*) {
entry:
  %this.addr = alloca %"class.std::vector"*, align 8
  %exn.slot = alloca i8*
  %ehselector.slot = alloca i32
  store %"class.std::vector"* %this, %"class.std::vector"** %this.addr, align 8
  %this1 = load %"class.std::vector"*, %"class.std::vector"** %this.addr, align 8
  %0 = bitcast %"class.std::vector"* %this1 to %"struct.std::_Vector_base"*
  %_M_impl = getelementptr inbounds %"struct.std::_Vector_base", %"struct.std::_Vector_base"* %0, i32 0, i32 0
  %1 = bitcast %"struct.std::_Vector_base<int, std::allocator<int> >::_Vector_impl"* %_M_impl to %"struct.std::_Vector_base<int, std::allocator<int> >::_Vector_impl_data"*
  %_M_start = getelementptr inbounds %"struct.std::_Vector_base<int, std::allocator<int> >::_Vector_impl_data", %"struct.std::_Vector_base<int, std::allocator<int> >::_Vector_impl_data"* %1, i32 0, i32 0
  %2 = load i32*, i32** %_M_start, align 8
  %3 = bitcast %"class.std::vector"* %this1 to %"struct.std::_Vector_base"*
  %_M_impl2 = getelementptr inbounds %"struct.std::_Vector_base", %"struct.std::_Vector_base"* %3, i32 0, i32 0
  %4 = bitcast %"struct.std::_Vector_base<int, std::allocator<int> >::_Vector_impl"* %_M_impl2 to %"struct.std::_Vector_base<int, std::allocator<int> >::_Vector_impl_data"*
  %_M_finish = getelementptr inbounds %"struct.std::_Vector_base<int, std::allocator<int> >::_Vector_impl_data", %"struct.std::_Vector_base<int, std::allocator<int> >::_Vector_impl_data"* %4, i32 0, i32 1
  %5 = load i32*, i32** %_M_finish, align 8
  %6 = bitcast %"class.std::vector"* %this1 to %"struct.std::_Vector_base"*
  %call = call dereferenceable(1) %"class.std::allocator.0"* @_ZNSt12_Vector_baseIiSaIiEE19_M_get_Tp_allocatorEv(%"struct.std::_Vector_base"* %6) #3
  invoke void @_ZSt8_DestroyIPiiEvT_S1_RSaIT0_E(i32* %2, i32* %5, %"class.std::allocator.0"* dereferenceable(1) %call)
          to label %invoke.cont unwind label %lpad

invoke.cont:                                      ; preds = %entry
  %7 = bitcast %"class.std::vector"* %this1 to %"struct.std::_Vector_base"*
  call void @_ZNSt12_Vector_baseIiSaIiEED2Ev(%"struct.std::_Vector_base"* %7) #3
  ret void

lpad:                                             ; preds = %entry
  %8 = landingpad { i8*, i32 }
          catch i8* null
  %9 = extractvalue { i8*, i32 } %8, 0
  store i8* %9, i8** %exn.slot, align 8
  %10 = extractvalue { i8*, i32 } %8, 1
  store i32 %10, i32* %ehselector.slot, align 4
  %11 = bitcast %"class.std::vector"* %this1 to %"struct.std::_Vector_base"*
  call void @_ZNSt12_Vector_baseIiSaIiEED2Ev(%"struct.std::_Vector_base"* %11) #3
  br label %terminate.handler

terminate.handler:                                ; preds = %lpad
  %exn = load i8*, i8** %exn.slot, align 8
  call void @__clang_call_terminate(i8* %exn) #15
  unreachable
}

; Function Attrs: noinline nounwind optnone uwtable
define linkonce_odr dso_local zeroext i1 @_ZNKSt6vectorIiSaIiEE5emptyEv(%"class.std::vector"* %this) #5 comdat align 2 {
entry:
  %this.addr = alloca %"class.std::vector"*, align 8
  %ref.tmp = alloca %"class.__gnu_cxx::__normal_iterator.11", align 8
  %ref.tmp2 = alloca %"class.__gnu_cxx::__normal_iterator.11", align 8
  store %"class.std::vector"* %this, %"class.std::vector"** %this.addr, align 8
  %this1 = load %"class.std::vector"*, %"class.std::vector"** %this.addr, align 8
  %call = call i32* @_ZNKSt6vectorIiSaIiEE5beginEv(%"class.std::vector"* %this1) #3
  %coerce.dive = getelementptr inbounds %"class.__gnu_cxx::__normal_iterator.11", %"class.__gnu_cxx::__normal_iterator.11"* %ref.tmp, i32 0, i32 0
  store i32* %call, i32** %coerce.dive, align 8
  %call3 = call i32* @_ZNKSt6vectorIiSaIiEE3endEv(%"class.std::vector"* %this1) #3
  %coerce.dive4 = getelementptr inbounds %"class.__gnu_cxx::__normal_iterator.11", %"class.__gnu_cxx::__normal_iterator.11"* %ref.tmp2, i32 0, i32 0
  store i32* %call3, i32** %coerce.dive4, align 8
  %call5 = call zeroext i1 @_ZN9__gnu_cxxeqIPKiSt6vectorIiSaIiEEEEbRKNS_17__normal_iteratorIT_T0_EESB_(%"class.__gnu_cxx::__normal_iterator.11"* dereferenceable(8) %ref.tmp, %"class.__gnu_cxx::__normal_iterator.11"* dereferenceable(8) %ref.tmp2) #3
  ret i1 %call5
}

; Function Attrs: noinline optnone uwtable
define linkonce_odr dso_local i32 @_ZNSt7__cxx114stoiERKNS_12basic_stringIcSt11char_traitsIcESaIcEEEPmi(%"class.std::__cxx11::basic_string"* dereferenceable(32) %__str, i64* %__idx, i32 %__base) #4 comdat {
entry:
  %__str.addr = alloca %"class.std::__cxx11::basic_string"*, align 8
  %__idx.addr = alloca i64*, align 8
  %__base.addr = alloca i32, align 4
  store %"class.std::__cxx11::basic_string"* %__str, %"class.std::__cxx11::basic_string"** %__str.addr, align 8
  store i64* %__idx, i64** %__idx.addr, align 8
  store i32 %__base, i32* %__base.addr, align 4
  %0 = load %"class.std::__cxx11::basic_string"*, %"class.std::__cxx11::basic_string"** %__str.addr, align 8
  %call = call i8* @_ZNKSt7__cxx1112basic_stringIcSt11char_traitsIcESaIcEE5c_strEv(%"class.std::__cxx11::basic_string"* %0) #3
  %1 = load i64*, i64** %__idx.addr, align 8
  %2 = load i32, i32* %__base.addr, align 4
  %call1 = call i32 @_ZN9__gnu_cxx6__stoaIlicJiEEET0_PFT_PKT1_PPS3_DpT2_EPKcS5_PmS9_(i64 (i8*, i8**, i32)* @strtol, i8* getelementptr inbounds ([5 x i8], [5 x i8]* @.str.1, i64 0, i64 0), i8* %call, i64* %1, i32 %2)
  ret i32 %call1
}

; Function Attrs: noinline nounwind optnone uwtable
define linkonce_odr dso_local void @_ZNSaIiEC2Ev(%"class.std::allocator.0"* %this) unnamed_addr #5 comdat align 2 {
entry:
  %this.addr = alloca %"class.std::allocator.0"*, align 8
  store %"class.std::allocator.0"* %this, %"class.std::allocator.0"** %this.addr, align 8
  %this1 = load %"class.std::allocator.0"*, %"class.std::allocator.0"** %this.addr, align 8
  %0 = bitcast %"class.std::allocator.0"* %this1 to %"class.__gnu_cxx::new_allocator.1"*
  call void @_ZN9__gnu_cxx13new_allocatorIiEC2Ev(%"class.__gnu_cxx::new_allocator.1"* %0) #3
  ret void
}

; Function Attrs: noinline optnone uwtable
define linkonce_odr dso_local void @_ZNSt6vectorIiSaIiEEC2ESt16initializer_listIiERKS0_(%"class.std::vector"* %this, i32* %__l.coerce0, i64 %__l.coerce1, %"class.std::allocator.0"* dereferenceable(1) %__a) unnamed_addr #4 comdat align 2 personality i8* bitcast (i32 (...)* @__gxx_personality_v0 to i8*) {
entry:
  %__l = alloca %"class.std::initializer_list", align 8
  %this.addr = alloca %"class.std::vector"*, align 8
  %__a.addr = alloca %"class.std::allocator.0"*, align 8
  %agg.tmp = alloca %"struct.std::forward_iterator_tag", align 1
  %ref.tmp = alloca %"struct.std::random_access_iterator_tag", align 1
  %exn.slot = alloca i8*
  %ehselector.slot = alloca i32
  %0 = bitcast %"class.std::initializer_list"* %__l to { i32*, i64 }*
  %1 = getelementptr inbounds { i32*, i64 }, { i32*, i64 }* %0, i32 0, i32 0
  store i32* %__l.coerce0, i32** %1, align 8
  %2 = getelementptr inbounds { i32*, i64 }, { i32*, i64 }* %0, i32 0, i32 1
  store i64 %__l.coerce1, i64* %2, align 8
  store %"class.std::vector"* %this, %"class.std::vector"** %this.addr, align 8
  store %"class.std::allocator.0"* %__a, %"class.std::allocator.0"** %__a.addr, align 8
  %this1 = load %"class.std::vector"*, %"class.std::vector"** %this.addr, align 8
  %3 = bitcast %"class.std::vector"* %this1 to %"struct.std::_Vector_base"*
  %4 = load %"class.std::allocator.0"*, %"class.std::allocator.0"** %__a.addr, align 8
  call void @_ZNSt12_Vector_baseIiSaIiEEC2ERKS0_(%"struct.std::_Vector_base"* %3, %"class.std::allocator.0"* dereferenceable(1) %4) #3
  %call = call i32* @_ZNKSt16initializer_listIiE5beginEv(%"class.std::initializer_list"* %__l) #3
  %call2 = call i32* @_ZNKSt16initializer_listIiE3endEv(%"class.std::initializer_list"* %__l) #3
  %5 = bitcast %"struct.std::random_access_iterator_tag"* %ref.tmp to %"struct.std::forward_iterator_tag"*
  invoke void @_ZNSt6vectorIiSaIiEE19_M_range_initializeIPKiEEvT_S5_St20forward_iterator_tag(%"class.std::vector"* %this1, i32* %call, i32* %call2)
          to label %invoke.cont unwind label %lpad

invoke.cont:                                      ; preds = %entry
  ret void

lpad:                                             ; preds = %entry
  %6 = landingpad { i8*, i32 }
          cleanup
  %7 = extractvalue { i8*, i32 } %6, 0
  store i8* %7, i8** %exn.slot, align 8
  %8 = extractvalue { i8*, i32 } %6, 1
  store i32 %8, i32* %ehselector.slot, align 4
  %9 = bitcast %"class.std::vector"* %this1 to %"struct.std::_Vector_base"*
  call void @_ZNSt12_Vector_baseIiSaIiEED2Ev(%"struct.std::_Vector_base"* %9) #3
  br label %eh.resume

eh.resume:                                        ; preds = %lpad
  %exn = load i8*, i8** %exn.slot, align 8
  %sel = load i32, i32* %ehselector.slot, align 4
  %lpad.val = insertvalue { i8*, i32 } undef, i8* %exn, 0
  %lpad.val3 = insertvalue { i8*, i32 } %lpad.val, i32 %sel, 1
  resume { i8*, i32 } %lpad.val3
}

; Function Attrs: noinline nounwind optnone uwtable
define linkonce_odr dso_local void @_ZNSaIiED2Ev(%"class.std::allocator.0"* %this) unnamed_addr #5 comdat align 2 {
entry:
  %this.addr = alloca %"class.std::allocator.0"*, align 8
  store %"class.std::allocator.0"* %this, %"class.std::allocator.0"** %this.addr, align 8
  %this1 = load %"class.std::allocator.0"*, %"class.std::allocator.0"** %this.addr, align 8
  %0 = bitcast %"class.std::allocator.0"* %this1 to %"class.__gnu_cxx::new_allocator.1"*
  call void @_ZN9__gnu_cxx13new_allocatorIiED2Ev(%"class.__gnu_cxx::new_allocator.1"* %0) #3
  ret void
}

; Function Attrs: noinline nounwind optnone uwtable
define linkonce_odr dso_local void @_ZNSt6vectorIiSaIiEEC2EOS1_(%"class.std::vector"* %this, %"class.std::vector"* dereferenceable(24) %0) unnamed_addr #5 comdat align 2 {
entry:
  %this.addr = alloca %"class.std::vector"*, align 8
  %.addr = alloca %"class.std::vector"*, align 8
  store %"class.std::vector"* %this, %"class.std::vector"** %this.addr, align 8
  store %"class.std::vector"* %0, %"class.std::vector"** %.addr, align 8
  %this1 = load %"class.std::vector"*, %"class.std::vector"** %this.addr, align 8
  %1 = bitcast %"class.std::vector"* %this1 to %"struct.std::_Vector_base"*
  %2 = load %"class.std::vector"*, %"class.std::vector"** %.addr, align 8
  %3 = bitcast %"class.std::vector"* %2 to %"struct.std::_Vector_base"*
  call void @_ZNSt12_Vector_baseIiSaIiEEC2EOS1_(%"struct.std::_Vector_base"* %1, %"struct.std::_Vector_base"* dereferenceable(24) %3) #3
  ret void
}

; Function Attrs: noinline optnone uwtable
define dso_local void @_Z17diffWaysToComputeNSt7__cxx1112basic_stringIcSt11char_traitsIcESaIcEEE(%"class.std::vector"* noalias sret %agg.result, %"class.std::__cxx11::basic_string"* %expression) #4 personality i8* bitcast (i32 (...)* @__gxx_personality_v0 to i8*) {
entry:
  %result.ptr = alloca i8*, align 8
  %dpMap = alloca %"class.std::map", align 8
  %agg.tmp = alloca %"class.std::__cxx11::basic_string", align 8
  %exn.slot = alloca i8*
  %ehselector.slot = alloca i32
  %0 = bitcast %"class.std::vector"* %agg.result to i8*
  store i8* %0, i8** %result.ptr, align 8
  call void @_ZNSt3mapINSt7__cxx1112basic_stringIcSt11char_traitsIcESaIcEEESt6vectorIiSaIiEESt4lessIS5_ESaISt4pairIKS5_S8_EEEC2Ev(%"class.std::map"* %dpMap) #3
  invoke void @_ZNSt7__cxx1112basic_stringIcSt11char_traitsIcESaIcEEC1ERKS4_(%"class.std::__cxx11::basic_string"* %agg.tmp, %"class.std::__cxx11::basic_string"* dereferenceable(32) %expression)
          to label %invoke.cont unwind label %lpad

invoke.cont:                                      ; preds = %entry
  invoke void @_Z2dpNSt7__cxx1112basic_stringIcSt11char_traitsIcESaIcEEERSt3mapIS4_St6vectorIiSaIiEESt4lessIS4_ESaISt4pairIKS4_S8_EEE(%"class.std::vector"* sret %agg.result, %"class.std::__cxx11::basic_string"* %agg.tmp, %"class.std::map"* dereferenceable(48) %dpMap)
          to label %invoke.cont2 unwind label %lpad1

invoke.cont2:                                     ; preds = %invoke.cont
  call void @_ZNSt7__cxx1112basic_stringIcSt11char_traitsIcESaIcEED1Ev(%"class.std::__cxx11::basic_string"* %agg.tmp) #3
  call void @_ZNSt3mapINSt7__cxx1112basic_stringIcSt11char_traitsIcESaIcEEESt6vectorIiSaIiEESt4lessIS5_ESaISt4pairIKS5_S8_EEED2Ev(%"class.std::map"* %dpMap) #3
  ret void

lpad:                                             ; preds = %entry
  %1 = landingpad { i8*, i32 }
          cleanup
  %2 = extractvalue { i8*, i32 } %1, 0
  store i8* %2, i8** %exn.slot, align 8
  %3 = extractvalue { i8*, i32 } %1, 1
  store i32 %3, i32* %ehselector.slot, align 4
  br label %ehcleanup

lpad1:                                            ; preds = %invoke.cont
  %4 = landingpad { i8*, i32 }
          cleanup
  %5 = extractvalue { i8*, i32 } %4, 0
  store i8* %5, i8** %exn.slot, align 8
  %6 = extractvalue { i8*, i32 } %4, 1
  store i32 %6, i32* %ehselector.slot, align 4
  call void @_ZNSt7__cxx1112basic_stringIcSt11char_traitsIcESaIcEED1Ev(%"class.std::__cxx11::basic_string"* %agg.tmp) #3
  br label %ehcleanup

ehcleanup:                                        ; preds = %lpad1, %lpad
  call void @_ZNSt3mapINSt7__cxx1112basic_stringIcSt11char_traitsIcESaIcEEESt6vectorIiSaIiEESt4lessIS5_ESaISt4pairIKS5_S8_EEED2Ev(%"class.std::map"* %dpMap) #3
  br label %eh.resume

eh.resume:                                        ; preds = %ehcleanup
  %exn = load i8*, i8** %exn.slot, align 8
  %sel = load i32, i32* %ehselector.slot, align 4
  %lpad.val = insertvalue { i8*, i32 } undef, i8* %exn, 0
  %lpad.val3 = insertvalue { i8*, i32 } %lpad.val, i32 %sel, 1
  resume { i8*, i32 } %lpad.val3
}

; Function Attrs: noinline nounwind optnone uwtable
define linkonce_odr dso_local void @_ZNSt3mapINSt7__cxx1112basic_stringIcSt11char_traitsIcESaIcEEESt6vectorIiSaIiEESt4lessIS5_ESaISt4pairIKS5_S8_EEEC2Ev(%"class.std::map"* %this) unnamed_addr #5 comdat align 2 {
entry:
  %this.addr = alloca %"class.std::map"*, align 8
  store %"class.std::map"* %this, %"class.std::map"** %this.addr, align 8
  %this1 = load %"class.std::map"*, %"class.std::map"** %this.addr, align 8
  %_M_t = getelementptr inbounds %"class.std::map", %"class.std::map"* %this1, i32 0, i32 0
  call void @_ZNSt8_Rb_treeINSt7__cxx1112basic_stringIcSt11char_traitsIcESaIcEEESt4pairIKS5_St6vectorIiSaIiEEESt10_Select1stISB_ESt4lessIS5_ESaISB_EEC2Ev(%"class.std::_Rb_tree"* %_M_t) #3
  ret void
}

declare dso_local void @_ZNSt7__cxx1112basic_stringIcSt11char_traitsIcESaIcEEC1ERKS4_(%"class.std::__cxx11::basic_string"*, %"class.std::__cxx11::basic_string"* dereferenceable(32)) unnamed_addr #1

; Function Attrs: noinline nounwind optnone uwtable
define linkonce_odr dso_local void @_ZNSt3mapINSt7__cxx1112basic_stringIcSt11char_traitsIcESaIcEEESt6vectorIiSaIiEESt4lessIS5_ESaISt4pairIKS5_S8_EEED2Ev(%"class.std::map"* %this) unnamed_addr #5 comdat align 2 {
entry:
  %this.addr = alloca %"class.std::map"*, align 8
  store %"class.std::map"* %this, %"class.std::map"** %this.addr, align 8
  %this1 = load %"class.std::map"*, %"class.std::map"** %this.addr, align 8
  %_M_t = getelementptr inbounds %"class.std::map", %"class.std::map"* %this1, i32 0, i32 0
  call void @_ZNSt8_Rb_treeINSt7__cxx1112basic_stringIcSt11char_traitsIcESaIcEEESt4pairIKS5_St6vectorIiSaIiEEESt10_Select1stISB_ESt4lessIS5_ESaISB_EED2Ev(%"class.std::_Rb_tree"* %_M_t) #3
  ret void
}

; Function Attrs: noinline norecurse optnone uwtable
define dso_local i32 @main() #6 personality i8* bitcast (i32 (...)* @__gxx_personality_v0 to i8*) {
entry:
  %retval = alloca i32, align 4
  %s = alloca %"class.std::__cxx11::basic_string", align 8
  %exn.slot = alloca i8*
  %ehselector.slot = alloca i32
  %ans = alloca %"class.std::vector", align 8
  %agg.tmp = alloca %"class.std::__cxx11::basic_string", align 8
  %__range1 = alloca %"class.std::vector"*, align 8
  %__begin1 = alloca %"class.__gnu_cxx::__normal_iterator", align 8
  %__end1 = alloca %"class.__gnu_cxx::__normal_iterator", align 8
  %x = alloca i32, align 4
  store i32 0, i32* %retval, align 4
  call void @_ZNSt7__cxx1112basic_stringIcSt11char_traitsIcESaIcEEC1Ev(%"class.std::__cxx11::basic_string"* %s) #3
  %call = invoke dereferenceable(280) %"class.std::basic_istream"* @_ZStrsIcSt11char_traitsIcESaIcEERSt13basic_istreamIT_T0_ES7_RNSt7__cxx1112basic_stringIS4_S5_T1_EE(%"class.std::basic_istream"* dereferenceable(280) @_ZSt3cin, %"class.std::__cxx11::basic_string"* dereferenceable(32) %s)
          to label %invoke.cont unwind label %lpad

invoke.cont:                                      ; preds = %entry
  invoke void @_ZNSt7__cxx1112basic_stringIcSt11char_traitsIcESaIcEEC1ERKS4_(%"class.std::__cxx11::basic_string"* %agg.tmp, %"class.std::__cxx11::basic_string"* dereferenceable(32) %s)
          to label %invoke.cont1 unwind label %lpad

invoke.cont1:                                     ; preds = %invoke.cont
  invoke void @_Z17diffWaysToComputeNSt7__cxx1112basic_stringIcSt11char_traitsIcESaIcEEE(%"class.std::vector"* sret %ans, %"class.std::__cxx11::basic_string"* %agg.tmp)
          to label %invoke.cont3 unwind label %lpad2

invoke.cont3:                                     ; preds = %invoke.cont1
  call void @_ZNSt7__cxx1112basic_stringIcSt11char_traitsIcESaIcEED1Ev(%"class.std::__cxx11::basic_string"* %agg.tmp) #3
  store %"class.std::vector"* %ans, %"class.std::vector"** %__range1, align 8
  %0 = load %"class.std::vector"*, %"class.std::vector"** %__range1, align 8
  %call4 = call i32* @_ZNSt6vectorIiSaIiEE5beginEv(%"class.std::vector"* %0) #3
  %coerce.dive = getelementptr inbounds %"class.__gnu_cxx::__normal_iterator", %"class.__gnu_cxx::__normal_iterator"* %__begin1, i32 0, i32 0
  store i32* %call4, i32** %coerce.dive, align 8
  %1 = load %"class.std::vector"*, %"class.std::vector"** %__range1, align 8
  %call5 = call i32* @_ZNSt6vectorIiSaIiEE3endEv(%"class.std::vector"* %1) #3
  %coerce.dive6 = getelementptr inbounds %"class.__gnu_cxx::__normal_iterator", %"class.__gnu_cxx::__normal_iterator"* %__end1, i32 0, i32 0
  store i32* %call5, i32** %coerce.dive6, align 8
  br label %for.cond

for.cond:                                         ; preds = %for.inc, %invoke.cont3
  %call7 = call zeroext i1 @_ZN9__gnu_cxxneIPiSt6vectorIiSaIiEEEEbRKNS_17__normal_iteratorIT_T0_EESA_(%"class.__gnu_cxx::__normal_iterator"* dereferenceable(8) %__begin1, %"class.__gnu_cxx::__normal_iterator"* dereferenceable(8) %__end1) #3
  br i1 %call7, label %for.body, label %for.end

for.body:                                         ; preds = %for.cond
  %call8 = call dereferenceable(4) i32* @_ZNK9__gnu_cxx17__normal_iteratorIPiSt6vectorIiSaIiEEEdeEv(%"class.__gnu_cxx::__normal_iterator"* %__begin1) #3
  %2 = load i32, i32* %call8, align 4
  store i32 %2, i32* %x, align 4
  %3 = load i32, i32* %x, align 4
  %call11 = invoke dereferenceable(272) %"class.std::basic_ostream"* @_ZNSolsEi(%"class.std::basic_ostream"* @_ZSt4cout, i32 %3)
          to label %invoke.cont10 unwind label %lpad9

invoke.cont10:                                    ; preds = %for.body
  %call13 = invoke dereferenceable(272) %"class.std::basic_ostream"* @_ZStlsISt11char_traitsIcEERSt13basic_ostreamIcT_ES5_PKc(%"class.std::basic_ostream"* dereferenceable(272) %call11, i8* getelementptr inbounds ([2 x i8], [2 x i8]* @.str, i64 0, i64 0))
          to label %invoke.cont12 unwind label %lpad9

invoke.cont12:                                    ; preds = %invoke.cont10
  br label %for.inc

for.inc:                                          ; preds = %invoke.cont12
  %call14 = call dereferenceable(8) %"class.__gnu_cxx::__normal_iterator"* @_ZN9__gnu_cxx17__normal_iteratorIPiSt6vectorIiSaIiEEEppEv(%"class.__gnu_cxx::__normal_iterator"* %__begin1) #3
  br label %for.cond

lpad:                                             ; preds = %invoke.cont, %entry
  %4 = landingpad { i8*, i32 }
          cleanup
  %5 = extractvalue { i8*, i32 } %4, 0
  store i8* %5, i8** %exn.slot, align 8
  %6 = extractvalue { i8*, i32 } %4, 1
  store i32 %6, i32* %ehselector.slot, align 4
  br label %ehcleanup

lpad2:                                            ; preds = %invoke.cont1
  %7 = landingpad { i8*, i32 }
          cleanup
  %8 = extractvalue { i8*, i32 } %7, 0
  store i8* %8, i8** %exn.slot, align 8
  %9 = extractvalue { i8*, i32 } %7, 1
  store i32 %9, i32* %ehselector.slot, align 4
  call void @_ZNSt7__cxx1112basic_stringIcSt11char_traitsIcESaIcEED1Ev(%"class.std::__cxx11::basic_string"* %agg.tmp) #3
  br label %ehcleanup

lpad9:                                            ; preds = %invoke.cont10, %for.body
  %10 = landingpad { i8*, i32 }
          cleanup
  %11 = extractvalue { i8*, i32 } %10, 0
  store i8* %11, i8** %exn.slot, align 8
  %12 = extractvalue { i8*, i32 } %10, 1
  store i32 %12, i32* %ehselector.slot, align 4
  call void @_ZNSt6vectorIiSaIiEED2Ev(%"class.std::vector"* %ans) #3
  br label %ehcleanup

for.end:                                          ; preds = %for.cond
  store i32 0, i32* %retval, align 4
  call void @_ZNSt6vectorIiSaIiEED2Ev(%"class.std::vector"* %ans) #3
  call void @_ZNSt7__cxx1112basic_stringIcSt11char_traitsIcESaIcEED1Ev(%"class.std::__cxx11::basic_string"* %s) #3
  %13 = load i32, i32* %retval, align 4
  ret i32 %13

ehcleanup:                                        ; preds = %lpad9, %lpad2, %lpad
  call void @_ZNSt7__cxx1112basic_stringIcSt11char_traitsIcESaIcEED1Ev(%"class.std::__cxx11::basic_string"* %s) #3
  br label %eh.resume

eh.resume:                                        ; preds = %ehcleanup
  %exn = load i8*, i8** %exn.slot, align 8
  %sel = load i32, i32* %ehselector.slot, align 4
  %lpad.val = insertvalue { i8*, i32 } undef, i8* %exn, 0
  %lpad.val15 = insertvalue { i8*, i32 } %lpad.val, i32 %sel, 1
  resume { i8*, i32 } %lpad.val15
}

; Function Attrs: nounwind
declare dso_local void @_ZNSt7__cxx1112basic_stringIcSt11char_traitsIcESaIcEEC1Ev(%"class.std::__cxx11::basic_string"*) unnamed_addr #2

declare dso_local dereferenceable(280) %"class.std::basic_istream"* @_ZStrsIcSt11char_traitsIcESaIcEERSt13basic_istreamIT_T0_ES7_RNSt7__cxx1112basic_stringIS4_S5_T1_EE(%"class.std::basic_istream"* dereferenceable(280), %"class.std::__cxx11::basic_string"* dereferenceable(32)) #1

declare dso_local dereferenceable(272) %"class.std::basic_ostream"* @_ZStlsISt11char_traitsIcEERSt13basic_ostreamIcT_ES5_PKc(%"class.std::basic_ostream"* dereferenceable(272), i8*) #1

declare dso_local dereferenceable(272) %"class.std::basic_ostream"* @_ZNSolsEi(%"class.std::basic_ostream"*, i32) #1

; Function Attrs: noinline nounwind optnone uwtable
define linkonce_odr dso_local void @_ZNSt12_Vector_baseIiSaIiEEC2Ev(%"struct.std::_Vector_base"* %this) unnamed_addr #5 comdat align 2 {
entry:
  %this.addr = alloca %"struct.std::_Vector_base"*, align 8
  store %"struct.std::_Vector_base"* %this, %"struct.std::_Vector_base"** %this.addr, align 8
  %this1 = load %"struct.std::_Vector_base"*, %"struct.std::_Vector_base"** %this.addr, align 8
  %_M_impl = getelementptr inbounds %"struct.std::_Vector_base", %"struct.std::_Vector_base"* %this1, i32 0, i32 0
  call void @_ZNSt12_Vector_baseIiSaIiEE12_Vector_implC2Ev(%"struct.std::_Vector_base<int, std::allocator<int> >::_Vector_impl"* %_M_impl) #3
  ret void
}

; Function Attrs: noinline nounwind optnone uwtable
define linkonce_odr dso_local void @_ZNSt12_Vector_baseIiSaIiEE12_Vector_implC2Ev(%"struct.std::_Vector_base<int, std::allocator<int> >::_Vector_impl"* %this) unnamed_addr #5 comdat align 2 {
entry:
  %this.addr = alloca %"struct.std::_Vector_base<int, std::allocator<int> >::_Vector_impl"*, align 8
  store %"struct.std::_Vector_base<int, std::allocator<int> >::_Vector_impl"* %this, %"struct.std::_Vector_base<int, std::allocator<int> >::_Vector_impl"** %this.addr, align 8
  %this1 = load %"struct.std::_Vector_base<int, std::allocator<int> >::_Vector_impl"*, %"struct.std::_Vector_base<int, std::allocator<int> >::_Vector_impl"** %this.addr, align 8
  %0 = bitcast %"struct.std::_Vector_base<int, std::allocator<int> >::_Vector_impl"* %this1 to %"class.std::allocator.0"*
  call void @_ZNSaIiEC2Ev(%"class.std::allocator.0"* %0) #3
  %1 = bitcast %"struct.std::_Vector_base<int, std::allocator<int> >::_Vector_impl"* %this1 to %"struct.std::_Vector_base<int, std::allocator<int> >::_Vector_impl_data"*
  call void @_ZNSt12_Vector_baseIiSaIiEE17_Vector_impl_dataC2Ev(%"struct.std::_Vector_base<int, std::allocator<int> >::_Vector_impl_data"* %1) #3
  ret void
}

; Function Attrs: noinline nounwind optnone uwtable
define linkonce_odr dso_local void @_ZNSt12_Vector_baseIiSaIiEE17_Vector_impl_dataC2Ev(%"struct.std::_Vector_base<int, std::allocator<int> >::_Vector_impl_data"* %this) unnamed_addr #5 comdat align 2 {
entry:
  %this.addr = alloca %"struct.std::_Vector_base<int, std::allocator<int> >::_Vector_impl_data"*, align 8
  store %"struct.std::_Vector_base<int, std::allocator<int> >::_Vector_impl_data"* %this, %"struct.std::_Vector_base<int, std::allocator<int> >::_Vector_impl_data"** %this.addr, align 8
  %this1 = load %"struct.std::_Vector_base<int, std::allocator<int> >::_Vector_impl_data"*, %"struct.std::_Vector_base<int, std::allocator<int> >::_Vector_impl_data"** %this.addr, align 8
  %_M_start = getelementptr inbounds %"struct.std::_Vector_base<int, std::allocator<int> >::_Vector_impl_data", %"struct.std::_Vector_base<int, std::allocator<int> >::_Vector_impl_data"* %this1, i32 0, i32 0
  store i32* null, i32** %_M_start, align 8
  %_M_finish = getelementptr inbounds %"struct.std::_Vector_base<int, std::allocator<int> >::_Vector_impl_data", %"struct.std::_Vector_base<int, std::allocator<int> >::_Vector_impl_data"* %this1, i32 0, i32 1
  store i32* null, i32** %_M_finish, align 8
  %_M_end_of_storage = getelementptr inbounds %"struct.std::_Vector_base<int, std::allocator<int> >::_Vector_impl_data", %"struct.std::_Vector_base<int, std::allocator<int> >::_Vector_impl_data"* %this1, i32 0, i32 2
  store i32* null, i32** %_M_end_of_storage, align 8
  ret void
}

; Function Attrs: noinline nounwind optnone uwtable
define linkonce_odr dso_local void @_ZN9__gnu_cxx13new_allocatorIiEC2Ev(%"class.__gnu_cxx::new_allocator.1"* %this) unnamed_addr #5 comdat align 2 {
entry:
  %this.addr = alloca %"class.__gnu_cxx::new_allocator.1"*, align 8
  store %"class.__gnu_cxx::new_allocator.1"* %this, %"class.__gnu_cxx::new_allocator.1"** %this.addr, align 8
  %this1 = load %"class.__gnu_cxx::new_allocator.1"*, %"class.__gnu_cxx::new_allocator.1"** %this.addr, align 8
  ret void
}

; Function Attrs: noinline optnone uwtable
define linkonce_odr dso_local i32 @_ZN9__gnu_cxx6__stoaIlicJiEEET0_PFT_PKT1_PPS3_DpT2_EPKcS5_PmS9_(i64 (i8*, i8**, i32)* %__convf, i8* %__name, i8* %__str, i64* %__idx, i32 %__base) #4 comdat personality i8* bitcast (i32 (...)* @__gxx_personality_v0 to i8*) {
entry:
  %__convf.addr = alloca i64 (i8*, i8**, i32)*, align 8
  %__name.addr = alloca i8*, align 8
  %__str.addr = alloca i8*, align 8
  %__idx.addr = alloca i64*, align 8
  %__base.addr = alloca i32, align 4
  %__ret = alloca i32, align 4
  %__endptr = alloca i8*, align 8
  %__save_errno = alloca %struct._Save_errno, align 4
  %__tmp = alloca i64, align 8
  %exn.slot = alloca i8*
  %ehselector.slot = alloca i32
  %agg.tmp = alloca %"struct.std::integral_constant", align 1
  %ref.tmp = alloca %"struct.std::is_same", align 1
  store i64 (i8*, i8**, i32)* %__convf, i64 (i8*, i8**, i32)** %__convf.addr, align 8
  store i8* %__name, i8** %__name.addr, align 8
  store i8* %__str, i8** %__str.addr, align 8
  store i64* %__idx, i64** %__idx.addr, align 8
  store i32 %__base, i32* %__base.addr, align 4
  call void @_ZZN9__gnu_cxx6__stoaIlicJiEEET0_PFT_PKT1_PPS3_DpT2_EPKcS5_PmS9_EN11_Save_errnoC2Ev(%struct._Save_errno* %__save_errno)
  %0 = load i64 (i8*, i8**, i32)*, i64 (i8*, i8**, i32)** %__convf.addr, align 8
  %1 = load i8*, i8** %__str.addr, align 8
  %2 = load i32, i32* %__base.addr, align 4
  %call = invoke i64 %0(i8* %1, i8** %__endptr, i32 %2)
          to label %invoke.cont unwind label %lpad

invoke.cont:                                      ; preds = %entry
  store i64 %call, i64* %__tmp, align 8
  %3 = load i8*, i8** %__endptr, align 8
  %4 = load i8*, i8** %__str.addr, align 8
  %cmp = icmp eq i8* %3, %4
  br i1 %cmp, label %if.then, label %if.else

if.then:                                          ; preds = %invoke.cont
  %5 = load i8*, i8** %__name.addr, align 8
  invoke void @_ZSt24__throw_invalid_argumentPKc(i8* %5) #16
          to label %invoke.cont1 unwind label %lpad

invoke.cont1:                                     ; preds = %if.then
  unreachable

lpad:                                             ; preds = %if.then6, %lor.rhs, %if.then, %entry
  %6 = landingpad { i8*, i32 }
          cleanup
  %7 = extractvalue { i8*, i32 } %6, 0
  store i8* %7, i8** %exn.slot, align 8
  %8 = extractvalue { i8*, i32 } %6, 1
  store i32 %8, i32* %ehselector.slot, align 4
  call void @_ZZN9__gnu_cxx6__stoaIlicJiEEET0_PFT_PKT1_PPS3_DpT2_EPKcS5_PmS9_EN11_Save_errnoD2Ev(%struct._Save_errno* %__save_errno) #3
  br label %eh.resume

if.else:                                          ; preds = %invoke.cont
  %call2 = call i32* @__errno_location() #17
  %9 = load i32, i32* %call2, align 4
  %cmp3 = icmp eq i32 %9, 34
  br i1 %cmp3, label %lor.end, label %lor.rhs

lor.rhs:                                          ; preds = %if.else
  %10 = load i64, i64* %__tmp, align 8
  %11 = bitcast %"struct.std::is_same"* %ref.tmp to %"struct.std::integral_constant"*
  %call5 = invoke zeroext i1 @_ZZN9__gnu_cxx6__stoaIlicJiEEET0_PFT_PKT1_PPS3_DpT2_EPKcS5_PmS9_EN10_Range_chk6_S_chkElSt17integral_constantIbLb1EE(i64 %10)
          to label %invoke.cont4 unwind label %lpad

invoke.cont4:                                     ; preds = %lor.rhs
  br label %lor.end

lor.end:                                          ; preds = %invoke.cont4, %if.else
  %12 = phi i1 [ true, %if.else ], [ %call5, %invoke.cont4 ]
  br i1 %12, label %if.then6, label %if.else8

if.then6:                                         ; preds = %lor.end
  %13 = load i8*, i8** %__name.addr, align 8
  invoke void @_ZSt20__throw_out_of_rangePKc(i8* %13) #16
          to label %invoke.cont7 unwind label %lpad

invoke.cont7:                                     ; preds = %if.then6
  unreachable

if.else8:                                         ; preds = %lor.end
  %14 = load i64, i64* %__tmp, align 8
  %conv = trunc i64 %14 to i32
  store i32 %conv, i32* %__ret, align 4
  br label %if.end

if.end:                                           ; preds = %if.else8
  br label %if.end9

if.end9:                                          ; preds = %if.end
  %15 = load i64*, i64** %__idx.addr, align 8
  %tobool = icmp ne i64* %15, null
  br i1 %tobool, label %if.then10, label %if.end11

if.then10:                                        ; preds = %if.end9
  %16 = load i8*, i8** %__endptr, align 8
  %17 = load i8*, i8** %__str.addr, align 8
  %sub.ptr.lhs.cast = ptrtoint i8* %16 to i64
  %sub.ptr.rhs.cast = ptrtoint i8* %17 to i64
  %sub.ptr.sub = sub i64 %sub.ptr.lhs.cast, %sub.ptr.rhs.cast
  %18 = load i64*, i64** %__idx.addr, align 8
  store i64 %sub.ptr.sub, i64* %18, align 8
  br label %if.end11

if.end11:                                         ; preds = %if.then10, %if.end9
  %19 = load i32, i32* %__ret, align 4
  call void @_ZZN9__gnu_cxx6__stoaIlicJiEEET0_PFT_PKT1_PPS3_DpT2_EPKcS5_PmS9_EN11_Save_errnoD2Ev(%struct._Save_errno* %__save_errno) #3
  ret i32 %19

eh.resume:                                        ; preds = %lpad
  %exn = load i8*, i8** %exn.slot, align 8
  %sel = load i32, i32* %ehselector.slot, align 4
  %lpad.val = insertvalue { i8*, i32 } undef, i8* %exn, 0
  %lpad.val12 = insertvalue { i8*, i32 } %lpad.val, i32 %sel, 1
  resume { i8*, i32 } %lpad.val12
}

; Function Attrs: nounwind
declare dso_local i64 @strtol(i8*, i8**, i32) #2

; Function Attrs: nounwind
declare dso_local i8* @_ZNKSt7__cxx1112basic_stringIcSt11char_traitsIcESaIcEE5c_strEv(%"class.std::__cxx11::basic_string"*) #2

; Function Attrs: noinline nounwind optnone uwtable
define linkonce_odr dso_local void @_ZZN9__gnu_cxx6__stoaIlicJiEEET0_PFT_PKT1_PPS3_DpT2_EPKcS5_PmS9_EN11_Save_errnoC2Ev(%struct._Save_errno* %this) unnamed_addr #5 comdat align 2 {
entry:
  %this.addr = alloca %struct._Save_errno*, align 8
  store %struct._Save_errno* %this, %struct._Save_errno** %this.addr, align 8
  %this1 = load %struct._Save_errno*, %struct._Save_errno** %this.addr, align 8
  %_M_errno = getelementptr inbounds %struct._Save_errno, %struct._Save_errno* %this1, i32 0, i32 0
  %call = call i32* @__errno_location() #17
  %0 = load i32, i32* %call, align 4
  store i32 %0, i32* %_M_errno, align 4
  %call2 = call i32* @__errno_location() #17
  store i32 0, i32* %call2, align 4
  ret void
}

; Function Attrs: noreturn
declare dso_local void @_ZSt24__throw_invalid_argumentPKc(i8*) #7

; Function Attrs: nounwind readnone
declare dso_local i32* @__errno_location() #8

; Function Attrs: noinline nounwind optnone uwtable
define linkonce_odr dso_local zeroext i1 @_ZZN9__gnu_cxx6__stoaIlicJiEEET0_PFT_PKT1_PPS3_DpT2_EPKcS5_PmS9_EN10_Range_chk6_S_chkElSt17integral_constantIbLb1EE(i64 %__val) #5 comdat align 2 {
entry:
  %0 = alloca %"struct.std::integral_constant", align 1
  %__val.addr = alloca i64, align 8
  store i64 %__val, i64* %__val.addr, align 8
  %1 = load i64, i64* %__val.addr, align 8
  %cmp = icmp slt i64 %1, -2147483648
  br i1 %cmp, label %lor.end, label %lor.rhs

lor.rhs:                                          ; preds = %entry
  %2 = load i64, i64* %__val.addr, align 8
  %cmp1 = icmp sgt i64 %2, 2147483647
  br label %lor.end

lor.end:                                          ; preds = %lor.rhs, %entry
  %3 = phi i1 [ true, %entry ], [ %cmp1, %lor.rhs ]
  ret i1 %3
}

; Function Attrs: noreturn
declare dso_local void @_ZSt20__throw_out_of_rangePKc(i8*) #7

; Function Attrs: noinline nounwind optnone uwtable
define linkonce_odr dso_local void @_ZZN9__gnu_cxx6__stoaIlicJiEEET0_PFT_PKT1_PPS3_DpT2_EPKcS5_PmS9_EN11_Save_errnoD2Ev(%struct._Save_errno* %this) unnamed_addr #5 comdat align 2 {
entry:
  %this.addr = alloca %struct._Save_errno*, align 8
  store %struct._Save_errno* %this, %struct._Save_errno** %this.addr, align 8
  %this1 = load %struct._Save_errno*, %struct._Save_errno** %this.addr, align 8
  %call = call i32* @__errno_location() #17
  %0 = load i32, i32* %call, align 4
  %cmp = icmp eq i32 %0, 0
  br i1 %cmp, label %if.then, label %if.end

if.then:                                          ; preds = %entry
  %_M_errno = getelementptr inbounds %struct._Save_errno, %struct._Save_errno* %this1, i32 0, i32 0
  %1 = load i32, i32* %_M_errno, align 4
  %call2 = call i32* @__errno_location() #17
  store i32 %1, i32* %call2, align 4
  br label %if.end

if.end:                                           ; preds = %if.then, %entry
  ret void
}

; Function Attrs: noinline nounwind optnone uwtable
define linkonce_odr dso_local void @_ZNSt12_Vector_baseIiSaIiEEC2EOS1_(%"struct.std::_Vector_base"* %this, %"struct.std::_Vector_base"* dereferenceable(24) %0) unnamed_addr #5 comdat align 2 {
entry:
  %this.addr = alloca %"struct.std::_Vector_base"*, align 8
  %.addr = alloca %"struct.std::_Vector_base"*, align 8
  store %"struct.std::_Vector_base"* %this, %"struct.std::_Vector_base"** %this.addr, align 8
  store %"struct.std::_Vector_base"* %0, %"struct.std::_Vector_base"** %.addr, align 8
  %this1 = load %"struct.std::_Vector_base"*, %"struct.std::_Vector_base"** %this.addr, align 8
  %_M_impl = getelementptr inbounds %"struct.std::_Vector_base", %"struct.std::_Vector_base"* %this1, i32 0, i32 0
  %1 = load %"struct.std::_Vector_base"*, %"struct.std::_Vector_base"** %.addr, align 8
  %_M_impl2 = getelementptr inbounds %"struct.std::_Vector_base", %"struct.std::_Vector_base"* %1, i32 0, i32 0
  call void @_ZNSt12_Vector_baseIiSaIiEE12_Vector_implC2EOS2_(%"struct.std::_Vector_base<int, std::allocator<int> >::_Vector_impl"* %_M_impl, %"struct.std::_Vector_base<int, std::allocator<int> >::_Vector_impl"* dereferenceable(24) %_M_impl2) #3
  ret void
}

; Function Attrs: noinline nounwind optnone uwtable
define linkonce_odr dso_local void @_ZNSt12_Vector_baseIiSaIiEE12_Vector_implC2EOS2_(%"struct.std::_Vector_base<int, std::allocator<int> >::_Vector_impl"* %this, %"struct.std::_Vector_base<int, std::allocator<int> >::_Vector_impl"* dereferenceable(24) %__x) unnamed_addr #5 comdat align 2 {
entry:
  %this.addr = alloca %"struct.std::_Vector_base<int, std::allocator<int> >::_Vector_impl"*, align 8
  %__x.addr = alloca %"struct.std::_Vector_base<int, std::allocator<int> >::_Vector_impl"*, align 8
  store %"struct.std::_Vector_base<int, std::allocator<int> >::_Vector_impl"* %this, %"struct.std::_Vector_base<int, std::allocator<int> >::_Vector_impl"** %this.addr, align 8
  store %"struct.std::_Vector_base<int, std::allocator<int> >::_Vector_impl"* %__x, %"struct.std::_Vector_base<int, std::allocator<int> >::_Vector_impl"** %__x.addr, align 8
  %this1 = load %"struct.std::_Vector_base<int, std::allocator<int> >::_Vector_impl"*, %"struct.std::_Vector_base<int, std::allocator<int> >::_Vector_impl"** %this.addr, align 8
  %0 = bitcast %"struct.std::_Vector_base<int, std::allocator<int> >::_Vector_impl"* %this1 to %"class.std::allocator.0"*
  %1 = load %"struct.std::_Vector_base<int, std::allocator<int> >::_Vector_impl"*, %"struct.std::_Vector_base<int, std::allocator<int> >::_Vector_impl"** %__x.addr, align 8
  %call = call dereferenceable(24) %"struct.std::_Vector_base<int, std::allocator<int> >::_Vector_impl"* @_ZSt4moveIRNSt12_Vector_baseIiSaIiEE12_Vector_implEEONSt16remove_referenceIT_E4typeEOS6_(%"struct.std::_Vector_base<int, std::allocator<int> >::_Vector_impl"* dereferenceable(24) %1) #3
  %2 = bitcast %"struct.std::_Vector_base<int, std::allocator<int> >::_Vector_impl"* %call to %"class.std::allocator.0"*
  call void @_ZNSaIiEC2ERKS_(%"class.std::allocator.0"* %0, %"class.std::allocator.0"* dereferenceable(1) %2) #3
  %3 = bitcast %"struct.std::_Vector_base<int, std::allocator<int> >::_Vector_impl"* %this1 to %"struct.std::_Vector_base<int, std::allocator<int> >::_Vector_impl_data"*
  %4 = load %"struct.std::_Vector_base<int, std::allocator<int> >::_Vector_impl"*, %"struct.std::_Vector_base<int, std::allocator<int> >::_Vector_impl"** %__x.addr, align 8
  %call2 = call dereferenceable(24) %"struct.std::_Vector_base<int, std::allocator<int> >::_Vector_impl"* @_ZSt4moveIRNSt12_Vector_baseIiSaIiEE12_Vector_implEEONSt16remove_referenceIT_E4typeEOS6_(%"struct.std::_Vector_base<int, std::allocator<int> >::_Vector_impl"* dereferenceable(24) %4) #3
  %5 = bitcast %"struct.std::_Vector_base<int, std::allocator<int> >::_Vector_impl"* %call2 to %"struct.std::_Vector_base<int, std::allocator<int> >::_Vector_impl_data"*
  call void @_ZNSt12_Vector_baseIiSaIiEE17_Vector_impl_dataC2EOS2_(%"struct.std::_Vector_base<int, std::allocator<int> >::_Vector_impl_data"* %3, %"struct.std::_Vector_base<int, std::allocator<int> >::_Vector_impl_data"* dereferenceable(24) %5) #3
  ret void
}

; Function Attrs: noinline nounwind optnone uwtable
define linkonce_odr dso_local dereferenceable(24) %"struct.std::_Vector_base<int, std::allocator<int> >::_Vector_impl"* @_ZSt4moveIRNSt12_Vector_baseIiSaIiEE12_Vector_implEEONSt16remove_referenceIT_E4typeEOS6_(%"struct.std::_Vector_base<int, std::allocator<int> >::_Vector_impl"* dereferenceable(24) %__t) #5 comdat {
entry:
  %__t.addr = alloca %"struct.std::_Vector_base<int, std::allocator<int> >::_Vector_impl"*, align 8
  store %"struct.std::_Vector_base<int, std::allocator<int> >::_Vector_impl"* %__t, %"struct.std::_Vector_base<int, std::allocator<int> >::_Vector_impl"** %__t.addr, align 8
  %0 = load %"struct.std::_Vector_base<int, std::allocator<int> >::_Vector_impl"*, %"struct.std::_Vector_base<int, std::allocator<int> >::_Vector_impl"** %__t.addr, align 8
  ret %"struct.std::_Vector_base<int, std::allocator<int> >::_Vector_impl"* %0
}

; Function Attrs: noinline nounwind optnone uwtable
define linkonce_odr dso_local void @_ZNSt12_Vector_baseIiSaIiEE17_Vector_impl_dataC2EOS2_(%"struct.std::_Vector_base<int, std::allocator<int> >::_Vector_impl_data"* %this, %"struct.std::_Vector_base<int, std::allocator<int> >::_Vector_impl_data"* dereferenceable(24) %__x) unnamed_addr #5 comdat align 2 {
entry:
  %this.addr = alloca %"struct.std::_Vector_base<int, std::allocator<int> >::_Vector_impl_data"*, align 8
  %__x.addr = alloca %"struct.std::_Vector_base<int, std::allocator<int> >::_Vector_impl_data"*, align 8
  store %"struct.std::_Vector_base<int, std::allocator<int> >::_Vector_impl_data"* %this, %"struct.std::_Vector_base<int, std::allocator<int> >::_Vector_impl_data"** %this.addr, align 8
  store %"struct.std::_Vector_base<int, std::allocator<int> >::_Vector_impl_data"* %__x, %"struct.std::_Vector_base<int, std::allocator<int> >::_Vector_impl_data"** %__x.addr, align 8
  %this1 = load %"struct.std::_Vector_base<int, std::allocator<int> >::_Vector_impl_data"*, %"struct.std::_Vector_base<int, std::allocator<int> >::_Vector_impl_data"** %this.addr, align 8
  %_M_start = getelementptr inbounds %"struct.std::_Vector_base<int, std::allocator<int> >::_Vector_impl_data", %"struct.std::_Vector_base<int, std::allocator<int> >::_Vector_impl_data"* %this1, i32 0, i32 0
  %0 = load %"struct.std::_Vector_base<int, std::allocator<int> >::_Vector_impl_data"*, %"struct.std::_Vector_base<int, std::allocator<int> >::_Vector_impl_data"** %__x.addr, align 8
  %_M_start2 = getelementptr inbounds %"struct.std::_Vector_base<int, std::allocator<int> >::_Vector_impl_data", %"struct.std::_Vector_base<int, std::allocator<int> >::_Vector_impl_data"* %0, i32 0, i32 0
  %1 = load i32*, i32** %_M_start2, align 8
  store i32* %1, i32** %_M_start, align 8
  %_M_finish = getelementptr inbounds %"struct.std::_Vector_base<int, std::allocator<int> >::_Vector_impl_data", %"struct.std::_Vector_base<int, std::allocator<int> >::_Vector_impl_data"* %this1, i32 0, i32 1
  %2 = load %"struct.std::_Vector_base<int, std::allocator<int> >::_Vector_impl_data"*, %"struct.std::_Vector_base<int, std::allocator<int> >::_Vector_impl_data"** %__x.addr, align 8
  %_M_finish3 = getelementptr inbounds %"struct.std::_Vector_base<int, std::allocator<int> >::_Vector_impl_data", %"struct.std::_Vector_base<int, std::allocator<int> >::_Vector_impl_data"* %2, i32 0, i32 1
  %3 = load i32*, i32** %_M_finish3, align 8
  store i32* %3, i32** %_M_finish, align 8
  %_M_end_of_storage = getelementptr inbounds %"struct.std::_Vector_base<int, std::allocator<int> >::_Vector_impl_data", %"struct.std::_Vector_base<int, std::allocator<int> >::_Vector_impl_data"* %this1, i32 0, i32 2
  %4 = load %"struct.std::_Vector_base<int, std::allocator<int> >::_Vector_impl_data"*, %"struct.std::_Vector_base<int, std::allocator<int> >::_Vector_impl_data"** %__x.addr, align 8
  %_M_end_of_storage4 = getelementptr inbounds %"struct.std::_Vector_base<int, std::allocator<int> >::_Vector_impl_data", %"struct.std::_Vector_base<int, std::allocator<int> >::_Vector_impl_data"* %4, i32 0, i32 2
  %5 = load i32*, i32** %_M_end_of_storage4, align 8
  store i32* %5, i32** %_M_end_of_storage, align 8
  %6 = load %"struct.std::_Vector_base<int, std::allocator<int> >::_Vector_impl_data"*, %"struct.std::_Vector_base<int, std::allocator<int> >::_Vector_impl_data"** %__x.addr, align 8
  %_M_end_of_storage5 = getelementptr inbounds %"struct.std::_Vector_base<int, std::allocator<int> >::_Vector_impl_data", %"struct.std::_Vector_base<int, std::allocator<int> >::_Vector_impl_data"* %6, i32 0, i32 2
  store i32* null, i32** %_M_end_of_storage5, align 8
  %7 = load %"struct.std::_Vector_base<int, std::allocator<int> >::_Vector_impl_data"*, %"struct.std::_Vector_base<int, std::allocator<int> >::_Vector_impl_data"** %__x.addr, align 8
  %_M_finish6 = getelementptr inbounds %"struct.std::_Vector_base<int, std::allocator<int> >::_Vector_impl_data", %"struct.std::_Vector_base<int, std::allocator<int> >::_Vector_impl_data"* %7, i32 0, i32 1
  store i32* null, i32** %_M_finish6, align 8
  %8 = load %"struct.std::_Vector_base<int, std::allocator<int> >::_Vector_impl_data"*, %"struct.std::_Vector_base<int, std::allocator<int> >::_Vector_impl_data"** %__x.addr, align 8
  %_M_start7 = getelementptr inbounds %"struct.std::_Vector_base<int, std::allocator<int> >::_Vector_impl_data", %"struct.std::_Vector_base<int, std::allocator<int> >::_Vector_impl_data"* %8, i32 0, i32 0
  store i32* null, i32** %_M_start7, align 8
  ret void
}

; Function Attrs: noinline nounwind optnone uwtable
define linkonce_odr dso_local void @_ZN9__gnu_cxx13new_allocatorIiEC2ERKS1_(%"class.__gnu_cxx::new_allocator.1"* %this, %"class.__gnu_cxx::new_allocator.1"* dereferenceable(1) %0) unnamed_addr #5 comdat align 2 {
entry:
  %this.addr = alloca %"class.__gnu_cxx::new_allocator.1"*, align 8
  %.addr = alloca %"class.__gnu_cxx::new_allocator.1"*, align 8
  store %"class.__gnu_cxx::new_allocator.1"* %this, %"class.__gnu_cxx::new_allocator.1"** %this.addr, align 8
  store %"class.__gnu_cxx::new_allocator.1"* %0, %"class.__gnu_cxx::new_allocator.1"** %.addr, align 8
  %this1 = load %"class.__gnu_cxx::new_allocator.1"*, %"class.__gnu_cxx::new_allocator.1"** %this.addr, align 8
  ret void
}

; Function Attrs: noinline nounwind optnone uwtable
define linkonce_odr dso_local void @_ZNSt8_Rb_treeINSt7__cxx1112basic_stringIcSt11char_traitsIcESaIcEEESt4pairIKS5_St6vectorIiSaIiEEESt10_Select1stISB_ESt4lessIS5_ESaISB_EEC2Ev(%"class.std::_Rb_tree"* %this) unnamed_addr #5 comdat align 2 {
entry:
  %this.addr = alloca %"class.std::_Rb_tree"*, align 8
  store %"class.std::_Rb_tree"* %this, %"class.std::_Rb_tree"** %this.addr, align 8
  %this1 = load %"class.std::_Rb_tree"*, %"class.std::_Rb_tree"** %this.addr, align 8
  %_M_impl = getelementptr inbounds %"class.std::_Rb_tree", %"class.std::_Rb_tree"* %this1, i32 0, i32 0
  call void @_ZNSt8_Rb_treeINSt7__cxx1112basic_stringIcSt11char_traitsIcESaIcEEESt4pairIKS5_St6vectorIiSaIiEEESt10_Select1stISB_ESt4lessIS5_ESaISB_EE13_Rb_tree_implISF_Lb1EEC2Ev(%"struct.std::_Rb_tree<std::__cxx11::basic_string<char>, std::pair<const std::__cxx11::basic_string<char>, std::vector<int, std::allocator<int> > >, std::_Select1st<std::pair<const std::__cxx11::basic_string<char>, std::vector<int, std::allocator<int> > > >, std::less<std::__cxx11::basic_string<char> >, std::allocator<std::pair<const std::__cxx11::basic_string<char>, std::vector<int, std::allocator<int> > > > >::_Rb_tree_impl"* %_M_impl) #3
  ret void
}

; Function Attrs: noinline nounwind optnone uwtable
define linkonce_odr dso_local void @_ZNSt8_Rb_treeINSt7__cxx1112basic_stringIcSt11char_traitsIcESaIcEEESt4pairIKS5_St6vectorIiSaIiEEESt10_Select1stISB_ESt4lessIS5_ESaISB_EE13_Rb_tree_implISF_Lb1EEC2Ev(%"struct.std::_Rb_tree<std::__cxx11::basic_string<char>, std::pair<const std::__cxx11::basic_string<char>, std::vector<int, std::allocator<int> > >, std::_Select1st<std::pair<const std::__cxx11::basic_string<char>, std::vector<int, std::allocator<int> > > >, std::less<std::__cxx11::basic_string<char> >, std::allocator<std::pair<const std::__cxx11::basic_string<char>, std::vector<int, std::allocator<int> > > > >::_Rb_tree_impl"* %this) unnamed_addr #5 comdat align 2 {
entry:
  %this.addr = alloca %"struct.std::_Rb_tree<std::__cxx11::basic_string<char>, std::pair<const std::__cxx11::basic_string<char>, std::vector<int, std::allocator<int> > >, std::_Select1st<std::pair<const std::__cxx11::basic_string<char>, std::vector<int, std::allocator<int> > > >, std::less<std::__cxx11::basic_string<char> >, std::allocator<std::pair<const std::__cxx11::basic_string<char>, std::vector<int, std::allocator<int> > > > >::_Rb_tree_impl"*, align 8
  store %"struct.std::_Rb_tree<std::__cxx11::basic_string<char>, std::pair<const std::__cxx11::basic_string<char>, std::vector<int, std::allocator<int> > >, std::_Select1st<std::pair<const std::__cxx11::basic_string<char>, std::vector<int, std::allocator<int> > > >, std::less<std::__cxx11::basic_string<char> >, std::allocator<std::pair<const std::__cxx11::basic_string<char>, std::vector<int, std::allocator<int> > > > >::_Rb_tree_impl"* %this, %"struct.std::_Rb_tree<std::__cxx11::basic_string<char>, std::pair<const std::__cxx11::basic_string<char>, std::vector<int, std::allocator<int> > >, std::_Select1st<std::pair<const std::__cxx11::basic_string<char>, std::vector<int, std::allocator<int> > > >, std::less<std::__cxx11::basic_string<char> >, std::allocator<std::pair<const std::__cxx11::basic_string<char>, std::vector<int, std::allocator<int> > > > >::_Rb_tree_impl"** %this.addr, align 8
  %this1 = load %"struct.std::_Rb_tree<std::__cxx11::basic_string<char>, std::pair<const std::__cxx11::basic_string<char>, std::vector<int, std::allocator<int> > >, std::_Select1st<std::pair<const std::__cxx11::basic_string<char>, std::vector<int, std::allocator<int> > > >, std::less<std::__cxx11::basic_string<char> >, std::allocator<std::pair<const std::__cxx11::basic_string<char>, std::vector<int, std::allocator<int> > > > >::_Rb_tree_impl"*, %"struct.std::_Rb_tree<std::__cxx11::basic_string<char>, std::pair<const std::__cxx11::basic_string<char>, std::vector<int, std::allocator<int> > >, std::_Select1st<std::pair<const std::__cxx11::basic_string<char>, std::vector<int, std::allocator<int> > > >, std::less<std::__cxx11::basic_string<char> >, std::allocator<std::pair<const std::__cxx11::basic_string<char>, std::vector<int, std::allocator<int> > > > >::_Rb_tree_impl"** %this.addr, align 8
  %0 = bitcast %"struct.std::_Rb_tree<std::__cxx11::basic_string<char>, std::pair<const std::__cxx11::basic_string<char>, std::vector<int, std::allocator<int> > >, std::_Select1st<std::pair<const std::__cxx11::basic_string<char>, std::vector<int, std::allocator<int> > > >, std::less<std::__cxx11::basic_string<char> >, std::allocator<std::pair<const std::__cxx11::basic_string<char>, std::vector<int, std::allocator<int> > > > >::_Rb_tree_impl"* %this1 to %"class.std::allocator"*
  call void @_ZNSaISt13_Rb_tree_nodeISt4pairIKNSt7__cxx1112basic_stringIcSt11char_traitsIcESaIcEEESt6vectorIiSaIiEEEEEC2Ev(%"class.std::allocator"* %0) #3
  %1 = bitcast %"struct.std::_Rb_tree<std::__cxx11::basic_string<char>, std::pair<const std::__cxx11::basic_string<char>, std::vector<int, std::allocator<int> > >, std::_Select1st<std::pair<const std::__cxx11::basic_string<char>, std::vector<int, std::allocator<int> > > >, std::less<std::__cxx11::basic_string<char> >, std::allocator<std::pair<const std::__cxx11::basic_string<char>, std::vector<int, std::allocator<int> > > > >::_Rb_tree_impl"* %this1 to %"struct.std::_Rb_tree_key_compare"*
  call void @_ZNSt20_Rb_tree_key_compareISt4lessINSt7__cxx1112basic_stringIcSt11char_traitsIcESaIcEEEEEC2Ev(%"struct.std::_Rb_tree_key_compare"* %1) #3
  %2 = bitcast %"struct.std::_Rb_tree<std::__cxx11::basic_string<char>, std::pair<const std::__cxx11::basic_string<char>, std::vector<int, std::allocator<int> > >, std::_Select1st<std::pair<const std::__cxx11::basic_string<char>, std::vector<int, std::allocator<int> > > >, std::less<std::__cxx11::basic_string<char> >, std::allocator<std::pair<const std::__cxx11::basic_string<char>, std::vector<int, std::allocator<int> > > > >::_Rb_tree_impl"* %this1 to i8*
  %3 = getelementptr inbounds i8, i8* %2, i64 8
  %4 = bitcast i8* %3 to %"struct.std::_Rb_tree_header"*
  call void @_ZNSt15_Rb_tree_headerC2Ev(%"struct.std::_Rb_tree_header"* %4) #3
  ret void
}

; Function Attrs: noinline nounwind optnone uwtable
define linkonce_odr dso_local void @_ZNSaISt13_Rb_tree_nodeISt4pairIKNSt7__cxx1112basic_stringIcSt11char_traitsIcESaIcEEESt6vectorIiSaIiEEEEEC2Ev(%"class.std::allocator"* %this) unnamed_addr #5 comdat align 2 {
entry:
  %this.addr = alloca %"class.std::allocator"*, align 8
  store %"class.std::allocator"* %this, %"class.std::allocator"** %this.addr, align 8
  %this1 = load %"class.std::allocator"*, %"class.std::allocator"** %this.addr, align 8
  %0 = bitcast %"class.std::allocator"* %this1 to %"class.__gnu_cxx::new_allocator"*
  call void @_ZN9__gnu_cxx13new_allocatorISt13_Rb_tree_nodeISt4pairIKNSt7__cxx1112basic_stringIcSt11char_traitsIcESaIcEEESt6vectorIiSaIiEEEEEC2Ev(%"class.__gnu_cxx::new_allocator"* %0) #3
  ret void
}

; Function Attrs: noinline nounwind optnone uwtable
define linkonce_odr dso_local void @_ZNSt20_Rb_tree_key_compareISt4lessINSt7__cxx1112basic_stringIcSt11char_traitsIcESaIcEEEEEC2Ev(%"struct.std::_Rb_tree_key_compare"* %this) unnamed_addr #5 comdat align 2 {
entry:
  %this.addr = alloca %"struct.std::_Rb_tree_key_compare"*, align 8
  store %"struct.std::_Rb_tree_key_compare"* %this, %"struct.std::_Rb_tree_key_compare"** %this.addr, align 8
  %this1 = load %"struct.std::_Rb_tree_key_compare"*, %"struct.std::_Rb_tree_key_compare"** %this.addr, align 8
  %_M_key_compare = getelementptr inbounds %"struct.std::_Rb_tree_key_compare", %"struct.std::_Rb_tree_key_compare"* %this1, i32 0, i32 0
  ret void
}

; Function Attrs: noinline nounwind optnone uwtable
define linkonce_odr dso_local void @_ZNSt15_Rb_tree_headerC2Ev(%"struct.std::_Rb_tree_header"* %this) unnamed_addr #5 comdat align 2 personality i8* bitcast (i32 (...)* @__gxx_personality_v0 to i8*) {
entry:
  %this.addr = alloca %"struct.std::_Rb_tree_header"*, align 8
  store %"struct.std::_Rb_tree_header"* %this, %"struct.std::_Rb_tree_header"** %this.addr, align 8
  %this1 = load %"struct.std::_Rb_tree_header"*, %"struct.std::_Rb_tree_header"** %this.addr, align 8
  %_M_header = getelementptr inbounds %"struct.std::_Rb_tree_header", %"struct.std::_Rb_tree_header"* %this1, i32 0, i32 0
  %_M_header2 = getelementptr inbounds %"struct.std::_Rb_tree_header", %"struct.std::_Rb_tree_header"* %this1, i32 0, i32 0
  %_M_color = getelementptr inbounds %"struct.std::_Rb_tree_node_base", %"struct.std::_Rb_tree_node_base"* %_M_header2, i32 0, i32 0
  store i32 0, i32* %_M_color, align 8
  invoke void @_ZNSt15_Rb_tree_header8_M_resetEv(%"struct.std::_Rb_tree_header"* %this1)
          to label %invoke.cont unwind label %terminate.lpad

invoke.cont:                                      ; preds = %entry
  ret void

terminate.lpad:                                   ; preds = %entry
  %0 = landingpad { i8*, i32 }
          catch i8* null
  %1 = extractvalue { i8*, i32 } %0, 0
  call void @__clang_call_terminate(i8* %1) #15
  unreachable
}

; Function Attrs: noinline nounwind optnone uwtable
define linkonce_odr dso_local void @_ZN9__gnu_cxx13new_allocatorISt13_Rb_tree_nodeISt4pairIKNSt7__cxx1112basic_stringIcSt11char_traitsIcESaIcEEESt6vectorIiSaIiEEEEEC2Ev(%"class.__gnu_cxx::new_allocator"* %this) unnamed_addr #5 comdat align 2 {
entry:
  %this.addr = alloca %"class.__gnu_cxx::new_allocator"*, align 8
  store %"class.__gnu_cxx::new_allocator"* %this, %"class.__gnu_cxx::new_allocator"** %this.addr, align 8
  %this1 = load %"class.__gnu_cxx::new_allocator"*, %"class.__gnu_cxx::new_allocator"** %this.addr, align 8
  ret void
}

; Function Attrs: noinline nounwind optnone uwtable
define linkonce_odr dso_local void @_ZNSt15_Rb_tree_header8_M_resetEv(%"struct.std::_Rb_tree_header"* %this) #5 comdat align 2 {
entry:
  %this.addr = alloca %"struct.std::_Rb_tree_header"*, align 8
  store %"struct.std::_Rb_tree_header"* %this, %"struct.std::_Rb_tree_header"** %this.addr, align 8
  %this1 = load %"struct.std::_Rb_tree_header"*, %"struct.std::_Rb_tree_header"** %this.addr, align 8
  %_M_header = getelementptr inbounds %"struct.std::_Rb_tree_header", %"struct.std::_Rb_tree_header"* %this1, i32 0, i32 0
  %_M_parent = getelementptr inbounds %"struct.std::_Rb_tree_node_base", %"struct.std::_Rb_tree_node_base"* %_M_header, i32 0, i32 1
  store %"struct.std::_Rb_tree_node_base"* null, %"struct.std::_Rb_tree_node_base"** %_M_parent, align 8
  %_M_header2 = getelementptr inbounds %"struct.std::_Rb_tree_header", %"struct.std::_Rb_tree_header"* %this1, i32 0, i32 0
  %_M_header3 = getelementptr inbounds %"struct.std::_Rb_tree_header", %"struct.std::_Rb_tree_header"* %this1, i32 0, i32 0
  %_M_left = getelementptr inbounds %"struct.std::_Rb_tree_node_base", %"struct.std::_Rb_tree_node_base"* %_M_header3, i32 0, i32 2
  store %"struct.std::_Rb_tree_node_base"* %_M_header2, %"struct.std::_Rb_tree_node_base"** %_M_left, align 8
  %_M_header4 = getelementptr inbounds %"struct.std::_Rb_tree_header", %"struct.std::_Rb_tree_header"* %this1, i32 0, i32 0
  %_M_header5 = getelementptr inbounds %"struct.std::_Rb_tree_header", %"struct.std::_Rb_tree_header"* %this1, i32 0, i32 0
  %_M_right = getelementptr inbounds %"struct.std::_Rb_tree_node_base", %"struct.std::_Rb_tree_node_base"* %_M_header5, i32 0, i32 3
  store %"struct.std::_Rb_tree_node_base"* %_M_header4, %"struct.std::_Rb_tree_node_base"** %_M_right, align 8
  %_M_node_count = getelementptr inbounds %"struct.std::_Rb_tree_header", %"struct.std::_Rb_tree_header"* %this1, i32 0, i32 1
  store i64 0, i64* %_M_node_count, align 8
  ret void
}

; Function Attrs: noinline noreturn nounwind
define linkonce_odr hidden void @__clang_call_terminate(i8* %0) #9 comdat {
  %2 = call i8* @__cxa_begin_catch(i8* %0) #3
  call void @_ZSt9terminatev() #15
  unreachable
}

declare dso_local i8* @__cxa_begin_catch(i8*)

declare dso_local void @_ZSt9terminatev()

; Function Attrs: noinline nounwind optnone uwtable
define linkonce_odr dso_local void @_ZNSt8_Rb_treeINSt7__cxx1112basic_stringIcSt11char_traitsIcESaIcEEESt4pairIKS5_St6vectorIiSaIiEEESt10_Select1stISB_ESt4lessIS5_ESaISB_EED2Ev(%"class.std::_Rb_tree"* %this) unnamed_addr #5 comdat align 2 personality i8* bitcast (i32 (...)* @__gxx_personality_v0 to i8*) {
entry:
  %this.addr = alloca %"class.std::_Rb_tree"*, align 8
  %exn.slot = alloca i8*
  %ehselector.slot = alloca i32
  store %"class.std::_Rb_tree"* %this, %"class.std::_Rb_tree"** %this.addr, align 8
  %this1 = load %"class.std::_Rb_tree"*, %"class.std::_Rb_tree"** %this.addr, align 8
  %call = call %"struct.std::_Rb_tree_node"* @_ZNSt8_Rb_treeINSt7__cxx1112basic_stringIcSt11char_traitsIcESaIcEEESt4pairIKS5_St6vectorIiSaIiEEESt10_Select1stISB_ESt4lessIS5_ESaISB_EE8_M_beginEv(%"class.std::_Rb_tree"* %this1) #3
  invoke void @_ZNSt8_Rb_treeINSt7__cxx1112basic_stringIcSt11char_traitsIcESaIcEEESt4pairIKS5_St6vectorIiSaIiEEESt10_Select1stISB_ESt4lessIS5_ESaISB_EE8_M_eraseEPSt13_Rb_tree_nodeISB_E(%"class.std::_Rb_tree"* %this1, %"struct.std::_Rb_tree_node"* %call)
          to label %invoke.cont unwind label %lpad

invoke.cont:                                      ; preds = %entry
  %_M_impl = getelementptr inbounds %"class.std::_Rb_tree", %"class.std::_Rb_tree"* %this1, i32 0, i32 0
  call void @_ZNSt8_Rb_treeINSt7__cxx1112basic_stringIcSt11char_traitsIcESaIcEEESt4pairIKS5_St6vectorIiSaIiEEESt10_Select1stISB_ESt4lessIS5_ESaISB_EE13_Rb_tree_implISF_Lb1EED2Ev(%"struct.std::_Rb_tree<std::__cxx11::basic_string<char>, std::pair<const std::__cxx11::basic_string<char>, std::vector<int, std::allocator<int> > >, std::_Select1st<std::pair<const std::__cxx11::basic_string<char>, std::vector<int, std::allocator<int> > > >, std::less<std::__cxx11::basic_string<char> >, std::allocator<std::pair<const std::__cxx11::basic_string<char>, std::vector<int, std::allocator<int> > > > >::_Rb_tree_impl"* %_M_impl) #3
  ret void

lpad:                                             ; preds = %entry
  %0 = landingpad { i8*, i32 }
          catch i8* null
  %1 = extractvalue { i8*, i32 } %0, 0
  store i8* %1, i8** %exn.slot, align 8
  %2 = extractvalue { i8*, i32 } %0, 1
  store i32 %2, i32* %ehselector.slot, align 4
  %_M_impl2 = getelementptr inbounds %"class.std::_Rb_tree", %"class.std::_Rb_tree"* %this1, i32 0, i32 0
  call void @_ZNSt8_Rb_treeINSt7__cxx1112basic_stringIcSt11char_traitsIcESaIcEEESt4pairIKS5_St6vectorIiSaIiEEESt10_Select1stISB_ESt4lessIS5_ESaISB_EE13_Rb_tree_implISF_Lb1EED2Ev(%"struct.std::_Rb_tree<std::__cxx11::basic_string<char>, std::pair<const std::__cxx11::basic_string<char>, std::vector<int, std::allocator<int> > >, std::_Select1st<std::pair<const std::__cxx11::basic_string<char>, std::vector<int, std::allocator<int> > > >, std::less<std::__cxx11::basic_string<char> >, std::allocator<std::pair<const std::__cxx11::basic_string<char>, std::vector<int, std::allocator<int> > > > >::_Rb_tree_impl"* %_M_impl2) #3
  br label %terminate.handler

terminate.handler:                                ; preds = %lpad
  %exn = load i8*, i8** %exn.slot, align 8
  call void @__clang_call_terminate(i8* %exn) #15
  unreachable
}

; Function Attrs: noinline optnone uwtable
define linkonce_odr dso_local void @_ZNSt8_Rb_treeINSt7__cxx1112basic_stringIcSt11char_traitsIcESaIcEEESt4pairIKS5_St6vectorIiSaIiEEESt10_Select1stISB_ESt4lessIS5_ESaISB_EE8_M_eraseEPSt13_Rb_tree_nodeISB_E(%"class.std::_Rb_tree"* %this, %"struct.std::_Rb_tree_node"* %__x) #4 comdat align 2 {
entry:
  %this.addr = alloca %"class.std::_Rb_tree"*, align 8
  %__x.addr = alloca %"struct.std::_Rb_tree_node"*, align 8
  %__y = alloca %"struct.std::_Rb_tree_node"*, align 8
  store %"class.std::_Rb_tree"* %this, %"class.std::_Rb_tree"** %this.addr, align 8
  store %"struct.std::_Rb_tree_node"* %__x, %"struct.std::_Rb_tree_node"** %__x.addr, align 8
  %this1 = load %"class.std::_Rb_tree"*, %"class.std::_Rb_tree"** %this.addr, align 8
  br label %while.cond

while.cond:                                       ; preds = %while.body, %entry
  %0 = load %"struct.std::_Rb_tree_node"*, %"struct.std::_Rb_tree_node"** %__x.addr, align 8
  %cmp = icmp ne %"struct.std::_Rb_tree_node"* %0, null
  br i1 %cmp, label %while.body, label %while.end

while.body:                                       ; preds = %while.cond
  %1 = load %"struct.std::_Rb_tree_node"*, %"struct.std::_Rb_tree_node"** %__x.addr, align 8
  %2 = bitcast %"struct.std::_Rb_tree_node"* %1 to %"struct.std::_Rb_tree_node_base"*
  %call = call %"struct.std::_Rb_tree_node"* @_ZNSt8_Rb_treeINSt7__cxx1112basic_stringIcSt11char_traitsIcESaIcEEESt4pairIKS5_St6vectorIiSaIiEEESt10_Select1stISB_ESt4lessIS5_ESaISB_EE8_S_rightEPSt18_Rb_tree_node_base(%"struct.std::_Rb_tree_node_base"* %2) #3
  call void @_ZNSt8_Rb_treeINSt7__cxx1112basic_stringIcSt11char_traitsIcESaIcEEESt4pairIKS5_St6vectorIiSaIiEEESt10_Select1stISB_ESt4lessIS5_ESaISB_EE8_M_eraseEPSt13_Rb_tree_nodeISB_E(%"class.std::_Rb_tree"* %this1, %"struct.std::_Rb_tree_node"* %call)
  %3 = load %"struct.std::_Rb_tree_node"*, %"struct.std::_Rb_tree_node"** %__x.addr, align 8
  %4 = bitcast %"struct.std::_Rb_tree_node"* %3 to %"struct.std::_Rb_tree_node_base"*
  %call2 = call %"struct.std::_Rb_tree_node"* @_ZNSt8_Rb_treeINSt7__cxx1112basic_stringIcSt11char_traitsIcESaIcEEESt4pairIKS5_St6vectorIiSaIiEEESt10_Select1stISB_ESt4lessIS5_ESaISB_EE7_S_leftEPSt18_Rb_tree_node_base(%"struct.std::_Rb_tree_node_base"* %4) #3
  store %"struct.std::_Rb_tree_node"* %call2, %"struct.std::_Rb_tree_node"** %__y, align 8
  %5 = load %"struct.std::_Rb_tree_node"*, %"struct.std::_Rb_tree_node"** %__x.addr, align 8
  call void @_ZNSt8_Rb_treeINSt7__cxx1112basic_stringIcSt11char_traitsIcESaIcEEESt4pairIKS5_St6vectorIiSaIiEEESt10_Select1stISB_ESt4lessIS5_ESaISB_EE12_M_drop_nodeEPSt13_Rb_tree_nodeISB_E(%"class.std::_Rb_tree"* %this1, %"struct.std::_Rb_tree_node"* %5) #3
  %6 = load %"struct.std::_Rb_tree_node"*, %"struct.std::_Rb_tree_node"** %__y, align 8
  store %"struct.std::_Rb_tree_node"* %6, %"struct.std::_Rb_tree_node"** %__x.addr, align 8
  br label %while.cond

while.end:                                        ; preds = %while.cond
  ret void
}

; Function Attrs: noinline nounwind optnone uwtable
define linkonce_odr dso_local %"struct.std::_Rb_tree_node"* @_ZNSt8_Rb_treeINSt7__cxx1112basic_stringIcSt11char_traitsIcESaIcEEESt4pairIKS5_St6vectorIiSaIiEEESt10_Select1stISB_ESt4lessIS5_ESaISB_EE8_M_beginEv(%"class.std::_Rb_tree"* %this) #5 comdat align 2 {
entry:
  %this.addr = alloca %"class.std::_Rb_tree"*, align 8
  store %"class.std::_Rb_tree"* %this, %"class.std::_Rb_tree"** %this.addr, align 8
  %this1 = load %"class.std::_Rb_tree"*, %"class.std::_Rb_tree"** %this.addr, align 8
  %call = call %"struct.std::_Rb_tree_node"* @_ZNKSt8_Rb_treeINSt7__cxx1112basic_stringIcSt11char_traitsIcESaIcEEESt4pairIKS5_St6vectorIiSaIiEEESt10_Select1stISB_ESt4lessIS5_ESaISB_EE9_M_mbeginEv(%"class.std::_Rb_tree"* %this1) #3
  ret %"struct.std::_Rb_tree_node"* %call
}

; Function Attrs: noinline nounwind optnone uwtable
define linkonce_odr dso_local void @_ZNSt8_Rb_treeINSt7__cxx1112basic_stringIcSt11char_traitsIcESaIcEEESt4pairIKS5_St6vectorIiSaIiEEESt10_Select1stISB_ESt4lessIS5_ESaISB_EE13_Rb_tree_implISF_Lb1EED2Ev(%"struct.std::_Rb_tree<std::__cxx11::basic_string<char>, std::pair<const std::__cxx11::basic_string<char>, std::vector<int, std::allocator<int> > >, std::_Select1st<std::pair<const std::__cxx11::basic_string<char>, std::vector<int, std::allocator<int> > > >, std::less<std::__cxx11::basic_string<char> >, std::allocator<std::pair<const std::__cxx11::basic_string<char>, std::vector<int, std::allocator<int> > > > >::_Rb_tree_impl"* %this) unnamed_addr #5 comdat align 2 {
entry:
  %this.addr = alloca %"struct.std::_Rb_tree<std::__cxx11::basic_string<char>, std::pair<const std::__cxx11::basic_string<char>, std::vector<int, std::allocator<int> > >, std::_Select1st<std::pair<const std::__cxx11::basic_string<char>, std::vector<int, std::allocator<int> > > >, std::less<std::__cxx11::basic_string<char> >, std::allocator<std::pair<const std::__cxx11::basic_string<char>, std::vector<int, std::allocator<int> > > > >::_Rb_tree_impl"*, align 8
  store %"struct.std::_Rb_tree<std::__cxx11::basic_string<char>, std::pair<const std::__cxx11::basic_string<char>, std::vector<int, std::allocator<int> > >, std::_Select1st<std::pair<const std::__cxx11::basic_string<char>, std::vector<int, std::allocator<int> > > >, std::less<std::__cxx11::basic_string<char> >, std::allocator<std::pair<const std::__cxx11::basic_string<char>, std::vector<int, std::allocator<int> > > > >::_Rb_tree_impl"* %this, %"struct.std::_Rb_tree<std::__cxx11::basic_string<char>, std::pair<const std::__cxx11::basic_string<char>, std::vector<int, std::allocator<int> > >, std::_Select1st<std::pair<const std::__cxx11::basic_string<char>, std::vector<int, std::allocator<int> > > >, std::less<std::__cxx11::basic_string<char> >, std::allocator<std::pair<const std::__cxx11::basic_string<char>, std::vector<int, std::allocator<int> > > > >::_Rb_tree_impl"** %this.addr, align 8
  %this1 = load %"struct.std::_Rb_tree<std::__cxx11::basic_string<char>, std::pair<const std::__cxx11::basic_string<char>, std::vector<int, std::allocator<int> > >, std::_Select1st<std::pair<const std::__cxx11::basic_string<char>, std::vector<int, std::allocator<int> > > >, std::less<std::__cxx11::basic_string<char> >, std::allocator<std::pair<const std::__cxx11::basic_string<char>, std::vector<int, std::allocator<int> > > > >::_Rb_tree_impl"*, %"struct.std::_Rb_tree<std::__cxx11::basic_string<char>, std::pair<const std::__cxx11::basic_string<char>, std::vector<int, std::allocator<int> > >, std::_Select1st<std::pair<const std::__cxx11::basic_string<char>, std::vector<int, std::allocator<int> > > >, std::less<std::__cxx11::basic_string<char> >, std::allocator<std::pair<const std::__cxx11::basic_string<char>, std::vector<int, std::allocator<int> > > > >::_Rb_tree_impl"** %this.addr, align 8
  %0 = bitcast %"struct.std::_Rb_tree<std::__cxx11::basic_string<char>, std::pair<const std::__cxx11::basic_string<char>, std::vector<int, std::allocator<int> > >, std::_Select1st<std::pair<const std::__cxx11::basic_string<char>, std::vector<int, std::allocator<int> > > >, std::less<std::__cxx11::basic_string<char> >, std::allocator<std::pair<const std::__cxx11::basic_string<char>, std::vector<int, std::allocator<int> > > > >::_Rb_tree_impl"* %this1 to %"class.std::allocator"*
  call void @_ZNSaISt13_Rb_tree_nodeISt4pairIKNSt7__cxx1112basic_stringIcSt11char_traitsIcESaIcEEESt6vectorIiSaIiEEEEED2Ev(%"class.std::allocator"* %0) #3
  ret void
}

; Function Attrs: noinline nounwind optnone uwtable
define linkonce_odr dso_local %"struct.std::_Rb_tree_node"* @_ZNSt8_Rb_treeINSt7__cxx1112basic_stringIcSt11char_traitsIcESaIcEEESt4pairIKS5_St6vectorIiSaIiEEESt10_Select1stISB_ESt4lessIS5_ESaISB_EE8_S_rightEPSt18_Rb_tree_node_base(%"struct.std::_Rb_tree_node_base"* %__x) #5 comdat align 2 {
entry:
  %__x.addr = alloca %"struct.std::_Rb_tree_node_base"*, align 8
  store %"struct.std::_Rb_tree_node_base"* %__x, %"struct.std::_Rb_tree_node_base"** %__x.addr, align 8
  %0 = load %"struct.std::_Rb_tree_node_base"*, %"struct.std::_Rb_tree_node_base"** %__x.addr, align 8
  %_M_right = getelementptr inbounds %"struct.std::_Rb_tree_node_base", %"struct.std::_Rb_tree_node_base"* %0, i32 0, i32 3
  %1 = load %"struct.std::_Rb_tree_node_base"*, %"struct.std::_Rb_tree_node_base"** %_M_right, align 8
  %2 = bitcast %"struct.std::_Rb_tree_node_base"* %1 to %"struct.std::_Rb_tree_node"*
  ret %"struct.std::_Rb_tree_node"* %2
}

; Function Attrs: noinline nounwind optnone uwtable
define linkonce_odr dso_local %"struct.std::_Rb_tree_node"* @_ZNSt8_Rb_treeINSt7__cxx1112basic_stringIcSt11char_traitsIcESaIcEEESt4pairIKS5_St6vectorIiSaIiEEESt10_Select1stISB_ESt4lessIS5_ESaISB_EE7_S_leftEPSt18_Rb_tree_node_base(%"struct.std::_Rb_tree_node_base"* %__x) #5 comdat align 2 {
entry:
  %__x.addr = alloca %"struct.std::_Rb_tree_node_base"*, align 8
  store %"struct.std::_Rb_tree_node_base"* %__x, %"struct.std::_Rb_tree_node_base"** %__x.addr, align 8
  %0 = load %"struct.std::_Rb_tree_node_base"*, %"struct.std::_Rb_tree_node_base"** %__x.addr, align 8
  %_M_left = getelementptr inbounds %"struct.std::_Rb_tree_node_base", %"struct.std::_Rb_tree_node_base"* %0, i32 0, i32 2
  %1 = load %"struct.std::_Rb_tree_node_base"*, %"struct.std::_Rb_tree_node_base"** %_M_left, align 8
  %2 = bitcast %"struct.std::_Rb_tree_node_base"* %1 to %"struct.std::_Rb_tree_node"*
  ret %"struct.std::_Rb_tree_node"* %2
}

; Function Attrs: noinline nounwind optnone uwtable
define linkonce_odr dso_local void @_ZNSt8_Rb_treeINSt7__cxx1112basic_stringIcSt11char_traitsIcESaIcEEESt4pairIKS5_St6vectorIiSaIiEEESt10_Select1stISB_ESt4lessIS5_ESaISB_EE12_M_drop_nodeEPSt13_Rb_tree_nodeISB_E(%"class.std::_Rb_tree"* %this, %"struct.std::_Rb_tree_node"* %__p) #5 comdat align 2 {
entry:
  %this.addr = alloca %"class.std::_Rb_tree"*, align 8
  %__p.addr = alloca %"struct.std::_Rb_tree_node"*, align 8
  store %"class.std::_Rb_tree"* %this, %"class.std::_Rb_tree"** %this.addr, align 8
  store %"struct.std::_Rb_tree_node"* %__p, %"struct.std::_Rb_tree_node"** %__p.addr, align 8
  %this1 = load %"class.std::_Rb_tree"*, %"class.std::_Rb_tree"** %this.addr, align 8
  %0 = load %"struct.std::_Rb_tree_node"*, %"struct.std::_Rb_tree_node"** %__p.addr, align 8
  call void @_ZNSt8_Rb_treeINSt7__cxx1112basic_stringIcSt11char_traitsIcESaIcEEESt4pairIKS5_St6vectorIiSaIiEEESt10_Select1stISB_ESt4lessIS5_ESaISB_EE15_M_destroy_nodeEPSt13_Rb_tree_nodeISB_E(%"class.std::_Rb_tree"* %this1, %"struct.std::_Rb_tree_node"* %0) #3
  %1 = load %"struct.std::_Rb_tree_node"*, %"struct.std::_Rb_tree_node"** %__p.addr, align 8
  call void @_ZNSt8_Rb_treeINSt7__cxx1112basic_stringIcSt11char_traitsIcESaIcEEESt4pairIKS5_St6vectorIiSaIiEEESt10_Select1stISB_ESt4lessIS5_ESaISB_EE11_M_put_nodeEPSt13_Rb_tree_nodeISB_E(%"class.std::_Rb_tree"* %this1, %"struct.std::_Rb_tree_node"* %1) #3
  ret void
}

; Function Attrs: noinline nounwind optnone uwtable
define linkonce_odr dso_local void @_ZNSt8_Rb_treeINSt7__cxx1112basic_stringIcSt11char_traitsIcESaIcEEESt4pairIKS5_St6vectorIiSaIiEEESt10_Select1stISB_ESt4lessIS5_ESaISB_EE15_M_destroy_nodeEPSt13_Rb_tree_nodeISB_E(%"class.std::_Rb_tree"* %this, %"struct.std::_Rb_tree_node"* %__p) #5 comdat align 2 personality i8* bitcast (i32 (...)* @__gxx_personality_v0 to i8*) {
entry:
  %this.addr = alloca %"class.std::_Rb_tree"*, align 8
  %__p.addr = alloca %"struct.std::_Rb_tree_node"*, align 8
  store %"class.std::_Rb_tree"* %this, %"class.std::_Rb_tree"** %this.addr, align 8
  store %"struct.std::_Rb_tree_node"* %__p, %"struct.std::_Rb_tree_node"** %__p.addr, align 8
  %this1 = load %"class.std::_Rb_tree"*, %"class.std::_Rb_tree"** %this.addr, align 8
  %call = call dereferenceable(1) %"class.std::allocator"* @_ZNSt8_Rb_treeINSt7__cxx1112basic_stringIcSt11char_traitsIcESaIcEEESt4pairIKS5_St6vectorIiSaIiEEESt10_Select1stISB_ESt4lessIS5_ESaISB_EE21_M_get_Node_allocatorEv(%"class.std::_Rb_tree"* %this1) #3
  %0 = load %"struct.std::_Rb_tree_node"*, %"struct.std::_Rb_tree_node"** %__p.addr, align 8
  %call2 = invoke %"struct.std::pair"* @_ZNSt13_Rb_tree_nodeISt4pairIKNSt7__cxx1112basic_stringIcSt11char_traitsIcESaIcEEESt6vectorIiSaIiEEEE9_M_valptrEv(%"struct.std::_Rb_tree_node"* %0)
          to label %invoke.cont unwind label %terminate.lpad

invoke.cont:                                      ; preds = %entry
  call void @_ZNSt16allocator_traitsISaISt13_Rb_tree_nodeISt4pairIKNSt7__cxx1112basic_stringIcSt11char_traitsIcESaIcEEESt6vectorIiSaIiEEEEEE7destroyISC_EEvRSE_PT_(%"class.std::allocator"* dereferenceable(1) %call, %"struct.std::pair"* %call2) #3
  %1 = load %"struct.std::_Rb_tree_node"*, %"struct.std::_Rb_tree_node"** %__p.addr, align 8
  ret void

terminate.lpad:                                   ; preds = %entry
  %2 = landingpad { i8*, i32 }
          catch i8* null
  %3 = extractvalue { i8*, i32 } %2, 0
  call void @__clang_call_terminate(i8* %3) #15
  unreachable
}

; Function Attrs: noinline nounwind optnone uwtable
define linkonce_odr dso_local void @_ZNSt8_Rb_treeINSt7__cxx1112basic_stringIcSt11char_traitsIcESaIcEEESt4pairIKS5_St6vectorIiSaIiEEESt10_Select1stISB_ESt4lessIS5_ESaISB_EE11_M_put_nodeEPSt13_Rb_tree_nodeISB_E(%"class.std::_Rb_tree"* %this, %"struct.std::_Rb_tree_node"* %__p) #5 comdat align 2 personality i8* bitcast (i32 (...)* @__gxx_personality_v0 to i8*) {
entry:
  %this.addr = alloca %"class.std::_Rb_tree"*, align 8
  %__p.addr = alloca %"struct.std::_Rb_tree_node"*, align 8
  store %"class.std::_Rb_tree"* %this, %"class.std::_Rb_tree"** %this.addr, align 8
  store %"struct.std::_Rb_tree_node"* %__p, %"struct.std::_Rb_tree_node"** %__p.addr, align 8
  %this1 = load %"class.std::_Rb_tree"*, %"class.std::_Rb_tree"** %this.addr, align 8
  %call = call dereferenceable(1) %"class.std::allocator"* @_ZNSt8_Rb_treeINSt7__cxx1112basic_stringIcSt11char_traitsIcESaIcEEESt4pairIKS5_St6vectorIiSaIiEEESt10_Select1stISB_ESt4lessIS5_ESaISB_EE21_M_get_Node_allocatorEv(%"class.std::_Rb_tree"* %this1) #3
  %0 = load %"struct.std::_Rb_tree_node"*, %"struct.std::_Rb_tree_node"** %__p.addr, align 8
  invoke void @_ZNSt16allocator_traitsISaISt13_Rb_tree_nodeISt4pairIKNSt7__cxx1112basic_stringIcSt11char_traitsIcESaIcEEESt6vectorIiSaIiEEEEEE10deallocateERSE_PSD_m(%"class.std::allocator"* dereferenceable(1) %call, %"struct.std::_Rb_tree_node"* %0, i64 1)
          to label %invoke.cont unwind label %terminate.lpad

invoke.cont:                                      ; preds = %entry
  ret void

terminate.lpad:                                   ; preds = %entry
  %1 = landingpad { i8*, i32 }
          catch i8* null
  %2 = extractvalue { i8*, i32 } %1, 0
  call void @__clang_call_terminate(i8* %2) #15
  unreachable
}

; Function Attrs: noinline nounwind optnone uwtable
define linkonce_odr dso_local void @_ZNSt16allocator_traitsISaISt13_Rb_tree_nodeISt4pairIKNSt7__cxx1112basic_stringIcSt11char_traitsIcESaIcEEESt6vectorIiSaIiEEEEEE7destroyISC_EEvRSE_PT_(%"class.std::allocator"* dereferenceable(1) %__a, %"struct.std::pair"* %__p) #5 comdat align 2 {
entry:
  %__a.addr = alloca %"class.std::allocator"*, align 8
  %__p.addr = alloca %"struct.std::pair"*, align 8
  store %"class.std::allocator"* %__a, %"class.std::allocator"** %__a.addr, align 8
  store %"struct.std::pair"* %__p, %"struct.std::pair"** %__p.addr, align 8
  %0 = load %"class.std::allocator"*, %"class.std::allocator"** %__a.addr, align 8
  %1 = bitcast %"class.std::allocator"* %0 to %"class.__gnu_cxx::new_allocator"*
  %2 = load %"struct.std::pair"*, %"struct.std::pair"** %__p.addr, align 8
  call void @_ZN9__gnu_cxx13new_allocatorISt13_Rb_tree_nodeISt4pairIKNSt7__cxx1112basic_stringIcSt11char_traitsIcESaIcEEESt6vectorIiSaIiEEEEE7destroyISD_EEvPT_(%"class.__gnu_cxx::new_allocator"* %1, %"struct.std::pair"* %2) #3
  ret void
}

; Function Attrs: noinline nounwind optnone uwtable
define linkonce_odr dso_local dereferenceable(1) %"class.std::allocator"* @_ZNSt8_Rb_treeINSt7__cxx1112basic_stringIcSt11char_traitsIcESaIcEEESt4pairIKS5_St6vectorIiSaIiEEESt10_Select1stISB_ESt4lessIS5_ESaISB_EE21_M_get_Node_allocatorEv(%"class.std::_Rb_tree"* %this) #5 comdat align 2 {
entry:
  %this.addr = alloca %"class.std::_Rb_tree"*, align 8
  store %"class.std::_Rb_tree"* %this, %"class.std::_Rb_tree"** %this.addr, align 8
  %this1 = load %"class.std::_Rb_tree"*, %"class.std::_Rb_tree"** %this.addr, align 8
  %_M_impl = getelementptr inbounds %"class.std::_Rb_tree", %"class.std::_Rb_tree"* %this1, i32 0, i32 0
  %0 = bitcast %"struct.std::_Rb_tree<std::__cxx11::basic_string<char>, std::pair<const std::__cxx11::basic_string<char>, std::vector<int, std::allocator<int> > >, std::_Select1st<std::pair<const std::__cxx11::basic_string<char>, std::vector<int, std::allocator<int> > > >, std::less<std::__cxx11::basic_string<char> >, std::allocator<std::pair<const std::__cxx11::basic_string<char>, std::vector<int, std::allocator<int> > > > >::_Rb_tree_impl"* %_M_impl to %"class.std::allocator"*
  ret %"class.std::allocator"* %0
}

; Function Attrs: noinline nounwind optnone uwtable
define linkonce_odr dso_local %"struct.std::pair"* @_ZNSt13_Rb_tree_nodeISt4pairIKNSt7__cxx1112basic_stringIcSt11char_traitsIcESaIcEEESt6vectorIiSaIiEEEE9_M_valptrEv(%"struct.std::_Rb_tree_node"* %this) #5 comdat align 2 {
entry:
  %this.addr = alloca %"struct.std::_Rb_tree_node"*, align 8
  store %"struct.std::_Rb_tree_node"* %this, %"struct.std::_Rb_tree_node"** %this.addr, align 8
  %this1 = load %"struct.std::_Rb_tree_node"*, %"struct.std::_Rb_tree_node"** %this.addr, align 8
  %_M_storage = getelementptr inbounds %"struct.std::_Rb_tree_node", %"struct.std::_Rb_tree_node"* %this1, i32 0, i32 1
  %call = call %"struct.std::pair"* @_ZN9__gnu_cxx16__aligned_membufISt4pairIKNSt7__cxx1112basic_stringIcSt11char_traitsIcESaIcEEESt6vectorIiSaIiEEEE6_M_ptrEv(%"struct.__gnu_cxx::__aligned_membuf"* %_M_storage) #3
  ret %"struct.std::pair"* %call
}

; Function Attrs: noinline nounwind optnone uwtable
define linkonce_odr dso_local void @_ZN9__gnu_cxx13new_allocatorISt13_Rb_tree_nodeISt4pairIKNSt7__cxx1112basic_stringIcSt11char_traitsIcESaIcEEESt6vectorIiSaIiEEEEE7destroyISD_EEvPT_(%"class.__gnu_cxx::new_allocator"* %this, %"struct.std::pair"* %__p) #5 comdat align 2 {
entry:
  %this.addr = alloca %"class.__gnu_cxx::new_allocator"*, align 8
  %__p.addr = alloca %"struct.std::pair"*, align 8
  store %"class.__gnu_cxx::new_allocator"* %this, %"class.__gnu_cxx::new_allocator"** %this.addr, align 8
  store %"struct.std::pair"* %__p, %"struct.std::pair"** %__p.addr, align 8
  %this1 = load %"class.__gnu_cxx::new_allocator"*, %"class.__gnu_cxx::new_allocator"** %this.addr, align 8
  %0 = load %"struct.std::pair"*, %"struct.std::pair"** %__p.addr, align 8
  call void @_ZNSt4pairIKNSt7__cxx1112basic_stringIcSt11char_traitsIcESaIcEEESt6vectorIiSaIiEEED2Ev(%"struct.std::pair"* %0) #3
  ret void
}

; Function Attrs: noinline nounwind optnone uwtable
define linkonce_odr dso_local void @_ZNSt4pairIKNSt7__cxx1112basic_stringIcSt11char_traitsIcESaIcEEESt6vectorIiSaIiEEED2Ev(%"struct.std::pair"* %this) unnamed_addr #5 comdat align 2 {
entry:
  %this.addr = alloca %"struct.std::pair"*, align 8
  store %"struct.std::pair"* %this, %"struct.std::pair"** %this.addr, align 8
  %this1 = load %"struct.std::pair"*, %"struct.std::pair"** %this.addr, align 8
  %second = getelementptr inbounds %"struct.std::pair", %"struct.std::pair"* %this1, i32 0, i32 1
  call void @_ZNSt6vectorIiSaIiEED2Ev(%"class.std::vector"* %second) #3
  %first = getelementptr inbounds %"struct.std::pair", %"struct.std::pair"* %this1, i32 0, i32 0
  call void @_ZNSt7__cxx1112basic_stringIcSt11char_traitsIcESaIcEED1Ev(%"class.std::__cxx11::basic_string"* %first) #3
  ret void
}

; Function Attrs: noinline nounwind optnone uwtable
define linkonce_odr dso_local %"struct.std::pair"* @_ZN9__gnu_cxx16__aligned_membufISt4pairIKNSt7__cxx1112basic_stringIcSt11char_traitsIcESaIcEEESt6vectorIiSaIiEEEE6_M_ptrEv(%"struct.__gnu_cxx::__aligned_membuf"* %this) #5 comdat align 2 {
entry:
  %this.addr = alloca %"struct.__gnu_cxx::__aligned_membuf"*, align 8
  store %"struct.__gnu_cxx::__aligned_membuf"* %this, %"struct.__gnu_cxx::__aligned_membuf"** %this.addr, align 8
  %this1 = load %"struct.__gnu_cxx::__aligned_membuf"*, %"struct.__gnu_cxx::__aligned_membuf"** %this.addr, align 8
  %call = call i8* @_ZN9__gnu_cxx16__aligned_membufISt4pairIKNSt7__cxx1112basic_stringIcSt11char_traitsIcESaIcEEESt6vectorIiSaIiEEEE7_M_addrEv(%"struct.__gnu_cxx::__aligned_membuf"* %this1) #3
  %0 = bitcast i8* %call to %"struct.std::pair"*
  ret %"struct.std::pair"* %0
}

; Function Attrs: noinline nounwind optnone uwtable
define linkonce_odr dso_local i8* @_ZN9__gnu_cxx16__aligned_membufISt4pairIKNSt7__cxx1112basic_stringIcSt11char_traitsIcESaIcEEESt6vectorIiSaIiEEEE7_M_addrEv(%"struct.__gnu_cxx::__aligned_membuf"* %this) #5 comdat align 2 {
entry:
  %this.addr = alloca %"struct.__gnu_cxx::__aligned_membuf"*, align 8
  store %"struct.__gnu_cxx::__aligned_membuf"* %this, %"struct.__gnu_cxx::__aligned_membuf"** %this.addr, align 8
  %this1 = load %"struct.__gnu_cxx::__aligned_membuf"*, %"struct.__gnu_cxx::__aligned_membuf"** %this.addr, align 8
  %_M_storage = getelementptr inbounds %"struct.__gnu_cxx::__aligned_membuf", %"struct.__gnu_cxx::__aligned_membuf"* %this1, i32 0, i32 0
  %0 = bitcast [56 x i8]* %_M_storage to i8*
  ret i8* %0
}

; Function Attrs: noinline optnone uwtable
define linkonce_odr dso_local void @_ZNSt16allocator_traitsISaISt13_Rb_tree_nodeISt4pairIKNSt7__cxx1112basic_stringIcSt11char_traitsIcESaIcEEESt6vectorIiSaIiEEEEEE10deallocateERSE_PSD_m(%"class.std::allocator"* dereferenceable(1) %__a, %"struct.std::_Rb_tree_node"* %__p, i64 %__n) #4 comdat align 2 {
entry:
  %__a.addr = alloca %"class.std::allocator"*, align 8
  %__p.addr = alloca %"struct.std::_Rb_tree_node"*, align 8
  %__n.addr = alloca i64, align 8
  store %"class.std::allocator"* %__a, %"class.std::allocator"** %__a.addr, align 8
  store %"struct.std::_Rb_tree_node"* %__p, %"struct.std::_Rb_tree_node"** %__p.addr, align 8
  store i64 %__n, i64* %__n.addr, align 8
  %0 = load %"class.std::allocator"*, %"class.std::allocator"** %__a.addr, align 8
  %1 = bitcast %"class.std::allocator"* %0 to %"class.__gnu_cxx::new_allocator"*
  %2 = load %"struct.std::_Rb_tree_node"*, %"struct.std::_Rb_tree_node"** %__p.addr, align 8
  %3 = load i64, i64* %__n.addr, align 8
  call void @_ZN9__gnu_cxx13new_allocatorISt13_Rb_tree_nodeISt4pairIKNSt7__cxx1112basic_stringIcSt11char_traitsIcESaIcEEESt6vectorIiSaIiEEEEE10deallocateEPSE_m(%"class.__gnu_cxx::new_allocator"* %1, %"struct.std::_Rb_tree_node"* %2, i64 %3)
  ret void
}

; Function Attrs: noinline nounwind optnone uwtable
define linkonce_odr dso_local void @_ZN9__gnu_cxx13new_allocatorISt13_Rb_tree_nodeISt4pairIKNSt7__cxx1112basic_stringIcSt11char_traitsIcESaIcEEESt6vectorIiSaIiEEEEE10deallocateEPSE_m(%"class.__gnu_cxx::new_allocator"* %this, %"struct.std::_Rb_tree_node"* %__p, i64 %__t) #5 comdat align 2 {
entry:
  %this.addr = alloca %"class.__gnu_cxx::new_allocator"*, align 8
  %__p.addr = alloca %"struct.std::_Rb_tree_node"*, align 8
  %__t.addr = alloca i64, align 8
  store %"class.__gnu_cxx::new_allocator"* %this, %"class.__gnu_cxx::new_allocator"** %this.addr, align 8
  store %"struct.std::_Rb_tree_node"* %__p, %"struct.std::_Rb_tree_node"** %__p.addr, align 8
  store i64 %__t, i64* %__t.addr, align 8
  %this1 = load %"class.__gnu_cxx::new_allocator"*, %"class.__gnu_cxx::new_allocator"** %this.addr, align 8
  %0 = load %"struct.std::_Rb_tree_node"*, %"struct.std::_Rb_tree_node"** %__p.addr, align 8
  %1 = bitcast %"struct.std::_Rb_tree_node"* %0 to i8*
  call void @_ZdlPv(i8* %1) #3
  ret void
}

; Function Attrs: nobuiltin nounwind
declare dso_local void @_ZdlPv(i8*) #10

; Function Attrs: noinline nounwind optnone uwtable
define linkonce_odr dso_local %"struct.std::_Rb_tree_node"* @_ZNKSt8_Rb_treeINSt7__cxx1112basic_stringIcSt11char_traitsIcESaIcEEESt4pairIKS5_St6vectorIiSaIiEEESt10_Select1stISB_ESt4lessIS5_ESaISB_EE9_M_mbeginEv(%"class.std::_Rb_tree"* %this) #5 comdat align 2 {
entry:
  %this.addr = alloca %"class.std::_Rb_tree"*, align 8
  store %"class.std::_Rb_tree"* %this, %"class.std::_Rb_tree"** %this.addr, align 8
  %this1 = load %"class.std::_Rb_tree"*, %"class.std::_Rb_tree"** %this.addr, align 8
  %_M_impl = getelementptr inbounds %"class.std::_Rb_tree", %"class.std::_Rb_tree"* %this1, i32 0, i32 0
  %0 = bitcast %"struct.std::_Rb_tree<std::__cxx11::basic_string<char>, std::pair<const std::__cxx11::basic_string<char>, std::vector<int, std::allocator<int> > >, std::_Select1st<std::pair<const std::__cxx11::basic_string<char>, std::vector<int, std::allocator<int> > > >, std::less<std::__cxx11::basic_string<char> >, std::allocator<std::pair<const std::__cxx11::basic_string<char>, std::vector<int, std::allocator<int> > > > >::_Rb_tree_impl"* %_M_impl to i8*
  %add.ptr = getelementptr inbounds i8, i8* %0, i64 8
  %1 = bitcast i8* %add.ptr to %"struct.std::_Rb_tree_header"*
  %_M_header = getelementptr inbounds %"struct.std::_Rb_tree_header", %"struct.std::_Rb_tree_header"* %1, i32 0, i32 0
  %_M_parent = getelementptr inbounds %"struct.std::_Rb_tree_node_base", %"struct.std::_Rb_tree_node_base"* %_M_header, i32 0, i32 1
  %2 = load %"struct.std::_Rb_tree_node_base"*, %"struct.std::_Rb_tree_node_base"** %_M_parent, align 8
  %3 = bitcast %"struct.std::_Rb_tree_node_base"* %2 to %"struct.std::_Rb_tree_node"*
  ret %"struct.std::_Rb_tree_node"* %3
}

; Function Attrs: noinline nounwind optnone uwtable
define linkonce_odr dso_local void @_ZNSaISt13_Rb_tree_nodeISt4pairIKNSt7__cxx1112basic_stringIcSt11char_traitsIcESaIcEEESt6vectorIiSaIiEEEEED2Ev(%"class.std::allocator"* %this) unnamed_addr #5 comdat align 2 {
entry:
  %this.addr = alloca %"class.std::allocator"*, align 8
  store %"class.std::allocator"* %this, %"class.std::allocator"** %this.addr, align 8
  %this1 = load %"class.std::allocator"*, %"class.std::allocator"** %this.addr, align 8
  %0 = bitcast %"class.std::allocator"* %this1 to %"class.__gnu_cxx::new_allocator"*
  call void @_ZN9__gnu_cxx13new_allocatorISt13_Rb_tree_nodeISt4pairIKNSt7__cxx1112basic_stringIcSt11char_traitsIcESaIcEEESt6vectorIiSaIiEEEEED2Ev(%"class.__gnu_cxx::new_allocator"* %0) #3
  ret void
}

; Function Attrs: noinline nounwind optnone uwtable
define linkonce_odr dso_local void @_ZN9__gnu_cxx13new_allocatorISt13_Rb_tree_nodeISt4pairIKNSt7__cxx1112basic_stringIcSt11char_traitsIcESaIcEEESt6vectorIiSaIiEEEEED2Ev(%"class.__gnu_cxx::new_allocator"* %this) unnamed_addr #5 comdat align 2 {
entry:
  %this.addr = alloca %"class.__gnu_cxx::new_allocator"*, align 8
  store %"class.__gnu_cxx::new_allocator"* %this, %"class.__gnu_cxx::new_allocator"** %this.addr, align 8
  %this1 = load %"class.__gnu_cxx::new_allocator"*, %"class.__gnu_cxx::new_allocator"** %this.addr, align 8
  ret void
}

; Function Attrs: noinline nounwind optnone uwtable
define linkonce_odr dso_local void @_ZN9__gnu_cxx13new_allocatorIiED2Ev(%"class.__gnu_cxx::new_allocator.1"* %this) unnamed_addr #5 comdat align 2 {
entry:
  %this.addr = alloca %"class.__gnu_cxx::new_allocator.1"*, align 8
  store %"class.__gnu_cxx::new_allocator.1"* %this, %"class.__gnu_cxx::new_allocator.1"** %this.addr, align 8
  %this1 = load %"class.__gnu_cxx::new_allocator.1"*, %"class.__gnu_cxx::new_allocator.1"** %this.addr, align 8
  ret void
}

; Function Attrs: noinline nounwind optnone uwtable
define linkonce_odr dso_local zeroext i1 @_ZSteqRKSt23_Rb_tree_const_iteratorISt4pairIKNSt7__cxx1112basic_stringIcSt11char_traitsIcESaIcEEESt6vectorIiSaIiEEEESE_(%"struct.std::_Rb_tree_const_iterator"* dereferenceable(8) %__x, %"struct.std::_Rb_tree_const_iterator"* dereferenceable(8) %__y) #5 comdat {
entry:
  %__x.addr = alloca %"struct.std::_Rb_tree_const_iterator"*, align 8
  %__y.addr = alloca %"struct.std::_Rb_tree_const_iterator"*, align 8
  store %"struct.std::_Rb_tree_const_iterator"* %__x, %"struct.std::_Rb_tree_const_iterator"** %__x.addr, align 8
  store %"struct.std::_Rb_tree_const_iterator"* %__y, %"struct.std::_Rb_tree_const_iterator"** %__y.addr, align 8
  %0 = load %"struct.std::_Rb_tree_const_iterator"*, %"struct.std::_Rb_tree_const_iterator"** %__x.addr, align 8
  %_M_node = getelementptr inbounds %"struct.std::_Rb_tree_const_iterator", %"struct.std::_Rb_tree_const_iterator"* %0, i32 0, i32 0
  %1 = load %"struct.std::_Rb_tree_node_base"*, %"struct.std::_Rb_tree_node_base"** %_M_node, align 8
  %2 = load %"struct.std::_Rb_tree_const_iterator"*, %"struct.std::_Rb_tree_const_iterator"** %__y.addr, align 8
  %_M_node1 = getelementptr inbounds %"struct.std::_Rb_tree_const_iterator", %"struct.std::_Rb_tree_const_iterator"* %2, i32 0, i32 0
  %3 = load %"struct.std::_Rb_tree_node_base"*, %"struct.std::_Rb_tree_node_base"** %_M_node1, align 8
  %cmp = icmp eq %"struct.std::_Rb_tree_node_base"* %1, %3
  ret i1 %cmp
}

; Function Attrs: noinline optnone uwtable
define linkonce_odr dso_local %"struct.std::_Rb_tree_node_base"* @_ZNKSt8_Rb_treeINSt7__cxx1112basic_stringIcSt11char_traitsIcESaIcEEESt4pairIKS5_St6vectorIiSaIiEEESt10_Select1stISB_ESt4lessIS5_ESaISB_EE4findERS7_(%"class.std::_Rb_tree"* %this, %"class.std::__cxx11::basic_string"* dereferenceable(32) %__k) #4 comdat align 2 {
entry:
  %retval = alloca %"struct.std::_Rb_tree_const_iterator", align 8
  %this.addr = alloca %"class.std::_Rb_tree"*, align 8
  %__k.addr = alloca %"class.std::__cxx11::basic_string"*, align 8
  %__j = alloca %"struct.std::_Rb_tree_const_iterator", align 8
  %ref.tmp = alloca %"struct.std::_Rb_tree_const_iterator", align 8
  store %"class.std::_Rb_tree"* %this, %"class.std::_Rb_tree"** %this.addr, align 8
  store %"class.std::__cxx11::basic_string"* %__k, %"class.std::__cxx11::basic_string"** %__k.addr, align 8
  %this1 = load %"class.std::_Rb_tree"*, %"class.std::_Rb_tree"** %this.addr, align 8
  %call = call %"struct.std::_Rb_tree_node"* @_ZNKSt8_Rb_treeINSt7__cxx1112basic_stringIcSt11char_traitsIcESaIcEEESt4pairIKS5_St6vectorIiSaIiEEESt10_Select1stISB_ESt4lessIS5_ESaISB_EE8_M_beginEv(%"class.std::_Rb_tree"* %this1) #3
  %call2 = call %"struct.std::_Rb_tree_node_base"* @_ZNKSt8_Rb_treeINSt7__cxx1112basic_stringIcSt11char_traitsIcESaIcEEESt4pairIKS5_St6vectorIiSaIiEEESt10_Select1stISB_ESt4lessIS5_ESaISB_EE6_M_endEv(%"class.std::_Rb_tree"* %this1) #3
  %0 = load %"class.std::__cxx11::basic_string"*, %"class.std::__cxx11::basic_string"** %__k.addr, align 8
  %call3 = call %"struct.std::_Rb_tree_node_base"* @_ZNKSt8_Rb_treeINSt7__cxx1112basic_stringIcSt11char_traitsIcESaIcEEESt4pairIKS5_St6vectorIiSaIiEEESt10_Select1stISB_ESt4lessIS5_ESaISB_EE14_M_lower_boundEPKSt13_Rb_tree_nodeISB_EPKSt18_Rb_tree_node_baseRS7_(%"class.std::_Rb_tree"* %this1, %"struct.std::_Rb_tree_node"* %call, %"struct.std::_Rb_tree_node_base"* %call2, %"class.std::__cxx11::basic_string"* dereferenceable(32) %0)
  %coerce.dive = getelementptr inbounds %"struct.std::_Rb_tree_const_iterator", %"struct.std::_Rb_tree_const_iterator"* %__j, i32 0, i32 0
  store %"struct.std::_Rb_tree_node_base"* %call3, %"struct.std::_Rb_tree_node_base"** %coerce.dive, align 8
  %call4 = call %"struct.std::_Rb_tree_node_base"* @_ZNKSt8_Rb_treeINSt7__cxx1112basic_stringIcSt11char_traitsIcESaIcEEESt4pairIKS5_St6vectorIiSaIiEEESt10_Select1stISB_ESt4lessIS5_ESaISB_EE3endEv(%"class.std::_Rb_tree"* %this1) #3
  %coerce.dive5 = getelementptr inbounds %"struct.std::_Rb_tree_const_iterator", %"struct.std::_Rb_tree_const_iterator"* %ref.tmp, i32 0, i32 0
  store %"struct.std::_Rb_tree_node_base"* %call4, %"struct.std::_Rb_tree_node_base"** %coerce.dive5, align 8
  %call6 = call zeroext i1 @_ZSteqRKSt23_Rb_tree_const_iteratorISt4pairIKNSt7__cxx1112basic_stringIcSt11char_traitsIcESaIcEEESt6vectorIiSaIiEEEESE_(%"struct.std::_Rb_tree_const_iterator"* dereferenceable(8) %__j, %"struct.std::_Rb_tree_const_iterator"* dereferenceable(8) %ref.tmp) #3
  br i1 %call6, label %cond.true, label %lor.lhs.false

lor.lhs.false:                                    ; preds = %entry
  %_M_impl = getelementptr inbounds %"class.std::_Rb_tree", %"class.std::_Rb_tree"* %this1, i32 0, i32 0
  %1 = bitcast %"struct.std::_Rb_tree<std::__cxx11::basic_string<char>, std::pair<const std::__cxx11::basic_string<char>, std::vector<int, std::allocator<int> > >, std::_Select1st<std::pair<const std::__cxx11::basic_string<char>, std::vector<int, std::allocator<int> > > >, std::less<std::__cxx11::basic_string<char> >, std::allocator<std::pair<const std::__cxx11::basic_string<char>, std::vector<int, std::allocator<int> > > > >::_Rb_tree_impl"* %_M_impl to %"struct.std::_Rb_tree_key_compare"*
  %_M_key_compare = getelementptr inbounds %"struct.std::_Rb_tree_key_compare", %"struct.std::_Rb_tree_key_compare"* %1, i32 0, i32 0
  %2 = load %"class.std::__cxx11::basic_string"*, %"class.std::__cxx11::basic_string"** %__k.addr, align 8
  %_M_node = getelementptr inbounds %"struct.std::_Rb_tree_const_iterator", %"struct.std::_Rb_tree_const_iterator"* %__j, i32 0, i32 0
  %3 = load %"struct.std::_Rb_tree_node_base"*, %"struct.std::_Rb_tree_node_base"** %_M_node, align 8
  %call7 = call dereferenceable(32) %"class.std::__cxx11::basic_string"* @_ZNSt8_Rb_treeINSt7__cxx1112basic_stringIcSt11char_traitsIcESaIcEEESt4pairIKS5_St6vectorIiSaIiEEESt10_Select1stISB_ESt4lessIS5_ESaISB_EE6_S_keyEPKSt18_Rb_tree_node_base(%"struct.std::_Rb_tree_node_base"* %3)
  %call8 = call zeroext i1 @_ZNKSt4lessINSt7__cxx1112basic_stringIcSt11char_traitsIcESaIcEEEEclERKS5_S8_(%"struct.std::less"* %_M_key_compare, %"class.std::__cxx11::basic_string"* dereferenceable(32) %2, %"class.std::__cxx11::basic_string"* dereferenceable(32) %call7)
  br i1 %call8, label %cond.true, label %cond.false

cond.true:                                        ; preds = %lor.lhs.false, %entry
  %call9 = call %"struct.std::_Rb_tree_node_base"* @_ZNKSt8_Rb_treeINSt7__cxx1112basic_stringIcSt11char_traitsIcESaIcEEESt4pairIKS5_St6vectorIiSaIiEEESt10_Select1stISB_ESt4lessIS5_ESaISB_EE3endEv(%"class.std::_Rb_tree"* %this1) #3
  %coerce.dive10 = getelementptr inbounds %"struct.std::_Rb_tree_const_iterator", %"struct.std::_Rb_tree_const_iterator"* %retval, i32 0, i32 0
  store %"struct.std::_Rb_tree_node_base"* %call9, %"struct.std::_Rb_tree_node_base"** %coerce.dive10, align 8
  br label %cond.end

cond.false:                                       ; preds = %lor.lhs.false
  %4 = bitcast %"struct.std::_Rb_tree_const_iterator"* %retval to i8*
  %5 = bitcast %"struct.std::_Rb_tree_const_iterator"* %__j to i8*
  call void @llvm.memcpy.p0i8.p0i8.i64(i8* align 8 %4, i8* align 8 %5, i64 8, i1 false)
  br label %cond.end

cond.end:                                         ; preds = %cond.false, %cond.true
  %coerce.dive11 = getelementptr inbounds %"struct.std::_Rb_tree_const_iterator", %"struct.std::_Rb_tree_const_iterator"* %retval, i32 0, i32 0
  %6 = load %"struct.std::_Rb_tree_node_base"*, %"struct.std::_Rb_tree_node_base"** %coerce.dive11, align 8
  ret %"struct.std::_Rb_tree_node_base"* %6
}

; Function Attrs: noinline nounwind optnone uwtable
define linkonce_odr dso_local %"struct.std::_Rb_tree_node_base"* @_ZNKSt8_Rb_treeINSt7__cxx1112basic_stringIcSt11char_traitsIcESaIcEEESt4pairIKS5_St6vectorIiSaIiEEESt10_Select1stISB_ESt4lessIS5_ESaISB_EE3endEv(%"class.std::_Rb_tree"* %this) #5 comdat align 2 {
entry:
  %retval = alloca %"struct.std::_Rb_tree_const_iterator", align 8
  %this.addr = alloca %"class.std::_Rb_tree"*, align 8
  store %"class.std::_Rb_tree"* %this, %"class.std::_Rb_tree"** %this.addr, align 8
  %this1 = load %"class.std::_Rb_tree"*, %"class.std::_Rb_tree"** %this.addr, align 8
  %_M_impl = getelementptr inbounds %"class.std::_Rb_tree", %"class.std::_Rb_tree"* %this1, i32 0, i32 0
  %0 = bitcast %"struct.std::_Rb_tree<std::__cxx11::basic_string<char>, std::pair<const std::__cxx11::basic_string<char>, std::vector<int, std::allocator<int> > >, std::_Select1st<std::pair<const std::__cxx11::basic_string<char>, std::vector<int, std::allocator<int> > > >, std::less<std::__cxx11::basic_string<char> >, std::allocator<std::pair<const std::__cxx11::basic_string<char>, std::vector<int, std::allocator<int> > > > >::_Rb_tree_impl"* %_M_impl to i8*
  %add.ptr = getelementptr inbounds i8, i8* %0, i64 8
  %1 = bitcast i8* %add.ptr to %"struct.std::_Rb_tree_header"*
  %_M_header = getelementptr inbounds %"struct.std::_Rb_tree_header", %"struct.std::_Rb_tree_header"* %1, i32 0, i32 0
  call void @_ZNSt23_Rb_tree_const_iteratorISt4pairIKNSt7__cxx1112basic_stringIcSt11char_traitsIcESaIcEEESt6vectorIiSaIiEEEEC2EPKSt18_Rb_tree_node_base(%"struct.std::_Rb_tree_const_iterator"* %retval, %"struct.std::_Rb_tree_node_base"* %_M_header) #3
  %coerce.dive = getelementptr inbounds %"struct.std::_Rb_tree_const_iterator", %"struct.std::_Rb_tree_const_iterator"* %retval, i32 0, i32 0
  %2 = load %"struct.std::_Rb_tree_node_base"*, %"struct.std::_Rb_tree_node_base"** %coerce.dive, align 8
  ret %"struct.std::_Rb_tree_node_base"* %2
}

; Function Attrs: noinline optnone uwtable
define linkonce_odr dso_local %"struct.std::_Rb_tree_node_base"* @_ZNKSt8_Rb_treeINSt7__cxx1112basic_stringIcSt11char_traitsIcESaIcEEESt4pairIKS5_St6vectorIiSaIiEEESt10_Select1stISB_ESt4lessIS5_ESaISB_EE14_M_lower_boundEPKSt13_Rb_tree_nodeISB_EPKSt18_Rb_tree_node_baseRS7_(%"class.std::_Rb_tree"* %this, %"struct.std::_Rb_tree_node"* %__x, %"struct.std::_Rb_tree_node_base"* %__y, %"class.std::__cxx11::basic_string"* dereferenceable(32) %__k) #4 comdat align 2 {
entry:
  %retval = alloca %"struct.std::_Rb_tree_const_iterator", align 8
  %this.addr = alloca %"class.std::_Rb_tree"*, align 8
  %__x.addr = alloca %"struct.std::_Rb_tree_node"*, align 8
  %__y.addr = alloca %"struct.std::_Rb_tree_node_base"*, align 8
  %__k.addr = alloca %"class.std::__cxx11::basic_string"*, align 8
  store %"class.std::_Rb_tree"* %this, %"class.std::_Rb_tree"** %this.addr, align 8
  store %"struct.std::_Rb_tree_node"* %__x, %"struct.std::_Rb_tree_node"** %__x.addr, align 8
  store %"struct.std::_Rb_tree_node_base"* %__y, %"struct.std::_Rb_tree_node_base"** %__y.addr, align 8
  store %"class.std::__cxx11::basic_string"* %__k, %"class.std::__cxx11::basic_string"** %__k.addr, align 8
  %this1 = load %"class.std::_Rb_tree"*, %"class.std::_Rb_tree"** %this.addr, align 8
  br label %while.cond

while.cond:                                       ; preds = %if.end, %entry
  %0 = load %"struct.std::_Rb_tree_node"*, %"struct.std::_Rb_tree_node"** %__x.addr, align 8
  %cmp = icmp ne %"struct.std::_Rb_tree_node"* %0, null
  br i1 %cmp, label %while.body, label %while.end

while.body:                                       ; preds = %while.cond
  %_M_impl = getelementptr inbounds %"class.std::_Rb_tree", %"class.std::_Rb_tree"* %this1, i32 0, i32 0
  %1 = bitcast %"struct.std::_Rb_tree<std::__cxx11::basic_string<char>, std::pair<const std::__cxx11::basic_string<char>, std::vector<int, std::allocator<int> > >, std::_Select1st<std::pair<const std::__cxx11::basic_string<char>, std::vector<int, std::allocator<int> > > >, std::less<std::__cxx11::basic_string<char> >, std::allocator<std::pair<const std::__cxx11::basic_string<char>, std::vector<int, std::allocator<int> > > > >::_Rb_tree_impl"* %_M_impl to %"struct.std::_Rb_tree_key_compare"*
  %_M_key_compare = getelementptr inbounds %"struct.std::_Rb_tree_key_compare", %"struct.std::_Rb_tree_key_compare"* %1, i32 0, i32 0
  %2 = load %"struct.std::_Rb_tree_node"*, %"struct.std::_Rb_tree_node"** %__x.addr, align 8
  %call = call dereferenceable(32) %"class.std::__cxx11::basic_string"* @_ZNSt8_Rb_treeINSt7__cxx1112basic_stringIcSt11char_traitsIcESaIcEEESt4pairIKS5_St6vectorIiSaIiEEESt10_Select1stISB_ESt4lessIS5_ESaISB_EE6_S_keyEPKSt13_Rb_tree_nodeISB_E(%"struct.std::_Rb_tree_node"* %2)
  %3 = load %"class.std::__cxx11::basic_string"*, %"class.std::__cxx11::basic_string"** %__k.addr, align 8
  %call2 = call zeroext i1 @_ZNKSt4lessINSt7__cxx1112basic_stringIcSt11char_traitsIcESaIcEEEEclERKS5_S8_(%"struct.std::less"* %_M_key_compare, %"class.std::__cxx11::basic_string"* dereferenceable(32) %call, %"class.std::__cxx11::basic_string"* dereferenceable(32) %3)
  br i1 %call2, label %if.else, label %if.then

if.then:                                          ; preds = %while.body
  %4 = load %"struct.std::_Rb_tree_node"*, %"struct.std::_Rb_tree_node"** %__x.addr, align 8
  %5 = bitcast %"struct.std::_Rb_tree_node"* %4 to %"struct.std::_Rb_tree_node_base"*
  store %"struct.std::_Rb_tree_node_base"* %5, %"struct.std::_Rb_tree_node_base"** %__y.addr, align 8
  %6 = load %"struct.std::_Rb_tree_node"*, %"struct.std::_Rb_tree_node"** %__x.addr, align 8
  %7 = bitcast %"struct.std::_Rb_tree_node"* %6 to %"struct.std::_Rb_tree_node_base"*
  %call3 = call %"struct.std::_Rb_tree_node"* @_ZNSt8_Rb_treeINSt7__cxx1112basic_stringIcSt11char_traitsIcESaIcEEESt4pairIKS5_St6vectorIiSaIiEEESt10_Select1stISB_ESt4lessIS5_ESaISB_EE7_S_leftEPKSt18_Rb_tree_node_base(%"struct.std::_Rb_tree_node_base"* %7) #3
  store %"struct.std::_Rb_tree_node"* %call3, %"struct.std::_Rb_tree_node"** %__x.addr, align 8
  br label %if.end

if.else:                                          ; preds = %while.body
  %8 = load %"struct.std::_Rb_tree_node"*, %"struct.std::_Rb_tree_node"** %__x.addr, align 8
  %9 = bitcast %"struct.std::_Rb_tree_node"* %8 to %"struct.std::_Rb_tree_node_base"*
  %call4 = call %"struct.std::_Rb_tree_node"* @_ZNSt8_Rb_treeINSt7__cxx1112basic_stringIcSt11char_traitsIcESaIcEEESt4pairIKS5_St6vectorIiSaIiEEESt10_Select1stISB_ESt4lessIS5_ESaISB_EE8_S_rightEPKSt18_Rb_tree_node_base(%"struct.std::_Rb_tree_node_base"* %9) #3
  store %"struct.std::_Rb_tree_node"* %call4, %"struct.std::_Rb_tree_node"** %__x.addr, align 8
  br label %if.end

if.end:                                           ; preds = %if.else, %if.then
  br label %while.cond

while.end:                                        ; preds = %while.cond
  %10 = load %"struct.std::_Rb_tree_node_base"*, %"struct.std::_Rb_tree_node_base"** %__y.addr, align 8
  call void @_ZNSt23_Rb_tree_const_iteratorISt4pairIKNSt7__cxx1112basic_stringIcSt11char_traitsIcESaIcEEESt6vectorIiSaIiEEEEC2EPKSt18_Rb_tree_node_base(%"struct.std::_Rb_tree_const_iterator"* %retval, %"struct.std::_Rb_tree_node_base"* %10) #3
  %coerce.dive = getelementptr inbounds %"struct.std::_Rb_tree_const_iterator", %"struct.std::_Rb_tree_const_iterator"* %retval, i32 0, i32 0
  %11 = load %"struct.std::_Rb_tree_node_base"*, %"struct.std::_Rb_tree_node_base"** %coerce.dive, align 8
  ret %"struct.std::_Rb_tree_node_base"* %11
}

; Function Attrs: noinline nounwind optnone uwtable
define linkonce_odr dso_local %"struct.std::_Rb_tree_node"* @_ZNKSt8_Rb_treeINSt7__cxx1112basic_stringIcSt11char_traitsIcESaIcEEESt4pairIKS5_St6vectorIiSaIiEEESt10_Select1stISB_ESt4lessIS5_ESaISB_EE8_M_beginEv(%"class.std::_Rb_tree"* %this) #5 comdat align 2 {
entry:
  %this.addr = alloca %"class.std::_Rb_tree"*, align 8
  store %"class.std::_Rb_tree"* %this, %"class.std::_Rb_tree"** %this.addr, align 8
  %this1 = load %"class.std::_Rb_tree"*, %"class.std::_Rb_tree"** %this.addr, align 8
  %_M_impl = getelementptr inbounds %"class.std::_Rb_tree", %"class.std::_Rb_tree"* %this1, i32 0, i32 0
  %0 = bitcast %"struct.std::_Rb_tree<std::__cxx11::basic_string<char>, std::pair<const std::__cxx11::basic_string<char>, std::vector<int, std::allocator<int> > >, std::_Select1st<std::pair<const std::__cxx11::basic_string<char>, std::vector<int, std::allocator<int> > > >, std::less<std::__cxx11::basic_string<char> >, std::allocator<std::pair<const std::__cxx11::basic_string<char>, std::vector<int, std::allocator<int> > > > >::_Rb_tree_impl"* %_M_impl to i8*
  %add.ptr = getelementptr inbounds i8, i8* %0, i64 8
  %1 = bitcast i8* %add.ptr to %"struct.std::_Rb_tree_header"*
  %_M_header = getelementptr inbounds %"struct.std::_Rb_tree_header", %"struct.std::_Rb_tree_header"* %1, i32 0, i32 0
  %_M_parent = getelementptr inbounds %"struct.std::_Rb_tree_node_base", %"struct.std::_Rb_tree_node_base"* %_M_header, i32 0, i32 1
  %2 = load %"struct.std::_Rb_tree_node_base"*, %"struct.std::_Rb_tree_node_base"** %_M_parent, align 8
  %3 = bitcast %"struct.std::_Rb_tree_node_base"* %2 to %"struct.std::_Rb_tree_node"*
  ret %"struct.std::_Rb_tree_node"* %3
}

; Function Attrs: noinline nounwind optnone uwtable
define linkonce_odr dso_local %"struct.std::_Rb_tree_node_base"* @_ZNKSt8_Rb_treeINSt7__cxx1112basic_stringIcSt11char_traitsIcESaIcEEESt4pairIKS5_St6vectorIiSaIiEEESt10_Select1stISB_ESt4lessIS5_ESaISB_EE6_M_endEv(%"class.std::_Rb_tree"* %this) #5 comdat align 2 {
entry:
  %this.addr = alloca %"class.std::_Rb_tree"*, align 8
  store %"class.std::_Rb_tree"* %this, %"class.std::_Rb_tree"** %this.addr, align 8
  %this1 = load %"class.std::_Rb_tree"*, %"class.std::_Rb_tree"** %this.addr, align 8
  %_M_impl = getelementptr inbounds %"class.std::_Rb_tree", %"class.std::_Rb_tree"* %this1, i32 0, i32 0
  %0 = bitcast %"struct.std::_Rb_tree<std::__cxx11::basic_string<char>, std::pair<const std::__cxx11::basic_string<char>, std::vector<int, std::allocator<int> > >, std::_Select1st<std::pair<const std::__cxx11::basic_string<char>, std::vector<int, std::allocator<int> > > >, std::less<std::__cxx11::basic_string<char> >, std::allocator<std::pair<const std::__cxx11::basic_string<char>, std::vector<int, std::allocator<int> > > > >::_Rb_tree_impl"* %_M_impl to i8*
  %add.ptr = getelementptr inbounds i8, i8* %0, i64 8
  %1 = bitcast i8* %add.ptr to %"struct.std::_Rb_tree_header"*
  %_M_header = getelementptr inbounds %"struct.std::_Rb_tree_header", %"struct.std::_Rb_tree_header"* %1, i32 0, i32 0
  ret %"struct.std::_Rb_tree_node_base"* %_M_header
}

; Function Attrs: noinline nounwind optnone uwtable
define linkonce_odr dso_local zeroext i1 @_ZNKSt4lessINSt7__cxx1112basic_stringIcSt11char_traitsIcESaIcEEEEclERKS5_S8_(%"struct.std::less"* %this, %"class.std::__cxx11::basic_string"* dereferenceable(32) %__x, %"class.std::__cxx11::basic_string"* dereferenceable(32) %__y) #5 comdat align 2 {
entry:
  %this.addr = alloca %"struct.std::less"*, align 8
  %__x.addr = alloca %"class.std::__cxx11::basic_string"*, align 8
  %__y.addr = alloca %"class.std::__cxx11::basic_string"*, align 8
  store %"struct.std::less"* %this, %"struct.std::less"** %this.addr, align 8
  store %"class.std::__cxx11::basic_string"* %__x, %"class.std::__cxx11::basic_string"** %__x.addr, align 8
  store %"class.std::__cxx11::basic_string"* %__y, %"class.std::__cxx11::basic_string"** %__y.addr, align 8
  %this1 = load %"struct.std::less"*, %"struct.std::less"** %this.addr, align 8
  %0 = load %"class.std::__cxx11::basic_string"*, %"class.std::__cxx11::basic_string"** %__x.addr, align 8
  %1 = load %"class.std::__cxx11::basic_string"*, %"class.std::__cxx11::basic_string"** %__y.addr, align 8
  %call = call zeroext i1 @_ZStltIcSt11char_traitsIcESaIcEEbRKNSt7__cxx1112basic_stringIT_T0_T1_EESA_(%"class.std::__cxx11::basic_string"* dereferenceable(32) %0, %"class.std::__cxx11::basic_string"* dereferenceable(32) %1) #3
  ret i1 %call
}

; Function Attrs: noinline optnone uwtable
define linkonce_odr dso_local dereferenceable(32) %"class.std::__cxx11::basic_string"* @_ZNSt8_Rb_treeINSt7__cxx1112basic_stringIcSt11char_traitsIcESaIcEEESt4pairIKS5_St6vectorIiSaIiEEESt10_Select1stISB_ESt4lessIS5_ESaISB_EE6_S_keyEPKSt18_Rb_tree_node_base(%"struct.std::_Rb_tree_node_base"* %__x) #4 comdat align 2 {
entry:
  %__x.addr = alloca %"struct.std::_Rb_tree_node_base"*, align 8
  store %"struct.std::_Rb_tree_node_base"* %__x, %"struct.std::_Rb_tree_node_base"** %__x.addr, align 8
  %0 = load %"struct.std::_Rb_tree_node_base"*, %"struct.std::_Rb_tree_node_base"** %__x.addr, align 8
  %1 = bitcast %"struct.std::_Rb_tree_node_base"* %0 to %"struct.std::_Rb_tree_node"*
  %call = call dereferenceable(32) %"class.std::__cxx11::basic_string"* @_ZNSt8_Rb_treeINSt7__cxx1112basic_stringIcSt11char_traitsIcESaIcEEESt4pairIKS5_St6vectorIiSaIiEEESt10_Select1stISB_ESt4lessIS5_ESaISB_EE6_S_keyEPKSt13_Rb_tree_nodeISB_E(%"struct.std::_Rb_tree_node"* %1)
  ret %"class.std::__cxx11::basic_string"* %call
}

; Function Attrs: argmemonly nounwind willreturn
declare void @llvm.memcpy.p0i8.p0i8.i64(i8* noalias nocapture writeonly, i8* noalias nocapture readonly, i64, i1 immarg) #11

; Function Attrs: noinline optnone uwtable
define linkonce_odr dso_local dereferenceable(32) %"class.std::__cxx11::basic_string"* @_ZNSt8_Rb_treeINSt7__cxx1112basic_stringIcSt11char_traitsIcESaIcEEESt4pairIKS5_St6vectorIiSaIiEEESt10_Select1stISB_ESt4lessIS5_ESaISB_EE6_S_keyEPKSt13_Rb_tree_nodeISB_E(%"struct.std::_Rb_tree_node"* %__x) #4 comdat align 2 {
entry:
  %__x.addr = alloca %"struct.std::_Rb_tree_node"*, align 8
  %ref.tmp = alloca %"struct.std::_Select1st", align 1
  store %"struct.std::_Rb_tree_node"* %__x, %"struct.std::_Rb_tree_node"** %__x.addr, align 8
  %0 = load %"struct.std::_Rb_tree_node"*, %"struct.std::_Rb_tree_node"** %__x.addr, align 8
  %call = call %"struct.std::pair"* @_ZNKSt13_Rb_tree_nodeISt4pairIKNSt7__cxx1112basic_stringIcSt11char_traitsIcESaIcEEESt6vectorIiSaIiEEEE9_M_valptrEv(%"struct.std::_Rb_tree_node"* %0)
  %call1 = call dereferenceable(32) %"class.std::__cxx11::basic_string"* @_ZNKSt10_Select1stISt4pairIKNSt7__cxx1112basic_stringIcSt11char_traitsIcESaIcEEESt6vectorIiSaIiEEEEclERKSB_(%"struct.std::_Select1st"* %ref.tmp, %"struct.std::pair"* dereferenceable(56) %call)
  ret %"class.std::__cxx11::basic_string"* %call1
}

; Function Attrs: noinline nounwind optnone uwtable
define linkonce_odr dso_local %"struct.std::_Rb_tree_node"* @_ZNSt8_Rb_treeINSt7__cxx1112basic_stringIcSt11char_traitsIcESaIcEEESt4pairIKS5_St6vectorIiSaIiEEESt10_Select1stISB_ESt4lessIS5_ESaISB_EE7_S_leftEPKSt18_Rb_tree_node_base(%"struct.std::_Rb_tree_node_base"* %__x) #5 comdat align 2 {
entry:
  %__x.addr = alloca %"struct.std::_Rb_tree_node_base"*, align 8
  store %"struct.std::_Rb_tree_node_base"* %__x, %"struct.std::_Rb_tree_node_base"** %__x.addr, align 8
  %0 = load %"struct.std::_Rb_tree_node_base"*, %"struct.std::_Rb_tree_node_base"** %__x.addr, align 8
  %_M_left = getelementptr inbounds %"struct.std::_Rb_tree_node_base", %"struct.std::_Rb_tree_node_base"* %0, i32 0, i32 2
  %1 = load %"struct.std::_Rb_tree_node_base"*, %"struct.std::_Rb_tree_node_base"** %_M_left, align 8
  %2 = bitcast %"struct.std::_Rb_tree_node_base"* %1 to %"struct.std::_Rb_tree_node"*
  ret %"struct.std::_Rb_tree_node"* %2
}

; Function Attrs: noinline nounwind optnone uwtable
define linkonce_odr dso_local %"struct.std::_Rb_tree_node"* @_ZNSt8_Rb_treeINSt7__cxx1112basic_stringIcSt11char_traitsIcESaIcEEESt4pairIKS5_St6vectorIiSaIiEEESt10_Select1stISB_ESt4lessIS5_ESaISB_EE8_S_rightEPKSt18_Rb_tree_node_base(%"struct.std::_Rb_tree_node_base"* %__x) #5 comdat align 2 {
entry:
  %__x.addr = alloca %"struct.std::_Rb_tree_node_base"*, align 8
  store %"struct.std::_Rb_tree_node_base"* %__x, %"struct.std::_Rb_tree_node_base"** %__x.addr, align 8
  %0 = load %"struct.std::_Rb_tree_node_base"*, %"struct.std::_Rb_tree_node_base"** %__x.addr, align 8
  %_M_right = getelementptr inbounds %"struct.std::_Rb_tree_node_base", %"struct.std::_Rb_tree_node_base"* %0, i32 0, i32 3
  %1 = load %"struct.std::_Rb_tree_node_base"*, %"struct.std::_Rb_tree_node_base"** %_M_right, align 8
  %2 = bitcast %"struct.std::_Rb_tree_node_base"* %1 to %"struct.std::_Rb_tree_node"*
  ret %"struct.std::_Rb_tree_node"* %2
}

; Function Attrs: noinline nounwind optnone uwtable
define linkonce_odr dso_local void @_ZNSt23_Rb_tree_const_iteratorISt4pairIKNSt7__cxx1112basic_stringIcSt11char_traitsIcESaIcEEESt6vectorIiSaIiEEEEC2EPKSt18_Rb_tree_node_base(%"struct.std::_Rb_tree_const_iterator"* %this, %"struct.std::_Rb_tree_node_base"* %__x) unnamed_addr #5 comdat align 2 {
entry:
  %this.addr = alloca %"struct.std::_Rb_tree_const_iterator"*, align 8
  %__x.addr = alloca %"struct.std::_Rb_tree_node_base"*, align 8
  store %"struct.std::_Rb_tree_const_iterator"* %this, %"struct.std::_Rb_tree_const_iterator"** %this.addr, align 8
  store %"struct.std::_Rb_tree_node_base"* %__x, %"struct.std::_Rb_tree_node_base"** %__x.addr, align 8
  %this1 = load %"struct.std::_Rb_tree_const_iterator"*, %"struct.std::_Rb_tree_const_iterator"** %this.addr, align 8
  %_M_node = getelementptr inbounds %"struct.std::_Rb_tree_const_iterator", %"struct.std::_Rb_tree_const_iterator"* %this1, i32 0, i32 0
  %0 = load %"struct.std::_Rb_tree_node_base"*, %"struct.std::_Rb_tree_node_base"** %__x.addr, align 8
  store %"struct.std::_Rb_tree_node_base"* %0, %"struct.std::_Rb_tree_node_base"** %_M_node, align 8
  ret void
}

; Function Attrs: noinline nounwind optnone uwtable
define linkonce_odr dso_local dereferenceable(32) %"class.std::__cxx11::basic_string"* @_ZNKSt10_Select1stISt4pairIKNSt7__cxx1112basic_stringIcSt11char_traitsIcESaIcEEESt6vectorIiSaIiEEEEclERKSB_(%"struct.std::_Select1st"* %this, %"struct.std::pair"* dereferenceable(56) %__x) #5 comdat align 2 {
entry:
  %this.addr = alloca %"struct.std::_Select1st"*, align 8
  %__x.addr = alloca %"struct.std::pair"*, align 8
  store %"struct.std::_Select1st"* %this, %"struct.std::_Select1st"** %this.addr, align 8
  store %"struct.std::pair"* %__x, %"struct.std::pair"** %__x.addr, align 8
  %this1 = load %"struct.std::_Select1st"*, %"struct.std::_Select1st"** %this.addr, align 8
  %0 = load %"struct.std::pair"*, %"struct.std::pair"** %__x.addr, align 8
  %first = getelementptr inbounds %"struct.std::pair", %"struct.std::pair"* %0, i32 0, i32 0
  ret %"class.std::__cxx11::basic_string"* %first
}

; Function Attrs: noinline nounwind optnone uwtable
define linkonce_odr dso_local %"struct.std::pair"* @_ZNKSt13_Rb_tree_nodeISt4pairIKNSt7__cxx1112basic_stringIcSt11char_traitsIcESaIcEEESt6vectorIiSaIiEEEE9_M_valptrEv(%"struct.std::_Rb_tree_node"* %this) #5 comdat align 2 {
entry:
  %this.addr = alloca %"struct.std::_Rb_tree_node"*, align 8
  store %"struct.std::_Rb_tree_node"* %this, %"struct.std::_Rb_tree_node"** %this.addr, align 8
  %this1 = load %"struct.std::_Rb_tree_node"*, %"struct.std::_Rb_tree_node"** %this.addr, align 8
  %_M_storage = getelementptr inbounds %"struct.std::_Rb_tree_node", %"struct.std::_Rb_tree_node"* %this1, i32 0, i32 1
  %call = call %"struct.std::pair"* @_ZNK9__gnu_cxx16__aligned_membufISt4pairIKNSt7__cxx1112basic_stringIcSt11char_traitsIcESaIcEEESt6vectorIiSaIiEEEE6_M_ptrEv(%"struct.__gnu_cxx::__aligned_membuf"* %_M_storage) #3
  ret %"struct.std::pair"* %call
}

; Function Attrs: noinline nounwind optnone uwtable
define linkonce_odr dso_local %"struct.std::pair"* @_ZNK9__gnu_cxx16__aligned_membufISt4pairIKNSt7__cxx1112basic_stringIcSt11char_traitsIcESaIcEEESt6vectorIiSaIiEEEE6_M_ptrEv(%"struct.__gnu_cxx::__aligned_membuf"* %this) #5 comdat align 2 {
entry:
  %this.addr = alloca %"struct.__gnu_cxx::__aligned_membuf"*, align 8
  store %"struct.__gnu_cxx::__aligned_membuf"* %this, %"struct.__gnu_cxx::__aligned_membuf"** %this.addr, align 8
  %this1 = load %"struct.__gnu_cxx::__aligned_membuf"*, %"struct.__gnu_cxx::__aligned_membuf"** %this.addr, align 8
  %call = call i8* @_ZNK9__gnu_cxx16__aligned_membufISt4pairIKNSt7__cxx1112basic_stringIcSt11char_traitsIcESaIcEEESt6vectorIiSaIiEEEE7_M_addrEv(%"struct.__gnu_cxx::__aligned_membuf"* %this1) #3
  %0 = bitcast i8* %call to %"struct.std::pair"*
  ret %"struct.std::pair"* %0
}

; Function Attrs: noinline nounwind optnone uwtable
define linkonce_odr dso_local i8* @_ZNK9__gnu_cxx16__aligned_membufISt4pairIKNSt7__cxx1112basic_stringIcSt11char_traitsIcESaIcEEESt6vectorIiSaIiEEEE7_M_addrEv(%"struct.__gnu_cxx::__aligned_membuf"* %this) #5 comdat align 2 {
entry:
  %this.addr = alloca %"struct.__gnu_cxx::__aligned_membuf"*, align 8
  store %"struct.__gnu_cxx::__aligned_membuf"* %this, %"struct.__gnu_cxx::__aligned_membuf"** %this.addr, align 8
  %this1 = load %"struct.__gnu_cxx::__aligned_membuf"*, %"struct.__gnu_cxx::__aligned_membuf"** %this.addr, align 8
  %_M_storage = getelementptr inbounds %"struct.__gnu_cxx::__aligned_membuf", %"struct.__gnu_cxx::__aligned_membuf"* %this1, i32 0, i32 0
  %0 = bitcast [56 x i8]* %_M_storage to i8*
  ret i8* %0
}

; Function Attrs: noinline nounwind optnone uwtable
define linkonce_odr dso_local zeroext i1 @_ZStltIcSt11char_traitsIcESaIcEEbRKNSt7__cxx1112basic_stringIT_T0_T1_EESA_(%"class.std::__cxx11::basic_string"* dereferenceable(32) %__lhs, %"class.std::__cxx11::basic_string"* dereferenceable(32) %__rhs) #5 comdat personality i8* bitcast (i32 (...)* @__gxx_personality_v0 to i8*) {
entry:
  %__lhs.addr = alloca %"class.std::__cxx11::basic_string"*, align 8
  %__rhs.addr = alloca %"class.std::__cxx11::basic_string"*, align 8
  store %"class.std::__cxx11::basic_string"* %__lhs, %"class.std::__cxx11::basic_string"** %__lhs.addr, align 8
  store %"class.std::__cxx11::basic_string"* %__rhs, %"class.std::__cxx11::basic_string"** %__rhs.addr, align 8
  %0 = load %"class.std::__cxx11::basic_string"*, %"class.std::__cxx11::basic_string"** %__lhs.addr, align 8
  %1 = load %"class.std::__cxx11::basic_string"*, %"class.std::__cxx11::basic_string"** %__rhs.addr, align 8
  %call = invoke i32 @_ZNKSt7__cxx1112basic_stringIcSt11char_traitsIcESaIcEE7compareERKS4_(%"class.std::__cxx11::basic_string"* %0, %"class.std::__cxx11::basic_string"* dereferenceable(32) %1)
          to label %invoke.cont unwind label %terminate.lpad

invoke.cont:                                      ; preds = %entry
  %cmp = icmp slt i32 %call, 0
  ret i1 %cmp

terminate.lpad:                                   ; preds = %entry
  %2 = landingpad { i8*, i32 }
          catch i8* null
  %3 = extractvalue { i8*, i32 } %2, 0
  call void @__clang_call_terminate(i8* %3) #15
  unreachable
}

declare dso_local i32 @_ZNKSt7__cxx1112basic_stringIcSt11char_traitsIcESaIcEE7compareERKS4_(%"class.std::__cxx11::basic_string"*, %"class.std::__cxx11::basic_string"* dereferenceable(32)) #1

; Function Attrs: noinline optnone uwtable
define linkonce_odr dso_local %"struct.std::_Rb_tree_node_base"* @_ZNSt3mapINSt7__cxx1112basic_stringIcSt11char_traitsIcESaIcEEESt6vectorIiSaIiEESt4lessIS5_ESaISt4pairIKS5_S8_EEE11lower_boundERSC_(%"class.std::map"* %this, %"class.std::__cxx11::basic_string"* dereferenceable(32) %__x) #4 comdat align 2 {
entry:
  %retval = alloca %"struct.std::_Rb_tree_iterator", align 8
  %this.addr = alloca %"class.std::map"*, align 8
  %__x.addr = alloca %"class.std::__cxx11::basic_string"*, align 8
  store %"class.std::map"* %this, %"class.std::map"** %this.addr, align 8
  store %"class.std::__cxx11::basic_string"* %__x, %"class.std::__cxx11::basic_string"** %__x.addr, align 8
  %this1 = load %"class.std::map"*, %"class.std::map"** %this.addr, align 8
  %_M_t = getelementptr inbounds %"class.std::map", %"class.std::map"* %this1, i32 0, i32 0
  %0 = load %"class.std::__cxx11::basic_string"*, %"class.std::__cxx11::basic_string"** %__x.addr, align 8
  %call = call %"struct.std::_Rb_tree_node_base"* @_ZNSt8_Rb_treeINSt7__cxx1112basic_stringIcSt11char_traitsIcESaIcEEESt4pairIKS5_St6vectorIiSaIiEEESt10_Select1stISB_ESt4lessIS5_ESaISB_EE11lower_boundERS7_(%"class.std::_Rb_tree"* %_M_t, %"class.std::__cxx11::basic_string"* dereferenceable(32) %0)
  %coerce.dive = getelementptr inbounds %"struct.std::_Rb_tree_iterator", %"struct.std::_Rb_tree_iterator"* %retval, i32 0, i32 0
  store %"struct.std::_Rb_tree_node_base"* %call, %"struct.std::_Rb_tree_node_base"** %coerce.dive, align 8
  %coerce.dive2 = getelementptr inbounds %"struct.std::_Rb_tree_iterator", %"struct.std::_Rb_tree_iterator"* %retval, i32 0, i32 0
  %1 = load %"struct.std::_Rb_tree_node_base"*, %"struct.std::_Rb_tree_node_base"** %coerce.dive2, align 8
  ret %"struct.std::_Rb_tree_node_base"* %1
}

; Function Attrs: noinline nounwind optnone uwtable
define linkonce_odr dso_local zeroext i1 @_ZSteqRKSt17_Rb_tree_iteratorISt4pairIKNSt7__cxx1112basic_stringIcSt11char_traitsIcESaIcEEESt6vectorIiSaIiEEEESE_(%"struct.std::_Rb_tree_iterator"* dereferenceable(8) %__x, %"struct.std::_Rb_tree_iterator"* dereferenceable(8) %__y) #5 comdat {
entry:
  %__x.addr = alloca %"struct.std::_Rb_tree_iterator"*, align 8
  %__y.addr = alloca %"struct.std::_Rb_tree_iterator"*, align 8
  store %"struct.std::_Rb_tree_iterator"* %__x, %"struct.std::_Rb_tree_iterator"** %__x.addr, align 8
  store %"struct.std::_Rb_tree_iterator"* %__y, %"struct.std::_Rb_tree_iterator"** %__y.addr, align 8
  %0 = load %"struct.std::_Rb_tree_iterator"*, %"struct.std::_Rb_tree_iterator"** %__x.addr, align 8
  %_M_node = getelementptr inbounds %"struct.std::_Rb_tree_iterator", %"struct.std::_Rb_tree_iterator"* %0, i32 0, i32 0
  %1 = load %"struct.std::_Rb_tree_node_base"*, %"struct.std::_Rb_tree_node_base"** %_M_node, align 8
  %2 = load %"struct.std::_Rb_tree_iterator"*, %"struct.std::_Rb_tree_iterator"** %__y.addr, align 8
  %_M_node1 = getelementptr inbounds %"struct.std::_Rb_tree_iterator", %"struct.std::_Rb_tree_iterator"* %2, i32 0, i32 0
  %3 = load %"struct.std::_Rb_tree_node_base"*, %"struct.std::_Rb_tree_node_base"** %_M_node1, align 8
  %cmp = icmp eq %"struct.std::_Rb_tree_node_base"* %1, %3
  ret i1 %cmp
}

; Function Attrs: noinline nounwind optnone uwtable
define linkonce_odr dso_local %"struct.std::_Rb_tree_node_base"* @_ZNSt3mapINSt7__cxx1112basic_stringIcSt11char_traitsIcESaIcEEESt6vectorIiSaIiEESt4lessIS5_ESaISt4pairIKS5_S8_EEE3endEv(%"class.std::map"* %this) #5 comdat align 2 {
entry:
  %retval = alloca %"struct.std::_Rb_tree_iterator", align 8
  %this.addr = alloca %"class.std::map"*, align 8
  store %"class.std::map"* %this, %"class.std::map"** %this.addr, align 8
  %this1 = load %"class.std::map"*, %"class.std::map"** %this.addr, align 8
  %_M_t = getelementptr inbounds %"class.std::map", %"class.std::map"* %this1, i32 0, i32 0
  %call = call %"struct.std::_Rb_tree_node_base"* @_ZNSt8_Rb_treeINSt7__cxx1112basic_stringIcSt11char_traitsIcESaIcEEESt4pairIKS5_St6vectorIiSaIiEEESt10_Select1stISB_ESt4lessIS5_ESaISB_EE3endEv(%"class.std::_Rb_tree"* %_M_t) #3
  %coerce.dive = getelementptr inbounds %"struct.std::_Rb_tree_iterator", %"struct.std::_Rb_tree_iterator"* %retval, i32 0, i32 0
  store %"struct.std::_Rb_tree_node_base"* %call, %"struct.std::_Rb_tree_node_base"** %coerce.dive, align 8
  %coerce.dive2 = getelementptr inbounds %"struct.std::_Rb_tree_iterator", %"struct.std::_Rb_tree_iterator"* %retval, i32 0, i32 0
  %0 = load %"struct.std::_Rb_tree_node_base"*, %"struct.std::_Rb_tree_node_base"** %coerce.dive2, align 8
  ret %"struct.std::_Rb_tree_node_base"* %0
}

; Function Attrs: noinline optnone uwtable
define linkonce_odr dso_local void @_ZNKSt3mapINSt7__cxx1112basic_stringIcSt11char_traitsIcESaIcEEESt6vectorIiSaIiEESt4lessIS5_ESaISt4pairIKS5_S8_EEE8key_compEv(%"class.std::map"* %this) #4 comdat align 2 {
entry:
  %this.addr = alloca %"class.std::map"*, align 8
  %undef.agg.tmp = alloca %"struct.std::less", align 1
  store %"class.std::map"* %this, %"class.std::map"** %this.addr, align 8
  %this1 = load %"class.std::map"*, %"class.std::map"** %this.addr, align 8
  %_M_t = getelementptr inbounds %"class.std::map", %"class.std::map"* %this1, i32 0, i32 0
  call void @_ZNKSt8_Rb_treeINSt7__cxx1112basic_stringIcSt11char_traitsIcESaIcEEESt4pairIKS5_St6vectorIiSaIiEEESt10_Select1stISB_ESt4lessIS5_ESaISB_EE8key_compEv(%"class.std::_Rb_tree"* %_M_t)
  ret void
}

; Function Attrs: noinline nounwind optnone uwtable
define linkonce_odr dso_local dereferenceable(56) %"struct.std::pair"* @_ZNKSt17_Rb_tree_iteratorISt4pairIKNSt7__cxx1112basic_stringIcSt11char_traitsIcESaIcEEESt6vectorIiSaIiEEEEdeEv(%"struct.std::_Rb_tree_iterator"* %this) #5 comdat align 2 personality i8* bitcast (i32 (...)* @__gxx_personality_v0 to i8*) {
entry:
  %this.addr = alloca %"struct.std::_Rb_tree_iterator"*, align 8
  store %"struct.std::_Rb_tree_iterator"* %this, %"struct.std::_Rb_tree_iterator"** %this.addr, align 8
  %this1 = load %"struct.std::_Rb_tree_iterator"*, %"struct.std::_Rb_tree_iterator"** %this.addr, align 8
  %_M_node = getelementptr inbounds %"struct.std::_Rb_tree_iterator", %"struct.std::_Rb_tree_iterator"* %this1, i32 0, i32 0
  %0 = load %"struct.std::_Rb_tree_node_base"*, %"struct.std::_Rb_tree_node_base"** %_M_node, align 8
  %1 = bitcast %"struct.std::_Rb_tree_node_base"* %0 to %"struct.std::_Rb_tree_node"*
  %call = invoke %"struct.std::pair"* @_ZNSt13_Rb_tree_nodeISt4pairIKNSt7__cxx1112basic_stringIcSt11char_traitsIcESaIcEEESt6vectorIiSaIiEEEE9_M_valptrEv(%"struct.std::_Rb_tree_node"* %1)
          to label %invoke.cont unwind label %terminate.lpad

invoke.cont:                                      ; preds = %entry
  ret %"struct.std::pair"* %call

terminate.lpad:                                   ; preds = %entry
  %2 = landingpad { i8*, i32 }
          catch i8* null
  %3 = extractvalue { i8*, i32 } %2, 0
  call void @__clang_call_terminate(i8* %3) #15
  unreachable
}

; Function Attrs: noinline optnone uwtable
define linkonce_odr dso_local %"struct.std::_Rb_tree_node_base"* @_ZNSt8_Rb_treeINSt7__cxx1112basic_stringIcSt11char_traitsIcESaIcEEESt4pairIKS5_St6vectorIiSaIiEEESt10_Select1stISB_ESt4lessIS5_ESaISB_EE22_M_emplace_hint_uniqueIJRKSt21piecewise_construct_tSt5tupleIJRS7_EESM_IJEEEEESt17_Rb_tree_iteratorISB_ESt23_Rb_tree_const_iteratorISB_EDpOT_(%"class.std::_Rb_tree"* %this, %"struct.std::_Rb_tree_node_base"* %__pos.coerce, %"struct.std::piecewise_construct_t"* dereferenceable(1) %__args, %"class.std::tuple"* dereferenceable(8) %__args1, %"class.std::tuple.6"* dereferenceable(1) %__args3) #4 comdat align 2 personality i8* bitcast (i32 (...)* @__gxx_personality_v0 to i8*) {
entry:
  %retval = alloca %"struct.std::_Rb_tree_iterator", align 8
  %__pos = alloca %"struct.std::_Rb_tree_const_iterator", align 8
  %this.addr = alloca %"class.std::_Rb_tree"*, align 8
  %__args.addr = alloca %"struct.std::piecewise_construct_t"*, align 8
  %__args.addr2 = alloca %"class.std::tuple"*, align 8
  %__args.addr4 = alloca %"class.std::tuple.6"*, align 8
  %__z = alloca %"struct.std::_Rb_tree_node"*, align 8
  %__res = alloca %"struct.std::pair.7", align 8
  %agg.tmp = alloca %"struct.std::_Rb_tree_const_iterator", align 8
  %exn.slot = alloca i8*
  %ehselector.slot = alloca i32
  %coerce.dive = getelementptr inbounds %"struct.std::_Rb_tree_const_iterator", %"struct.std::_Rb_tree_const_iterator"* %__pos, i32 0, i32 0
  store %"struct.std::_Rb_tree_node_base"* %__pos.coerce, %"struct.std::_Rb_tree_node_base"** %coerce.dive, align 8
  store %"class.std::_Rb_tree"* %this, %"class.std::_Rb_tree"** %this.addr, align 8
  store %"struct.std::piecewise_construct_t"* %__args, %"struct.std::piecewise_construct_t"** %__args.addr, align 8
  store %"class.std::tuple"* %__args1, %"class.std::tuple"** %__args.addr2, align 8
  store %"class.std::tuple.6"* %__args3, %"class.std::tuple.6"** %__args.addr4, align 8
  %this5 = load %"class.std::_Rb_tree"*, %"class.std::_Rb_tree"** %this.addr, align 8
  %0 = load %"struct.std::piecewise_construct_t"*, %"struct.std::piecewise_construct_t"** %__args.addr, align 8
  %call = call dereferenceable(1) %"struct.std::piecewise_construct_t"* @_ZSt7forwardIRKSt21piecewise_construct_tEOT_RNSt16remove_referenceIS3_E4typeE(%"struct.std::piecewise_construct_t"* dereferenceable(1) %0) #3
  %1 = load %"class.std::tuple"*, %"class.std::tuple"** %__args.addr2, align 8
  %call6 = call dereferenceable(8) %"class.std::tuple"* @_ZSt7forwardISt5tupleIJRKNSt7__cxx1112basic_stringIcSt11char_traitsIcESaIcEEEEEEOT_RNSt16remove_referenceISA_E4typeE(%"class.std::tuple"* dereferenceable(8) %1) #3
  %2 = load %"class.std::tuple.6"*, %"class.std::tuple.6"** %__args.addr4, align 8
  %call7 = call dereferenceable(1) %"class.std::tuple.6"* @_ZSt7forwardISt5tupleIJEEEOT_RNSt16remove_referenceIS2_E4typeE(%"class.std::tuple.6"* dereferenceable(1) %2) #3
  %call8 = call %"struct.std::_Rb_tree_node"* @_ZNSt8_Rb_treeINSt7__cxx1112basic_stringIcSt11char_traitsIcESaIcEEESt4pairIKS5_St6vectorIiSaIiEEESt10_Select1stISB_ESt4lessIS5_ESaISB_EE14_M_create_nodeIJRKSt21piecewise_construct_tSt5tupleIJRS7_EESM_IJEEEEEPSt13_Rb_tree_nodeISB_EDpOT_(%"class.std::_Rb_tree"* %this5, %"struct.std::piecewise_construct_t"* dereferenceable(1) %call, %"class.std::tuple"* dereferenceable(8) %call6, %"class.std::tuple.6"* dereferenceable(1) %call7)
  store %"struct.std::_Rb_tree_node"* %call8, %"struct.std::_Rb_tree_node"** %__z, align 8
  %3 = bitcast %"struct.std::_Rb_tree_const_iterator"* %agg.tmp to i8*
  %4 = bitcast %"struct.std::_Rb_tree_const_iterator"* %__pos to i8*
  call void @llvm.memcpy.p0i8.p0i8.i64(i8* align 8 %3, i8* align 8 %4, i64 8, i1 false)
  %5 = load %"struct.std::_Rb_tree_node"*, %"struct.std::_Rb_tree_node"** %__z, align 8
  %call9 = invoke dereferenceable(32) %"class.std::__cxx11::basic_string"* @_ZNSt8_Rb_treeINSt7__cxx1112basic_stringIcSt11char_traitsIcESaIcEEESt4pairIKS5_St6vectorIiSaIiEEESt10_Select1stISB_ESt4lessIS5_ESaISB_EE6_S_keyEPKSt13_Rb_tree_nodeISB_E(%"struct.std::_Rb_tree_node"* %5)
          to label %invoke.cont unwind label %lpad

invoke.cont:                                      ; preds = %entry
  %coerce.dive10 = getelementptr inbounds %"struct.std::_Rb_tree_const_iterator", %"struct.std::_Rb_tree_const_iterator"* %agg.tmp, i32 0, i32 0
  %6 = load %"struct.std::_Rb_tree_node_base"*, %"struct.std::_Rb_tree_node_base"** %coerce.dive10, align 8
  %call12 = invoke { %"struct.std::_Rb_tree_node_base"*, %"struct.std::_Rb_tree_node_base"* } @_ZNSt8_Rb_treeINSt7__cxx1112basic_stringIcSt11char_traitsIcESaIcEEESt4pairIKS5_St6vectorIiSaIiEEESt10_Select1stISB_ESt4lessIS5_ESaISB_EE29_M_get_insert_hint_unique_posESt23_Rb_tree_const_iteratorISB_ERS7_(%"class.std::_Rb_tree"* %this5, %"struct.std::_Rb_tree_node_base"* %6, %"class.std::__cxx11::basic_string"* dereferenceable(32) %call9)
          to label %invoke.cont11 unwind label %lpad

invoke.cont11:                                    ; preds = %invoke.cont
  %7 = bitcast %"struct.std::pair.7"* %__res to { %"struct.std::_Rb_tree_node_base"*, %"struct.std::_Rb_tree_node_base"* }*
  %8 = getelementptr inbounds { %"struct.std::_Rb_tree_node_base"*, %"struct.std::_Rb_tree_node_base"* }, { %"struct.std::_Rb_tree_node_base"*, %"struct.std::_Rb_tree_node_base"* }* %7, i32 0, i32 0
  %9 = extractvalue { %"struct.std::_Rb_tree_node_base"*, %"struct.std::_Rb_tree_node_base"* } %call12, 0
  store %"struct.std::_Rb_tree_node_base"* %9, %"struct.std::_Rb_tree_node_base"** %8, align 8
  %10 = getelementptr inbounds { %"struct.std::_Rb_tree_node_base"*, %"struct.std::_Rb_tree_node_base"* }, { %"struct.std::_Rb_tree_node_base"*, %"struct.std::_Rb_tree_node_base"* }* %7, i32 0, i32 1
  %11 = extractvalue { %"struct.std::_Rb_tree_node_base"*, %"struct.std::_Rb_tree_node_base"* } %call12, 1
  store %"struct.std::_Rb_tree_node_base"* %11, %"struct.std::_Rb_tree_node_base"** %10, align 8
  %second = getelementptr inbounds %"struct.std::pair.7", %"struct.std::pair.7"* %__res, i32 0, i32 1
  %12 = load %"struct.std::_Rb_tree_node_base"*, %"struct.std::_Rb_tree_node_base"** %second, align 8
  %tobool = icmp ne %"struct.std::_Rb_tree_node_base"* %12, null
  br i1 %tobool, label %if.then, label %if.end

if.then:                                          ; preds = %invoke.cont11
  %first = getelementptr inbounds %"struct.std::pair.7", %"struct.std::pair.7"* %__res, i32 0, i32 0
  %13 = load %"struct.std::_Rb_tree_node_base"*, %"struct.std::_Rb_tree_node_base"** %first, align 8
  %second13 = getelementptr inbounds %"struct.std::pair.7", %"struct.std::pair.7"* %__res, i32 0, i32 1
  %14 = load %"struct.std::_Rb_tree_node_base"*, %"struct.std::_Rb_tree_node_base"** %second13, align 8
  %15 = load %"struct.std::_Rb_tree_node"*, %"struct.std::_Rb_tree_node"** %__z, align 8
  %call15 = invoke %"struct.std::_Rb_tree_node_base"* @_ZNSt8_Rb_treeINSt7__cxx1112basic_stringIcSt11char_traitsIcESaIcEEESt4pairIKS5_St6vectorIiSaIiEEESt10_Select1stISB_ESt4lessIS5_ESaISB_EE14_M_insert_nodeEPSt18_Rb_tree_node_baseSJ_PSt13_Rb_tree_nodeISB_E(%"class.std::_Rb_tree"* %this5, %"struct.std::_Rb_tree_node_base"* %13, %"struct.std::_Rb_tree_node_base"* %14, %"struct.std::_Rb_tree_node"* %15)
          to label %invoke.cont14 unwind label %lpad

invoke.cont14:                                    ; preds = %if.then
  %coerce.dive16 = getelementptr inbounds %"struct.std::_Rb_tree_iterator", %"struct.std::_Rb_tree_iterator"* %retval, i32 0, i32 0
  store %"struct.std::_Rb_tree_node_base"* %call15, %"struct.std::_Rb_tree_node_base"** %coerce.dive16, align 8
  br label %return

lpad:                                             ; preds = %if.then, %invoke.cont, %entry
  %16 = landingpad { i8*, i32 }
          catch i8* null
  %17 = extractvalue { i8*, i32 } %16, 0
  store i8* %17, i8** %exn.slot, align 8
  %18 = extractvalue { i8*, i32 } %16, 1
  store i32 %18, i32* %ehselector.slot, align 4
  br label %catch

catch:                                            ; preds = %lpad
  %exn = load i8*, i8** %exn.slot, align 8
  %19 = call i8* @__cxa_begin_catch(i8* %exn) #3
  %20 = load %"struct.std::_Rb_tree_node"*, %"struct.std::_Rb_tree_node"** %__z, align 8
  call void @_ZNSt8_Rb_treeINSt7__cxx1112basic_stringIcSt11char_traitsIcESaIcEEESt4pairIKS5_St6vectorIiSaIiEEESt10_Select1stISB_ESt4lessIS5_ESaISB_EE12_M_drop_nodeEPSt13_Rb_tree_nodeISB_E(%"class.std::_Rb_tree"* %this5, %"struct.std::_Rb_tree_node"* %20) #3
  invoke void @__cxa_rethrow() #16
          to label %unreachable unwind label %lpad18

if.end:                                           ; preds = %invoke.cont11
  %21 = load %"struct.std::_Rb_tree_node"*, %"struct.std::_Rb_tree_node"** %__z, align 8
  call void @_ZNSt8_Rb_treeINSt7__cxx1112basic_stringIcSt11char_traitsIcESaIcEEESt4pairIKS5_St6vectorIiSaIiEEESt10_Select1stISB_ESt4lessIS5_ESaISB_EE12_M_drop_nodeEPSt13_Rb_tree_nodeISB_E(%"class.std::_Rb_tree"* %this5, %"struct.std::_Rb_tree_node"* %21) #3
  %first17 = getelementptr inbounds %"struct.std::pair.7", %"struct.std::pair.7"* %__res, i32 0, i32 0
  %22 = load %"struct.std::_Rb_tree_node_base"*, %"struct.std::_Rb_tree_node_base"** %first17, align 8
  call void @_ZNSt17_Rb_tree_iteratorISt4pairIKNSt7__cxx1112basic_stringIcSt11char_traitsIcESaIcEEESt6vectorIiSaIiEEEEC2EPSt18_Rb_tree_node_base(%"struct.std::_Rb_tree_iterator"* %retval, %"struct.std::_Rb_tree_node_base"* %22) #3
  br label %return

lpad18:                                           ; preds = %catch
  %23 = landingpad { i8*, i32 }
          cleanup
  %24 = extractvalue { i8*, i32 } %23, 0
  store i8* %24, i8** %exn.slot, align 8
  %25 = extractvalue { i8*, i32 } %23, 1
  store i32 %25, i32* %ehselector.slot, align 4
  invoke void @__cxa_end_catch()
          to label %invoke.cont19 unwind label %terminate.lpad

invoke.cont19:                                    ; preds = %lpad18
  br label %eh.resume

try.cont:                                         ; No predecessors!
  call void @llvm.trap()
  unreachable

return:                                           ; preds = %if.end, %invoke.cont14
  %coerce.dive20 = getelementptr inbounds %"struct.std::_Rb_tree_iterator", %"struct.std::_Rb_tree_iterator"* %retval, i32 0, i32 0
  %26 = load %"struct.std::_Rb_tree_node_base"*, %"struct.std::_Rb_tree_node_base"** %coerce.dive20, align 8
  ret %"struct.std::_Rb_tree_node_base"* %26

eh.resume:                                        ; preds = %invoke.cont19
  %exn21 = load i8*, i8** %exn.slot, align 8
  %sel = load i32, i32* %ehselector.slot, align 4
  %lpad.val = insertvalue { i8*, i32 } undef, i8* %exn21, 0
  %lpad.val22 = insertvalue { i8*, i32 } %lpad.val, i32 %sel, 1
  resume { i8*, i32 } %lpad.val22

terminate.lpad:                                   ; preds = %lpad18
  %27 = landingpad { i8*, i32 }
          catch i8* null
  %28 = extractvalue { i8*, i32 } %27, 0
  call void @__clang_call_terminate(i8* %28) #15
  unreachable

unreachable:                                      ; preds = %catch
  unreachable
}

; Function Attrs: noinline nounwind optnone uwtable
define linkonce_odr dso_local void @_ZNSt23_Rb_tree_const_iteratorISt4pairIKNSt7__cxx1112basic_stringIcSt11char_traitsIcESaIcEEESt6vectorIiSaIiEEEEC2ERKSt17_Rb_tree_iteratorISB_E(%"struct.std::_Rb_tree_const_iterator"* %this, %"struct.std::_Rb_tree_iterator"* dereferenceable(8) %__it) unnamed_addr #5 comdat align 2 {
entry:
  %this.addr = alloca %"struct.std::_Rb_tree_const_iterator"*, align 8
  %__it.addr = alloca %"struct.std::_Rb_tree_iterator"*, align 8
  store %"struct.std::_Rb_tree_const_iterator"* %this, %"struct.std::_Rb_tree_const_iterator"** %this.addr, align 8
  store %"struct.std::_Rb_tree_iterator"* %__it, %"struct.std::_Rb_tree_iterator"** %__it.addr, align 8
  %this1 = load %"struct.std::_Rb_tree_const_iterator"*, %"struct.std::_Rb_tree_const_iterator"** %this.addr, align 8
  %_M_node = getelementptr inbounds %"struct.std::_Rb_tree_const_iterator", %"struct.std::_Rb_tree_const_iterator"* %this1, i32 0, i32 0
  %0 = load %"struct.std::_Rb_tree_iterator"*, %"struct.std::_Rb_tree_iterator"** %__it.addr, align 8
  %_M_node2 = getelementptr inbounds %"struct.std::_Rb_tree_iterator", %"struct.std::_Rb_tree_iterator"* %0, i32 0, i32 0
  %1 = load %"struct.std::_Rb_tree_node_base"*, %"struct.std::_Rb_tree_node_base"** %_M_node2, align 8
  store %"struct.std::_Rb_tree_node_base"* %1, %"struct.std::_Rb_tree_node_base"** %_M_node, align 8
  ret void
}

; Function Attrs: noinline nounwind optnone uwtable
define linkonce_odr dso_local void @_ZNSt5tupleIJRKNSt7__cxx1112basic_stringIcSt11char_traitsIcESaIcEEEEEC2ILb1ELb1EEES7_(%"class.std::tuple"* %this, %"class.std::__cxx11::basic_string"* dereferenceable(32) %__elements) unnamed_addr #5 comdat align 2 personality i8* bitcast (i32 (...)* @__gxx_personality_v0 to i8*) {
entry:
  %this.addr = alloca %"class.std::tuple"*, align 8
  %__elements.addr = alloca %"class.std::__cxx11::basic_string"*, align 8
  store %"class.std::tuple"* %this, %"class.std::tuple"** %this.addr, align 8
  store %"class.std::__cxx11::basic_string"* %__elements, %"class.std::__cxx11::basic_string"** %__elements.addr, align 8
  %this1 = load %"class.std::tuple"*, %"class.std::tuple"** %this.addr, align 8
  %0 = bitcast %"class.std::tuple"* %this1 to %"struct.std::_Tuple_impl"*
  %1 = load %"class.std::__cxx11::basic_string"*, %"class.std::__cxx11::basic_string"** %__elements.addr, align 8
  invoke void @_ZNSt11_Tuple_implILm0EJRKNSt7__cxx1112basic_stringIcSt11char_traitsIcESaIcEEEEEC2ES7_(%"struct.std::_Tuple_impl"* %0, %"class.std::__cxx11::basic_string"* dereferenceable(32) %1)
          to label %invoke.cont unwind label %terminate.lpad

invoke.cont:                                      ; preds = %entry
  ret void

terminate.lpad:                                   ; preds = %entry
  %2 = landingpad { i8*, i32 }
          catch i8* null
  %3 = extractvalue { i8*, i32 } %2, 0
  call void @__clang_call_terminate(i8* %3) #15
  unreachable
}

; Function Attrs: noinline optnone uwtable
define linkonce_odr dso_local %"struct.std::_Rb_tree_node_base"* @_ZNSt8_Rb_treeINSt7__cxx1112basic_stringIcSt11char_traitsIcESaIcEEESt4pairIKS5_St6vectorIiSaIiEEESt10_Select1stISB_ESt4lessIS5_ESaISB_EE11lower_boundERS7_(%"class.std::_Rb_tree"* %this, %"class.std::__cxx11::basic_string"* dereferenceable(32) %__k) #4 comdat align 2 {
entry:
  %retval = alloca %"struct.std::_Rb_tree_iterator", align 8
  %this.addr = alloca %"class.std::_Rb_tree"*, align 8
  %__k.addr = alloca %"class.std::__cxx11::basic_string"*, align 8
  store %"class.std::_Rb_tree"* %this, %"class.std::_Rb_tree"** %this.addr, align 8
  store %"class.std::__cxx11::basic_string"* %__k, %"class.std::__cxx11::basic_string"** %__k.addr, align 8
  %this1 = load %"class.std::_Rb_tree"*, %"class.std::_Rb_tree"** %this.addr, align 8
  %call = call %"struct.std::_Rb_tree_node"* @_ZNSt8_Rb_treeINSt7__cxx1112basic_stringIcSt11char_traitsIcESaIcEEESt4pairIKS5_St6vectorIiSaIiEEESt10_Select1stISB_ESt4lessIS5_ESaISB_EE8_M_beginEv(%"class.std::_Rb_tree"* %this1) #3
  %call2 = call %"struct.std::_Rb_tree_node_base"* @_ZNSt8_Rb_treeINSt7__cxx1112basic_stringIcSt11char_traitsIcESaIcEEESt4pairIKS5_St6vectorIiSaIiEEESt10_Select1stISB_ESt4lessIS5_ESaISB_EE6_M_endEv(%"class.std::_Rb_tree"* %this1) #3
  %0 = load %"class.std::__cxx11::basic_string"*, %"class.std::__cxx11::basic_string"** %__k.addr, align 8
  %call3 = call %"struct.std::_Rb_tree_node_base"* @_ZNSt8_Rb_treeINSt7__cxx1112basic_stringIcSt11char_traitsIcESaIcEEESt4pairIKS5_St6vectorIiSaIiEEESt10_Select1stISB_ESt4lessIS5_ESaISB_EE14_M_lower_boundEPSt13_Rb_tree_nodeISB_EPSt18_Rb_tree_node_baseRS7_(%"class.std::_Rb_tree"* %this1, %"struct.std::_Rb_tree_node"* %call, %"struct.std::_Rb_tree_node_base"* %call2, %"class.std::__cxx11::basic_string"* dereferenceable(32) %0)
  %coerce.dive = getelementptr inbounds %"struct.std::_Rb_tree_iterator", %"struct.std::_Rb_tree_iterator"* %retval, i32 0, i32 0
  store %"struct.std::_Rb_tree_node_base"* %call3, %"struct.std::_Rb_tree_node_base"** %coerce.dive, align 8
  %coerce.dive4 = getelementptr inbounds %"struct.std::_Rb_tree_iterator", %"struct.std::_Rb_tree_iterator"* %retval, i32 0, i32 0
  %1 = load %"struct.std::_Rb_tree_node_base"*, %"struct.std::_Rb_tree_node_base"** %coerce.dive4, align 8
  ret %"struct.std::_Rb_tree_node_base"* %1
}

; Function Attrs: noinline optnone uwtable
define linkonce_odr dso_local %"struct.std::_Rb_tree_node_base"* @_ZNSt8_Rb_treeINSt7__cxx1112basic_stringIcSt11char_traitsIcESaIcEEESt4pairIKS5_St6vectorIiSaIiEEESt10_Select1stISB_ESt4lessIS5_ESaISB_EE14_M_lower_boundEPSt13_Rb_tree_nodeISB_EPSt18_Rb_tree_node_baseRS7_(%"class.std::_Rb_tree"* %this, %"struct.std::_Rb_tree_node"* %__x, %"struct.std::_Rb_tree_node_base"* %__y, %"class.std::__cxx11::basic_string"* dereferenceable(32) %__k) #4 comdat align 2 {
entry:
  %retval = alloca %"struct.std::_Rb_tree_iterator", align 8
  %this.addr = alloca %"class.std::_Rb_tree"*, align 8
  %__x.addr = alloca %"struct.std::_Rb_tree_node"*, align 8
  %__y.addr = alloca %"struct.std::_Rb_tree_node_base"*, align 8
  %__k.addr = alloca %"class.std::__cxx11::basic_string"*, align 8
  store %"class.std::_Rb_tree"* %this, %"class.std::_Rb_tree"** %this.addr, align 8
  store %"struct.std::_Rb_tree_node"* %__x, %"struct.std::_Rb_tree_node"** %__x.addr, align 8
  store %"struct.std::_Rb_tree_node_base"* %__y, %"struct.std::_Rb_tree_node_base"** %__y.addr, align 8
  store %"class.std::__cxx11::basic_string"* %__k, %"class.std::__cxx11::basic_string"** %__k.addr, align 8
  %this1 = load %"class.std::_Rb_tree"*, %"class.std::_Rb_tree"** %this.addr, align 8
  br label %while.cond

while.cond:                                       ; preds = %if.end, %entry
  %0 = load %"struct.std::_Rb_tree_node"*, %"struct.std::_Rb_tree_node"** %__x.addr, align 8
  %cmp = icmp ne %"struct.std::_Rb_tree_node"* %0, null
  br i1 %cmp, label %while.body, label %while.end

while.body:                                       ; preds = %while.cond
  %_M_impl = getelementptr inbounds %"class.std::_Rb_tree", %"class.std::_Rb_tree"* %this1, i32 0, i32 0
  %1 = bitcast %"struct.std::_Rb_tree<std::__cxx11::basic_string<char>, std::pair<const std::__cxx11::basic_string<char>, std::vector<int, std::allocator<int> > >, std::_Select1st<std::pair<const std::__cxx11::basic_string<char>, std::vector<int, std::allocator<int> > > >, std::less<std::__cxx11::basic_string<char> >, std::allocator<std::pair<const std::__cxx11::basic_string<char>, std::vector<int, std::allocator<int> > > > >::_Rb_tree_impl"* %_M_impl to %"struct.std::_Rb_tree_key_compare"*
  %_M_key_compare = getelementptr inbounds %"struct.std::_Rb_tree_key_compare", %"struct.std::_Rb_tree_key_compare"* %1, i32 0, i32 0
  %2 = load %"struct.std::_Rb_tree_node"*, %"struct.std::_Rb_tree_node"** %__x.addr, align 8
  %call = call dereferenceable(32) %"class.std::__cxx11::basic_string"* @_ZNSt8_Rb_treeINSt7__cxx1112basic_stringIcSt11char_traitsIcESaIcEEESt4pairIKS5_St6vectorIiSaIiEEESt10_Select1stISB_ESt4lessIS5_ESaISB_EE6_S_keyEPKSt13_Rb_tree_nodeISB_E(%"struct.std::_Rb_tree_node"* %2)
  %3 = load %"class.std::__cxx11::basic_string"*, %"class.std::__cxx11::basic_string"** %__k.addr, align 8
  %call2 = call zeroext i1 @_ZNKSt4lessINSt7__cxx1112basic_stringIcSt11char_traitsIcESaIcEEEEclERKS5_S8_(%"struct.std::less"* %_M_key_compare, %"class.std::__cxx11::basic_string"* dereferenceable(32) %call, %"class.std::__cxx11::basic_string"* dereferenceable(32) %3)
  br i1 %call2, label %if.else, label %if.then

if.then:                                          ; preds = %while.body
  %4 = load %"struct.std::_Rb_tree_node"*, %"struct.std::_Rb_tree_node"** %__x.addr, align 8
  %5 = bitcast %"struct.std::_Rb_tree_node"* %4 to %"struct.std::_Rb_tree_node_base"*
  store %"struct.std::_Rb_tree_node_base"* %5, %"struct.std::_Rb_tree_node_base"** %__y.addr, align 8
  %6 = load %"struct.std::_Rb_tree_node"*, %"struct.std::_Rb_tree_node"** %__x.addr, align 8
  %7 = bitcast %"struct.std::_Rb_tree_node"* %6 to %"struct.std::_Rb_tree_node_base"*
  %call3 = call %"struct.std::_Rb_tree_node"* @_ZNSt8_Rb_treeINSt7__cxx1112basic_stringIcSt11char_traitsIcESaIcEEESt4pairIKS5_St6vectorIiSaIiEEESt10_Select1stISB_ESt4lessIS5_ESaISB_EE7_S_leftEPSt18_Rb_tree_node_base(%"struct.std::_Rb_tree_node_base"* %7) #3
  store %"struct.std::_Rb_tree_node"* %call3, %"struct.std::_Rb_tree_node"** %__x.addr, align 8
  br label %if.end

if.else:                                          ; preds = %while.body
  %8 = load %"struct.std::_Rb_tree_node"*, %"struct.std::_Rb_tree_node"** %__x.addr, align 8
  %9 = bitcast %"struct.std::_Rb_tree_node"* %8 to %"struct.std::_Rb_tree_node_base"*
  %call4 = call %"struct.std::_Rb_tree_node"* @_ZNSt8_Rb_treeINSt7__cxx1112basic_stringIcSt11char_traitsIcESaIcEEESt4pairIKS5_St6vectorIiSaIiEEESt10_Select1stISB_ESt4lessIS5_ESaISB_EE8_S_rightEPSt18_Rb_tree_node_base(%"struct.std::_Rb_tree_node_base"* %9) #3
  store %"struct.std::_Rb_tree_node"* %call4, %"struct.std::_Rb_tree_node"** %__x.addr, align 8
  br label %if.end

if.end:                                           ; preds = %if.else, %if.then
  br label %while.cond

while.end:                                        ; preds = %while.cond
  %10 = load %"struct.std::_Rb_tree_node_base"*, %"struct.std::_Rb_tree_node_base"** %__y.addr, align 8
  call void @_ZNSt17_Rb_tree_iteratorISt4pairIKNSt7__cxx1112basic_stringIcSt11char_traitsIcESaIcEEESt6vectorIiSaIiEEEEC2EPSt18_Rb_tree_node_base(%"struct.std::_Rb_tree_iterator"* %retval, %"struct.std::_Rb_tree_node_base"* %10) #3
  %coerce.dive = getelementptr inbounds %"struct.std::_Rb_tree_iterator", %"struct.std::_Rb_tree_iterator"* %retval, i32 0, i32 0
  %11 = load %"struct.std::_Rb_tree_node_base"*, %"struct.std::_Rb_tree_node_base"** %coerce.dive, align 8
  ret %"struct.std::_Rb_tree_node_base"* %11
}

; Function Attrs: noinline nounwind optnone uwtable
define linkonce_odr dso_local %"struct.std::_Rb_tree_node_base"* @_ZNSt8_Rb_treeINSt7__cxx1112basic_stringIcSt11char_traitsIcESaIcEEESt4pairIKS5_St6vectorIiSaIiEEESt10_Select1stISB_ESt4lessIS5_ESaISB_EE6_M_endEv(%"class.std::_Rb_tree"* %this) #5 comdat align 2 {
entry:
  %this.addr = alloca %"class.std::_Rb_tree"*, align 8
  store %"class.std::_Rb_tree"* %this, %"class.std::_Rb_tree"** %this.addr, align 8
  %this1 = load %"class.std::_Rb_tree"*, %"class.std::_Rb_tree"** %this.addr, align 8
  %_M_impl = getelementptr inbounds %"class.std::_Rb_tree", %"class.std::_Rb_tree"* %this1, i32 0, i32 0
  %0 = bitcast %"struct.std::_Rb_tree<std::__cxx11::basic_string<char>, std::pair<const std::__cxx11::basic_string<char>, std::vector<int, std::allocator<int> > >, std::_Select1st<std::pair<const std::__cxx11::basic_string<char>, std::vector<int, std::allocator<int> > > >, std::less<std::__cxx11::basic_string<char> >, std::allocator<std::pair<const std::__cxx11::basic_string<char>, std::vector<int, std::allocator<int> > > > >::_Rb_tree_impl"* %_M_impl to i8*
  %add.ptr = getelementptr inbounds i8, i8* %0, i64 8
  %1 = bitcast i8* %add.ptr to %"struct.std::_Rb_tree_header"*
  %_M_header = getelementptr inbounds %"struct.std::_Rb_tree_header", %"struct.std::_Rb_tree_header"* %1, i32 0, i32 0
  ret %"struct.std::_Rb_tree_node_base"* %_M_header
}

; Function Attrs: noinline nounwind optnone uwtable
define linkonce_odr dso_local void @_ZNSt17_Rb_tree_iteratorISt4pairIKNSt7__cxx1112basic_stringIcSt11char_traitsIcESaIcEEESt6vectorIiSaIiEEEEC2EPSt18_Rb_tree_node_base(%"struct.std::_Rb_tree_iterator"* %this, %"struct.std::_Rb_tree_node_base"* %__x) unnamed_addr #5 comdat align 2 {
entry:
  %this.addr = alloca %"struct.std::_Rb_tree_iterator"*, align 8
  %__x.addr = alloca %"struct.std::_Rb_tree_node_base"*, align 8
  store %"struct.std::_Rb_tree_iterator"* %this, %"struct.std::_Rb_tree_iterator"** %this.addr, align 8
  store %"struct.std::_Rb_tree_node_base"* %__x, %"struct.std::_Rb_tree_node_base"** %__x.addr, align 8
  %this1 = load %"struct.std::_Rb_tree_iterator"*, %"struct.std::_Rb_tree_iterator"** %this.addr, align 8
  %_M_node = getelementptr inbounds %"struct.std::_Rb_tree_iterator", %"struct.std::_Rb_tree_iterator"* %this1, i32 0, i32 0
  %0 = load %"struct.std::_Rb_tree_node_base"*, %"struct.std::_Rb_tree_node_base"** %__x.addr, align 8
  store %"struct.std::_Rb_tree_node_base"* %0, %"struct.std::_Rb_tree_node_base"** %_M_node, align 8
  ret void
}

; Function Attrs: noinline nounwind optnone uwtable
define linkonce_odr dso_local %"struct.std::_Rb_tree_node_base"* @_ZNSt8_Rb_treeINSt7__cxx1112basic_stringIcSt11char_traitsIcESaIcEEESt4pairIKS5_St6vectorIiSaIiEEESt10_Select1stISB_ESt4lessIS5_ESaISB_EE3endEv(%"class.std::_Rb_tree"* %this) #5 comdat align 2 {
entry:
  %retval = alloca %"struct.std::_Rb_tree_iterator", align 8
  %this.addr = alloca %"class.std::_Rb_tree"*, align 8
  store %"class.std::_Rb_tree"* %this, %"class.std::_Rb_tree"** %this.addr, align 8
  %this1 = load %"class.std::_Rb_tree"*, %"class.std::_Rb_tree"** %this.addr, align 8
  %_M_impl = getelementptr inbounds %"class.std::_Rb_tree", %"class.std::_Rb_tree"* %this1, i32 0, i32 0
  %0 = bitcast %"struct.std::_Rb_tree<std::__cxx11::basic_string<char>, std::pair<const std::__cxx11::basic_string<char>, std::vector<int, std::allocator<int> > >, std::_Select1st<std::pair<const std::__cxx11::basic_string<char>, std::vector<int, std::allocator<int> > > >, std::less<std::__cxx11::basic_string<char> >, std::allocator<std::pair<const std::__cxx11::basic_string<char>, std::vector<int, std::allocator<int> > > > >::_Rb_tree_impl"* %_M_impl to i8*
  %add.ptr = getelementptr inbounds i8, i8* %0, i64 8
  %1 = bitcast i8* %add.ptr to %"struct.std::_Rb_tree_header"*
  %_M_header = getelementptr inbounds %"struct.std::_Rb_tree_header", %"struct.std::_Rb_tree_header"* %1, i32 0, i32 0
  call void @_ZNSt17_Rb_tree_iteratorISt4pairIKNSt7__cxx1112basic_stringIcSt11char_traitsIcESaIcEEESt6vectorIiSaIiEEEEC2EPSt18_Rb_tree_node_base(%"struct.std::_Rb_tree_iterator"* %retval, %"struct.std::_Rb_tree_node_base"* %_M_header) #3
  %coerce.dive = getelementptr inbounds %"struct.std::_Rb_tree_iterator", %"struct.std::_Rb_tree_iterator"* %retval, i32 0, i32 0
  %2 = load %"struct.std::_Rb_tree_node_base"*, %"struct.std::_Rb_tree_node_base"** %coerce.dive, align 8
  ret %"struct.std::_Rb_tree_node_base"* %2
}

; Function Attrs: noinline nounwind optnone uwtable
define linkonce_odr dso_local void @_ZNKSt8_Rb_treeINSt7__cxx1112basic_stringIcSt11char_traitsIcESaIcEEESt4pairIKS5_St6vectorIiSaIiEEESt10_Select1stISB_ESt4lessIS5_ESaISB_EE8key_compEv(%"class.std::_Rb_tree"* %this) #5 comdat align 2 {
entry:
  %this.addr = alloca %"class.std::_Rb_tree"*, align 8
  store %"class.std::_Rb_tree"* %this, %"class.std::_Rb_tree"** %this.addr, align 8
  %this1 = load %"class.std::_Rb_tree"*, %"class.std::_Rb_tree"** %this.addr, align 8
  %_M_impl = getelementptr inbounds %"class.std::_Rb_tree", %"class.std::_Rb_tree"* %this1, i32 0, i32 0
  %0 = bitcast %"struct.std::_Rb_tree<std::__cxx11::basic_string<char>, std::pair<const std::__cxx11::basic_string<char>, std::vector<int, std::allocator<int> > >, std::_Select1st<std::pair<const std::__cxx11::basic_string<char>, std::vector<int, std::allocator<int> > > >, std::less<std::__cxx11::basic_string<char> >, std::allocator<std::pair<const std::__cxx11::basic_string<char>, std::vector<int, std::allocator<int> > > > >::_Rb_tree_impl"* %_M_impl to %"struct.std::_Rb_tree_key_compare"*
  %_M_key_compare = getelementptr inbounds %"struct.std::_Rb_tree_key_compare", %"struct.std::_Rb_tree_key_compare"* %0, i32 0, i32 0
  ret void
}

; Function Attrs: noinline optnone uwtable
define linkonce_odr dso_local %"struct.std::_Rb_tree_node"* @_ZNSt8_Rb_treeINSt7__cxx1112basic_stringIcSt11char_traitsIcESaIcEEESt4pairIKS5_St6vectorIiSaIiEEESt10_Select1stISB_ESt4lessIS5_ESaISB_EE14_M_create_nodeIJRKSt21piecewise_construct_tSt5tupleIJRS7_EESM_IJEEEEEPSt13_Rb_tree_nodeISB_EDpOT_(%"class.std::_Rb_tree"* %this, %"struct.std::piecewise_construct_t"* dereferenceable(1) %__args, %"class.std::tuple"* dereferenceable(8) %__args1, %"class.std::tuple.6"* dereferenceable(1) %__args3) #4 comdat align 2 {
entry:
  %this.addr = alloca %"class.std::_Rb_tree"*, align 8
  %__args.addr = alloca %"struct.std::piecewise_construct_t"*, align 8
  %__args.addr2 = alloca %"class.std::tuple"*, align 8
  %__args.addr4 = alloca %"class.std::tuple.6"*, align 8
  %__tmp = alloca %"struct.std::_Rb_tree_node"*, align 8
  store %"class.std::_Rb_tree"* %this, %"class.std::_Rb_tree"** %this.addr, align 8
  store %"struct.std::piecewise_construct_t"* %__args, %"struct.std::piecewise_construct_t"** %__args.addr, align 8
  store %"class.std::tuple"* %__args1, %"class.std::tuple"** %__args.addr2, align 8
  store %"class.std::tuple.6"* %__args3, %"class.std::tuple.6"** %__args.addr4, align 8
  %this5 = load %"class.std::_Rb_tree"*, %"class.std::_Rb_tree"** %this.addr, align 8
  %call = call %"struct.std::_Rb_tree_node"* @_ZNSt8_Rb_treeINSt7__cxx1112basic_stringIcSt11char_traitsIcESaIcEEESt4pairIKS5_St6vectorIiSaIiEEESt10_Select1stISB_ESt4lessIS5_ESaISB_EE11_M_get_nodeEv(%"class.std::_Rb_tree"* %this5)
  store %"struct.std::_Rb_tree_node"* %call, %"struct.std::_Rb_tree_node"** %__tmp, align 8
  %0 = load %"struct.std::_Rb_tree_node"*, %"struct.std::_Rb_tree_node"** %__tmp, align 8
  %1 = load %"struct.std::piecewise_construct_t"*, %"struct.std::piecewise_construct_t"** %__args.addr, align 8
  %call6 = call dereferenceable(1) %"struct.std::piecewise_construct_t"* @_ZSt7forwardIRKSt21piecewise_construct_tEOT_RNSt16remove_referenceIS3_E4typeE(%"struct.std::piecewise_construct_t"* dereferenceable(1) %1) #3
  %2 = load %"class.std::tuple"*, %"class.std::tuple"** %__args.addr2, align 8
  %call7 = call dereferenceable(8) %"class.std::tuple"* @_ZSt7forwardISt5tupleIJRKNSt7__cxx1112basic_stringIcSt11char_traitsIcESaIcEEEEEEOT_RNSt16remove_referenceISA_E4typeE(%"class.std::tuple"* dereferenceable(8) %2) #3
  %3 = load %"class.std::tuple.6"*, %"class.std::tuple.6"** %__args.addr4, align 8
  %call8 = call dereferenceable(1) %"class.std::tuple.6"* @_ZSt7forwardISt5tupleIJEEEOT_RNSt16remove_referenceIS2_E4typeE(%"class.std::tuple.6"* dereferenceable(1) %3) #3
  call void @_ZNSt8_Rb_treeINSt7__cxx1112basic_stringIcSt11char_traitsIcESaIcEEESt4pairIKS5_St6vectorIiSaIiEEESt10_Select1stISB_ESt4lessIS5_ESaISB_EE17_M_construct_nodeIJRKSt21piecewise_construct_tSt5tupleIJRS7_EESM_IJEEEEEvPSt13_Rb_tree_nodeISB_EDpOT_(%"class.std::_Rb_tree"* %this5, %"struct.std::_Rb_tree_node"* %0, %"struct.std::piecewise_construct_t"* dereferenceable(1) %call6, %"class.std::tuple"* dereferenceable(8) %call7, %"class.std::tuple.6"* dereferenceable(1) %call8)
  %4 = load %"struct.std::_Rb_tree_node"*, %"struct.std::_Rb_tree_node"** %__tmp, align 8
  ret %"struct.std::_Rb_tree_node"* %4
}

; Function Attrs: noinline nounwind optnone uwtable
define linkonce_odr dso_local dereferenceable(1) %"struct.std::piecewise_construct_t"* @_ZSt7forwardIRKSt21piecewise_construct_tEOT_RNSt16remove_referenceIS3_E4typeE(%"struct.std::piecewise_construct_t"* dereferenceable(1) %__t) #5 comdat {
entry:
  %__t.addr = alloca %"struct.std::piecewise_construct_t"*, align 8
  store %"struct.std::piecewise_construct_t"* %__t, %"struct.std::piecewise_construct_t"** %__t.addr, align 8
  %0 = load %"struct.std::piecewise_construct_t"*, %"struct.std::piecewise_construct_t"** %__t.addr, align 8
  ret %"struct.std::piecewise_construct_t"* %0
}

; Function Attrs: noinline nounwind optnone uwtable
define linkonce_odr dso_local dereferenceable(8) %"class.std::tuple"* @_ZSt7forwardISt5tupleIJRKNSt7__cxx1112basic_stringIcSt11char_traitsIcESaIcEEEEEEOT_RNSt16remove_referenceISA_E4typeE(%"class.std::tuple"* dereferenceable(8) %__t) #5 comdat {
entry:
  %__t.addr = alloca %"class.std::tuple"*, align 8
  store %"class.std::tuple"* %__t, %"class.std::tuple"** %__t.addr, align 8
  %0 = load %"class.std::tuple"*, %"class.std::tuple"** %__t.addr, align 8
  ret %"class.std::tuple"* %0
}

; Function Attrs: noinline nounwind optnone uwtable
define linkonce_odr dso_local dereferenceable(1) %"class.std::tuple.6"* @_ZSt7forwardISt5tupleIJEEEOT_RNSt16remove_referenceIS2_E4typeE(%"class.std::tuple.6"* dereferenceable(1) %__t) #5 comdat {
entry:
  %__t.addr = alloca %"class.std::tuple.6"*, align 8
  store %"class.std::tuple.6"* %__t, %"class.std::tuple.6"** %__t.addr, align 8
  %0 = load %"class.std::tuple.6"*, %"class.std::tuple.6"** %__t.addr, align 8
  ret %"class.std::tuple.6"* %0
}

; Function Attrs: noinline optnone uwtable
define linkonce_odr dso_local { %"struct.std::_Rb_tree_node_base"*, %"struct.std::_Rb_tree_node_base"* } @_ZNSt8_Rb_treeINSt7__cxx1112basic_stringIcSt11char_traitsIcESaIcEEESt4pairIKS5_St6vectorIiSaIiEEESt10_Select1stISB_ESt4lessIS5_ESaISB_EE29_M_get_insert_hint_unique_posESt23_Rb_tree_const_iteratorISB_ERS7_(%"class.std::_Rb_tree"* %this, %"struct.std::_Rb_tree_node_base"* %__position.coerce, %"class.std::__cxx11::basic_string"* dereferenceable(32) %__k) #4 comdat align 2 {
entry:
  %retval = alloca %"struct.std::pair.7", align 8
  %__position = alloca %"struct.std::_Rb_tree_const_iterator", align 8
  %this.addr = alloca %"class.std::_Rb_tree"*, align 8
  %__k.addr = alloca %"class.std::__cxx11::basic_string"*, align 8
  %__pos = alloca %"struct.std::_Rb_tree_iterator", align 8
  %ref.tmp = alloca %"struct.std::_Rb_tree_node_base"*, align 8
  %__before = alloca %"struct.std::_Rb_tree_iterator", align 8
  %ref.tmp37 = alloca %"struct.std::_Rb_tree_node_base"*, align 8
  %__after = alloca %"struct.std::_Rb_tree_iterator", align 8
  %ref.tmp55 = alloca %"struct.std::_Rb_tree_node_base"*, align 8
  %ref.tmp69 = alloca %"struct.std::_Rb_tree_node_base"*, align 8
  %ref.tmp78 = alloca %"struct.std::_Rb_tree_node_base"*, align 8
  %coerce.dive = getelementptr inbounds %"struct.std::_Rb_tree_const_iterator", %"struct.std::_Rb_tree_const_iterator"* %__position, i32 0, i32 0
  store %"struct.std::_Rb_tree_node_base"* %__position.coerce, %"struct.std::_Rb_tree_node_base"** %coerce.dive, align 8
  store %"class.std::_Rb_tree"* %this, %"class.std::_Rb_tree"** %this.addr, align 8
  store %"class.std::__cxx11::basic_string"* %__k, %"class.std::__cxx11::basic_string"** %__k.addr, align 8
  %this1 = load %"class.std::_Rb_tree"*, %"class.std::_Rb_tree"** %this.addr, align 8
  %call = call %"struct.std::_Rb_tree_node_base"* @_ZNKSt23_Rb_tree_const_iteratorISt4pairIKNSt7__cxx1112basic_stringIcSt11char_traitsIcESaIcEEESt6vectorIiSaIiEEEE13_M_const_castEv(%"struct.std::_Rb_tree_const_iterator"* %__position) #3
  %coerce.dive2 = getelementptr inbounds %"struct.std::_Rb_tree_iterator", %"struct.std::_Rb_tree_iterator"* %__pos, i32 0, i32 0
  store %"struct.std::_Rb_tree_node_base"* %call, %"struct.std::_Rb_tree_node_base"** %coerce.dive2, align 8
  %_M_node = getelementptr inbounds %"struct.std::_Rb_tree_iterator", %"struct.std::_Rb_tree_iterator"* %__pos, i32 0, i32 0
  %0 = load %"struct.std::_Rb_tree_node_base"*, %"struct.std::_Rb_tree_node_base"** %_M_node, align 8
  %call3 = call %"struct.std::_Rb_tree_node_base"* @_ZNSt8_Rb_treeINSt7__cxx1112basic_stringIcSt11char_traitsIcESaIcEEESt4pairIKS5_St6vectorIiSaIiEEESt10_Select1stISB_ESt4lessIS5_ESaISB_EE6_M_endEv(%"class.std::_Rb_tree"* %this1) #3
  %cmp = icmp eq %"struct.std::_Rb_tree_node_base"* %0, %call3
  br i1 %cmp, label %if.then, label %if.else12

if.then:                                          ; preds = %entry
  %call4 = call i64 @_ZNKSt8_Rb_treeINSt7__cxx1112basic_stringIcSt11char_traitsIcESaIcEEESt4pairIKS5_St6vectorIiSaIiEEESt10_Select1stISB_ESt4lessIS5_ESaISB_EE4sizeEv(%"class.std::_Rb_tree"* %this1) #3
  %cmp5 = icmp ugt i64 %call4, 0
  br i1 %cmp5, label %land.lhs.true, label %if.else

land.lhs.true:                                    ; preds = %if.then
  %_M_impl = getelementptr inbounds %"class.std::_Rb_tree", %"class.std::_Rb_tree"* %this1, i32 0, i32 0
  %1 = bitcast %"struct.std::_Rb_tree<std::__cxx11::basic_string<char>, std::pair<const std::__cxx11::basic_string<char>, std::vector<int, std::allocator<int> > >, std::_Select1st<std::pair<const std::__cxx11::basic_string<char>, std::vector<int, std::allocator<int> > > >, std::less<std::__cxx11::basic_string<char> >, std::allocator<std::pair<const std::__cxx11::basic_string<char>, std::vector<int, std::allocator<int> > > > >::_Rb_tree_impl"* %_M_impl to %"struct.std::_Rb_tree_key_compare"*
  %_M_key_compare = getelementptr inbounds %"struct.std::_Rb_tree_key_compare", %"struct.std::_Rb_tree_key_compare"* %1, i32 0, i32 0
  %call6 = call dereferenceable(8) %"struct.std::_Rb_tree_node_base"** @_ZNSt8_Rb_treeINSt7__cxx1112basic_stringIcSt11char_traitsIcESaIcEEESt4pairIKS5_St6vectorIiSaIiEEESt10_Select1stISB_ESt4lessIS5_ESaISB_EE12_M_rightmostEv(%"class.std::_Rb_tree"* %this1) #3
  %2 = load %"struct.std::_Rb_tree_node_base"*, %"struct.std::_Rb_tree_node_base"** %call6, align 8
  %call7 = call dereferenceable(32) %"class.std::__cxx11::basic_string"* @_ZNSt8_Rb_treeINSt7__cxx1112basic_stringIcSt11char_traitsIcESaIcEEESt4pairIKS5_St6vectorIiSaIiEEESt10_Select1stISB_ESt4lessIS5_ESaISB_EE6_S_keyEPKSt18_Rb_tree_node_base(%"struct.std::_Rb_tree_node_base"* %2)
  %3 = load %"class.std::__cxx11::basic_string"*, %"class.std::__cxx11::basic_string"** %__k.addr, align 8
  %call8 = call zeroext i1 @_ZNKSt4lessINSt7__cxx1112basic_stringIcSt11char_traitsIcESaIcEEEEclERKS5_S8_(%"struct.std::less"* %_M_key_compare, %"class.std::__cxx11::basic_string"* dereferenceable(32) %call7, %"class.std::__cxx11::basic_string"* dereferenceable(32) %3)
  br i1 %call8, label %if.then9, label %if.else

if.then9:                                         ; preds = %land.lhs.true
  store %"struct.std::_Rb_tree_node_base"* null, %"struct.std::_Rb_tree_node_base"** %ref.tmp, align 8
  %call10 = call dereferenceable(8) %"struct.std::_Rb_tree_node_base"** @_ZNSt8_Rb_treeINSt7__cxx1112basic_stringIcSt11char_traitsIcESaIcEEESt4pairIKS5_St6vectorIiSaIiEEESt10_Select1stISB_ESt4lessIS5_ESaISB_EE12_M_rightmostEv(%"class.std::_Rb_tree"* %this1) #3
  call void @_ZNSt4pairIPSt18_Rb_tree_node_baseS1_EC2IRS1_Lb1EEERKS1_OT_(%"struct.std::pair.7"* %retval, %"struct.std::_Rb_tree_node_base"** dereferenceable(8) %ref.tmp, %"struct.std::_Rb_tree_node_base"** dereferenceable(8) %call10)
  br label %return

if.else:                                          ; preds = %land.lhs.true, %if.then
  %4 = load %"class.std::__cxx11::basic_string"*, %"class.std::__cxx11::basic_string"** %__k.addr, align 8
  %call11 = call { %"struct.std::_Rb_tree_node_base"*, %"struct.std::_Rb_tree_node_base"* } @_ZNSt8_Rb_treeINSt7__cxx1112basic_stringIcSt11char_traitsIcESaIcEEESt4pairIKS5_St6vectorIiSaIiEEESt10_Select1stISB_ESt4lessIS5_ESaISB_EE24_M_get_insert_unique_posERS7_(%"class.std::_Rb_tree"* %this1, %"class.std::__cxx11::basic_string"* dereferenceable(32) %4)
  %5 = bitcast %"struct.std::pair.7"* %retval to { %"struct.std::_Rb_tree_node_base"*, %"struct.std::_Rb_tree_node_base"* }*
  %6 = getelementptr inbounds { %"struct.std::_Rb_tree_node_base"*, %"struct.std::_Rb_tree_node_base"* }, { %"struct.std::_Rb_tree_node_base"*, %"struct.std::_Rb_tree_node_base"* }* %5, i32 0, i32 0
  %7 = extractvalue { %"struct.std::_Rb_tree_node_base"*, %"struct.std::_Rb_tree_node_base"* } %call11, 0
  store %"struct.std::_Rb_tree_node_base"* %7, %"struct.std::_Rb_tree_node_base"** %6, align 8
  %8 = getelementptr inbounds { %"struct.std::_Rb_tree_node_base"*, %"struct.std::_Rb_tree_node_base"* }, { %"struct.std::_Rb_tree_node_base"*, %"struct.std::_Rb_tree_node_base"* }* %5, i32 0, i32 1
  %9 = extractvalue { %"struct.std::_Rb_tree_node_base"*, %"struct.std::_Rb_tree_node_base"* } %call11, 1
  store %"struct.std::_Rb_tree_node_base"* %9, %"struct.std::_Rb_tree_node_base"** %8, align 8
  br label %return

if.else12:                                        ; preds = %entry
  %_M_impl13 = getelementptr inbounds %"class.std::_Rb_tree", %"class.std::_Rb_tree"* %this1, i32 0, i32 0
  %10 = bitcast %"struct.std::_Rb_tree<std::__cxx11::basic_string<char>, std::pair<const std::__cxx11::basic_string<char>, std::vector<int, std::allocator<int> > >, std::_Select1st<std::pair<const std::__cxx11::basic_string<char>, std::vector<int, std::allocator<int> > > >, std::less<std::__cxx11::basic_string<char> >, std::allocator<std::pair<const std::__cxx11::basic_string<char>, std::vector<int, std::allocator<int> > > > >::_Rb_tree_impl"* %_M_impl13 to %"struct.std::_Rb_tree_key_compare"*
  %_M_key_compare14 = getelementptr inbounds %"struct.std::_Rb_tree_key_compare", %"struct.std::_Rb_tree_key_compare"* %10, i32 0, i32 0
  %11 = load %"class.std::__cxx11::basic_string"*, %"class.std::__cxx11::basic_string"** %__k.addr, align 8
  %_M_node15 = getelementptr inbounds %"struct.std::_Rb_tree_iterator", %"struct.std::_Rb_tree_iterator"* %__pos, i32 0, i32 0
  %12 = load %"struct.std::_Rb_tree_node_base"*, %"struct.std::_Rb_tree_node_base"** %_M_node15, align 8
  %call16 = call dereferenceable(32) %"class.std::__cxx11::basic_string"* @_ZNSt8_Rb_treeINSt7__cxx1112basic_stringIcSt11char_traitsIcESaIcEEESt4pairIKS5_St6vectorIiSaIiEEESt10_Select1stISB_ESt4lessIS5_ESaISB_EE6_S_keyEPKSt18_Rb_tree_node_base(%"struct.std::_Rb_tree_node_base"* %12)
  %call17 = call zeroext i1 @_ZNKSt4lessINSt7__cxx1112basic_stringIcSt11char_traitsIcESaIcEEEEclERKS5_S8_(%"struct.std::less"* %_M_key_compare14, %"class.std::__cxx11::basic_string"* dereferenceable(32) %11, %"class.std::__cxx11::basic_string"* dereferenceable(32) %call16)
  br i1 %call17, label %if.then18, label %if.else44

if.then18:                                        ; preds = %if.else12
  %13 = bitcast %"struct.std::_Rb_tree_iterator"* %__before to i8*
  %14 = bitcast %"struct.std::_Rb_tree_iterator"* %__pos to i8*
  call void @llvm.memcpy.p0i8.p0i8.i64(i8* align 8 %13, i8* align 8 %14, i64 8, i1 false)
  %_M_node19 = getelementptr inbounds %"struct.std::_Rb_tree_iterator", %"struct.std::_Rb_tree_iterator"* %__pos, i32 0, i32 0
  %15 = load %"struct.std::_Rb_tree_node_base"*, %"struct.std::_Rb_tree_node_base"** %_M_node19, align 8
  %call20 = call dereferenceable(8) %"struct.std::_Rb_tree_node_base"** @_ZNSt8_Rb_treeINSt7__cxx1112basic_stringIcSt11char_traitsIcESaIcEEESt4pairIKS5_St6vectorIiSaIiEEESt10_Select1stISB_ESt4lessIS5_ESaISB_EE11_M_leftmostEv(%"class.std::_Rb_tree"* %this1) #3
  %16 = load %"struct.std::_Rb_tree_node_base"*, %"struct.std::_Rb_tree_node_base"** %call20, align 8
  %cmp21 = icmp eq %"struct.std::_Rb_tree_node_base"* %15, %16
  br i1 %cmp21, label %if.then22, label %if.else25

if.then22:                                        ; preds = %if.then18
  %call23 = call dereferenceable(8) %"struct.std::_Rb_tree_node_base"** @_ZNSt8_Rb_treeINSt7__cxx1112basic_stringIcSt11char_traitsIcESaIcEEESt4pairIKS5_St6vectorIiSaIiEEESt10_Select1stISB_ESt4lessIS5_ESaISB_EE11_M_leftmostEv(%"class.std::_Rb_tree"* %this1) #3
  %call24 = call dereferenceable(8) %"struct.std::_Rb_tree_node_base"** @_ZNSt8_Rb_treeINSt7__cxx1112basic_stringIcSt11char_traitsIcESaIcEEESt4pairIKS5_St6vectorIiSaIiEEESt10_Select1stISB_ESt4lessIS5_ESaISB_EE11_M_leftmostEv(%"class.std::_Rb_tree"* %this1) #3
  call void @_ZNSt4pairIPSt18_Rb_tree_node_baseS1_EC2IRS1_S4_Lb1EEEOT_OT0_(%"struct.std::pair.7"* %retval, %"struct.std::_Rb_tree_node_base"** dereferenceable(8) %call23, %"struct.std::_Rb_tree_node_base"** dereferenceable(8) %call24)
  br label %return

if.else25:                                        ; preds = %if.then18
  %_M_impl26 = getelementptr inbounds %"class.std::_Rb_tree", %"class.std::_Rb_tree"* %this1, i32 0, i32 0
  %17 = bitcast %"struct.std::_Rb_tree<std::__cxx11::basic_string<char>, std::pair<const std::__cxx11::basic_string<char>, std::vector<int, std::allocator<int> > >, std::_Select1st<std::pair<const std::__cxx11::basic_string<char>, std::vector<int, std::allocator<int> > > >, std::less<std::__cxx11::basic_string<char> >, std::allocator<std::pair<const std::__cxx11::basic_string<char>, std::vector<int, std::allocator<int> > > > >::_Rb_tree_impl"* %_M_impl26 to %"struct.std::_Rb_tree_key_compare"*
  %_M_key_compare27 = getelementptr inbounds %"struct.std::_Rb_tree_key_compare", %"struct.std::_Rb_tree_key_compare"* %17, i32 0, i32 0
  %call28 = call dereferenceable(8) %"struct.std::_Rb_tree_iterator"* @_ZNSt17_Rb_tree_iteratorISt4pairIKNSt7__cxx1112basic_stringIcSt11char_traitsIcESaIcEEESt6vectorIiSaIiEEEEmmEv(%"struct.std::_Rb_tree_iterator"* %__before) #3
  %_M_node29 = getelementptr inbounds %"struct.std::_Rb_tree_iterator", %"struct.std::_Rb_tree_iterator"* %call28, i32 0, i32 0
  %18 = load %"struct.std::_Rb_tree_node_base"*, %"struct.std::_Rb_tree_node_base"** %_M_node29, align 8
  %call30 = call dereferenceable(32) %"class.std::__cxx11::basic_string"* @_ZNSt8_Rb_treeINSt7__cxx1112basic_stringIcSt11char_traitsIcESaIcEEESt4pairIKS5_St6vectorIiSaIiEEESt10_Select1stISB_ESt4lessIS5_ESaISB_EE6_S_keyEPKSt18_Rb_tree_node_base(%"struct.std::_Rb_tree_node_base"* %18)
  %19 = load %"class.std::__cxx11::basic_string"*, %"class.std::__cxx11::basic_string"** %__k.addr, align 8
  %call31 = call zeroext i1 @_ZNKSt4lessINSt7__cxx1112basic_stringIcSt11char_traitsIcESaIcEEEEclERKS5_S8_(%"struct.std::less"* %_M_key_compare27, %"class.std::__cxx11::basic_string"* dereferenceable(32) %call30, %"class.std::__cxx11::basic_string"* dereferenceable(32) %19)
  br i1 %call31, label %if.then32, label %if.else42

if.then32:                                        ; preds = %if.else25
  %_M_node33 = getelementptr inbounds %"struct.std::_Rb_tree_iterator", %"struct.std::_Rb_tree_iterator"* %__before, i32 0, i32 0
  %20 = load %"struct.std::_Rb_tree_node_base"*, %"struct.std::_Rb_tree_node_base"** %_M_node33, align 8
  %call34 = call %"struct.std::_Rb_tree_node"* @_ZNSt8_Rb_treeINSt7__cxx1112basic_stringIcSt11char_traitsIcESaIcEEESt4pairIKS5_St6vectorIiSaIiEEESt10_Select1stISB_ESt4lessIS5_ESaISB_EE8_S_rightEPSt18_Rb_tree_node_base(%"struct.std::_Rb_tree_node_base"* %20) #3
  %cmp35 = icmp eq %"struct.std::_Rb_tree_node"* %call34, null
  br i1 %cmp35, label %if.then36, label %if.else39

if.then36:                                        ; preds = %if.then32
  store %"struct.std::_Rb_tree_node_base"* null, %"struct.std::_Rb_tree_node_base"** %ref.tmp37, align 8
  %_M_node38 = getelementptr inbounds %"struct.std::_Rb_tree_iterator", %"struct.std::_Rb_tree_iterator"* %__before, i32 0, i32 0
  call void @_ZNSt4pairIPSt18_Rb_tree_node_baseS1_EC2IRS1_Lb1EEERKS1_OT_(%"struct.std::pair.7"* %retval, %"struct.std::_Rb_tree_node_base"** dereferenceable(8) %ref.tmp37, %"struct.std::_Rb_tree_node_base"** dereferenceable(8) %_M_node38)
  br label %return

if.else39:                                        ; preds = %if.then32
  %_M_node40 = getelementptr inbounds %"struct.std::_Rb_tree_iterator", %"struct.std::_Rb_tree_iterator"* %__pos, i32 0, i32 0
  %_M_node41 = getelementptr inbounds %"struct.std::_Rb_tree_iterator", %"struct.std::_Rb_tree_iterator"* %__pos, i32 0, i32 0
  call void @_ZNSt4pairIPSt18_Rb_tree_node_baseS1_EC2IRS1_S4_Lb1EEEOT_OT0_(%"struct.std::pair.7"* %retval, %"struct.std::_Rb_tree_node_base"** dereferenceable(8) %_M_node40, %"struct.std::_Rb_tree_node_base"** dereferenceable(8) %_M_node41)
  br label %return

if.else42:                                        ; preds = %if.else25
  %21 = load %"class.std::__cxx11::basic_string"*, %"class.std::__cxx11::basic_string"** %__k.addr, align 8
  %call43 = call { %"struct.std::_Rb_tree_node_base"*, %"struct.std::_Rb_tree_node_base"* } @_ZNSt8_Rb_treeINSt7__cxx1112basic_stringIcSt11char_traitsIcESaIcEEESt4pairIKS5_St6vectorIiSaIiEEESt10_Select1stISB_ESt4lessIS5_ESaISB_EE24_M_get_insert_unique_posERS7_(%"class.std::_Rb_tree"* %this1, %"class.std::__cxx11::basic_string"* dereferenceable(32) %21)
  %22 = bitcast %"struct.std::pair.7"* %retval to { %"struct.std::_Rb_tree_node_base"*, %"struct.std::_Rb_tree_node_base"* }*
  %23 = getelementptr inbounds { %"struct.std::_Rb_tree_node_base"*, %"struct.std::_Rb_tree_node_base"* }, { %"struct.std::_Rb_tree_node_base"*, %"struct.std::_Rb_tree_node_base"* }* %22, i32 0, i32 0
  %24 = extractvalue { %"struct.std::_Rb_tree_node_base"*, %"struct.std::_Rb_tree_node_base"* } %call43, 0
  store %"struct.std::_Rb_tree_node_base"* %24, %"struct.std::_Rb_tree_node_base"** %23, align 8
  %25 = getelementptr inbounds { %"struct.std::_Rb_tree_node_base"*, %"struct.std::_Rb_tree_node_base"* }, { %"struct.std::_Rb_tree_node_base"*, %"struct.std::_Rb_tree_node_base"* }* %22, i32 0, i32 1
  %26 = extractvalue { %"struct.std::_Rb_tree_node_base"*, %"struct.std::_Rb_tree_node_base"* } %call43, 1
