	.text
	.file	"hash2.cpp"
	.section	.text.startup,"ax",@progbits
	.p2align	4, 0x90         # -- Begin function __cxx_global_var_init
	.type	__cxx_global_var_init,@function
__cxx_global_var_init:                  # @__cxx_global_var_init
	.cfi_startproc
# %bb.0:
	pushq	%rbp
	.cfi_def_cfa_offset 16
	.cfi_offset %rbp, -16
	movq	%rsp, %rbp
	.cfi_def_cfa_register %rbp
	movl	$_ZStL8__ioinit, %edi
	callq	_ZNSt8ios_base4InitC1Ev
	movl	$_ZNSt8ios_base4InitD1Ev, %edi
	movl	$_ZStL8__ioinit, %esi
	movl	$__dso_handle, %edx
	popq	%rbp
	.cfi_def_cfa %rsp, 8
	jmp	__cxa_atexit            # TAILCALL
.Lfunc_end0:
	.size	__cxx_global_var_init, .Lfunc_end0-__cxx_global_var_init
	.cfi_endproc
                                        # -- End function
	.text
	.globl	main                    # -- Begin function main
	.p2align	4, 0x90
	.type	main,@function
main:                                   # @main
.Lfunc_begin0:
	.cfi_startproc
	.cfi_personality 3, __gxx_personality_v0
	.cfi_lsda 3, .Lexception0
# %bb.0:
	pushq	%rbp
	.cfi_def_cfa_offset 16
	.cfi_offset %rbp, -16
	movq	%rsp, %rbp
	.cfi_def_cfa_register %rbp
	pushq	%r15
	pushq	%r14
	pushq	%r13
	pushq	%r12
	pushq	%rbx
	subq	$184, %rsp
	.cfi_offset %rbx, -56
	.cfi_offset %r12, -48
	.cfi_offset %r13, -40
	.cfi_offset %r14, -32
	.cfi_offset %r15, -24
	movl	$2000, -44(%rbp)        # 4-byte Folded Spill
                                        # imm = 0x7D0
	cmpl	$2, %edi
	jne	.LBB1_2
# %bb.1:
	movq	8(%rsi), %rdi
	callq	atoi
	movl	%eax, -44(%rbp)         # 4-byte Spill
.LBB1_2:
	leaq	-160(%rbp), %rdi
	callq	_ZN9__gnu_cxx8hash_mapIPKciNS_4hashIS2_EE5eqstrSaIiEEC2Ev
.Ltmp0:
	leaq	-200(%rbp), %rdi
	callq	_ZN9__gnu_cxx8hash_mapIPKciNS_4hashIS2_EE5eqstrSaIiEEC2Ev
.Ltmp1:
# %bb.3:                                # %.preheader17
	leaq	-224(%rbp), %r13
	leaq	-160(%rbp), %r15
	leaq	-88(%rbp), %r12
	xorl	%ebx, %ebx
	cmpl	$10000, %ebx            # imm = 0x2710
	je	.LBB1_5
	.p2align	4, 0x90
.LBB1_14:                               # =>This Inner Loop Header: Depth=1
	movl	$.L.str, %esi
	movq	%r13, %rdi
	movl	%ebx, %edx
	xorl	%eax, %eax
	callq	sprintf
	movq	%r13, %rdi
	callq	strdup
	movq	%rax, -88(%rbp)
.Ltmp3:
	movq	%r15, %rdi
	movq	%r12, %rsi
	callq	_ZN9__gnu_cxx8hash_mapIPKciNS_4hashIS2_EE5eqstrSaIiEEixERKS2_
.Ltmp4:
# %bb.15:                               #   in Loop: Header=BB1_14 Depth=1
	movl	%ebx, (%rax)
	addl	$1, %ebx
	cmpl	$10000, %ebx            # imm = 0x2710
	jne	.LBB1_14
.LBB1_5:                                # %.preheader
	xorl	%eax, %eax
	leaq	-160(%rbp), %r15
	leaq	-120(%rbp), %rbx
	leaq	-104(%rbp), %r12
	leaq	-200(%rbp), %r13
	jmp	.LBB1_6
	.p2align	4, 0x90
.LBB1_21:                               #   in Loop: Header=BB1_6 Depth=1
	movl	-48(%rbp), %eax         # 4-byte Reload
	addl	$1, %eax
.LBB1_6:                                # =>This Loop Header: Depth=1
                                        #     Child Loop BB1_9 Depth 2
	cmpl	-44(%rbp), %eax         # 4-byte Folded Reload
	jge	.LBB1_22
# %bb.7:                                #   in Loop: Header=BB1_6 Depth=1
.Ltmp31:
	movl	%eax, -48(%rbp)         # 4-byte Spill
	movq	%r15, %rdi
	callq	_ZN9__gnu_cxx8hash_mapIPKciNS_4hashIS2_EE5eqstrSaIiEE5beginEv
.Ltmp32:
# %bb.8:                                #   in Loop: Header=BB1_6 Depth=1
	movq	%rax, -120(%rbp)
	movq	%rdx, -112(%rbp)
	.p2align	4, 0x90
.LBB1_9:                                #   Parent Loop BB1_6 Depth=1
                                        # =>  This Inner Loop Header: Depth=2
.Ltmp34:
	movq	%r15, %rdi
	callq	_ZN9__gnu_cxx8hash_mapIPKciNS_4hashIS2_EE5eqstrSaIiEE3endEv
.Ltmp35:
# %bb.10:                               #   in Loop: Header=BB1_9 Depth=2
	movq	%rax, -104(%rbp)
	movq	%rdx, -96(%rbp)
	movq	%rbx, %rdi
	movq	%r12, %rsi
	callq	_ZNK9__gnu_cxx19_Hashtable_iteratorISt4pairIKPKciES3_NS_4hashIS3_EESt10_Select1stIS5_E5eqstrSaIiEEneERKSC_
	testb	%al, %al
	je	.LBB1_21
# %bb.11:                               #   in Loop: Header=BB1_9 Depth=2
	movq	%rbx, %rdi
	callq	_ZNK9__gnu_cxx19_Hashtable_iteratorISt4pairIKPKciES3_NS_4hashIS3_EESt10_Select1stIS5_E5eqstrSaIiEEdeEv
.Ltmp36:
	movq	%r15, %rdi
	movq	%rax, %rsi
	callq	_ZN9__gnu_cxx8hash_mapIPKciNS_4hashIS2_EE5eqstrSaIiEEixERKS2_
.Ltmp37:
# %bb.12:                               #   in Loop: Header=BB1_9 Depth=2
	movl	(%rax), %r14d
	movq	%rbx, %rdi
	callq	_ZNK9__gnu_cxx19_Hashtable_iteratorISt4pairIKPKciES3_NS_4hashIS3_EESt10_Select1stIS5_E5eqstrSaIiEEdeEv
.Ltmp38:
	movq	%r13, %rdi
	movq	%rax, %rsi
	callq	_ZN9__gnu_cxx8hash_mapIPKciNS_4hashIS2_EE5eqstrSaIiEEixERKS2_
.Ltmp39:
# %bb.13:                               #   in Loop: Header=BB1_9 Depth=2
	addl	%r14d, (%rax)
.Ltmp40:
	movq	%rbx, %rdi
	callq	_ZN9__gnu_cxx19_Hashtable_iteratorISt4pairIKPKciES3_NS_4hashIS3_EESt10_Select1stIS5_E5eqstrSaIiEEppEv
.Ltmp41:
	jmp	.LBB1_9
.LBB1_22:
	movq	$.L.str.1, -80(%rbp)
.Ltmp6:
	leaq	-160(%rbp), %rdi
	leaq	-80(%rbp), %rsi
	callq	_ZN9__gnu_cxx8hash_mapIPKciNS_4hashIS2_EE5eqstrSaIiEEixERKS2_
.Ltmp7:
# %bb.23:
	movl	(%rax), %esi
.Ltmp8:
	movl	$_ZSt4cout, %edi
	callq	_ZNSolsEi
.Ltmp9:
# %bb.24:
.Ltmp10:
	movl	$.L.str.2, %esi
	movq	%rax, %rdi
	callq	_ZStlsISt11char_traitsIcEERSt13basic_ostreamIcT_ES5_PKc
.Ltmp11:
# %bb.25:
	movq	%rax, %rbx
	movq	$.L.str.3, -72(%rbp)
.Ltmp12:
	leaq	-160(%rbp), %rdi
	leaq	-72(%rbp), %rsi
	callq	_ZN9__gnu_cxx8hash_mapIPKciNS_4hashIS2_EE5eqstrSaIiEEixERKS2_
.Ltmp13:
# %bb.26:
	movl	(%rax), %esi
.Ltmp14:
	movq	%rbx, %rdi
	callq	_ZNSolsEi
.Ltmp15:
# %bb.27:
.Ltmp16:
	movl	$.L.str.2, %esi
	movq	%rax, %rdi
	callq	_ZStlsISt11char_traitsIcEERSt13basic_ostreamIcT_ES5_PKc
.Ltmp17:
# %bb.28:
	movq	%rax, %rbx
	movq	$.L.str.1, -64(%rbp)
.Ltmp18:
	leaq	-200(%rbp), %rdi
	leaq	-64(%rbp), %rsi
	callq	_ZN9__gnu_cxx8hash_mapIPKciNS_4hashIS2_EE5eqstrSaIiEEixERKS2_
.Ltmp19:
# %bb.29:
	movl	(%rax), %esi
.Ltmp20:
	movq	%rbx, %rdi
	callq	_ZNSolsEi
.Ltmp21:
# %bb.30:
.Ltmp22:
	movl	$.L.str.2, %esi
	movq	%rax, %rdi
	callq	_ZStlsISt11char_traitsIcEERSt13basic_ostreamIcT_ES5_PKc
.Ltmp23:
# %bb.31:
	movq	%rax, %rbx
	movq	$.L.str.3, -56(%rbp)
.Ltmp24:
	leaq	-200(%rbp), %rdi
	leaq	-56(%rbp), %rsi
	callq	_ZN9__gnu_cxx8hash_mapIPKciNS_4hashIS2_EE5eqstrSaIiEEixERKS2_
.Ltmp25:
# %bb.32:
	movl	(%rax), %esi
.Ltmp26:
	movq	%rbx, %rdi
	callq	_ZNSolsEi
.Ltmp27:
# %bb.33:
.Ltmp28:
	movl	$_ZSt4endlIcSt11char_traitsIcEERSt13basic_ostreamIT_T0_ES6_, %esi
	movq	%rax, %rdi
	callq	_ZNSolsEPFRSoS_E
.Ltmp29:
# %bb.34:
	leaq	-200(%rbp), %rdi
	callq	_ZN9__gnu_cxx8hash_mapIPKciNS_4hashIS2_EE5eqstrSaIiEED2Ev
	leaq	-160(%rbp), %rdi
	callq	_ZN9__gnu_cxx8hash_mapIPKciNS_4hashIS2_EE5eqstrSaIiEED2Ev
	xorl	%eax, %eax
	addq	$184, %rsp
	popq	%rbx
	popq	%r12
	popq	%r13
	popq	%r14
	popq	%r15
	popq	%rbp
	.cfi_def_cfa %rsp, 8
	retq
.LBB1_35:
	.cfi_def_cfa %rbp, 16
.Ltmp2:
	movq	%rax, %rbx
	jmp	.LBB1_36
.LBB1_19:                               # %.loopexit.split-lp.loopexit.split-lp.loopexit.split-lp
.Ltmp30:
	jmp	.LBB1_20
.LBB1_17:                               # %.loopexit.split-lp.loopexit
.Ltmp33:
	jmp	.LBB1_20
.LBB1_18:                               # %.loopexit.split-lp.loopexit.split-lp.loopexit
.Ltmp5:
	jmp	.LBB1_20
.LBB1_16:                               # %.loopexit
.Ltmp42:
.LBB1_20:                               # %.loopexit.split-lp
	movq	%rax, %rbx
	leaq	-200(%rbp), %rdi
	callq	_ZN9__gnu_cxx8hash_mapIPKciNS_4hashIS2_EE5eqstrSaIiEED2Ev
.LBB1_36:
	leaq	-160(%rbp), %rdi
	callq	_ZN9__gnu_cxx8hash_mapIPKciNS_4hashIS2_EE5eqstrSaIiEED2Ev
	movq	%rbx, %rdi
	callq	_Unwind_Resume
.Lfunc_end1:
	.size	main, .Lfunc_end1-main
	.cfi_endproc
	.section	.gcc_except_table,"a",@progbits
	.p2align	2
GCC_except_table1:
.Lexception0:
	.byte	255                     # @LPStart Encoding = omit
	.byte	255                     # @TType Encoding = omit
	.byte	1                       # Call site Encoding = uleb128
	.uleb128 .Lcst_end0-.Lcst_begin0
.Lcst_begin0:
	.uleb128 .Lfunc_begin0-.Lfunc_begin0 # >> Call Site 1 <<
	.uleb128 .Ltmp0-.Lfunc_begin0   #   Call between .Lfunc_begin0 and .Ltmp0
	.byte	0                       #     has no landing pad
	.byte	0                       #   On action: cleanup
	.uleb128 .Ltmp0-.Lfunc_begin0   # >> Call Site 2 <<
	.uleb128 .Ltmp1-.Ltmp0          #   Call between .Ltmp0 and .Ltmp1
	.uleb128 .Ltmp2-.Lfunc_begin0   #     jumps to .Ltmp2
	.byte	0                       #   On action: cleanup
	.uleb128 .Ltmp3-.Lfunc_begin0   # >> Call Site 3 <<
	.uleb128 .Ltmp4-.Ltmp3          #   Call between .Ltmp3 and .Ltmp4
	.uleb128 .Ltmp5-.Lfunc_begin0   #     jumps to .Ltmp5
	.byte	0                       #   On action: cleanup
	.uleb128 .Ltmp31-.Lfunc_begin0  # >> Call Site 4 <<
	.uleb128 .Ltmp32-.Ltmp31        #   Call between .Ltmp31 and .Ltmp32
	.uleb128 .Ltmp33-.Lfunc_begin0  #     jumps to .Ltmp33
	.byte	0                       #   On action: cleanup
	.uleb128 .Ltmp34-.Lfunc_begin0  # >> Call Site 5 <<
	.uleb128 .Ltmp41-.Ltmp34        #   Call between .Ltmp34 and .Ltmp41
	.uleb128 .Ltmp42-.Lfunc_begin0  #     jumps to .Ltmp42
	.byte	0                       #   On action: cleanup
	.uleb128 .Ltmp6-.Lfunc_begin0   # >> Call Site 6 <<
	.uleb128 .Ltmp29-.Ltmp6         #   Call between .Ltmp6 and .Ltmp29
	.uleb128 .Ltmp30-.Lfunc_begin0  #     jumps to .Ltmp30
	.byte	0                       #   On action: cleanup
	.uleb128 .Ltmp29-.Lfunc_begin0  # >> Call Site 7 <<
	.uleb128 .Lfunc_end1-.Ltmp29    #   Call between .Ltmp29 and .Lfunc_end1
	.byte	0                       #     has no landing pad
	.byte	0                       #   On action: cleanup
.Lcst_end0:
	.p2align	2
                                        # -- End function
	.section	.text._ZN9__gnu_cxx8hash_mapIPKciNS_4hashIS2_EE5eqstrSaIiEEC2Ev,"axG",@progbits,_ZN9__gnu_cxx8hash_mapIPKciNS_4hashIS2_EE5eqstrSaIiEEC2Ev,comdat
	.weak	_ZN9__gnu_cxx8hash_mapIPKciNS_4hashIS2_EE5eqstrSaIiEEC2Ev # -- Begin function _ZN9__gnu_cxx8hash_mapIPKciNS_4hashIS2_EE5eqstrSaIiEEC2Ev
	.p2align	4, 0x90
	.type	_ZN9__gnu_cxx8hash_mapIPKciNS_4hashIS2_EE5eqstrSaIiEEC2Ev,@function
_ZN9__gnu_cxx8hash_mapIPKciNS_4hashIS2_EE5eqstrSaIiEEC2Ev: # @_ZN9__gnu_cxx8hash_mapIPKciNS_4hashIS2_EE5eqstrSaIiEEC2Ev
.Lfunc_begin1:
	.cfi_startproc
	.cfi_personality 3, __gxx_personality_v0
	.cfi_lsda 3, .Lexception1
# %bb.0:
	pushq	%rbp
	.cfi_def_cfa_offset 16
	.cfi_offset %rbp, -16
	movq	%rsp, %rbp
	.cfi_def_cfa_register %rbp
	pushq	%r14
	pushq	%rbx
	subq	$32, %rsp
	.cfi_offset %rbx, -32
	.cfi_offset %r14, -24
	movq	%rdi, %rbx
	leaq	-24(%rbp), %r14
	movq	%r14, %rdi
	callq	_ZNSaISt4pairIKPKciEEC2Ev
.Ltmp43:
	leaq	-40(%rbp), %rdx
	leaq	-32(%rbp), %rcx
	movl	$100, %esi
	movq	%rbx, %rdi
	movq	%r14, %r8
	callq	_ZN9__gnu_cxx9hashtableISt4pairIKPKciES3_NS_4hashIS3_EESt10_Select1stIS5_E5eqstrSaIiEEC2EmRKS7_RKSA_RKSaIS5_E
.Ltmp44:
# %bb.1:
	leaq	-24(%rbp), %rdi
	callq	_ZNSaISt4pairIKPKciEED2Ev
	addq	$32, %rsp
	popq	%rbx
	popq	%r14
	popq	%rbp
	.cfi_def_cfa %rsp, 8
	retq
.LBB2_2:
	.cfi_def_cfa %rbp, 16
.Ltmp45:
	movq	%rax, %rbx
	leaq	-24(%rbp), %rdi
	callq	_ZNSaISt4pairIKPKciEED2Ev
	movq	%rbx, %rdi
	callq	_Unwind_Resume
.Lfunc_end2:
	.size	_ZN9__gnu_cxx8hash_mapIPKciNS_4hashIS2_EE5eqstrSaIiEEC2Ev, .Lfunc_end2-_ZN9__gnu_cxx8hash_mapIPKciNS_4hashIS2_EE5eqstrSaIiEEC2Ev
	.cfi_endproc
	.section	.gcc_except_table,"a",@progbits
	.p2align	2
GCC_except_table2:
.Lexception1:
	.byte	255                     # @LPStart Encoding = omit
	.byte	255                     # @TType Encoding = omit
	.byte	1                       # Call site Encoding = uleb128
	.uleb128 .Lcst_end1-.Lcst_begin1
.Lcst_begin1:
	.uleb128 .Ltmp43-.Lfunc_begin1  # >> Call Site 1 <<
	.uleb128 .Ltmp44-.Ltmp43        #   Call between .Ltmp43 and .Ltmp44
	.uleb128 .Ltmp45-.Lfunc_begin1  #     jumps to .Ltmp45
	.byte	0                       #   On action: cleanup
	.uleb128 .Ltmp44-.Lfunc_begin1  # >> Call Site 2 <<
	.uleb128 .Lfunc_end2-.Ltmp44    #   Call between .Ltmp44 and .Lfunc_end2
	.byte	0                       #     has no landing pad
	.byte	0                       #   On action: cleanup
.Lcst_end1:
	.p2align	2
                                        # -- End function
	.section	.text._ZN9__gnu_cxx8hash_mapIPKciNS_4hashIS2_EE5eqstrSaIiEEixERKS2_,"axG",@progbits,_ZN9__gnu_cxx8hash_mapIPKciNS_4hashIS2_EE5eqstrSaIiEEixERKS2_,comdat
	.weak	_ZN9__gnu_cxx8hash_mapIPKciNS_4hashIS2_EE5eqstrSaIiEEixERKS2_ # -- Begin function _ZN9__gnu_cxx8hash_mapIPKciNS_4hashIS2_EE5eqstrSaIiEEixERKS2_
	.p2align	4, 0x90
	.type	_ZN9__gnu_cxx8hash_mapIPKciNS_4hashIS2_EE5eqstrSaIiEEixERKS2_,@function
_ZN9__gnu_cxx8hash_mapIPKciNS_4hashIS2_EE5eqstrSaIiEEixERKS2_: # @_ZN9__gnu_cxx8hash_mapIPKciNS_4hashIS2_EE5eqstrSaIiEEixERKS2_
	.cfi_startproc
# %bb.0:
	pushq	%rbp
	.cfi_def_cfa_offset 16
	.cfi_offset %rbp, -16
	movq	%rsp, %rbp
	.cfi_def_cfa_register %rbp
	pushq	%r14
	pushq	%rbx
	subq	$32, %rsp
	.cfi_offset %rbx, -32
	.cfi_offset %r14, -24
	movq	%rdi, %rbx
	movl	$0, -20(%rbp)
	leaq	-40(%rbp), %r14
	leaq	-20(%rbp), %rdx
	movq	%r14, %rdi
	callq	_ZNSt4pairIKPKciEC2IiLb1EEERS2_OT_
	movq	%rbx, %rdi
	movq	%r14, %rsi
	callq	_ZN9__gnu_cxx9hashtableISt4pairIKPKciES3_NS_4hashIS3_EESt10_Select1stIS5_E5eqstrSaIiEE14find_or_insertERKS5_
	addq	$8, %rax
	addq	$32, %rsp
	popq	%rbx
	popq	%r14
	popq	%rbp
	.cfi_def_cfa %rsp, 8
	retq
.Lfunc_end3:
	.size	_ZN9__gnu_cxx8hash_mapIPKciNS_4hashIS2_EE5eqstrSaIiEEixERKS2_, .Lfunc_end3-_ZN9__gnu_cxx8hash_mapIPKciNS_4hashIS2_EE5eqstrSaIiEEixERKS2_
	.cfi_endproc
                                        # -- End function
	.section	.text._ZN9__gnu_cxx8hash_mapIPKciNS_4hashIS2_EE5eqstrSaIiEE5beginEv,"axG",@progbits,_ZN9__gnu_cxx8hash_mapIPKciNS_4hashIS2_EE5eqstrSaIiEE5beginEv,comdat
	.weak	_ZN9__gnu_cxx8hash_mapIPKciNS_4hashIS2_EE5eqstrSaIiEE5beginEv # -- Begin function _ZN9__gnu_cxx8hash_mapIPKciNS_4hashIS2_EE5eqstrSaIiEE5beginEv
	.p2align	4, 0x90
	.type	_ZN9__gnu_cxx8hash_mapIPKciNS_4hashIS2_EE5eqstrSaIiEE5beginEv,@function
_ZN9__gnu_cxx8hash_mapIPKciNS_4hashIS2_EE5eqstrSaIiEE5beginEv: # @_ZN9__gnu_cxx8hash_mapIPKciNS_4hashIS2_EE5eqstrSaIiEE5beginEv
	.cfi_startproc
# %bb.0:
	pushq	%rbp
	.cfi_def_cfa_offset 16
	.cfi_offset %rbp, -16
	movq	%rsp, %rbp
	.cfi_def_cfa_register %rbp
	popq	%rbp
	.cfi_def_cfa %rsp, 8
	jmp	_ZN9__gnu_cxx9hashtableISt4pairIKPKciES3_NS_4hashIS3_EESt10_Select1stIS5_E5eqstrSaIiEE5beginEv # TAILCALL
.Lfunc_end4:
	.size	_ZN9__gnu_cxx8hash_mapIPKciNS_4hashIS2_EE5eqstrSaIiEE5beginEv, .Lfunc_end4-_ZN9__gnu_cxx8hash_mapIPKciNS_4hashIS2_EE5eqstrSaIiEE5beginEv
	.cfi_endproc
                                        # -- End function
	.section	.text._ZNK9__gnu_cxx19_Hashtable_iteratorISt4pairIKPKciES3_NS_4hashIS3_EESt10_Select1stIS5_E5eqstrSaIiEEneERKSC_,"axG",@progbits,_ZNK9__gnu_cxx19_Hashtable_iteratorISt4pairIKPKciES3_NS_4hashIS3_EESt10_Select1stIS5_E5eqstrSaIiEEneERKSC_,comdat
	.weak	_ZNK9__gnu_cxx19_Hashtable_iteratorISt4pairIKPKciES3_NS_4hashIS3_EESt10_Select1stIS5_E5eqstrSaIiEEneERKSC_ # -- Begin function _ZNK9__gnu_cxx19_Hashtable_iteratorISt4pairIKPKciES3_NS_4hashIS3_EESt10_Select1stIS5_E5eqstrSaIiEEneERKSC_
	.p2align	4, 0x90
	.type	_ZNK9__gnu_cxx19_Hashtable_iteratorISt4pairIKPKciES3_NS_4hashIS3_EESt10_Select1stIS5_E5eqstrSaIiEEneERKSC_,@function
_ZNK9__gnu_cxx19_Hashtable_iteratorISt4pairIKPKciES3_NS_4hashIS3_EESt10_Select1stIS5_E5eqstrSaIiEEneERKSC_: # @_ZNK9__gnu_cxx19_Hashtable_iteratorISt4pairIKPKciES3_NS_4hashIS3_EESt10_Select1stIS5_E5eqstrSaIiEEneERKSC_
	.cfi_startproc
# %bb.0:
	pushq	%rbp
	.cfi_def_cfa_offset 16
	.cfi_offset %rbp, -16
	movq	%rsp, %rbp
	.cfi_def_cfa_register %rbp
	movq	(%rdi), %rax
	cmpq	(%rsi), %rax
	setne	%al
	popq	%rbp
	.cfi_def_cfa %rsp, 8
	retq
.Lfunc_end5:
	.size	_ZNK9__gnu_cxx19_Hashtable_iteratorISt4pairIKPKciES3_NS_4hashIS3_EESt10_Select1stIS5_E5eqstrSaIiEEneERKSC_, .Lfunc_end5-_ZNK9__gnu_cxx19_Hashtable_iteratorISt4pairIKPKciES3_NS_4hashIS3_EESt10_Select1stIS5_E5eqstrSaIiEEneERKSC_
	.cfi_endproc
                                        # -- End function
	.section	.text._ZN9__gnu_cxx8hash_mapIPKciNS_4hashIS2_EE5eqstrSaIiEE3endEv,"axG",@progbits,_ZN9__gnu_cxx8hash_mapIPKciNS_4hashIS2_EE5eqstrSaIiEE3endEv,comdat
	.weak	_ZN9__gnu_cxx8hash_mapIPKciNS_4hashIS2_EE5eqstrSaIiEE3endEv # -- Begin function _ZN9__gnu_cxx8hash_mapIPKciNS_4hashIS2_EE5eqstrSaIiEE3endEv
	.p2align	4, 0x90
	.type	_ZN9__gnu_cxx8hash_mapIPKciNS_4hashIS2_EE5eqstrSaIiEE3endEv,@function
_ZN9__gnu_cxx8hash_mapIPKciNS_4hashIS2_EE5eqstrSaIiEE3endEv: # @_ZN9__gnu_cxx8hash_mapIPKciNS_4hashIS2_EE5eqstrSaIiEE3endEv
	.cfi_startproc
# %bb.0:
	pushq	%rbp
	.cfi_def_cfa_offset 16
	.cfi_offset %rbp, -16
	movq	%rsp, %rbp
	.cfi_def_cfa_register %rbp
	popq	%rbp
	.cfi_def_cfa %rsp, 8
	jmp	_ZN9__gnu_cxx9hashtableISt4pairIKPKciES3_NS_4hashIS3_EESt10_Select1stIS5_E5eqstrSaIiEE3endEv # TAILCALL
.Lfunc_end6:
	.size	_ZN9__gnu_cxx8hash_mapIPKciNS_4hashIS2_EE5eqstrSaIiEE3endEv, .Lfunc_end6-_ZN9__gnu_cxx8hash_mapIPKciNS_4hashIS2_EE5eqstrSaIiEE3endEv
	.cfi_endproc
                                        # -- End function
	.section	.text._ZNK9__gnu_cxx19_Hashtable_iteratorISt4pairIKPKciES3_NS_4hashIS3_EESt10_Select1stIS5_E5eqstrSaIiEEdeEv,"axG",@progbits,_ZNK9__gnu_cxx19_Hashtable_iteratorISt4pairIKPKciES3_NS_4hashIS3_EESt10_Select1stIS5_E5eqstrSaIiEEdeEv,comdat
	.weak	_ZNK9__gnu_cxx19_Hashtable_iteratorISt4pairIKPKciES3_NS_4hashIS3_EESt10_Select1stIS5_E5eqstrSaIiEEdeEv # -- Begin function _ZNK9__gnu_cxx19_Hashtable_iteratorISt4pairIKPKciES3_NS_4hashIS3_EESt10_Select1stIS5_E5eqstrSaIiEEdeEv
	.p2align	4, 0x90
	.type	_ZNK9__gnu_cxx19_Hashtable_iteratorISt4pairIKPKciES3_NS_4hashIS3_EESt10_Select1stIS5_E5eqstrSaIiEEdeEv,@function
_ZNK9__gnu_cxx19_Hashtable_iteratorISt4pairIKPKciES3_NS_4hashIS3_EESt10_Select1stIS5_E5eqstrSaIiEEdeEv: # @_ZNK9__gnu_cxx19_Hashtable_iteratorISt4pairIKPKciES3_NS_4hashIS3_EESt10_Select1stIS5_E5eqstrSaIiEEdeEv
	.cfi_startproc
# %bb.0:
	pushq	%rbp
	.cfi_def_cfa_offset 16
	.cfi_offset %rbp, -16
	movq	%rsp, %rbp
	.cfi_def_cfa_register %rbp
	movq	(%rdi), %rax
	addq	$8, %rax
	popq	%rbp
	.cfi_def_cfa %rsp, 8
	retq
.Lfunc_end7:
	.size	_ZNK9__gnu_cxx19_Hashtable_iteratorISt4pairIKPKciES3_NS_4hashIS3_EESt10_Select1stIS5_E5eqstrSaIiEEdeEv, .Lfunc_end7-_ZNK9__gnu_cxx19_Hashtable_iteratorISt4pairIKPKciES3_NS_4hashIS3_EESt10_Select1stIS5_E5eqstrSaIiEEdeEv
	.cfi_endproc
                                        # -- End function
	.section	.text._ZN9__gnu_cxx19_Hashtable_iteratorISt4pairIKPKciES3_NS_4hashIS3_EESt10_Select1stIS5_E5eqstrSaIiEEppEv,"axG",@progbits,_ZN9__gnu_cxx19_Hashtable_iteratorISt4pairIKPKciES3_NS_4hashIS3_EESt10_Select1stIS5_E5eqstrSaIiEEppEv,comdat
	.weak	_ZN9__gnu_cxx19_Hashtable_iteratorISt4pairIKPKciES3_NS_4hashIS3_EESt10_Select1stIS5_E5eqstrSaIiEEppEv # -- Begin function _ZN9__gnu_cxx19_Hashtable_iteratorISt4pairIKPKciES3_NS_4hashIS3_EESt10_Select1stIS5_E5eqstrSaIiEEppEv
	.p2align	4, 0x90
	.type	_ZN9__gnu_cxx19_Hashtable_iteratorISt4pairIKPKciES3_NS_4hashIS3_EESt10_Select1stIS5_E5eqstrSaIiEEppEv,@function
_ZN9__gnu_cxx19_Hashtable_iteratorISt4pairIKPKciES3_NS_4hashIS3_EESt10_Select1stIS5_E5eqstrSaIiEEppEv: # @_ZN9__gnu_cxx19_Hashtable_iteratorISt4pairIKPKciES3_NS_4hashIS3_EESt10_Select1stIS5_E5eqstrSaIiEEppEv
	.cfi_startproc
# %bb.0:
	pushq	%rbp
	.cfi_def_cfa_offset 16
	.cfi_offset %rbp, -16
	movq	%rsp, %rbp
	.cfi_def_cfa_register %rbp
	pushq	%r14
	pushq	%rbx
	.cfi_offset %rbx, -32
	.cfi_offset %r14, -24
	movq	%rdi, %r14
	movq	(%rdi), %rsi
	movq	(%rsi), %rax
	movq	%rax, (%rdi)
	testq	%rax, %rax
	je	.LBB8_1
.LBB8_5:                                # %.critedge
	movq	%r14, %rax
	popq	%rbx
	popq	%r14
	popq	%rbp
	.cfi_def_cfa %rsp, 8
	retq
.LBB8_1:
	.cfi_def_cfa %rbp, 16
	movq	8(%r14), %rdi
	addq	$8, %rsi
	callq	_ZNK9__gnu_cxx9hashtableISt4pairIKPKciES3_NS_4hashIS3_EESt10_Select1stIS5_E5eqstrSaIiEE10_M_bkt_numERKS5_
	movq	%rax, %rbx
	movq	(%r14), %rax
	.p2align	4, 0x90
.LBB8_2:                                # =>This Inner Loop Header: Depth=1
	addq	$1, %rbx
	testq	%rax, %rax
	jne	.LBB8_5
# %bb.3:                                #   in Loop: Header=BB8_2 Depth=1
	movq	8(%r14), %rdi
	addq	$8, %rdi
	callq	_ZNKSt6vectorIPN9__gnu_cxx15_Hashtable_nodeISt4pairIKPKciEEESaIS8_EE4sizeEv
	cmpq	%rax, %rbx
	jae	.LBB8_5
# %bb.4:                                #   in Loop: Header=BB8_2 Depth=1
	movq	8(%r14), %rdi
	addq	$8, %rdi
	movq	%rbx, %rsi
	callq	_ZNSt6vectorIPN9__gnu_cxx15_Hashtable_nodeISt4pairIKPKciEEESaIS8_EEixEm
	movq	(%rax), %rax
	movq	%rax, (%r14)
	jmp	.LBB8_2
.Lfunc_end8:
	.size	_ZN9__gnu_cxx19_Hashtable_iteratorISt4pairIKPKciES3_NS_4hashIS3_EESt10_Select1stIS5_E5eqstrSaIiEEppEv, .Lfunc_end8-_ZN9__gnu_cxx19_Hashtable_iteratorISt4pairIKPKciES3_NS_4hashIS3_EESt10_Select1stIS5_E5eqstrSaIiEEppEv
	.cfi_endproc
                                        # -- End function
	.section	.text._ZN9__gnu_cxx8hash_mapIPKciNS_4hashIS2_EE5eqstrSaIiEED2Ev,"axG",@progbits,_ZN9__gnu_cxx8hash_mapIPKciNS_4hashIS2_EE5eqstrSaIiEED2Ev,comdat
	.weak	_ZN9__gnu_cxx8hash_mapIPKciNS_4hashIS2_EE5eqstrSaIiEED2Ev # -- Begin function _ZN9__gnu_cxx8hash_mapIPKciNS_4hashIS2_EE5eqstrSaIiEED2Ev
	.p2align	4, 0x90
	.type	_ZN9__gnu_cxx8hash_mapIPKciNS_4hashIS2_EE5eqstrSaIiEED2Ev,@function
_ZN9__gnu_cxx8hash_mapIPKciNS_4hashIS2_EE5eqstrSaIiEED2Ev: # @_ZN9__gnu_cxx8hash_mapIPKciNS_4hashIS2_EE5eqstrSaIiEED2Ev
	.cfi_startproc
# %bb.0:
	pushq	%rbp
	.cfi_def_cfa_offset 16
	.cfi_offset %rbp, -16
	movq	%rsp, %rbp
	.cfi_def_cfa_register %rbp
	popq	%rbp
	.cfi_def_cfa %rsp, 8
	jmp	_ZN9__gnu_cxx9hashtableISt4pairIKPKciES3_NS_4hashIS3_EESt10_Select1stIS5_E5eqstrSaIiEED2Ev # TAILCALL
.Lfunc_end9:
	.size	_ZN9__gnu_cxx8hash_mapIPKciNS_4hashIS2_EE5eqstrSaIiEED2Ev, .Lfunc_end9-_ZN9__gnu_cxx8hash_mapIPKciNS_4hashIS2_EE5eqstrSaIiEED2Ev
	.cfi_endproc
                                        # -- End function
	.section	.text._ZN9__gnu_cxx9hashtableISt4pairIKPKciES3_NS_4hashIS3_EESt10_Select1stIS5_E5eqstrSaIiEED2Ev,"axG",@progbits,_ZN9__gnu_cxx9hashtableISt4pairIKPKciES3_NS_4hashIS3_EESt10_Select1stIS5_E5eqstrSaIiEED2Ev,comdat
	.weak	_ZN9__gnu_cxx9hashtableISt4pairIKPKciES3_NS_4hashIS3_EESt10_Select1stIS5_E5eqstrSaIiEED2Ev # -- Begin function _ZN9__gnu_cxx9hashtableISt4pairIKPKciES3_NS_4hashIS3_EESt10_Select1stIS5_E5eqstrSaIiEED2Ev
	.p2align	4, 0x90
	.type	_ZN9__gnu_cxx9hashtableISt4pairIKPKciES3_NS_4hashIS3_EESt10_Select1stIS5_E5eqstrSaIiEED2Ev,@function
_ZN9__gnu_cxx9hashtableISt4pairIKPKciES3_NS_4hashIS3_EESt10_Select1stIS5_E5eqstrSaIiEED2Ev: # @_ZN9__gnu_cxx9hashtableISt4pairIKPKciES3_NS_4hashIS3_EESt10_Select1stIS5_E5eqstrSaIiEED2Ev
.Lfunc_begin2:
	.cfi_startproc
	.cfi_personality 3, __gxx_personality_v0
	.cfi_lsda 3, .Lexception2
# %bb.0:
	pushq	%rbp
	.cfi_def_cfa_offset 16
	.cfi_offset %rbp, -16
	movq	%rsp, %rbp
	.cfi_def_cfa_register %rbp
	pushq	%r14
	pushq	%rbx
	.cfi_offset %rbx, -32
	.cfi_offset %r14, -24
	movq	%rdi, %rbx
.Ltmp46:
	callq	_ZN9__gnu_cxx9hashtableISt4pairIKPKciES3_NS_4hashIS3_EESt10_Select1stIS5_E5eqstrSaIiEE5clearEv
.Ltmp47:
# %bb.1:
	leaq	8(%rbx), %rdi
	callq	_ZNSt6vectorIPN9__gnu_cxx15_Hashtable_nodeISt4pairIKPKciEEESaIS8_EED2Ev
	movq	%rbx, %rdi
	popq	%rbx
	popq	%r14
	popq	%rbp
	.cfi_def_cfa %rsp, 8
	jmp	_ZNSaIN9__gnu_cxx15_Hashtable_nodeISt4pairIKPKciEEEED2Ev # TAILCALL
.LBB10_2:
	.cfi_def_cfa %rbp, 16
.Ltmp48:
	movq	%rax, %r14
	leaq	8(%rbx), %rdi
	callq	_ZNSt6vectorIPN9__gnu_cxx15_Hashtable_nodeISt4pairIKPKciEEESaIS8_EED2Ev
	movq	%rbx, %rdi
	callq	_ZNSaIN9__gnu_cxx15_Hashtable_nodeISt4pairIKPKciEEEED2Ev
	movq	%r14, %rdi
	callq	__clang_call_terminate
.Lfunc_end10:
	.size	_ZN9__gnu_cxx9hashtableISt4pairIKPKciES3_NS_4hashIS3_EESt10_Select1stIS5_E5eqstrSaIiEED2Ev, .Lfunc_end10-_ZN9__gnu_cxx9hashtableISt4pairIKPKciES3_NS_4hashIS3_EESt10_Select1stIS5_E5eqstrSaIiEED2Ev
	.cfi_endproc
	.section	.gcc_except_table,"a",@progbits
	.p2align	2
GCC_except_table10:
.Lexception2:
	.byte	255                     # @LPStart Encoding = omit
	.byte	3                       # @TType Encoding = udata4
	.uleb128 .Lttbase0-.Lttbaseref0
.Lttbaseref0:
	.byte	1                       # Call site Encoding = uleb128
	.uleb128 .Lcst_end2-.Lcst_begin2
.Lcst_begin2:
	.uleb128 .Ltmp46-.Lfunc_begin2  # >> Call Site 1 <<
	.uleb128 .Ltmp47-.Ltmp46        #   Call between .Ltmp46 and .Ltmp47
	.uleb128 .Ltmp48-.Lfunc_begin2  #     jumps to .Ltmp48
	.byte	1                       #   On action: 1
.Lcst_end2:
	.byte	1                       # >> Action Record 1 <<
                                        #   Catch TypeInfo 1
	.byte	0                       #   No further actions
	.p2align	2
                                        # >> Catch TypeInfos <<
	.long	0                       # TypeInfo 1
.Lttbase0:
	.p2align	2
                                        # -- End function
	.section	.text._ZN9__gnu_cxx9hashtableISt4pairIKPKciES3_NS_4hashIS3_EESt10_Select1stIS5_E5eqstrSaIiEE5clearEv,"axG",@progbits,_ZN9__gnu_cxx9hashtableISt4pairIKPKciES3_NS_4hashIS3_EESt10_Select1stIS5_E5eqstrSaIiEE5clearEv,comdat
	.weak	_ZN9__gnu_cxx9hashtableISt4pairIKPKciES3_NS_4hashIS3_EESt10_Select1stIS5_E5eqstrSaIiEE5clearEv # -- Begin function _ZN9__gnu_cxx9hashtableISt4pairIKPKciES3_NS_4hashIS3_EESt10_Select1stIS5_E5eqstrSaIiEE5clearEv
	.p2align	4, 0x90
	.type	_ZN9__gnu_cxx9hashtableISt4pairIKPKciES3_NS_4hashIS3_EESt10_Select1stIS5_E5eqstrSaIiEE5clearEv,@function
_ZN9__gnu_cxx9hashtableISt4pairIKPKciES3_NS_4hashIS3_EESt10_Select1stIS5_E5eqstrSaIiEE5clearEv: # @_ZN9__gnu_cxx9hashtableISt4pairIKPKciES3_NS_4hashIS3_EESt10_Select1stIS5_E5eqstrSaIiEE5clearEv
	.cfi_startproc
# %bb.0:
	pushq	%rbp
	.cfi_def_cfa_offset 16
	.cfi_offset %rbp, -16
	movq	%rsp, %rbp
	.cfi_def_cfa_register %rbp
	pushq	%r15
	pushq	%r14
	pushq	%r12
	pushq	%rbx
	.cfi_offset %rbx, -48
	.cfi_offset %r12, -40
	.cfi_offset %r14, -32
	.cfi_offset %r15, -24
	cmpq	$0, 32(%rdi)
	je	.LBB11_8
# %bb.1:                                # %.preheader
	movq	%rdi, %r12
	leaq	8(%rdi), %r14
	xorl	%r15d, %r15d
	jmp	.LBB11_2
	.p2align	4, 0x90
.LBB11_6:                               #   in Loop: Header=BB11_2 Depth=1
	movq	%r14, %rdi
	movq	%r15, %rsi
	callq	_ZNSt6vectorIPN9__gnu_cxx15_Hashtable_nodeISt4pairIKPKciEEESaIS8_EEixEm
	movq	$0, (%rax)
	addq	$1, %r15
.LBB11_2:                               # =>This Loop Header: Depth=1
                                        #     Child Loop BB11_5 Depth 2
	movq	%r14, %rdi
	callq	_ZNKSt6vectorIPN9__gnu_cxx15_Hashtable_nodeISt4pairIKPKciEEESaIS8_EE4sizeEv
	cmpq	%rax, %r15
	jae	.LBB11_7
# %bb.3:                                #   in Loop: Header=BB11_2 Depth=1
	movq	%r14, %rdi
	movq	%r15, %rsi
	callq	_ZNSt6vectorIPN9__gnu_cxx15_Hashtable_nodeISt4pairIKPKciEEESaIS8_EEixEm
	movq	(%rax), %rsi
	testq	%rsi, %rsi
	je	.LBB11_6
	.p2align	4, 0x90
.LBB11_5:                               #   Parent Loop BB11_2 Depth=1
                                        # =>  This Inner Loop Header: Depth=2
	movq	(%rsi), %rbx
	movq	%r12, %rdi
	callq	_ZN9__gnu_cxx9hashtableISt4pairIKPKciES3_NS_4hashIS3_EESt10_Select1stIS5_E5eqstrSaIiEE14_M_delete_nodeEPNS_15_Hashtable_nodeIS5_EE
	movq	%rbx, %rsi
	testq	%rsi, %rsi
	jne	.LBB11_5
	jmp	.LBB11_6
.LBB11_7:
	movq	$0, 32(%r12)
.LBB11_8:
	popq	%rbx
	popq	%r12
	popq	%r14
	popq	%r15
	popq	%rbp
	.cfi_def_cfa %rsp, 8
	retq
.Lfunc_end11:
	.size	_ZN9__gnu_cxx9hashtableISt4pairIKPKciES3_NS_4hashIS3_EESt10_Select1stIS5_E5eqstrSaIiEE5clearEv, .Lfunc_end11-_ZN9__gnu_cxx9hashtableISt4pairIKPKciES3_NS_4hashIS3_EESt10_Select1stIS5_E5eqstrSaIiEE5clearEv
	.cfi_endproc
                                        # -- End function
	.section	.text._ZNSt6vectorIPN9__gnu_cxx15_Hashtable_nodeISt4pairIKPKciEEESaIS8_EED2Ev,"axG",@progbits,_ZNSt6vectorIPN9__gnu_cxx15_Hashtable_nodeISt4pairIKPKciEEESaIS8_EED2Ev,comdat
	.weak	_ZNSt6vectorIPN9__gnu_cxx15_Hashtable_nodeISt4pairIKPKciEEESaIS8_EED2Ev # -- Begin function _ZNSt6vectorIPN9__gnu_cxx15_Hashtable_nodeISt4pairIKPKciEEESaIS8_EED2Ev
	.p2align	4, 0x90
	.type	_ZNSt6vectorIPN9__gnu_cxx15_Hashtable_nodeISt4pairIKPKciEEESaIS8_EED2Ev,@function
_ZNSt6vectorIPN9__gnu_cxx15_Hashtable_nodeISt4pairIKPKciEEESaIS8_EED2Ev: # @_ZNSt6vectorIPN9__gnu_cxx15_Hashtable_nodeISt4pairIKPKciEEESaIS8_EED2Ev
.Lfunc_begin3:
	.cfi_startproc
	.cfi_personality 3, __gxx_personality_v0
	.cfi_lsda 3, .Lexception3
# %bb.0:
	pushq	%rbp
	.cfi_def_cfa_offset 16
	.cfi_offset %rbp, -16
	movq	%rsp, %rbp
	.cfi_def_cfa_register %rbp
	pushq	%r15
	pushq	%r14
	pushq	%rbx
	pushq	%rax
	.cfi_offset %rbx, -40
	.cfi_offset %r14, -32
	.cfi_offset %r15, -24
	movq	%rdi, %rbx
	movq	(%rdi), %r14
	movq	8(%rdi), %r15
	callq	_ZNSt12_Vector_baseIPN9__gnu_cxx15_Hashtable_nodeISt4pairIKPKciEEESaIS8_EE19_M_get_Tp_allocatorEv
.Ltmp49:
	movq	%r14, %rdi
	movq	%r15, %rsi
	movq	%rax, %rdx
	callq	_ZSt8_DestroyIPPN9__gnu_cxx15_Hashtable_nodeISt4pairIKPKciEEES8_EvT_SA_RSaIT0_E
.Ltmp50:
# %bb.1:
	movq	%rbx, %rdi
	addq	$8, %rsp
	popq	%rbx
	popq	%r14
	popq	%r15
	popq	%rbp
	.cfi_def_cfa %rsp, 8
	jmp	_ZNSt12_Vector_baseIPN9__gnu_cxx15_Hashtable_nodeISt4pairIKPKciEEESaIS8_EED2Ev # TAILCALL
.LBB12_2:
	.cfi_def_cfa %rbp, 16
.Ltmp51:
	movq	%rax, %r14
	movq	%rbx, %rdi
	callq	_ZNSt12_Vector_baseIPN9__gnu_cxx15_Hashtable_nodeISt4pairIKPKciEEESaIS8_EED2Ev
	movq	%r14, %rdi
	callq	__clang_call_terminate
.Lfunc_end12:
	.size	_ZNSt6vectorIPN9__gnu_cxx15_Hashtable_nodeISt4pairIKPKciEEESaIS8_EED2Ev, .Lfunc_end12-_ZNSt6vectorIPN9__gnu_cxx15_Hashtable_nodeISt4pairIKPKciEEESaIS8_EED2Ev
	.cfi_endproc
	.section	.gcc_except_table,"a",@progbits
	.p2align	2
GCC_except_table12:
.Lexception3:
	.byte	255                     # @LPStart Encoding = omit
	.byte	3                       # @TType Encoding = udata4
	.uleb128 .Lttbase1-.Lttbaseref1
.Lttbaseref1:
	.byte	1                       # Call site Encoding = uleb128
	.uleb128 .Lcst_end3-.Lcst_begin3
.Lcst_begin3:
	.uleb128 .Ltmp49-.Lfunc_begin3  # >> Call Site 1 <<
	.uleb128 .Ltmp50-.Ltmp49        #   Call between .Ltmp49 and .Ltmp50
	.uleb128 .Ltmp51-.Lfunc_begin3  #     jumps to .Ltmp51
	.byte	1                       #   On action: 1
.Lcst_end3:
	.byte	1                       # >> Action Record 1 <<
                                        #   Catch TypeInfo 1
	.byte	0                       #   No further actions
	.p2align	2
                                        # >> Catch TypeInfos <<
	.long	0                       # TypeInfo 1
.Lttbase1:
	.p2align	2
                                        # -- End function
	.section	.text._ZNSaIN9__gnu_cxx15_Hashtable_nodeISt4pairIKPKciEEEED2Ev,"axG",@progbits,_ZNSaIN9__gnu_cxx15_Hashtable_nodeISt4pairIKPKciEEEED2Ev,comdat
	.weak	_ZNSaIN9__gnu_cxx15_Hashtable_nodeISt4pairIKPKciEEEED2Ev # -- Begin function _ZNSaIN9__gnu_cxx15_Hashtable_nodeISt4pairIKPKciEEEED2Ev
	.p2align	4, 0x90
	.type	_ZNSaIN9__gnu_cxx15_Hashtable_nodeISt4pairIKPKciEEEED2Ev,@function
_ZNSaIN9__gnu_cxx15_Hashtable_nodeISt4pairIKPKciEEEED2Ev: # @_ZNSaIN9__gnu_cxx15_Hashtable_nodeISt4pairIKPKciEEEED2Ev
	.cfi_startproc
# %bb.0:
	pushq	%rbp
	.cfi_def_cfa_offset 16
	.cfi_offset %rbp, -16
	movq	%rsp, %rbp
	.cfi_def_cfa_register %rbp
	popq	%rbp
	.cfi_def_cfa %rsp, 8
	jmp	_ZN9__gnu_cxx13new_allocatorINS_15_Hashtable_nodeISt4pairIKPKciEEEED2Ev # TAILCALL
.Lfunc_end13:
	.size	_ZNSaIN9__gnu_cxx15_Hashtable_nodeISt4pairIKPKciEEEED2Ev, .Lfunc_end13-_ZNSaIN9__gnu_cxx15_Hashtable_nodeISt4pairIKPKciEEEED2Ev
	.cfi_endproc
                                        # -- End function
	.section	.text.__clang_call_terminate,"axG",@progbits,__clang_call_terminate,comdat
	.hidden	__clang_call_terminate  # -- Begin function __clang_call_terminate
	.weak	__clang_call_terminate
	.p2align	4, 0x90
	.type	__clang_call_terminate,@function
__clang_call_terminate:                 # @__clang_call_terminate
# %bb.0:
	pushq	%rax
	callq	__cxa_begin_catch
	callq	_ZSt9terminatev
.Lfunc_end14:
	.size	__clang_call_terminate, .Lfunc_end14-__clang_call_terminate
                                        # -- End function
	.section	.text._ZNKSt6vectorIPN9__gnu_cxx15_Hashtable_nodeISt4pairIKPKciEEESaIS8_EE4sizeEv,"axG",@progbits,_ZNKSt6vectorIPN9__gnu_cxx15_Hashtable_nodeISt4pairIKPKciEEESaIS8_EE4sizeEv,comdat
	.weak	_ZNKSt6vectorIPN9__gnu_cxx15_Hashtable_nodeISt4pairIKPKciEEESaIS8_EE4sizeEv # -- Begin function _ZNKSt6vectorIPN9__gnu_cxx15_Hashtable_nodeISt4pairIKPKciEEESaIS8_EE4sizeEv
	.p2align	4, 0x90
	.type	_ZNKSt6vectorIPN9__gnu_cxx15_Hashtable_nodeISt4pairIKPKciEEESaIS8_EE4sizeEv,@function
_ZNKSt6vectorIPN9__gnu_cxx15_Hashtable_nodeISt4pairIKPKciEEESaIS8_EE4sizeEv: # @_ZNKSt6vectorIPN9__gnu_cxx15_Hashtable_nodeISt4pairIKPKciEEESaIS8_EE4sizeEv
	.cfi_startproc
# %bb.0:
	pushq	%rbp
	.cfi_def_cfa_offset 16
	.cfi_offset %rbp, -16
	movq	%rsp, %rbp
	.cfi_def_cfa_register %rbp
	movq	8(%rdi), %rax
	subq	(%rdi), %rax
	sarq	$3, %rax
	popq	%rbp
	.cfi_def_cfa %rsp, 8
	retq
.Lfunc_end15:
	.size	_ZNKSt6vectorIPN9__gnu_cxx15_Hashtable_nodeISt4pairIKPKciEEESaIS8_EE4sizeEv, .Lfunc_end15-_ZNKSt6vectorIPN9__gnu_cxx15_Hashtable_nodeISt4pairIKPKciEEESaIS8_EE4sizeEv
	.cfi_endproc
                                        # -- End function
	.section	.text._ZNSt6vectorIPN9__gnu_cxx15_Hashtable_nodeISt4pairIKPKciEEESaIS8_EEixEm,"axG",@progbits,_ZNSt6vectorIPN9__gnu_cxx15_Hashtable_nodeISt4pairIKPKciEEESaIS8_EEixEm,comdat
	.weak	_ZNSt6vectorIPN9__gnu_cxx15_Hashtable_nodeISt4pairIKPKciEEESaIS8_EEixEm # -- Begin function _ZNSt6vectorIPN9__gnu_cxx15_Hashtable_nodeISt4pairIKPKciEEESaIS8_EEixEm
	.p2align	4, 0x90
	.type	_ZNSt6vectorIPN9__gnu_cxx15_Hashtable_nodeISt4pairIKPKciEEESaIS8_EEixEm,@function
_ZNSt6vectorIPN9__gnu_cxx15_Hashtable_nodeISt4pairIKPKciEEESaIS8_EEixEm: # @_ZNSt6vectorIPN9__gnu_cxx15_Hashtable_nodeISt4pairIKPKciEEESaIS8_EEixEm
	.cfi_startproc
# %bb.0:
	pushq	%rbp
	.cfi_def_cfa_offset 16
	.cfi_offset %rbp, -16
	movq	%rsp, %rbp
	.cfi_def_cfa_register %rbp
	leaq	(,%rsi,8), %rax
	addq	(%rdi), %rax
	popq	%rbp
	.cfi_def_cfa %rsp, 8
	retq
.Lfunc_end16:
	.size	_ZNSt6vectorIPN9__gnu_cxx15_Hashtable_nodeISt4pairIKPKciEEESaIS8_EEixEm, .Lfunc_end16-_ZNSt6vectorIPN9__gnu_cxx15_Hashtable_nodeISt4pairIKPKciEEESaIS8_EEixEm
	.cfi_endproc
                                        # -- End function
	.section	.text._ZN9__gnu_cxx9hashtableISt4pairIKPKciES3_NS_4hashIS3_EESt10_Select1stIS5_E5eqstrSaIiEE14_M_delete_nodeEPNS_15_Hashtable_nodeIS5_EE,"axG",@progbits,_ZN9__gnu_cxx9hashtableISt4pairIKPKciES3_NS_4hashIS3_EESt10_Select1stIS5_E5eqstrSaIiEE14_M_delete_nodeEPNS_15_Hashtable_nodeIS5_EE,comdat
	.weak	_ZN9__gnu_cxx9hashtableISt4pairIKPKciES3_NS_4hashIS3_EESt10_Select1stIS5_E5eqstrSaIiEE14_M_delete_nodeEPNS_15_Hashtable_nodeIS5_EE # -- Begin function _ZN9__gnu_cxx9hashtableISt4pairIKPKciES3_NS_4hashIS3_EESt10_Select1stIS5_E5eqstrSaIiEE14_M_delete_nodeEPNS_15_Hashtable_nodeIS5_EE
	.p2align	4, 0x90
	.type	_ZN9__gnu_cxx9hashtableISt4pairIKPKciES3_NS_4hashIS3_EESt10_Select1stIS5_E5eqstrSaIiEE14_M_delete_nodeEPNS_15_Hashtable_nodeIS5_EE,@function
_ZN9__gnu_cxx9hashtableISt4pairIKPKciES3_NS_4hashIS3_EESt10_Select1stIS5_E5eqstrSaIiEE14_M_delete_nodeEPNS_15_Hashtable_nodeIS5_EE: # @_ZN9__gnu_cxx9hashtableISt4pairIKPKciES3_NS_4hashIS3_EESt10_Select1stIS5_E5eqstrSaIiEE14_M_delete_nodeEPNS_15_Hashtable_nodeIS5_EE
	.cfi_startproc
# %bb.0:
	pushq	%rbp
	.cfi_def_cfa_offset 16
	.cfi_offset %rbp, -16
	movq	%rsp, %rbp
	.cfi_def_cfa_register %rbp
	pushq	%r15
	pushq	%r14
	pushq	%rbx
	pushq	%rax
	.cfi_offset %rbx, -40
	.cfi_offset %r14, -32
	.cfi_offset %r15, -24
	movq	%rsi, %r14
	movq	%rdi, %rbx
	leaq	-32(%rbp), %r15
	movq	%r15, %rdi
	movq	%rbx, %rsi
	callq	_ZNK9__gnu_cxx9hashtableISt4pairIKPKciES3_NS_4hashIS3_EESt10_Select1stIS5_E5eqstrSaIiEE13get_allocatorEv
	leaq	8(%r14), %rsi
	movq	%r15, %rdi
	callq	_ZN9__gnu_cxx13new_allocatorISt4pairIKPKciEE7destroyIS5_EEvPT_
	movq	%r15, %rdi
	callq	_ZNSaISt4pairIKPKciEED2Ev
	movq	%rbx, %rdi
	movq	%r14, %rsi
	callq	_ZN9__gnu_cxx9hashtableISt4pairIKPKciES3_NS_4hashIS3_EESt10_Select1stIS5_E5eqstrSaIiEE11_M_put_nodeEPNS_15_Hashtable_nodeIS5_EE
	addq	$8, %rsp
	popq	%rbx
	popq	%r14
	popq	%r15
	popq	%rbp
	.cfi_def_cfa %rsp, 8
	retq
.Lfunc_end17:
	.size	_ZN9__gnu_cxx9hashtableISt4pairIKPKciES3_NS_4hashIS3_EESt10_Select1stIS5_E5eqstrSaIiEE14_M_delete_nodeEPNS_15_Hashtable_nodeIS5_EE, .Lfunc_end17-_ZN9__gnu_cxx9hashtableISt4pairIKPKciES3_NS_4hashIS3_EESt10_Select1stIS5_E5eqstrSaIiEE14_M_delete_nodeEPNS_15_Hashtable_nodeIS5_EE
	.cfi_endproc
                                        # -- End function
	.section	.text._ZNK9__gnu_cxx9hashtableISt4pairIKPKciES3_NS_4hashIS3_EESt10_Select1stIS5_E5eqstrSaIiEE13get_allocatorEv,"axG",@progbits,_ZNK9__gnu_cxx9hashtableISt4pairIKPKciES3_NS_4hashIS3_EESt10_Select1stIS5_E5eqstrSaIiEE13get_allocatorEv,comdat
	.weak	_ZNK9__gnu_cxx9hashtableISt4pairIKPKciES3_NS_4hashIS3_EESt10_Select1stIS5_E5eqstrSaIiEE13get_allocatorEv # -- Begin function _ZNK9__gnu_cxx9hashtableISt4pairIKPKciES3_NS_4hashIS3_EESt10_Select1stIS5_E5eqstrSaIiEE13get_allocatorEv
	.p2align	4, 0x90
	.type	_ZNK9__gnu_cxx9hashtableISt4pairIKPKciES3_NS_4hashIS3_EESt10_Select1stIS5_E5eqstrSaIiEE13get_allocatorEv,@function
_ZNK9__gnu_cxx9hashtableISt4pairIKPKciES3_NS_4hashIS3_EESt10_Select1stIS5_E5eqstrSaIiEE13get_allocatorEv: # @_ZNK9__gnu_cxx9hashtableISt4pairIKPKciES3_NS_4hashIS3_EESt10_Select1stIS5_E5eqstrSaIiEE13get_allocatorEv
	.cfi_startproc
# %bb.0:
	pushq	%rbp
	.cfi_def_cfa_offset 16
	.cfi_offset %rbp, -16
	movq	%rsp, %rbp
	.cfi_def_cfa_register %rbp
	pushq	%rbx
	pushq	%rax
	.cfi_offset %rbx, -24
	movq	%rdi, %rbx
	callq	_ZNSaISt4pairIKPKciEEC2IN9__gnu_cxx15_Hashtable_nodeIS3_EEEERKSaIT_E
	movq	%rbx, %rax
	addq	$8, %rsp
	popq	%rbx
	popq	%rbp
	.cfi_def_cfa %rsp, 8
	retq
.Lfunc_end18:
	.size	_ZNK9__gnu_cxx9hashtableISt4pairIKPKciES3_NS_4hashIS3_EESt10_Select1stIS5_E5eqstrSaIiEE13get_allocatorEv, .Lfunc_end18-_ZNK9__gnu_cxx9hashtableISt4pairIKPKciES3_NS_4hashIS3_EESt10_Select1stIS5_E5eqstrSaIiEE13get_allocatorEv
	.cfi_endproc
                                        # -- End function
	.section	.text._ZN9__gnu_cxx13new_allocatorISt4pairIKPKciEE7destroyIS5_EEvPT_,"axG",@progbits,_ZN9__gnu_cxx13new_allocatorISt4pairIKPKciEE7destroyIS5_EEvPT_,comdat
	.weak	_ZN9__gnu_cxx13new_allocatorISt4pairIKPKciEE7destroyIS5_EEvPT_ # -- Begin function _ZN9__gnu_cxx13new_allocatorISt4pairIKPKciEE7destroyIS5_EEvPT_
	.p2align	4, 0x90
	.type	_ZN9__gnu_cxx13new_allocatorISt4pairIKPKciEE7destroyIS5_EEvPT_,@function
_ZN9__gnu_cxx13new_allocatorISt4pairIKPKciEE7destroyIS5_EEvPT_: # @_ZN9__gnu_cxx13new_allocatorISt4pairIKPKciEE7destroyIS5_EEvPT_
	.cfi_startproc
# %bb.0:
	pushq	%rbp
	.cfi_def_cfa_offset 16
	.cfi_offset %rbp, -16
	movq	%rsp, %rbp
	.cfi_def_cfa_register %rbp
	popq	%rbp
	.cfi_def_cfa %rsp, 8
	retq
.Lfunc_end19:
	.size	_ZN9__gnu_cxx13new_allocatorISt4pairIKPKciEE7destroyIS5_EEvPT_, .Lfunc_end19-_ZN9__gnu_cxx13new_allocatorISt4pairIKPKciEE7destroyIS5_EEvPT_
	.cfi_endproc
                                        # -- End function
	.section	.text._ZNSaISt4pairIKPKciEED2Ev,"axG",@progbits,_ZNSaISt4pairIKPKciEED2Ev,comdat
	.weak	_ZNSaISt4pairIKPKciEED2Ev # -- Begin function _ZNSaISt4pairIKPKciEED2Ev
	.p2align	4, 0x90
	.type	_ZNSaISt4pairIKPKciEED2Ev,@function
_ZNSaISt4pairIKPKciEED2Ev:              # @_ZNSaISt4pairIKPKciEED2Ev
	.cfi_startproc
# %bb.0:
	pushq	%rbp
	.cfi_def_cfa_offset 16
	.cfi_offset %rbp, -16
	movq	%rsp, %rbp
	.cfi_def_cfa_register %rbp
	popq	%rbp
	.cfi_def_cfa %rsp, 8
	jmp	_ZN9__gnu_cxx13new_allocatorISt4pairIKPKciEED2Ev # TAILCALL
.Lfunc_end20:
	.size	_ZNSaISt4pairIKPKciEED2Ev, .Lfunc_end20-_ZNSaISt4pairIKPKciEED2Ev
	.cfi_endproc
                                        # -- End function
	.section	.text._ZN9__gnu_cxx9hashtableISt4pairIKPKciES3_NS_4hashIS3_EESt10_Select1stIS5_E5eqstrSaIiEE11_M_put_nodeEPNS_15_Hashtable_nodeIS5_EE,"axG",@progbits,_ZN9__gnu_cxx9hashtableISt4pairIKPKciES3_NS_4hashIS3_EESt10_Select1stIS5_E5eqstrSaIiEE11_M_put_nodeEPNS_15_Hashtable_nodeIS5_EE,comdat
	.weak	_ZN9__gnu_cxx9hashtableISt4pairIKPKciES3_NS_4hashIS3_EESt10_Select1stIS5_E5eqstrSaIiEE11_M_put_nodeEPNS_15_Hashtable_nodeIS5_EE # -- Begin function _ZN9__gnu_cxx9hashtableISt4pairIKPKciES3_NS_4hashIS3_EESt10_Select1stIS5_E5eqstrSaIiEE11_M_put_nodeEPNS_15_Hashtable_nodeIS5_EE
	.p2align	4, 0x90
	.type	_ZN9__gnu_cxx9hashtableISt4pairIKPKciES3_NS_4hashIS3_EESt10_Select1stIS5_E5eqstrSaIiEE11_M_put_nodeEPNS_15_Hashtable_nodeIS5_EE,@function
_ZN9__gnu_cxx9hashtableISt4pairIKPKciES3_NS_4hashIS3_EESt10_Select1stIS5_E5eqstrSaIiEE11_M_put_nodeEPNS_15_Hashtable_nodeIS5_EE: # @_ZN9__gnu_cxx9hashtableISt4pairIKPKciES3_NS_4hashIS3_EESt10_Select1stIS5_E5eqstrSaIiEE11_M_put_nodeEPNS_15_Hashtable_nodeIS5_EE
	.cfi_startproc
# %bb.0:
	pushq	%rbp
	.cfi_def_cfa_offset 16
	.cfi_offset %rbp, -16
	movq	%rsp, %rbp
	.cfi_def_cfa_register %rbp
	movl	$1, %edx
	popq	%rbp
	.cfi_def_cfa %rsp, 8
	jmp	_ZN9__gnu_cxx13new_allocatorINS_15_Hashtable_nodeISt4pairIKPKciEEEE10deallocateEPS7_m # TAILCALL
.Lfunc_end21:
	.size	_ZN9__gnu_cxx9hashtableISt4pairIKPKciES3_NS_4hashIS3_EESt10_Select1stIS5_E5eqstrSaIiEE11_M_put_nodeEPNS_15_Hashtable_nodeIS5_EE, .Lfunc_end21-_ZN9__gnu_cxx9hashtableISt4pairIKPKciES3_NS_4hashIS3_EESt10_Select1stIS5_E5eqstrSaIiEE11_M_put_nodeEPNS_15_Hashtable_nodeIS5_EE
	.cfi_endproc
                                        # -- End function
	.section	.text._ZNSaISt4pairIKPKciEEC2IN9__gnu_cxx15_Hashtable_nodeIS3_EEEERKSaIT_E,"axG",@progbits,_ZNSaISt4pairIKPKciEEC2IN9__gnu_cxx15_Hashtable_nodeIS3_EEEERKSaIT_E,comdat
	.weak	_ZNSaISt4pairIKPKciEEC2IN9__gnu_cxx15_Hashtable_nodeIS3_EEEERKSaIT_E # -- Begin function _ZNSaISt4pairIKPKciEEC2IN9__gnu_cxx15_Hashtable_nodeIS3_EEEERKSaIT_E
	.p2align	4, 0x90
	.type	_ZNSaISt4pairIKPKciEEC2IN9__gnu_cxx15_Hashtable_nodeIS3_EEEERKSaIT_E,@function
_ZNSaISt4pairIKPKciEEC2IN9__gnu_cxx15_Hashtable_nodeIS3_EEEERKSaIT_E: # @_ZNSaISt4pairIKPKciEEC2IN9__gnu_cxx15_Hashtable_nodeIS3_EEEERKSaIT_E
	.cfi_startproc
# %bb.0:
	pushq	%rbp
	.cfi_def_cfa_offset 16
	.cfi_offset %rbp, -16
	movq	%rsp, %rbp
	.cfi_def_cfa_register %rbp
	popq	%rbp
	.cfi_def_cfa %rsp, 8
	jmp	_ZN9__gnu_cxx13new_allocatorISt4pairIKPKciEEC2Ev # TAILCALL
.Lfunc_end22:
	.size	_ZNSaISt4pairIKPKciEEC2IN9__gnu_cxx15_Hashtable_nodeIS3_EEEERKSaIT_E, .Lfunc_end22-_ZNSaISt4pairIKPKciEEC2IN9__gnu_cxx15_Hashtable_nodeIS3_EEEERKSaIT_E
	.cfi_endproc
                                        # -- End function
	.section	.text._ZN9__gnu_cxx13new_allocatorISt4pairIKPKciEEC2Ev,"axG",@progbits,_ZN9__gnu_cxx13new_allocatorISt4pairIKPKciEEC2Ev,comdat
	.weak	_ZN9__gnu_cxx13new_allocatorISt4pairIKPKciEEC2Ev # -- Begin function _ZN9__gnu_cxx13new_allocatorISt4pairIKPKciEEC2Ev
	.p2align	4, 0x90
	.type	_ZN9__gnu_cxx13new_allocatorISt4pairIKPKciEEC2Ev,@function
_ZN9__gnu_cxx13new_allocatorISt4pairIKPKciEEC2Ev: # @_ZN9__gnu_cxx13new_allocatorISt4pairIKPKciEEC2Ev
	.cfi_startproc
# %bb.0:
	pushq	%rbp
	.cfi_def_cfa_offset 16
	.cfi_offset %rbp, -16
	movq	%rsp, %rbp
	.cfi_def_cfa_register %rbp
	popq	%rbp
	.cfi_def_cfa %rsp, 8
	retq
.Lfunc_end23:
	.size	_ZN9__gnu_cxx13new_allocatorISt4pairIKPKciEEC2Ev, .Lfunc_end23-_ZN9__gnu_cxx13new_allocatorISt4pairIKPKciEEC2Ev
	.cfi_endproc
                                        # -- End function
	.section	.text._ZN9__gnu_cxx13new_allocatorISt4pairIKPKciEED2Ev,"axG",@progbits,_ZN9__gnu_cxx13new_allocatorISt4pairIKPKciEED2Ev,comdat
	.weak	_ZN9__gnu_cxx13new_allocatorISt4pairIKPKciEED2Ev # -- Begin function _ZN9__gnu_cxx13new_allocatorISt4pairIKPKciEED2Ev
	.p2align	4, 0x90
	.type	_ZN9__gnu_cxx13new_allocatorISt4pairIKPKciEED2Ev,@function
_ZN9__gnu_cxx13new_allocatorISt4pairIKPKciEED2Ev: # @_ZN9__gnu_cxx13new_allocatorISt4pairIKPKciEED2Ev
	.cfi_startproc
# %bb.0:
	pushq	%rbp
	.cfi_def_cfa_offset 16
	.cfi_offset %rbp, -16
	movq	%rsp, %rbp
	.cfi_def_cfa_register %rbp
	popq	%rbp
	.cfi_def_cfa %rsp, 8
	retq
.Lfunc_end24:
	.size	_ZN9__gnu_cxx13new_allocatorISt4pairIKPKciEED2Ev, .Lfunc_end24-_ZN9__gnu_cxx13new_allocatorISt4pairIKPKciEED2Ev
	.cfi_endproc
                                        # -- End function
	.section	.text._ZN9__gnu_cxx13new_allocatorINS_15_Hashtable_nodeISt4pairIKPKciEEEE10deallocateEPS7_m,"axG",@progbits,_ZN9__gnu_cxx13new_allocatorINS_15_Hashtable_nodeISt4pairIKPKciEEEE10deallocateEPS7_m,comdat
	.weak	_ZN9__gnu_cxx13new_allocatorINS_15_Hashtable_nodeISt4pairIKPKciEEEE10deallocateEPS7_m # -- Begin function _ZN9__gnu_cxx13new_allocatorINS_15_Hashtable_nodeISt4pairIKPKciEEEE10deallocateEPS7_m
	.p2align	4, 0x90
	.type	_ZN9__gnu_cxx13new_allocatorINS_15_Hashtable_nodeISt4pairIKPKciEEEE10deallocateEPS7_m,@function
_ZN9__gnu_cxx13new_allocatorINS_15_Hashtable_nodeISt4pairIKPKciEEEE10deallocateEPS7_m: # @_ZN9__gnu_cxx13new_allocatorINS_15_Hashtable_nodeISt4pairIKPKciEEEE10deallocateEPS7_m
	.cfi_startproc
# %bb.0:
	pushq	%rbp
	.cfi_def_cfa_offset 16
	.cfi_offset %rbp, -16
	movq	%rsp, %rbp
	.cfi_def_cfa_register %rbp
	movq	%rsi, %rdi
	popq	%rbp
	.cfi_def_cfa %rsp, 8
	jmp	_ZdlPv                  # TAILCALL
.Lfunc_end25:
	.size	_ZN9__gnu_cxx13new_allocatorINS_15_Hashtable_nodeISt4pairIKPKciEEEE10deallocateEPS7_m, .Lfunc_end25-_ZN9__gnu_cxx13new_allocatorINS_15_Hashtable_nodeISt4pairIKPKciEEEE10deallocateEPS7_m
	.cfi_endproc
                                        # -- End function
	.section	.text._ZSt8_DestroyIPPN9__gnu_cxx15_Hashtable_nodeISt4pairIKPKciEEES8_EvT_SA_RSaIT0_E,"axG",@progbits,_ZSt8_DestroyIPPN9__gnu_cxx15_Hashtable_nodeISt4pairIKPKciEEES8_EvT_SA_RSaIT0_E,comdat
	.weak	_ZSt8_DestroyIPPN9__gnu_cxx15_Hashtable_nodeISt4pairIKPKciEEES8_EvT_SA_RSaIT0_E # -- Begin function _ZSt8_DestroyIPPN9__gnu_cxx15_Hashtable_nodeISt4pairIKPKciEEES8_EvT_SA_RSaIT0_E
	.p2align	4, 0x90
	.type	_ZSt8_DestroyIPPN9__gnu_cxx15_Hashtable_nodeISt4pairIKPKciEEES8_EvT_SA_RSaIT0_E,@function
_ZSt8_DestroyIPPN9__gnu_cxx15_Hashtable_nodeISt4pairIKPKciEEES8_EvT_SA_RSaIT0_E: # @_ZSt8_DestroyIPPN9__gnu_cxx15_Hashtable_nodeISt4pairIKPKciEEES8_EvT_SA_RSaIT0_E
	.cfi_startproc
# %bb.0:
	pushq	%rbp
	.cfi_def_cfa_offset 16
	.cfi_offset %rbp, -16
	movq	%rsp, %rbp
	.cfi_def_cfa_register %rbp
	popq	%rbp
	.cfi_def_cfa %rsp, 8
	jmp	_ZSt8_DestroyIPPN9__gnu_cxx15_Hashtable_nodeISt4pairIKPKciEEEEvT_SA_ # TAILCALL
.Lfunc_end26:
	.size	_ZSt8_DestroyIPPN9__gnu_cxx15_Hashtable_nodeISt4pairIKPKciEEES8_EvT_SA_RSaIT0_E, .Lfunc_end26-_ZSt8_DestroyIPPN9__gnu_cxx15_Hashtable_nodeISt4pairIKPKciEEES8_EvT_SA_RSaIT0_E
	.cfi_endproc
                                        # -- End function
	.section	.text._ZNSt12_Vector_baseIPN9__gnu_cxx15_Hashtable_nodeISt4pairIKPKciEEESaIS8_EE19_M_get_Tp_allocatorEv,"axG",@progbits,_ZNSt12_Vector_baseIPN9__gnu_cxx15_Hashtable_nodeISt4pairIKPKciEEESaIS8_EE19_M_get_Tp_allocatorEv,comdat
	.weak	_ZNSt12_Vector_baseIPN9__gnu_cxx15_Hashtable_nodeISt4pairIKPKciEEESaIS8_EE19_M_get_Tp_allocatorEv # -- Begin function _ZNSt12_Vector_baseIPN9__gnu_cxx15_Hashtable_nodeISt4pairIKPKciEEESaIS8_EE19_M_get_Tp_allocatorEv
	.p2align	4, 0x90
	.type	_ZNSt12_Vector_baseIPN9__gnu_cxx15_Hashtable_nodeISt4pairIKPKciEEESaIS8_EE19_M_get_Tp_allocatorEv,@function
_ZNSt12_Vector_baseIPN9__gnu_cxx15_Hashtable_nodeISt4pairIKPKciEEESaIS8_EE19_M_get_Tp_allocatorEv: # @_ZNSt12_Vector_baseIPN9__gnu_cxx15_Hashtable_nodeISt4pairIKPKciEEESaIS8_EE19_M_get_Tp_allocatorEv
	.cfi_startproc
# %bb.0:
	pushq	%rbp
	.cfi_def_cfa_offset 16
	.cfi_offset %rbp, -16
	movq	%rsp, %rbp
	.cfi_def_cfa_register %rbp
	movq	%rdi, %rax
	popq	%rbp
	.cfi_def_cfa %rsp, 8
	retq
.Lfunc_end27:
	.size	_ZNSt12_Vector_baseIPN9__gnu_cxx15_Hashtable_nodeISt4pairIKPKciEEESaIS8_EE19_M_get_Tp_allocatorEv, .Lfunc_end27-_ZNSt12_Vector_baseIPN9__gnu_cxx15_Hashtable_nodeISt4pairIKPKciEEESaIS8_EE19_M_get_Tp_allocatorEv
	.cfi_endproc
                                        # -- End function
	.section	.text._ZNSt12_Vector_baseIPN9__gnu_cxx15_Hashtable_nodeISt4pairIKPKciEEESaIS8_EED2Ev,"axG",@progbits,_ZNSt12_Vector_baseIPN9__gnu_cxx15_Hashtable_nodeISt4pairIKPKciEEESaIS8_EED2Ev,comdat
	.weak	_ZNSt12_Vector_baseIPN9__gnu_cxx15_Hashtable_nodeISt4pairIKPKciEEESaIS8_EED2Ev # -- Begin function _ZNSt12_Vector_baseIPN9__gnu_cxx15_Hashtable_nodeISt4pairIKPKciEEESaIS8_EED2Ev
	.p2align	4, 0x90
	.type	_ZNSt12_Vector_baseIPN9__gnu_cxx15_Hashtable_nodeISt4pairIKPKciEEESaIS8_EED2Ev,@function
_ZNSt12_Vector_baseIPN9__gnu_cxx15_Hashtable_nodeISt4pairIKPKciEEESaIS8_EED2Ev: # @_ZNSt12_Vector_baseIPN9__gnu_cxx15_Hashtable_nodeISt4pairIKPKciEEESaIS8_EED2Ev
.Lfunc_begin4:
	.cfi_startproc
	.cfi_personality 3, __gxx_personality_v0
	.cfi_lsda 3, .Lexception4
# %bb.0:
	pushq	%rbp
	.cfi_def_cfa_offset 16
	.cfi_offset %rbp, -16
	movq	%rsp, %rbp
	.cfi_def_cfa_register %rbp
	pushq	%r14
	pushq	%rbx
	.cfi_offset %rbx, -32
	.cfi_offset %r14, -24
	movq	%rdi, %rbx
	movq	(%rdi), %rsi
	movq	16(%rdi), %rdx
	subq	%rsi, %rdx
	sarq	$3, %rdx
.Ltmp52:
	callq	_ZNSt12_Vector_baseIPN9__gnu_cxx15_Hashtable_nodeISt4pairIKPKciEEESaIS8_EE13_M_deallocateEPS8_m
.Ltmp53:
# %bb.1:
	movq	%rbx, %rdi
	popq	%rbx
	popq	%r14
	popq	%rbp
	.cfi_def_cfa %rsp, 8
	jmp	_ZNSt12_Vector_baseIPN9__gnu_cxx15_Hashtable_nodeISt4pairIKPKciEEESaIS8_EE12_Vector_implD2Ev # TAILCALL
.LBB28_2:
	.cfi_def_cfa %rbp, 16
.Ltmp54:
	movq	%rax, %r14
	movq	%rbx, %rdi
	callq	_ZNSt12_Vector_baseIPN9__gnu_cxx15_Hashtable_nodeISt4pairIKPKciEEESaIS8_EE12_Vector_implD2Ev
	movq	%r14, %rdi
	callq	__clang_call_terminate
.Lfunc_end28:
	.size	_ZNSt12_Vector_baseIPN9__gnu_cxx15_Hashtable_nodeISt4pairIKPKciEEESaIS8_EED2Ev, .Lfunc_end28-_ZNSt12_Vector_baseIPN9__gnu_cxx15_Hashtable_nodeISt4pairIKPKciEEESaIS8_EED2Ev
	.cfi_endproc
	.section	.gcc_except_table,"a",@progbits
	.p2align	2
GCC_except_table28:
.Lexception4:
	.byte	255                     # @LPStart Encoding = omit
	.byte	3                       # @TType Encoding = udata4
	.uleb128 .Lttbase2-.Lttbaseref2
.Lttbaseref2:
	.byte	1                       # Call site Encoding = uleb128
	.uleb128 .Lcst_end4-.Lcst_begin4
.Lcst_begin4:
	.uleb128 .Ltmp52-.Lfunc_begin4  # >> Call Site 1 <<
	.uleb128 .Ltmp53-.Ltmp52        #   Call between .Ltmp52 and .Ltmp53
	.uleb128 .Ltmp54-.Lfunc_begin4  #     jumps to .Ltmp54
	.byte	1                       #   On action: 1
.Lcst_end4:
	.byte	1                       # >> Action Record 1 <<
                                        #   Catch TypeInfo 1
	.byte	0                       #   No further actions
	.p2align	2
                                        # >> Catch TypeInfos <<
	.long	0                       # TypeInfo 1
.Lttbase2:
	.p2align	2
                                        # -- End function
	.section	.text._ZSt8_DestroyIPPN9__gnu_cxx15_Hashtable_nodeISt4pairIKPKciEEEEvT_SA_,"axG",@progbits,_ZSt8_DestroyIPPN9__gnu_cxx15_Hashtable_nodeISt4pairIKPKciEEEEvT_SA_,comdat
	.weak	_ZSt8_DestroyIPPN9__gnu_cxx15_Hashtable_nodeISt4pairIKPKciEEEEvT_SA_ # -- Begin function _ZSt8_DestroyIPPN9__gnu_cxx15_Hashtable_nodeISt4pairIKPKciEEEEvT_SA_
	.p2align	4, 0x90
	.type	_ZSt8_DestroyIPPN9__gnu_cxx15_Hashtable_nodeISt4pairIKPKciEEEEvT_SA_,@function
_ZSt8_DestroyIPPN9__gnu_cxx15_Hashtable_nodeISt4pairIKPKciEEEEvT_SA_: # @_ZSt8_DestroyIPPN9__gnu_cxx15_Hashtable_nodeISt4pairIKPKciEEEEvT_SA_
	.cfi_startproc
# %bb.0:
	pushq	%rbp
	.cfi_def_cfa_offset 16
	.cfi_offset %rbp, -16
	movq	%rsp, %rbp
	.cfi_def_cfa_register %rbp
	popq	%rbp
	.cfi_def_cfa %rsp, 8
	jmp	_ZNSt12_Destroy_auxILb1EE9__destroyIPPN9__gnu_cxx15_Hashtable_nodeISt4pairIKPKciEEEEEvT_SC_ # TAILCALL
.Lfunc_end29:
	.size	_ZSt8_DestroyIPPN9__gnu_cxx15_Hashtable_nodeISt4pairIKPKciEEEEvT_SA_, .Lfunc_end29-_ZSt8_DestroyIPPN9__gnu_cxx15_Hashtable_nodeISt4pairIKPKciEEEEvT_SA_
	.cfi_endproc
                                        # -- End function
	.section	.text._ZNSt12_Destroy_auxILb1EE9__destroyIPPN9__gnu_cxx15_Hashtable_nodeISt4pairIKPKciEEEEEvT_SC_,"axG",@progbits,_ZNSt12_Destroy_auxILb1EE9__destroyIPPN9__gnu_cxx15_Hashtable_nodeISt4pairIKPKciEEEEEvT_SC_,comdat
	.weak	_ZNSt12_Destroy_auxILb1EE9__destroyIPPN9__gnu_cxx15_Hashtable_nodeISt4pairIKPKciEEEEEvT_SC_ # -- Begin function _ZNSt12_Destroy_auxILb1EE9__destroyIPPN9__gnu_cxx15_Hashtable_nodeISt4pairIKPKciEEEEEvT_SC_
	.p2align	4, 0x90
	.type	_ZNSt12_Destroy_auxILb1EE9__destroyIPPN9__gnu_cxx15_Hashtable_nodeISt4pairIKPKciEEEEEvT_SC_,@function
_ZNSt12_Destroy_auxILb1EE9__destroyIPPN9__gnu_cxx15_Hashtable_nodeISt4pairIKPKciEEEEEvT_SC_: # @_ZNSt12_Destroy_auxILb1EE9__destroyIPPN9__gnu_cxx15_Hashtable_nodeISt4pairIKPKciEEEEEvT_SC_
	.cfi_startproc
# %bb.0:
	pushq	%rbp
	.cfi_def_cfa_offset 16
	.cfi_offset %rbp, -16
	movq	%rsp, %rbp
	.cfi_def_cfa_register %rbp
	popq	%rbp
	.cfi_def_cfa %rsp, 8
	retq
.Lfunc_end30:
	.size	_ZNSt12_Destroy_auxILb1EE9__destroyIPPN9__gnu_cxx15_Hashtable_nodeISt4pairIKPKciEEEEEvT_SC_, .Lfunc_end30-_ZNSt12_Destroy_auxILb1EE9__destroyIPPN9__gnu_cxx15_Hashtable_nodeISt4pairIKPKciEEEEEvT_SC_
	.cfi_endproc
                                        # -- End function
	.section	.text._ZNSt12_Vector_baseIPN9__gnu_cxx15_Hashtable_nodeISt4pairIKPKciEEESaIS8_EE13_M_deallocateEPS8_m,"axG",@progbits,_ZNSt12_Vector_baseIPN9__gnu_cxx15_Hashtable_nodeISt4pairIKPKciEEESaIS8_EE13_M_deallocateEPS8_m,comdat
	.weak	_ZNSt12_Vector_baseIPN9__gnu_cxx15_Hashtable_nodeISt4pairIKPKciEEESaIS8_EE13_M_deallocateEPS8_m # -- Begin function _ZNSt12_Vector_baseIPN9__gnu_cxx15_Hashtable_nodeISt4pairIKPKciEEESaIS8_EE13_M_deallocateEPS8_m
	.p2align	4, 0x90
	.type	_ZNSt12_Vector_baseIPN9__gnu_cxx15_Hashtable_nodeISt4pairIKPKciEEESaIS8_EE13_M_deallocateEPS8_m,@function
_ZNSt12_Vector_baseIPN9__gnu_cxx15_Hashtable_nodeISt4pairIKPKciEEESaIS8_EE13_M_deallocateEPS8_m: # @_ZNSt12_Vector_baseIPN9__gnu_cxx15_Hashtable_nodeISt4pairIKPKciEEESaIS8_EE13_M_deallocateEPS8_m
	.cfi_startproc
# %bb.0:
	pushq	%rbp
	.cfi_def_cfa_offset 16
	.cfi_offset %rbp, -16
	movq	%rsp, %rbp
	.cfi_def_cfa_register %rbp
	testq	%rsi, %rsi
	je	.LBB31_1
# %bb.2:
	popq	%rbp
	.cfi_def_cfa %rsp, 8
	jmp	_ZNSt16allocator_traitsISaIPN9__gnu_cxx15_Hashtable_nodeISt4pairIKPKciEEEEE10deallocateERS9_PS8_m # TAILCALL
.LBB31_1:
	.cfi_def_cfa %rbp, 16
	popq	%rbp
	.cfi_def_cfa %rsp, 8
	retq
.Lfunc_end31:
	.size	_ZNSt12_Vector_baseIPN9__gnu_cxx15_Hashtable_nodeISt4pairIKPKciEEESaIS8_EE13_M_deallocateEPS8_m, .Lfunc_end31-_ZNSt12_Vector_baseIPN9__gnu_cxx15_Hashtable_nodeISt4pairIKPKciEEESaIS8_EE13_M_deallocateEPS8_m
	.cfi_endproc
                                        # -- End function
	.section	.text._ZNSt12_Vector_baseIPN9__gnu_cxx15_Hashtable_nodeISt4pairIKPKciEEESaIS8_EE12_Vector_implD2Ev,"axG",@progbits,_ZNSt12_Vector_baseIPN9__gnu_cxx15_Hashtable_nodeISt4pairIKPKciEEESaIS8_EE12_Vector_implD2Ev,comdat
	.weak	_ZNSt12_Vector_baseIPN9__gnu_cxx15_Hashtable_nodeISt4pairIKPKciEEESaIS8_EE12_Vector_implD2Ev # -- Begin function _ZNSt12_Vector_baseIPN9__gnu_cxx15_Hashtable_nodeISt4pairIKPKciEEESaIS8_EE12_Vector_implD2Ev
	.p2align	4, 0x90
	.type	_ZNSt12_Vector_baseIPN9__gnu_cxx15_Hashtable_nodeISt4pairIKPKciEEESaIS8_EE12_Vector_implD2Ev,@function
_ZNSt12_Vector_baseIPN9__gnu_cxx15_Hashtable_nodeISt4pairIKPKciEEESaIS8_EE12_Vector_implD2Ev: # @_ZNSt12_Vector_baseIPN9__gnu_cxx15_Hashtable_nodeISt4pairIKPKciEEESaIS8_EE12_Vector_implD2Ev
	.cfi_startproc
# %bb.0:
	pushq	%rbp
	.cfi_def_cfa_offset 16
	.cfi_offset %rbp, -16
	movq	%rsp, %rbp
	.cfi_def_cfa_register %rbp
	popq	%rbp
	.cfi_def_cfa %rsp, 8
	jmp	_ZNSaIPN9__gnu_cxx15_Hashtable_nodeISt4pairIKPKciEEEED2Ev # TAILCALL
.Lfunc_end32:
	.size	_ZNSt12_Vector_baseIPN9__gnu_cxx15_Hashtable_nodeISt4pairIKPKciEEESaIS8_EE12_Vector_implD2Ev, .Lfunc_end32-_ZNSt12_Vector_baseIPN9__gnu_cxx15_Hashtable_nodeISt4pairIKPKciEEESaIS8_EE12_Vector_implD2Ev
	.cfi_endproc
                                        # -- End function
	.section	.text._ZNSt16allocator_traitsISaIPN9__gnu_cxx15_Hashtable_nodeISt4pairIKPKciEEEEE10deallocateERS9_PS8_m,"axG",@progbits,_ZNSt16allocator_traitsISaIPN9__gnu_cxx15_Hashtable_nodeISt4pairIKPKciEEEEE10deallocateERS9_PS8_m,comdat
	.weak	_ZNSt16allocator_traitsISaIPN9__gnu_cxx15_Hashtable_nodeISt4pairIKPKciEEEEE10deallocateERS9_PS8_m # -- Begin function _ZNSt16allocator_traitsISaIPN9__gnu_cxx15_Hashtable_nodeISt4pairIKPKciEEEEE10deallocateERS9_PS8_m
	.p2align	4, 0x90
	.type	_ZNSt16allocator_traitsISaIPN9__gnu_cxx15_Hashtable_nodeISt4pairIKPKciEEEEE10deallocateERS9_PS8_m,@function
_ZNSt16allocator_traitsISaIPN9__gnu_cxx15_Hashtable_nodeISt4pairIKPKciEEEEE10deallocateERS9_PS8_m: # @_ZNSt16allocator_traitsISaIPN9__gnu_cxx15_Hashtable_nodeISt4pairIKPKciEEEEE10deallocateERS9_PS8_m
	.cfi_startproc
# %bb.0:
	pushq	%rbp
	.cfi_def_cfa_offset 16
	.cfi_offset %rbp, -16
	movq	%rsp, %rbp
	.cfi_def_cfa_register %rbp
	popq	%rbp
	.cfi_def_cfa %rsp, 8
	jmp	_ZN9__gnu_cxx13new_allocatorIPNS_15_Hashtable_nodeISt4pairIKPKciEEEE10deallocateEPS8_m # TAILCALL
.Lfunc_end33:
	.size	_ZNSt16allocator_traitsISaIPN9__gnu_cxx15_Hashtable_nodeISt4pairIKPKciEEEEE10deallocateERS9_PS8_m, .Lfunc_end33-_ZNSt16allocator_traitsISaIPN9__gnu_cxx15_Hashtable_nodeISt4pairIKPKciEEEEE10deallocateERS9_PS8_m
	.cfi_endproc
                                        # -- End function
	.section	.text._ZN9__gnu_cxx13new_allocatorIPNS_15_Hashtable_nodeISt4pairIKPKciEEEE10deallocateEPS8_m,"axG",@progbits,_ZN9__gnu_cxx13new_allocatorIPNS_15_Hashtable_nodeISt4pairIKPKciEEEE10deallocateEPS8_m,comdat
	.weak	_ZN9__gnu_cxx13new_allocatorIPNS_15_Hashtable_nodeISt4pairIKPKciEEEE10deallocateEPS8_m # -- Begin function _ZN9__gnu_cxx13new_allocatorIPNS_15_Hashtable_nodeISt4pairIKPKciEEEE10deallocateEPS8_m
	.p2align	4, 0x90
	.type	_ZN9__gnu_cxx13new_allocatorIPNS_15_Hashtable_nodeISt4pairIKPKciEEEE10deallocateEPS8_m,@function
_ZN9__gnu_cxx13new_allocatorIPNS_15_Hashtable_nodeISt4pairIKPKciEEEE10deallocateEPS8_m: # @_ZN9__gnu_cxx13new_allocatorIPNS_15_Hashtable_nodeISt4pairIKPKciEEEE10deallocateEPS8_m
	.cfi_startproc
# %bb.0:
	pushq	%rbp
	.cfi_def_cfa_offset 16
	.cfi_offset %rbp, -16
	movq	%rsp, %rbp
	.cfi_def_cfa_register %rbp
	movq	%rsi, %rdi
	popq	%rbp
	.cfi_def_cfa %rsp, 8
	jmp	_ZdlPv                  # TAILCALL
.Lfunc_end34:
	.size	_ZN9__gnu_cxx13new_allocatorIPNS_15_Hashtable_nodeISt4pairIKPKciEEEE10deallocateEPS8_m, .Lfunc_end34-_ZN9__gnu_cxx13new_allocatorIPNS_15_Hashtable_nodeISt4pairIKPKciEEEE10deallocateEPS8_m
	.cfi_endproc
                                        # -- End function
	.section	.text._ZN9__gnu_cxx13new_allocatorIPNS_15_Hashtable_nodeISt4pairIKPKciEEEED2Ev,"axG",@progbits,_ZN9__gnu_cxx13new_allocatorIPNS_15_Hashtable_nodeISt4pairIKPKciEEEED2Ev,comdat
	.weak	_ZN9__gnu_cxx13new_allocatorIPNS_15_Hashtable_nodeISt4pairIKPKciEEEED2Ev # -- Begin function _ZN9__gnu_cxx13new_allocatorIPNS_15_Hashtable_nodeISt4pairIKPKciEEEED2Ev
	.p2align	4, 0x90
	.type	_ZN9__gnu_cxx13new_allocatorIPNS_15_Hashtable_nodeISt4pairIKPKciEEEED2Ev,@function
_ZN9__gnu_cxx13new_allocatorIPNS_15_Hashtable_nodeISt4pairIKPKciEEEED2Ev: # @_ZN9__gnu_cxx13new_allocatorIPNS_15_Hashtable_nodeISt4pairIKPKciEEEED2Ev
	.cfi_startproc
# %bb.0:
	pushq	%rbp
	.cfi_def_cfa_offset 16
	.cfi_offset %rbp, -16
	movq	%rsp, %rbp
	.cfi_def_cfa_register %rbp
	popq	%rbp
	.cfi_def_cfa %rsp, 8
	retq
.Lfunc_end35:
	.size	_ZN9__gnu_cxx13new_allocatorIPNS_15_Hashtable_nodeISt4pairIKPKciEEEED2Ev, .Lfunc_end35-_ZN9__gnu_cxx13new_allocatorIPNS_15_Hashtable_nodeISt4pairIKPKciEEEED2Ev
	.cfi_endproc
                                        # -- End function
	.section	.text._ZN9__gnu_cxx13new_allocatorINS_15_Hashtable_nodeISt4pairIKPKciEEEED2Ev,"axG",@progbits,_ZN9__gnu_cxx13new_allocatorINS_15_Hashtable_nodeISt4pairIKPKciEEEED2Ev,comdat
	.weak	_ZN9__gnu_cxx13new_allocatorINS_15_Hashtable_nodeISt4pairIKPKciEEEED2Ev # -- Begin function _ZN9__gnu_cxx13new_allocatorINS_15_Hashtable_nodeISt4pairIKPKciEEEED2Ev
	.p2align	4, 0x90
	.type	_ZN9__gnu_cxx13new_allocatorINS_15_Hashtable_nodeISt4pairIKPKciEEEED2Ev,@function
_ZN9__gnu_cxx13new_allocatorINS_15_Hashtable_nodeISt4pairIKPKciEEEED2Ev: # @_ZN9__gnu_cxx13new_allocatorINS_15_Hashtable_nodeISt4pairIKPKciEEEED2Ev
	.cfi_startproc
# %bb.0:
	pushq	%rbp
	.cfi_def_cfa_offset 16
	.cfi_offset %rbp, -16
	movq	%rsp, %rbp
	.cfi_def_cfa_register %rbp
	popq	%rbp
	.cfi_def_cfa %rsp, 8
	retq
.Lfunc_end36:
	.size	_ZN9__gnu_cxx13new_allocatorINS_15_Hashtable_nodeISt4pairIKPKciEEEED2Ev, .Lfunc_end36-_ZN9__gnu_cxx13new_allocatorINS_15_Hashtable_nodeISt4pairIKPKciEEEED2Ev
	.cfi_endproc
                                        # -- End function
	.section	.text._ZNSaISt4pairIKPKciEEC2Ev,"axG",@progbits,_ZNSaISt4pairIKPKciEEC2Ev,comdat
	.weak	_ZNSaISt4pairIKPKciEEC2Ev # -- Begin function _ZNSaISt4pairIKPKciEEC2Ev
	.p2align	4, 0x90
	.type	_ZNSaISt4pairIKPKciEEC2Ev,@function
_ZNSaISt4pairIKPKciEEC2Ev:              # @_ZNSaISt4pairIKPKciEEC2Ev
	.cfi_startproc
# %bb.0:
	pushq	%rbp
	.cfi_def_cfa_offset 16
	.cfi_offset %rbp, -16
	movq	%rsp, %rbp
	.cfi_def_cfa_register %rbp
	popq	%rbp
	.cfi_def_cfa %rsp, 8
	jmp	_ZN9__gnu_cxx13new_allocatorISt4pairIKPKciEEC2Ev # TAILCALL
.Lfunc_end37:
	.size	_ZNSaISt4pairIKPKciEEC2Ev, .Lfunc_end37-_ZNSaISt4pairIKPKciEEC2Ev
	.cfi_endproc
                                        # -- End function
	.section	.text._ZN9__gnu_cxx9hashtableISt4pairIKPKciES3_NS_4hashIS3_EESt10_Select1stIS5_E5eqstrSaIiEEC2EmRKS7_RKSA_RKSaIS5_E,"axG",@progbits,_ZN9__gnu_cxx9hashtableISt4pairIKPKciES3_NS_4hashIS3_EESt10_Select1stIS5_E5eqstrSaIiEEC2EmRKS7_RKSA_RKSaIS5_E,comdat
	.weak	_ZN9__gnu_cxx9hashtableISt4pairIKPKciES3_NS_4hashIS3_EESt10_Select1stIS5_E5eqstrSaIiEEC2EmRKS7_RKSA_RKSaIS5_E # -- Begin function _ZN9__gnu_cxx9hashtableISt4pairIKPKciES3_NS_4hashIS3_EESt10_Select1stIS5_E5eqstrSaIiEEC2EmRKS7_RKSA_RKSaIS5_E
	.p2align	4, 0x90
	.type	_ZN9__gnu_cxx9hashtableISt4pairIKPKciES3_NS_4hashIS3_EESt10_Select1stIS5_E5eqstrSaIiEEC2EmRKS7_RKSA_RKSaIS5_E,@function
_ZN9__gnu_cxx9hashtableISt4pairIKPKciES3_NS_4hashIS3_EESt10_Select1stIS5_E5eqstrSaIiEEC2EmRKS7_RKSA_RKSaIS5_E: # @_ZN9__gnu_cxx9hashtableISt4pairIKPKciES3_NS_4hashIS3_EESt10_Select1stIS5_E5eqstrSaIiEEC2EmRKS7_RKSA_RKSaIS5_E
.Lfunc_begin5:
	.cfi_startproc
	.cfi_personality 3, __gxx_personality_v0
	.cfi_lsda 3, .Lexception5
# %bb.0:
	pushq	%rbp
	.cfi_def_cfa_offset 16
	.cfi_offset %rbp, -16
	movq	%rsp, %rbp
	.cfi_def_cfa_register %rbp
	pushq	%r15
	pushq	%r14
	pushq	%r13
	pushq	%r12
	pushq	%rbx
	pushq	%rax
	.cfi_offset %rbx, -56
	.cfi_offset %r12, -48
	.cfi_offset %r13, -40
	.cfi_offset %r14, -32
	.cfi_offset %r15, -24
	movq	%r8, %rbx
	movq	%rsi, %r12
	movq	%rdi, %r15
	movq	%r8, %rsi
	callq	_ZNSaIN9__gnu_cxx15_Hashtable_nodeISt4pairIKPKciEEEEC2IS5_EERKSaIT_E
	leaq	8(%r15), %r14
	leaq	-48(%rbp), %r13
	movq	%r13, %rdi
	movq	%rbx, %rsi
	callq	_ZNSaIPN9__gnu_cxx15_Hashtable_nodeISt4pairIKPKciEEEEC2IS5_EERKSaIT_E
	movq	%r14, %rdi
	movq	%r13, %rsi
	callq	_ZNSt6vectorIPN9__gnu_cxx15_Hashtable_nodeISt4pairIKPKciEEESaIS8_EEC2ERKS9_
	movq	%r13, %rdi
	callq	_ZNSaIPN9__gnu_cxx15_Hashtable_nodeISt4pairIKPKciEEEED2Ev
	movq	$0, 32(%r15)
.Ltmp55:
	movq	%r15, %rdi
	movq	%r12, %rsi
	callq	_ZN9__gnu_cxx9hashtableISt4pairIKPKciES3_NS_4hashIS3_EESt10_Select1stIS5_E5eqstrSaIiEE21_M_initialize_bucketsEm
.Ltmp56:
# %bb.1:
	addq	$8, %rsp
	popq	%rbx
	popq	%r12
	popq	%r13
	popq	%r14
	popq	%r15
	popq	%rbp
	.cfi_def_cfa %rsp, 8
	retq
.LBB38_2:
	.cfi_def_cfa %rbp, 16
.Ltmp57:
	movq	%rax, %rbx
	movq	%r14, %rdi
	callq	_ZNSt6vectorIPN9__gnu_cxx15_Hashtable_nodeISt4pairIKPKciEEESaIS8_EED2Ev
	movq	%r15, %rdi
	callq	_ZNSaIN9__gnu_cxx15_Hashtable_nodeISt4pairIKPKciEEEED2Ev
	movq	%rbx, %rdi
	callq	_Unwind_Resume
.Lfunc_end38:
	.size	_ZN9__gnu_cxx9hashtableISt4pairIKPKciES3_NS_4hashIS3_EESt10_Select1stIS5_E5eqstrSaIiEEC2EmRKS7_RKSA_RKSaIS5_E, .Lfunc_end38-_ZN9__gnu_cxx9hashtableISt4pairIKPKciES3_NS_4hashIS3_EESt10_Select1stIS5_E5eqstrSaIiEEC2EmRKS7_RKSA_RKSaIS5_E
	.cfi_endproc
	.section	.gcc_except_table,"a",@progbits
	.p2align	2
GCC_except_table38:
.Lexception5:
	.byte	255                     # @LPStart Encoding = omit
	.byte	255                     # @TType Encoding = omit
	.byte	1                       # Call site Encoding = uleb128
	.uleb128 .Lcst_end5-.Lcst_begin5
.Lcst_begin5:
	.uleb128 .Ltmp55-.Lfunc_begin5  # >> Call Site 1 <<
	.uleb128 .Ltmp56-.Ltmp55        #   Call between .Ltmp55 and .Ltmp56
	.uleb128 .Ltmp57-.Lfunc_begin5  #     jumps to .Ltmp57
	.byte	0                       #   On action: cleanup
	.uleb128 .Ltmp56-.Lfunc_begin5  # >> Call Site 2 <<
	.uleb128 .Lfunc_end38-.Ltmp56   #   Call between .Ltmp56 and .Lfunc_end38
	.byte	0                       #     has no landing pad
	.byte	0                       #   On action: cleanup
.Lcst_end5:
	.p2align	2
                                        # -- End function
	.section	.text._ZNSaIN9__gnu_cxx15_Hashtable_nodeISt4pairIKPKciEEEEC2IS5_EERKSaIT_E,"axG",@progbits,_ZNSaIN9__gnu_cxx15_Hashtable_nodeISt4pairIKPKciEEEEC2IS5_EERKSaIT_E,comdat
	.weak	_ZNSaIN9__gnu_cxx15_Hashtable_nodeISt4pairIKPKciEEEEC2IS5_EERKSaIT_E # -- Begin function _ZNSaIN9__gnu_cxx15_Hashtable_nodeISt4pairIKPKciEEEEC2IS5_EERKSaIT_E
	.p2align	4, 0x90
	.type	_ZNSaIN9__gnu_cxx15_Hashtable_nodeISt4pairIKPKciEEEEC2IS5_EERKSaIT_E,@function
_ZNSaIN9__gnu_cxx15_Hashtable_nodeISt4pairIKPKciEEEEC2IS5_EERKSaIT_E: # @_ZNSaIN9__gnu_cxx15_Hashtable_nodeISt4pairIKPKciEEEEC2IS5_EERKSaIT_E
	.cfi_startproc
# %bb.0:
	pushq	%rbp
	.cfi_def_cfa_offset 16
	.cfi_offset %rbp, -16
	movq	%rsp, %rbp
	.cfi_def_cfa_register %rbp
	popq	%rbp
	.cfi_def_cfa %rsp, 8
	jmp	_ZN9__gnu_cxx13new_allocatorINS_15_Hashtable_nodeISt4pairIKPKciEEEEC2Ev # TAILCALL
.Lfunc_end39:
	.size	_ZNSaIN9__gnu_cxx15_Hashtable_nodeISt4pairIKPKciEEEEC2IS5_EERKSaIT_E, .Lfunc_end39-_ZNSaIN9__gnu_cxx15_Hashtable_nodeISt4pairIKPKciEEEEC2IS5_EERKSaIT_E
	.cfi_endproc
                                        # -- End function
	.section	.text._ZNSaIPN9__gnu_cxx15_Hashtable_nodeISt4pairIKPKciEEEEC2IS5_EERKSaIT_E,"axG",@progbits,_ZNSaIPN9__gnu_cxx15_Hashtable_nodeISt4pairIKPKciEEEEC2IS5_EERKSaIT_E,comdat
	.weak	_ZNSaIPN9__gnu_cxx15_Hashtable_nodeISt4pairIKPKciEEEEC2IS5_EERKSaIT_E # -- Begin function _ZNSaIPN9__gnu_cxx15_Hashtable_nodeISt4pairIKPKciEEEEC2IS5_EERKSaIT_E
	.p2align	4, 0x90
	.type	_ZNSaIPN9__gnu_cxx15_Hashtable_nodeISt4pairIKPKciEEEEC2IS5_EERKSaIT_E,@function
_ZNSaIPN9__gnu_cxx15_Hashtable_nodeISt4pairIKPKciEEEEC2IS5_EERKSaIT_E: # @_ZNSaIPN9__gnu_cxx15_Hashtable_nodeISt4pairIKPKciEEEEC2IS5_EERKSaIT_E
	.cfi_startproc
# %bb.0:
	pushq	%rbp
	.cfi_def_cfa_offset 16
	.cfi_offset %rbp, -16
	movq	%rsp, %rbp
	.cfi_def_cfa_register %rbp
	popq	%rbp
	.cfi_def_cfa %rsp, 8
	jmp	_ZN9__gnu_cxx13new_allocatorIPNS_15_Hashtable_nodeISt4pairIKPKciEEEEC2Ev # TAILCALL
.Lfunc_end40:
	.size	_ZNSaIPN9__gnu_cxx15_Hashtable_nodeISt4pairIKPKciEEEEC2IS5_EERKSaIT_E, .Lfunc_end40-_ZNSaIPN9__gnu_cxx15_Hashtable_nodeISt4pairIKPKciEEEEC2IS5_EERKSaIT_E
	.cfi_endproc
                                        # -- End function
	.section	.text._ZNSt6vectorIPN9__gnu_cxx15_Hashtable_nodeISt4pairIKPKciEEESaIS8_EEC2ERKS9_,"axG",@progbits,_ZNSt6vectorIPN9__gnu_cxx15_Hashtable_nodeISt4pairIKPKciEEESaIS8_EEC2ERKS9_,comdat
	.weak	_ZNSt6vectorIPN9__gnu_cxx15_Hashtable_nodeISt4pairIKPKciEEESaIS8_EEC2ERKS9_ # -- Begin function _ZNSt6vectorIPN9__gnu_cxx15_Hashtable_nodeISt4pairIKPKciEEESaIS8_EEC2ERKS9_
	.p2align	4, 0x90
	.type	_ZNSt6vectorIPN9__gnu_cxx15_Hashtable_nodeISt4pairIKPKciEEESaIS8_EEC2ERKS9_,@function
_ZNSt6vectorIPN9__gnu_cxx15_Hashtable_nodeISt4pairIKPKciEEESaIS8_EEC2ERKS9_: # @_ZNSt6vectorIPN9__gnu_cxx15_Hashtable_nodeISt4pairIKPKciEEESaIS8_EEC2ERKS9_
	.cfi_startproc
# %bb.0:
	pushq	%rbp
	.cfi_def_cfa_offset 16
	.cfi_offset %rbp, -16
	movq	%rsp, %rbp
	.cfi_def_cfa_register %rbp
	popq	%rbp
	.cfi_def_cfa %rsp, 8
	jmp	_ZNSt12_Vector_baseIPN9__gnu_cxx15_Hashtable_nodeISt4pairIKPKciEEESaIS8_EEC2ERKS9_ # TAILCALL
.Lfunc_end41:
	.size	_ZNSt6vectorIPN9__gnu_cxx15_Hashtable_nodeISt4pairIKPKciEEESaIS8_EEC2ERKS9_, .Lfunc_end41-_ZNSt6vectorIPN9__gnu_cxx15_Hashtable_nodeISt4pairIKPKciEEESaIS8_EEC2ERKS9_
	.cfi_endproc
                                        # -- End function
	.section	.text._ZNSaIPN9__gnu_cxx15_Hashtable_nodeISt4pairIKPKciEEEED2Ev,"axG",@progbits,_ZNSaIPN9__gnu_cxx15_Hashtable_nodeISt4pairIKPKciEEEED2Ev,comdat
	.weak	_ZNSaIPN9__gnu_cxx15_Hashtable_nodeISt4pairIKPKciEEEED2Ev # -- Begin function _ZNSaIPN9__gnu_cxx15_Hashtable_nodeISt4pairIKPKciEEEED2Ev
	.p2align	4, 0x90
	.type	_ZNSaIPN9__gnu_cxx15_Hashtable_nodeISt4pairIKPKciEEEED2Ev,@function
_ZNSaIPN9__gnu_cxx15_Hashtable_nodeISt4pairIKPKciEEEED2Ev: # @_ZNSaIPN9__gnu_cxx15_Hashtable_nodeISt4pairIKPKciEEEED2Ev
	.cfi_startproc
# %bb.0:
	pushq	%rbp
	.cfi_def_cfa_offset 16
	.cfi_offset %rbp, -16
	movq	%rsp, %rbp
	.cfi_def_cfa_register %rbp
	popq	%rbp
	.cfi_def_cfa %rsp, 8
	jmp	_ZN9__gnu_cxx13new_allocatorIPNS_15_Hashtable_nodeISt4pairIKPKciEEEED2Ev # TAILCALL
.Lfunc_end42:
	.size	_ZNSaIPN9__gnu_cxx15_Hashtable_nodeISt4pairIKPKciEEEED2Ev, .Lfunc_end42-_ZNSaIPN9__gnu_cxx15_Hashtable_nodeISt4pairIKPKciEEEED2Ev
	.cfi_endproc
                                        # -- End function
	.section	.text._ZN9__gnu_cxx9hashtableISt4pairIKPKciES3_NS_4hashIS3_EESt10_Select1stIS5_E5eqstrSaIiEE21_M_initialize_bucketsEm,"axG",@progbits,_ZN9__gnu_cxx9hashtableISt4pairIKPKciES3_NS_4hashIS3_EESt10_Select1stIS5_E5eqstrSaIiEE21_M_initialize_bucketsEm,comdat
	.weak	_ZN9__gnu_cxx9hashtableISt4pairIKPKciES3_NS_4hashIS3_EESt10_Select1stIS5_E5eqstrSaIiEE21_M_initialize_bucketsEm # -- Begin function _ZN9__gnu_cxx9hashtableISt4pairIKPKciES3_NS_4hashIS3_EESt10_Select1stIS5_E5eqstrSaIiEE21_M_initialize_bucketsEm
	.p2align	4, 0x90
	.type	_ZN9__gnu_cxx9hashtableISt4pairIKPKciES3_NS_4hashIS3_EESt10_Select1stIS5_E5eqstrSaIiEE21_M_initialize_bucketsEm,@function
_ZN9__gnu_cxx9hashtableISt4pairIKPKciES3_NS_4hashIS3_EESt10_Select1stIS5_E5eqstrSaIiEE21_M_initialize_bucketsEm: # @_ZN9__gnu_cxx9hashtableISt4pairIKPKciES3_NS_4hashIS3_EESt10_Select1stIS5_E5eqstrSaIiEE21_M_initialize_bucketsEm
	.cfi_startproc
# %bb.0:
	pushq	%rbp
	.cfi_def_cfa_offset 16
	.cfi_offset %rbp, -16
	movq	%rsp, %rbp
	.cfi_def_cfa_register %rbp
	pushq	%r15
	pushq	%r14
	pushq	%rbx
	subq	$24, %rsp
	.cfi_offset %rbx, -40
	.cfi_offset %r14, -32
	.cfi_offset %r15, -24
	movq	%rdi, %r15
	callq	_ZNK9__gnu_cxx9hashtableISt4pairIKPKciES3_NS_4hashIS3_EESt10_Select1stIS5_E5eqstrSaIiEE12_M_next_sizeEm
	movq	%rax, %r14
	leaq	8(%r15), %rbx
	movq	%rbx, %rdi
	movq	%rax, %rsi
	callq	_ZNSt6vectorIPN9__gnu_cxx15_Hashtable_nodeISt4pairIKPKciEEESaIS8_EE7reserveEm
	movq	%rbx, %rdi
	callq	_ZNSt6vectorIPN9__gnu_cxx15_Hashtable_nodeISt4pairIKPKciEEESaIS8_EE3endEv
	movq	%rax, -40(%rbp)
	leaq	-48(%rbp), %rdi
	leaq	-40(%rbp), %rsi
	callq	_ZN9__gnu_cxx17__normal_iteratorIPKPNS_15_Hashtable_nodeISt4pairIKPKciEEESt6vectorIS8_SaIS8_EEEC2IPS8_EERKNS0_IT_NS_11__enable_ifIXsr3std10__are_sameISH_SG_EE7__valueESD_E6__typeEEE
	movq	$0, -32(%rbp)
	movq	-48(%rbp), %rsi
	leaq	-32(%rbp), %rcx
	movq	%rbx, %rdi
	movq	%r14, %rdx
	callq	_ZNSt6vectorIPN9__gnu_cxx15_Hashtable_nodeISt4pairIKPKciEEESaIS8_EE6insertENS0_17__normal_iteratorIPKS8_SA_EEmRSC_
	movq	$0, 32(%r15)
	addq	$24, %rsp
	popq	%rbx
	popq	%r14
	popq	%r15
	popq	%rbp
	.cfi_def_cfa %rsp, 8
	retq
.Lfunc_end43:
	.size	_ZN9__gnu_cxx9hashtableISt4pairIKPKciES3_NS_4hashIS3_EESt10_Select1stIS5_E5eqstrSaIiEE21_M_initialize_bucketsEm, .Lfunc_end43-_ZN9__gnu_cxx9hashtableISt4pairIKPKciES3_NS_4hashIS3_EESt10_Select1stIS5_E5eqstrSaIiEE21_M_initialize_bucketsEm
	.cfi_endproc
                                        # -- End function
	.section	.text._ZN9__gnu_cxx13new_allocatorINS_15_Hashtable_nodeISt4pairIKPKciEEEEC2Ev,"axG",@progbits,_ZN9__gnu_cxx13new_allocatorINS_15_Hashtable_nodeISt4pairIKPKciEEEEC2Ev,comdat
	.weak	_ZN9__gnu_cxx13new_allocatorINS_15_Hashtable_nodeISt4pairIKPKciEEEEC2Ev # -- Begin function _ZN9__gnu_cxx13new_allocatorINS_15_Hashtable_nodeISt4pairIKPKciEEEEC2Ev
	.p2align	4, 0x90
	.type	_ZN9__gnu_cxx13new_allocatorINS_15_Hashtable_nodeISt4pairIKPKciEEEEC2Ev,@function
_ZN9__gnu_cxx13new_allocatorINS_15_Hashtable_nodeISt4pairIKPKciEEEEC2Ev: # @_ZN9__gnu_cxx13new_allocatorINS_15_Hashtable_nodeISt4pairIKPKciEEEEC2Ev
	.cfi_startproc
# %bb.0:
	pushq	%rbp
	.cfi_def_cfa_offset 16
	.cfi_offset %rbp, -16
	movq	%rsp, %rbp
	.cfi_def_cfa_register %rbp
	popq	%rbp
	.cfi_def_cfa %rsp, 8
	retq
.Lfunc_end44:
	.size	_ZN9__gnu_cxx13new_allocatorINS_15_Hashtable_nodeISt4pairIKPKciEEEEC2Ev, .Lfunc_end44-_ZN9__gnu_cxx13new_allocatorINS_15_Hashtable_nodeISt4pairIKPKciEEEEC2Ev
	.cfi_endproc
                                        # -- End function
	.section	.text._ZN9__gnu_cxx13new_allocatorIPNS_15_Hashtable_nodeISt4pairIKPKciEEEEC2Ev,"axG",@progbits,_ZN9__gnu_cxx13new_allocatorIPNS_15_Hashtable_nodeISt4pairIKPKciEEEEC2Ev,comdat
	.weak	_ZN9__gnu_cxx13new_allocatorIPNS_15_Hashtable_nodeISt4pairIKPKciEEEEC2Ev # -- Begin function _ZN9__gnu_cxx13new_allocatorIPNS_15_Hashtable_nodeISt4pairIKPKciEEEEC2Ev
	.p2align	4, 0x90
	.type	_ZN9__gnu_cxx13new_allocatorIPNS_15_Hashtable_nodeISt4pairIKPKciEEEEC2Ev,@function
_ZN9__gnu_cxx13new_allocatorIPNS_15_Hashtable_nodeISt4pairIKPKciEEEEC2Ev: # @_ZN9__gnu_cxx13new_allocatorIPNS_15_Hashtable_nodeISt4pairIKPKciEEEEC2Ev
	.cfi_startproc
# %bb.0:
	pushq	%rbp
	.cfi_def_cfa_offset 16
	.cfi_offset %rbp, -16
	movq	%rsp, %rbp
	.cfi_def_cfa_register %rbp
	popq	%rbp
	.cfi_def_cfa %rsp, 8
	retq
.Lfunc_end45:
	.size	_ZN9__gnu_cxx13new_allocatorIPNS_15_Hashtable_nodeISt4pairIKPKciEEEEC2Ev, .Lfunc_end45-_ZN9__gnu_cxx13new_allocatorIPNS_15_Hashtable_nodeISt4pairIKPKciEEEEC2Ev
	.cfi_endproc
                                        # -- End function
	.section	.text._ZNSt12_Vector_baseIPN9__gnu_cxx15_Hashtable_nodeISt4pairIKPKciEEESaIS8_EEC2ERKS9_,"axG",@progbits,_ZNSt12_Vector_baseIPN9__gnu_cxx15_Hashtable_nodeISt4pairIKPKciEEESaIS8_EEC2ERKS9_,comdat
	.weak	_ZNSt12_Vector_baseIPN9__gnu_cxx15_Hashtable_nodeISt4pairIKPKciEEESaIS8_EEC2ERKS9_ # -- Begin function _ZNSt12_Vector_baseIPN9__gnu_cxx15_Hashtable_nodeISt4pairIKPKciEEESaIS8_EEC2ERKS9_
	.p2align	4, 0x90
	.type	_ZNSt12_Vector_baseIPN9__gnu_cxx15_Hashtable_nodeISt4pairIKPKciEEESaIS8_EEC2ERKS9_,@function
_ZNSt12_Vector_baseIPN9__gnu_cxx15_Hashtable_nodeISt4pairIKPKciEEESaIS8_EEC2ERKS9_: # @_ZNSt12_Vector_baseIPN9__gnu_cxx15_Hashtable_nodeISt4pairIKPKciEEESaIS8_EEC2ERKS9_
	.cfi_startproc
# %bb.0:
	pushq	%rbp
	.cfi_def_cfa_offset 16
	.cfi_offset %rbp, -16
	movq	%rsp, %rbp
	.cfi_def_cfa_register %rbp
	popq	%rbp
	.cfi_def_cfa %rsp, 8
	jmp	_ZNSt12_Vector_baseIPN9__gnu_cxx15_Hashtable_nodeISt4pairIKPKciEEESaIS8_EE12_Vector_implC2ERKS9_ # TAILCALL
.Lfunc_end46:
	.size	_ZNSt12_Vector_baseIPN9__gnu_cxx15_Hashtable_nodeISt4pairIKPKciEEESaIS8_EEC2ERKS9_, .Lfunc_end46-_ZNSt12_Vector_baseIPN9__gnu_cxx15_Hashtable_nodeISt4pairIKPKciEEESaIS8_EEC2ERKS9_
	.cfi_endproc
                                        # -- End function
	.section	.text._ZNSt12_Vector_baseIPN9__gnu_cxx15_Hashtable_nodeISt4pairIKPKciEEESaIS8_EE12_Vector_implC2ERKS9_,"axG",@progbits,_ZNSt12_Vector_baseIPN9__gnu_cxx15_Hashtable_nodeISt4pairIKPKciEEESaIS8_EE12_Vector_implC2ERKS9_,comdat
	.weak	_ZNSt12_Vector_baseIPN9__gnu_cxx15_Hashtable_nodeISt4pairIKPKciEEESaIS8_EE12_Vector_implC2ERKS9_ # -- Begin function _ZNSt12_Vector_baseIPN9__gnu_cxx15_Hashtable_nodeISt4pairIKPKciEEESaIS8_EE12_Vector_implC2ERKS9_
	.p2align	4, 0x90
	.type	_ZNSt12_Vector_baseIPN9__gnu_cxx15_Hashtable_nodeISt4pairIKPKciEEESaIS8_EE12_Vector_implC2ERKS9_,@function
_ZNSt12_Vector_baseIPN9__gnu_cxx15_Hashtable_nodeISt4pairIKPKciEEESaIS8_EE12_Vector_implC2ERKS9_: # @_ZNSt12_Vector_baseIPN9__gnu_cxx15_Hashtable_nodeISt4pairIKPKciEEESaIS8_EE12_Vector_implC2ERKS9_
	.cfi_startproc
# %bb.0:
	pushq	%rbp
	.cfi_def_cfa_offset 16
	.cfi_offset %rbp, -16
	movq	%rsp, %rbp
	.cfi_def_cfa_register %rbp
	pushq	%rbx
	pushq	%rax
	.cfi_offset %rbx, -24
	movq	%rdi, %rbx
	callq	_ZNSaIPN9__gnu_cxx15_Hashtable_nodeISt4pairIKPKciEEEEC2ERKS8_
	movq	%rbx, %rdi
	addq	$8, %rsp
	popq	%rbx
	popq	%rbp
	.cfi_def_cfa %rsp, 8
	jmp	_ZNSt12_Vector_baseIPN9__gnu_cxx15_Hashtable_nodeISt4pairIKPKciEEESaIS8_EE17_Vector_impl_dataC2Ev # TAILCALL
.Lfunc_end47:
	.size	_ZNSt12_Vector_baseIPN9__gnu_cxx15_Hashtable_nodeISt4pairIKPKciEEESaIS8_EE12_Vector_implC2ERKS9_, .Lfunc_end47-_ZNSt12_Vector_baseIPN9__gnu_cxx15_Hashtable_nodeISt4pairIKPKciEEESaIS8_EE12_Vector_implC2ERKS9_
	.cfi_endproc
                                        # -- End function
	.section	.text._ZN9__gnu_cxx13new_allocatorIPNS_15_Hashtable_nodeISt4pairIKPKciEEEEC2ERKS9_,"axG",@progbits,_ZN9__gnu_cxx13new_allocatorIPNS_15_Hashtable_nodeISt4pairIKPKciEEEEC2ERKS9_,comdat
	.weak	_ZN9__gnu_cxx13new_allocatorIPNS_15_Hashtable_nodeISt4pairIKPKciEEEEC2ERKS9_ # -- Begin function _ZN9__gnu_cxx13new_allocatorIPNS_15_Hashtable_nodeISt4pairIKPKciEEEEC2ERKS9_
	.p2align	4, 0x90
	.type	_ZN9__gnu_cxx13new_allocatorIPNS_15_Hashtable_nodeISt4pairIKPKciEEEEC2ERKS9_,@function
_ZN9__gnu_cxx13new_allocatorIPNS_15_Hashtable_nodeISt4pairIKPKciEEEEC2ERKS9_: # @_ZN9__gnu_cxx13new_allocatorIPNS_15_Hashtable_nodeISt4pairIKPKciEEEEC2ERKS9_
	.cfi_startproc
# %bb.0:
	pushq	%rbp
	.cfi_def_cfa_offset 16
	.cfi_offset %rbp, -16
	movq	%rsp, %rbp
	.cfi_def_cfa_register %rbp
	popq	%rbp
	.cfi_def_cfa %rsp, 8
	retq
.Lfunc_end48:
	.size	_ZN9__gnu_cxx13new_allocatorIPNS_15_Hashtable_nodeISt4pairIKPKciEEEEC2ERKS9_, .Lfunc_end48-_ZN9__gnu_cxx13new_allocatorIPNS_15_Hashtable_nodeISt4pairIKPKciEEEEC2ERKS9_
	.cfi_endproc
                                        # -- End function
	.section	.text._ZNK9__gnu_cxx9hashtableISt4pairIKPKciES3_NS_4hashIS3_EESt10_Select1stIS5_E5eqstrSaIiEE12_M_next_sizeEm,"axG",@progbits,_ZNK9__gnu_cxx9hashtableISt4pairIKPKciES3_NS_4hashIS3_EESt10_Select1stIS5_E5eqstrSaIiEE12_M_next_sizeEm,comdat
	.weak	_ZNK9__gnu_cxx9hashtableISt4pairIKPKciES3_NS_4hashIS3_EESt10_Select1stIS5_E5eqstrSaIiEE12_M_next_sizeEm # -- Begin function _ZNK9__gnu_cxx9hashtableISt4pairIKPKciES3_NS_4hashIS3_EESt10_Select1stIS5_E5eqstrSaIiEE12_M_next_sizeEm
	.p2align	4, 0x90
	.type	_ZNK9__gnu_cxx9hashtableISt4pairIKPKciES3_NS_4hashIS3_EESt10_Select1stIS5_E5eqstrSaIiEE12_M_next_sizeEm,@function
_ZNK9__gnu_cxx9hashtableISt4pairIKPKciES3_NS_4hashIS3_EESt10_Select1stIS5_E5eqstrSaIiEE12_M_next_sizeEm: # @_ZNK9__gnu_cxx9hashtableISt4pairIKPKciES3_NS_4hashIS3_EESt10_Select1stIS5_E5eqstrSaIiEE12_M_next_sizeEm
	.cfi_startproc
# %bb.0:
	pushq	%rbp
	.cfi_def_cfa_offset 16
	.cfi_offset %rbp, -16
	movq	%rsp, %rbp
	.cfi_def_cfa_register %rbp
	movq	%rsi, %rdi
	popq	%rbp
	.cfi_def_cfa %rsp, 8
	jmp	_ZN9__gnu_cxx16__stl_next_primeEm # TAILCALL
.Lfunc_end49:
	.size	_ZNK9__gnu_cxx9hashtableISt4pairIKPKciES3_NS_4hashIS3_EESt10_Select1stIS5_E5eqstrSaIiEE12_M_next_sizeEm, .Lfunc_end49-_ZNK9__gnu_cxx9hashtableISt4pairIKPKciES3_NS_4hashIS3_EESt10_Select1stIS5_E5eqstrSaIiEE12_M_next_sizeEm
	.cfi_endproc
                                        # -- End function
	.section	.text._ZNSt6vectorIPN9__gnu_cxx15_Hashtable_nodeISt4pairIKPKciEEESaIS8_EE7reserveEm,"axG",@progbits,_ZNSt6vectorIPN9__gnu_cxx15_Hashtable_nodeISt4pairIKPKciEEESaIS8_EE7reserveEm,comdat
	.weak	_ZNSt6vectorIPN9__gnu_cxx15_Hashtable_nodeISt4pairIKPKciEEESaIS8_EE7reserveEm # -- Begin function _ZNSt6vectorIPN9__gnu_cxx15_Hashtable_nodeISt4pairIKPKciEEESaIS8_EE7reserveEm
	.p2align	4, 0x90
	.type	_ZNSt6vectorIPN9__gnu_cxx15_Hashtable_nodeISt4pairIKPKciEEESaIS8_EE7reserveEm,@function
_ZNSt6vectorIPN9__gnu_cxx15_Hashtable_nodeISt4pairIKPKciEEESaIS8_EE7reserveEm: # @_ZNSt6vectorIPN9__gnu_cxx15_Hashtable_nodeISt4pairIKPKciEEESaIS8_EE7reserveEm
	.cfi_startproc
# %bb.0:
	pushq	%rbp
	.cfi_def_cfa_offset 16
	.cfi_offset %rbp, -16
	movq	%rsp, %rbp
	.cfi_def_cfa_register %rbp
	pushq	%r15
	pushq	%r14
	pushq	%r13
	pushq	%r12
	pushq	%rbx
	pushq	%rax
	.cfi_offset %rbx, -56
	.cfi_offset %r12, -48
	.cfi_offset %r13, -40
	.cfi_offset %r14, -32
	.cfi_offset %r15, -24
	movq	%rsi, %r14
	movq	%rdi, %rbx
	callq	_ZNKSt6vectorIPN9__gnu_cxx15_Hashtable_nodeISt4pairIKPKciEEESaIS8_EE8max_sizeEv
	cmpq	%r14, %rax
	jb	.LBB50_4
# %bb.1:
	movq	%rbx, %rdi
	callq	_ZNKSt6vectorIPN9__gnu_cxx15_Hashtable_nodeISt4pairIKPKciEEESaIS8_EE8capacityEv
	cmpq	%r14, %rax
	jae	.LBB50_3
# %bb.2:
	movq	%rbx, %rdi
	callq	_ZNKSt6vectorIPN9__gnu_cxx15_Hashtable_nodeISt4pairIKPKciEEESaIS8_EE4sizeEv
	movq	%rax, -48(%rbp)         # 8-byte Spill
	movq	%rbx, %rdi
	movq	%r14, %rsi
	callq	_ZNSt12_Vector_baseIPN9__gnu_cxx15_Hashtable_nodeISt4pairIKPKciEEESaIS8_EE11_M_allocateEm
	movq	%rax, %r12
	movq	(%rbx), %r13
	movq	8(%rbx), %r15
	movq	%rbx, %rdi
	callq	_ZNSt12_Vector_baseIPN9__gnu_cxx15_Hashtable_nodeISt4pairIKPKciEEESaIS8_EE19_M_get_Tp_allocatorEv
	movq	%r13, %rdi
	movq	%r15, %rsi
	movq	%r12, %rdx
	movq	%rax, %rcx
	callq	_ZNSt6vectorIPN9__gnu_cxx15_Hashtable_nodeISt4pairIKPKciEEESaIS8_EE11_S_relocateEPS8_SB_SB_RS9_
	movq	(%rbx), %rsi
	movq	16(%rbx), %rdx
	subq	%rsi, %rdx
	sarq	$3, %rdx
	movq	%rbx, %rdi
	callq	_ZNSt12_Vector_baseIPN9__gnu_cxx15_Hashtable_nodeISt4pairIKPKciEEESaIS8_EE13_M_deallocateEPS8_m
	movq	%r12, (%rbx)
	movq	-48(%rbp), %rax         # 8-byte Reload
	leaq	(%r12,%rax,8), %rax
	movq	%rax, 8(%rbx)
	leaq	(%r12,%r14,8), %rax
	movq	%rax, 16(%rbx)
.LBB50_3:
	addq	$8, %rsp
	popq	%rbx
	popq	%r12
	popq	%r13
	popq	%r14
	popq	%r15
	popq	%rbp
	.cfi_def_cfa %rsp, 8
	retq
.LBB50_4:
	.cfi_def_cfa %rbp, 16
	movl	$.L.str.4, %edi
	callq	_ZSt20__throw_length_errorPKc
.Lfunc_end50:
	.size	_ZNSt6vectorIPN9__gnu_cxx15_Hashtable_nodeISt4pairIKPKciEEESaIS8_EE7reserveEm, .Lfunc_end50-_ZNSt6vectorIPN9__gnu_cxx15_Hashtable_nodeISt4pairIKPKciEEESaIS8_EE7reserveEm
	.cfi_endproc
                                        # -- End function
	.section	.text._ZNSt6vectorIPN9__gnu_cxx15_Hashtable_nodeISt4pairIKPKciEEESaIS8_EE6insertENS0_17__normal_iteratorIPKS8_SA_EEmRSC_,"axG",@progbits,_ZNSt6vectorIPN9__gnu_cxx15_Hashtable_nodeISt4pairIKPKciEEESaIS8_EE6insertENS0_17__normal_iteratorIPKS8_SA_EEmRSC_,comdat
	.weak	_ZNSt6vectorIPN9__gnu_cxx15_Hashtable_nodeISt4pairIKPKciEEESaIS8_EE6insertENS0_17__normal_iteratorIPKS8_SA_EEmRSC_ # -- Begin function _ZNSt6vectorIPN9__gnu_cxx15_Hashtable_nodeISt4pairIKPKciEEESaIS8_EE6insertENS0_17__normal_iteratorIPKS8_SA_EEmRSC_
	.p2align	4, 0x90
	.type	_ZNSt6vectorIPN9__gnu_cxx15_Hashtable_nodeISt4pairIKPKciEEESaIS8_EE6insertENS0_17__normal_iteratorIPKS8_SA_EEmRSC_,@function
_ZNSt6vectorIPN9__gnu_cxx15_Hashtable_nodeISt4pairIKPKciEEESaIS8_EE6insertENS0_17__normal_iteratorIPKS8_SA_EEmRSC_: # @_ZNSt6vectorIPN9__gnu_cxx15_Hashtable_nodeISt4pairIKPKciEEESaIS8_EE6insertENS0_17__normal_iteratorIPKS8_SA_EEmRSC_
	.cfi_startproc
# %bb.0:
	pushq	%rbp
	.cfi_def_cfa_offset 16
	.cfi_offset %rbp, -16
	movq	%rsp, %rbp
	.cfi_def_cfa_register %rbp
	pushq	%r15
	pushq	%r14
	pushq	%r12
	pushq	%rbx
	subq	$32, %rsp
	.cfi_offset %rbx, -48
	.cfi_offset %r12, -40
	.cfi_offset %r14, -32
	.cfi_offset %r15, -24
	movq	%rcx, %r14
	movq	%rdx, %r15
	movq	%rdi, %rbx
	movq	%rsi, -64(%rbp)
	callq	_ZNKSt6vectorIPN9__gnu_cxx15_Hashtable_nodeISt4pairIKPKciEEESaIS8_EE6cbeginEv
	movq	%rax, -56(%rbp)
	leaq	-64(%rbp), %rdi
	leaq	-56(%rbp), %rsi
	callq	_ZN9__gnu_cxxmiIPKPNS_15_Hashtable_nodeISt4pairIKPKciEEESt6vectorIS8_SaIS8_EEEENS_17__normal_iteratorIT_T0_E15difference_typeERKSH_SK_
	movq	%rax, %r12
	movq	%rbx, %rdi
	callq	_ZNSt6vectorIPN9__gnu_cxx15_Hashtable_nodeISt4pairIKPKciEEESaIS8_EE5beginEv
	movq	%rax, -48(%rbp)
	leaq	-48(%rbp), %rdi
	movq	%r12, %rsi
	callq	_ZNK9__gnu_cxx17__normal_iteratorIPPNS_15_Hashtable_nodeISt4pairIKPKciEEESt6vectorIS8_SaIS8_EEEplEl
	movq	%rbx, %rdi
	movq	%rax, %rsi
	movq	%r15, %rdx
	movq	%r14, %rcx
	callq	_ZNSt6vectorIPN9__gnu_cxx15_Hashtable_nodeISt4pairIKPKciEEESaIS8_EE14_M_fill_insertENS0_17__normal_iteratorIPS8_SA_EEmRKS8_
	movq	%rbx, %rdi
	callq	_ZNSt6vectorIPN9__gnu_cxx15_Hashtable_nodeISt4pairIKPKciEEESaIS8_EE5beginEv
	movq	%rax, -40(%rbp)
	leaq	-40(%rbp), %rdi
	movq	%r12, %rsi
	callq	_ZNK9__gnu_cxx17__normal_iteratorIPPNS_15_Hashtable_nodeISt4pairIKPKciEEESt6vectorIS8_SaIS8_EEEplEl
	addq	$32, %rsp
	popq	%rbx
	popq	%r12
	popq	%r14
	popq	%r15
	popq	%rbp
	.cfi_def_cfa %rsp, 8
	retq
.Lfunc_end51:
	.size	_ZNSt6vectorIPN9__gnu_cxx15_Hashtable_nodeISt4pairIKPKciEEESaIS8_EE6insertENS0_17__normal_iteratorIPKS8_SA_EEmRSC_, .Lfunc_end51-_ZNSt6vectorIPN9__gnu_cxx15_Hashtable_nodeISt4pairIKPKciEEESaIS8_EE6insertENS0_17__normal_iteratorIPKS8_SA_EEmRSC_
	.cfi_endproc
                                        # -- End function
	.section	.text._ZNSt6vectorIPN9__gnu_cxx15_Hashtable_nodeISt4pairIKPKciEEESaIS8_EE3endEv,"axG",@progbits,_ZNSt6vectorIPN9__gnu_cxx15_Hashtable_nodeISt4pairIKPKciEEESaIS8_EE3endEv,comdat
	.weak	_ZNSt6vectorIPN9__gnu_cxx15_Hashtable_nodeISt4pairIKPKciEEESaIS8_EE3endEv # -- Begin function _ZNSt6vectorIPN9__gnu_cxx15_Hashtable_nodeISt4pairIKPKciEEESaIS8_EE3endEv
	.p2align	4, 0x90
	.type	_ZNSt6vectorIPN9__gnu_cxx15_Hashtable_nodeISt4pairIKPKciEEESaIS8_EE3endEv,@function
_ZNSt6vectorIPN9__gnu_cxx15_Hashtable_nodeISt4pairIKPKciEEESaIS8_EE3endEv: # @_ZNSt6vectorIPN9__gnu_cxx15_Hashtable_nodeISt4pairIKPKciEEESaIS8_EE3endEv
	.cfi_startproc
# %bb.0:
	pushq	%rbp
	.cfi_def_cfa_offset 16
	.cfi_offset %rbp, -16
	movq	%rsp, %rbp
	.cfi_def_cfa_register %rbp
	subq	$16, %rsp
	leaq	8(%rdi), %rsi
	leaq	-8(%rbp), %rdi
	callq	_ZN9__gnu_cxx17__normal_iteratorIPPNS_15_Hashtable_nodeISt4pairIKPKciEEESt6vectorIS8_SaIS8_EEEC2ERKS9_
	movq	-8(%rbp), %rax
	addq	$16, %rsp
	popq	%rbp
	.cfi_def_cfa %rsp, 8
	retq
.Lfunc_end52:
	.size	_ZNSt6vectorIPN9__gnu_cxx15_Hashtable_nodeISt4pairIKPKciEEESaIS8_EE3endEv, .Lfunc_end52-_ZNSt6vectorIPN9__gnu_cxx15_Hashtable_nodeISt4pairIKPKciEEESaIS8_EE3endEv
	.cfi_endproc
                                        # -- End function
	.section	.text._ZN9__gnu_cxx17__normal_iteratorIPKPNS_15_Hashtable_nodeISt4pairIKPKciEEESt6vectorIS8_SaIS8_EEEC2IPS8_EERKNS0_IT_NS_11__enable_ifIXsr3std10__are_sameISH_SG_EE7__valueESD_E6__typeEEE,"axG",@progbits,_ZN9__gnu_cxx17__normal_iteratorIPKPNS_15_Hashtable_nodeISt4pairIKPKciEEESt6vectorIS8_SaIS8_EEEC2IPS8_EERKNS0_IT_NS_11__enable_ifIXsr3std10__are_sameISH_SG_EE7__valueESD_E6__typeEEE,comdat
	.weak	_ZN9__gnu_cxx17__normal_iteratorIPKPNS_15_Hashtable_nodeISt4pairIKPKciEEESt6vectorIS8_SaIS8_EEEC2IPS8_EERKNS0_IT_NS_11__enable_ifIXsr3std10__are_sameISH_SG_EE7__valueESD_E6__typeEEE # -- Begin function _ZN9__gnu_cxx17__normal_iteratorIPKPNS_15_Hashtable_nodeISt4pairIKPKciEEESt6vectorIS8_SaIS8_EEEC2IPS8_EERKNS0_IT_NS_11__enable_ifIXsr3std10__are_sameISH_SG_EE7__valueESD_E6__typeEEE
	.p2align	4, 0x90
	.type	_ZN9__gnu_cxx17__normal_iteratorIPKPNS_15_Hashtable_nodeISt4pairIKPKciEEESt6vectorIS8_SaIS8_EEEC2IPS8_EERKNS0_IT_NS_11__enable_ifIXsr3std10__are_sameISH_SG_EE7__valueESD_E6__typeEEE,@function
_ZN9__gnu_cxx17__normal_iteratorIPKPNS_15_Hashtable_nodeISt4pairIKPKciEEESt6vectorIS8_SaIS8_EEEC2IPS8_EERKNS0_IT_NS_11__enable_ifIXsr3std10__are_sameISH_SG_EE7__valueESD_E6__typeEEE: # @_ZN9__gnu_cxx17__normal_iteratorIPKPNS_15_Hashtable_nodeISt4pairIKPKciEEESt6vectorIS8_SaIS8_EEEC2IPS8_EERKNS0_IT_NS_11__enable_ifIXsr3std10__are_sameISH_SG_EE7__valueESD_E6__typeEEE
	.cfi_startproc
# %bb.0:
	pushq	%rbp
	.cfi_def_cfa_offset 16
	.cfi_offset %rbp, -16
	movq	%rsp, %rbp
	.cfi_def_cfa_register %rbp
	pushq	%rbx
	pushq	%rax
	.cfi_offset %rbx, -24
	movq	%rdi, %rbx
	movq	%rsi, %rdi
	callq	_ZNK9__gnu_cxx17__normal_iteratorIPPNS_15_Hashtable_nodeISt4pairIKPKciEEESt6vectorIS8_SaIS8_EEE4baseEv
	movq	(%rax), %rax
	movq	%rax, (%rbx)
	addq	$8, %rsp
	popq	%rbx
	popq	%rbp
	.cfi_def_cfa %rsp, 8
	retq
.Lfunc_end53:
	.size	_ZN9__gnu_cxx17__normal_iteratorIPKPNS_15_Hashtable_nodeISt4pairIKPKciEEESt6vectorIS8_SaIS8_EEEC2IPS8_EERKNS0_IT_NS_11__enable_ifIXsr3std10__are_sameISH_SG_EE7__valueESD_E6__typeEEE, .Lfunc_end53-_ZN9__gnu_cxx17__normal_iteratorIPKPNS_15_Hashtable_nodeISt4pairIKPKciEEESt6vectorIS8_SaIS8_EEEC2IPS8_EERKNS0_IT_NS_11__enable_ifIXsr3std10__are_sameISH_SG_EE7__valueESD_E6__typeEEE
	.cfi_endproc
                                        # -- End function
	.section	.text._ZN9__gnu_cxx16__stl_next_primeEm,"axG",@progbits,_ZN9__gnu_cxx16__stl_next_primeEm,comdat
	.weak	_ZN9__gnu_cxx16__stl_next_primeEm # -- Begin function _ZN9__gnu_cxx16__stl_next_primeEm
	.p2align	4, 0x90
	.type	_ZN9__gnu_cxx16__stl_next_primeEm,@function
_ZN9__gnu_cxx16__stl_next_primeEm:      # @_ZN9__gnu_cxx16__stl_next_primeEm
	.cfi_startproc
# %bb.0:
	pushq	%rbp
	.cfi_def_cfa_offset 16
	.cfi_offset %rbp, -16
	movq	%rsp, %rbp
	.cfi_def_cfa_register %rbp
	pushq	%r14
	pushq	%rbx
	subq	$16, %rsp
	.cfi_offset %rbx, -32
	.cfi_offset %r14, -24
	movq	%rdi, -24(%rbp)
	callq	_ZN9__gnu_cxx21_Hashtable_prime_listImE17_S_get_prime_listEv
	movq	%rax, %rbx
	leaq	232(%rax), %r14
	leaq	-24(%rbp), %rdx
	movq	%rax, %rdi
	movq	%r14, %rsi
	callq	_ZSt11lower_boundIPKmmET_S2_S2_RKT0_
	addq	$224, %rbx
	cmpq	%r14, %rax
	cmovneq	%rax, %rbx
	movq	(%rbx), %rax
	addq	$16, %rsp
	popq	%rbx
	popq	%r14
	popq	%rbp
	.cfi_def_cfa %rsp, 8
	retq
.Lfunc_end54:
	.size	_ZN9__gnu_cxx16__stl_next_primeEm, .Lfunc_end54-_ZN9__gnu_cxx16__stl_next_primeEm
	.cfi_endproc
                                        # -- End function
	.section	.text._ZN9__gnu_cxx21_Hashtable_prime_listImE17_S_get_prime_listEv,"axG",@progbits,_ZN9__gnu_cxx21_Hashtable_prime_listImE17_S_get_prime_listEv,comdat
	.weak	_ZN9__gnu_cxx21_Hashtable_prime_listImE17_S_get_prime_listEv # -- Begin function _ZN9__gnu_cxx21_Hashtable_prime_listImE17_S_get_prime_listEv
	.p2align	4, 0x90
	.type	_ZN9__gnu_cxx21_Hashtable_prime_listImE17_S_get_prime_listEv,@function
_ZN9__gnu_cxx21_Hashtable_prime_listImE17_S_get_prime_listEv: # @_ZN9__gnu_cxx21_Hashtable_prime_listImE17_S_get_prime_listEv
	.cfi_startproc
# %bb.0:
	pushq	%rbp
	.cfi_def_cfa_offset 16
	.cfi_offset %rbp, -16
	movq	%rsp, %rbp
	.cfi_def_cfa_register %rbp
	movl	$_ZN9__gnu_cxx21_Hashtable_prime_listImE16__stl_prime_listE, %eax
	popq	%rbp
	.cfi_def_cfa %rsp, 8
	retq
.Lfunc_end55:
	.size	_ZN9__gnu_cxx21_Hashtable_prime_listImE17_S_get_prime_listEv, .Lfunc_end55-_ZN9__gnu_cxx21_Hashtable_prime_listImE17_S_get_prime_listEv
	.cfi_endproc
                                        # -- End function
	.section	.text._ZSt11lower_boundIPKmmET_S2_S2_RKT0_,"axG",@progbits,_ZSt11lower_boundIPKmmET_S2_S2_RKT0_,comdat
	.weak	_ZSt11lower_boundIPKmmET_S2_S2_RKT0_ # -- Begin function _ZSt11lower_boundIPKmmET_S2_S2_RKT0_
	.p2align	4, 0x90
	.type	_ZSt11lower_boundIPKmmET_S2_S2_RKT0_,@function
_ZSt11lower_boundIPKmmET_S2_S2_RKT0_:   # @_ZSt11lower_boundIPKmmET_S2_S2_RKT0_
	.cfi_startproc
# %bb.0:
	pushq	%rbp
	.cfi_def_cfa_offset 16
	.cfi_offset %rbp, -16
	movq	%rsp, %rbp
	.cfi_def_cfa_register %rbp
	pushq	%r15
	pushq	%r14
	pushq	%rbx
	pushq	%rax
	.cfi_offset %rbx, -40
	.cfi_offset %r14, -32
	.cfi_offset %r15, -24
	movq	%rdx, %r14
	movq	%rsi, %r15
	movq	%rdi, %rbx
	callq	_ZN9__gnu_cxx5__ops15__iter_less_valEv
	movq	%rbx, %rdi
	movq	%r15, %rsi
	movq	%r14, %rdx
	addq	$8, %rsp
	popq	%rbx
	popq	%r14
	popq	%r15
	popq	%rbp
	.cfi_def_cfa %rsp, 8
	jmp	_ZSt13__lower_boundIPKmmN9__gnu_cxx5__ops14_Iter_less_valEET_S5_S5_RKT0_T1_ # TAILCALL
.Lfunc_end56:
	.size	_ZSt11lower_boundIPKmmET_S2_S2_RKT0_, .Lfunc_end56-_ZSt11lower_boundIPKmmET_S2_S2_RKT0_
	.cfi_endproc
                                        # -- End function
	.section	.text._ZSt13__lower_boundIPKmmN9__gnu_cxx5__ops14_Iter_less_valEET_S5_S5_RKT0_T1_,"axG",@progbits,_ZSt13__lower_boundIPKmmN9__gnu_cxx5__ops14_Iter_less_valEET_S5_S5_RKT0_T1_,comdat
	.weak	_ZSt13__lower_boundIPKmmN9__gnu_cxx5__ops14_Iter_less_valEET_S5_S5_RKT0_T1_ # -- Begin function _ZSt13__lower_boundIPKmmN9__gnu_cxx5__ops14_Iter_less_valEET_S5_S5_RKT0_T1_
	.p2align	4, 0x90
	.type	_ZSt13__lower_boundIPKmmN9__gnu_cxx5__ops14_Iter_less_valEET_S5_S5_RKT0_T1_,@function
_ZSt13__lower_boundIPKmmN9__gnu_cxx5__ops14_Iter_less_valEET_S5_S5_RKT0_T1_: # @_ZSt13__lower_boundIPKmmN9__gnu_cxx5__ops14_Iter_less_valEET_S5_S5_RKT0_T1_
	.cfi_startproc
# %bb.0:
	pushq	%rbp
	.cfi_def_cfa_offset 16
	.cfi_offset %rbp, -16
	movq	%rsp, %rbp
	.cfi_def_cfa_register %rbp
	pushq	%r15
	pushq	%r14
	pushq	%r13
	pushq	%r12
	pushq	%rbx
	subq	$24, %rsp
	.cfi_offset %rbx, -56
	.cfi_offset %r12, -48
	.cfi_offset %r13, -40
	.cfi_offset %r14, -32
	.cfi_offset %r15, -24
	movq	%rdx, %r14
	movq	%rdi, %r13
	callq	_ZSt8distanceIPKmENSt15iterator_traitsIT_E15difference_typeES3_S3_
	movq	%rax, %r15
	leaq	-48(%rbp), %r12
	jmp	.LBB57_1
	.p2align	4, 0x90
.LBB57_4:                               #   in Loop: Header=BB57_1 Depth=1
	movq	%rbx, %r15
.LBB57_1:                               # =>This Inner Loop Header: Depth=1
	testq	%r15, %r15
	jle	.LBB57_5
# %bb.2:                                #   in Loop: Header=BB57_1 Depth=1
	movq	%r15, %rbx
	shrq	%rbx
	movq	%r13, -56(%rbp)
	leaq	-56(%rbp), %rdi
	movq	%rbx, %rsi
	callq	_ZSt7advanceIPKmlEvRT_T0_
	movq	-56(%rbp), %rsi
	movq	%r12, %rdi
	movq	%r14, %rdx
	callq	_ZNK9__gnu_cxx5__ops14_Iter_less_valclIPKmS3_EEbT_RT0_
	testb	%al, %al
	je	.LBB57_4
# %bb.3:                                #   in Loop: Header=BB57_1 Depth=1
	movq	-56(%rbp), %r13
	addq	$8, %r13
	notq	%rbx
	addq	%r15, %rbx
	jmp	.LBB57_4
.LBB57_5:
	movq	%r13, %rax
	addq	$24, %rsp
	popq	%rbx
	popq	%r12
	popq	%r13
	popq	%r14
	popq	%r15
	popq	%rbp
	.cfi_def_cfa %rsp, 8
	retq
.Lfunc_end57:
	.size	_ZSt13__lower_boundIPKmmN9__gnu_cxx5__ops14_Iter_less_valEET_S5_S5_RKT0_T1_, .Lfunc_end57-_ZSt13__lower_boundIPKmmN9__gnu_cxx5__ops14_Iter_less_valEET_S5_S5_RKT0_T1_
	.cfi_endproc
                                        # -- End function
	.section	.text._ZN9__gnu_cxx5__ops15__iter_less_valEv,"axG",@progbits,_ZN9__gnu_cxx5__ops15__iter_less_valEv,comdat
	.weak	_ZN9__gnu_cxx5__ops15__iter_less_valEv # -- Begin function _ZN9__gnu_cxx5__ops15__iter_less_valEv
	.p2align	4, 0x90
	.type	_ZN9__gnu_cxx5__ops15__iter_less_valEv,@function
_ZN9__gnu_cxx5__ops15__iter_less_valEv: # @_ZN9__gnu_cxx5__ops15__iter_less_valEv
	.cfi_startproc
# %bb.0:
	pushq	%rbp
	.cfi_def_cfa_offset 16
	.cfi_offset %rbp, -16
	movq	%rsp, %rbp
	.cfi_def_cfa_register %rbp
	popq	%rbp
	.cfi_def_cfa %rsp, 8
	retq
.Lfunc_end58:
	.size	_ZN9__gnu_cxx5__ops15__iter_less_valEv, .Lfunc_end58-_ZN9__gnu_cxx5__ops15__iter_less_valEv
	.cfi_endproc
                                        # -- End function
	.section	.text._ZSt8distanceIPKmENSt15iterator_traitsIT_E15difference_typeES3_S3_,"axG",@progbits,_ZSt8distanceIPKmENSt15iterator_traitsIT_E15difference_typeES3_S3_,comdat
	.weak	_ZSt8distanceIPKmENSt15iterator_traitsIT_E15difference_typeES3_S3_ # -- Begin function _ZSt8distanceIPKmENSt15iterator_traitsIT_E15difference_typeES3_S3_
	.p2align	4, 0x90
	.type	_ZSt8distanceIPKmENSt15iterator_traitsIT_E15difference_typeES3_S3_,@function
_ZSt8distanceIPKmENSt15iterator_traitsIT_E15difference_typeES3_S3_: # @_ZSt8distanceIPKmENSt15iterator_traitsIT_E15difference_typeES3_S3_
	.cfi_startproc
# %bb.0:
	pushq	%rbp
	.cfi_def_cfa_offset 16
	.cfi_offset %rbp, -16
	movq	%rsp, %rbp
	.cfi_def_cfa_register %rbp
	pushq	%r14
	pushq	%rbx
	subq	$16, %rsp
	.cfi_offset %rbx, -32
	.cfi_offset %r14, -24
	movq	%rsi, %r14
	movq	%rdi, %rbx
	movq	%rdi, -24(%rbp)
	leaq	-24(%rbp), %rdi
	callq	_ZSt19__iterator_categoryIPKmENSt15iterator_traitsIT_E17iterator_categoryERKS3_
	movq	%rbx, %rdi
	movq	%r14, %rsi
	callq	_ZSt10__distanceIPKmENSt15iterator_traitsIT_E15difference_typeES3_S3_St26random_access_iterator_tag
	addq	$16, %rsp
	popq	%rbx
	popq	%r14
	popq	%rbp
	.cfi_def_cfa %rsp, 8
	retq
.Lfunc_end59:
	.size	_ZSt8distanceIPKmENSt15iterator_traitsIT_E15difference_typeES3_S3_, .Lfunc_end59-_ZSt8distanceIPKmENSt15iterator_traitsIT_E15difference_typeES3_S3_
	.cfi_endproc
                                        # -- End function
	.section	.text._ZSt7advanceIPKmlEvRT_T0_,"axG",@progbits,_ZSt7advanceIPKmlEvRT_T0_,comdat
	.weak	_ZSt7advanceIPKmlEvRT_T0_ # -- Begin function _ZSt7advanceIPKmlEvRT_T0_
	.p2align	4, 0x90
	.type	_ZSt7advanceIPKmlEvRT_T0_,@function
_ZSt7advanceIPKmlEvRT_T0_:              # @_ZSt7advanceIPKmlEvRT_T0_
	.cfi_startproc
# %bb.0:
	pushq	%rbp
	.cfi_def_cfa_offset 16
	.cfi_offset %rbp, -16
	movq	%rsp, %rbp
	.cfi_def_cfa_register %rbp
	pushq	%r14
	pushq	%rbx
	.cfi_offset %rbx, -32
	.cfi_offset %r14, -24
	movq	%rsi, %r14
	movq	%rdi, %rbx
	callq	_ZSt19__iterator_categoryIPKmENSt15iterator_traitsIT_E17iterator_categoryERKS3_
	movq	%rbx, %rdi
	movq	%r14, %rsi
	popq	%rbx
	popq	%r14
	popq	%rbp
	.cfi_def_cfa %rsp, 8
	jmp	_ZSt9__advanceIPKmlEvRT_T0_St26random_access_iterator_tag # TAILCALL
.Lfunc_end60:
	.size	_ZSt7advanceIPKmlEvRT_T0_, .Lfunc_end60-_ZSt7advanceIPKmlEvRT_T0_
	.cfi_endproc
                                        # -- End function
	.section	.text._ZNK9__gnu_cxx5__ops14_Iter_less_valclIPKmS3_EEbT_RT0_,"axG",@progbits,_ZNK9__gnu_cxx5__ops14_Iter_less_valclIPKmS3_EEbT_RT0_,comdat
	.weak	_ZNK9__gnu_cxx5__ops14_Iter_less_valclIPKmS3_EEbT_RT0_ # -- Begin function _ZNK9__gnu_cxx5__ops14_Iter_less_valclIPKmS3_EEbT_RT0_
	.p2align	4, 0x90
	.type	_ZNK9__gnu_cxx5__ops14_Iter_less_valclIPKmS3_EEbT_RT0_,@function
_ZNK9__gnu_cxx5__ops14_Iter_less_valclIPKmS3_EEbT_RT0_: # @_ZNK9__gnu_cxx5__ops14_Iter_less_valclIPKmS3_EEbT_RT0_
	.cfi_startproc
# %bb.0:
	pushq	%rbp
	.cfi_def_cfa_offset 16
	.cfi_offset %rbp, -16
	movq	%rsp, %rbp
	.cfi_def_cfa_register %rbp
	movq	(%rsi), %rax
	cmpq	(%rdx), %rax
	setb	%al
	popq	%rbp
	.cfi_def_cfa %rsp, 8
	retq
.Lfunc_end61:
	.size	_ZNK9__gnu_cxx5__ops14_Iter_less_valclIPKmS3_EEbT_RT0_, .Lfunc_end61-_ZNK9__gnu_cxx5__ops14_Iter_less_valclIPKmS3_EEbT_RT0_
	.cfi_endproc
                                        # -- End function
	.section	.text._ZSt10__distanceIPKmENSt15iterator_traitsIT_E15difference_typeES3_S3_St26random_access_iterator_tag,"axG",@progbits,_ZSt10__distanceIPKmENSt15iterator_traitsIT_E15difference_typeES3_S3_St26random_access_iterator_tag,comdat
	.weak	_ZSt10__distanceIPKmENSt15iterator_traitsIT_E15difference_typeES3_S3_St26random_access_iterator_tag # -- Begin function _ZSt10__distanceIPKmENSt15iterator_traitsIT_E15difference_typeES3_S3_St26random_access_iterator_tag
	.p2align	4, 0x90
	.type	_ZSt10__distanceIPKmENSt15iterator_traitsIT_E15difference_typeES3_S3_St26random_access_iterator_tag,@function
_ZSt10__distanceIPKmENSt15iterator_traitsIT_E15difference_typeES3_S3_St26random_access_iterator_tag: # @_ZSt10__distanceIPKmENSt15iterator_traitsIT_E15difference_typeES3_S3_St26random_access_iterator_tag
	.cfi_startproc
# %bb.0:
	pushq	%rbp
	.cfi_def_cfa_offset 16
	.cfi_offset %rbp, -16
	movq	%rsp, %rbp
	.cfi_def_cfa_register %rbp
	movq	%rsi, %rax
	subq	%rdi, %rax
	sarq	$3, %rax
	popq	%rbp
	.cfi_def_cfa %rsp, 8
	retq
.Lfunc_end62:
	.size	_ZSt10__distanceIPKmENSt15iterator_traitsIT_E15difference_typeES3_S3_St26random_access_iterator_tag, .Lfunc_end62-_ZSt10__distanceIPKmENSt15iterator_traitsIT_E15difference_typeES3_S3_St26random_access_iterator_tag
	.cfi_endproc
                                        # -- End function
	.section	.text._ZSt19__iterator_categoryIPKmENSt15iterator_traitsIT_E17iterator_categoryERKS3_,"axG",@progbits,_ZSt19__iterator_categoryIPKmENSt15iterator_traitsIT_E17iterator_categoryERKS3_,comdat
	.weak	_ZSt19__iterator_categoryIPKmENSt15iterator_traitsIT_E17iterator_categoryERKS3_ # -- Begin function _ZSt19__iterator_categoryIPKmENSt15iterator_traitsIT_E17iterator_categoryERKS3_
	.p2align	4, 0x90
	.type	_ZSt19__iterator_categoryIPKmENSt15iterator_traitsIT_E17iterator_categoryERKS3_,@function
_ZSt19__iterator_categoryIPKmENSt15iterator_traitsIT_E17iterator_categoryERKS3_: # @_ZSt19__iterator_categoryIPKmENSt15iterator_traitsIT_E17iterator_categoryERKS3_
	.cfi_startproc
# %bb.0:
	pushq	%rbp
	.cfi_def_cfa_offset 16
	.cfi_offset %rbp, -16
	movq	%rsp, %rbp
	.cfi_def_cfa_register %rbp
	popq	%rbp
	.cfi_def_cfa %rsp, 8
	retq
.Lfunc_end63:
	.size	_ZSt19__iterator_categoryIPKmENSt15iterator_traitsIT_E17iterator_categoryERKS3_, .Lfunc_end63-_ZSt19__iterator_categoryIPKmENSt15iterator_traitsIT_E17iterator_categoryERKS3_
	.cfi_endproc
                                        # -- End function
	.section	.text._ZSt9__advanceIPKmlEvRT_T0_St26random_access_iterator_tag,"axG",@progbits,_ZSt9__advanceIPKmlEvRT_T0_St26random_access_iterator_tag,comdat
	.weak	_ZSt9__advanceIPKmlEvRT_T0_St26random_access_iterator_tag # -- Begin function _ZSt9__advanceIPKmlEvRT_T0_St26random_access_iterator_tag
	.p2align	4, 0x90
	.type	_ZSt9__advanceIPKmlEvRT_T0_St26random_access_iterator_tag,@function
_ZSt9__advanceIPKmlEvRT_T0_St26random_access_iterator_tag: # @_ZSt9__advanceIPKmlEvRT_T0_St26random_access_iterator_tag
	.cfi_startproc
# %bb.0:
	pushq	%rbp
	.cfi_def_cfa_offset 16
	.cfi_offset %rbp, -16
	movq	%rsp, %rbp
	.cfi_def_cfa_register %rbp
	shlq	$3, %rsi
	addq	%rsi, (%rdi)
	popq	%rbp
	.cfi_def_cfa %rsp, 8
	retq
.Lfunc_end64:
	.size	_ZSt9__advanceIPKmlEvRT_T0_St26random_access_iterator_tag, .Lfunc_end64-_ZSt9__advanceIPKmlEvRT_T0_St26random_access_iterator_tag
	.cfi_endproc
                                        # -- End function
	.section	.text._ZNKSt6vectorIPN9__gnu_cxx15_Hashtable_nodeISt4pairIKPKciEEESaIS8_EE8max_sizeEv,"axG",@progbits,_ZNKSt6vectorIPN9__gnu_cxx15_Hashtable_nodeISt4pairIKPKciEEESaIS8_EE8max_sizeEv,comdat
	.weak	_ZNKSt6vectorIPN9__gnu_cxx15_Hashtable_nodeISt4pairIKPKciEEESaIS8_EE8max_sizeEv # -- Begin function _ZNKSt6vectorIPN9__gnu_cxx15_Hashtable_nodeISt4pairIKPKciEEESaIS8_EE8max_sizeEv
	.p2align	4, 0x90
	.type	_ZNKSt6vectorIPN9__gnu_cxx15_Hashtable_nodeISt4pairIKPKciEEESaIS8_EE8max_sizeEv,@function
_ZNKSt6vectorIPN9__gnu_cxx15_Hashtable_nodeISt4pairIKPKciEEESaIS8_EE8max_sizeEv: # @_ZNKSt6vectorIPN9__gnu_cxx15_Hashtable_nodeISt4pairIKPKciEEESaIS8_EE8max_sizeEv
	.cfi_startproc
# %bb.0:
	pushq	%rbp
	.cfi_def_cfa_offset 16
	.cfi_offset %rbp, -16
	movq	%rsp, %rbp
	.cfi_def_cfa_register %rbp
	callq	_ZNKSt12_Vector_baseIPN9__gnu_cxx15_Hashtable_nodeISt4pairIKPKciEEESaIS8_EE19_M_get_Tp_allocatorEv
	movq	%rax, %rdi
	popq	%rbp
	.cfi_def_cfa %rsp, 8
	jmp	_ZNSt6vectorIPN9__gnu_cxx15_Hashtable_nodeISt4pairIKPKciEEESaIS8_EE11_S_max_sizeERKS9_ # TAILCALL
.Lfunc_end65:
	.size	_ZNKSt6vectorIPN9__gnu_cxx15_Hashtable_nodeISt4pairIKPKciEEESaIS8_EE8max_sizeEv, .Lfunc_end65-_ZNKSt6vectorIPN9__gnu_cxx15_Hashtable_nodeISt4pairIKPKciEEESaIS8_EE8max_sizeEv
	.cfi_endproc
                                        # -- End function
	.section	.text._ZNKSt6vectorIPN9__gnu_cxx15_Hashtable_nodeISt4pairIKPKciEEESaIS8_EE8capacityEv,"axG",@progbits,_ZNKSt6vectorIPN9__gnu_cxx15_Hashtable_nodeISt4pairIKPKciEEESaIS8_EE8capacityEv,comdat
	.weak	_ZNKSt6vectorIPN9__gnu_cxx15_Hashtable_nodeISt4pairIKPKciEEESaIS8_EE8capacityEv # -- Begin function _ZNKSt6vectorIPN9__gnu_cxx15_Hashtable_nodeISt4pairIKPKciEEESaIS8_EE8capacityEv
	.p2align	4, 0x90
	.type	_ZNKSt6vectorIPN9__gnu_cxx15_Hashtable_nodeISt4pairIKPKciEEESaIS8_EE8capacityEv,@function
_ZNKSt6vectorIPN9__gnu_cxx15_Hashtable_nodeISt4pairIKPKciEEESaIS8_EE8capacityEv: # @_ZNKSt6vectorIPN9__gnu_cxx15_Hashtable_nodeISt4pairIKPKciEEESaIS8_EE8capacityEv
	.cfi_startproc
# %bb.0:
	pushq	%rbp
	.cfi_def_cfa_offset 16
	.cfi_offset %rbp, -16
	movq	%rsp, %rbp
	.cfi_def_cfa_register %rbp
	movq	16(%rdi), %rax
	subq	(%rdi), %rax
	sarq	$3, %rax
	popq	%rbp
	.cfi_def_cfa %rsp, 8
	retq
.Lfunc_end66:
	.size	_ZNKSt6vectorIPN9__gnu_cxx15_Hashtable_nodeISt4pairIKPKciEEESaIS8_EE8capacityEv, .Lfunc_end66-_ZNKSt6vectorIPN9__gnu_cxx15_Hashtable_nodeISt4pairIKPKciEEESaIS8_EE8capacityEv
	.cfi_endproc
                                        # -- End function
	.section	.text._ZNSt12_Vector_baseIPN9__gnu_cxx15_Hashtable_nodeISt4pairIKPKciEEESaIS8_EE11_M_allocateEm,"axG",@progbits,_ZNSt12_Vector_baseIPN9__gnu_cxx15_Hashtable_nodeISt4pairIKPKciEEESaIS8_EE11_M_allocateEm,comdat
	.weak	_ZNSt12_Vector_baseIPN9__gnu_cxx15_Hashtable_nodeISt4pairIKPKciEEESaIS8_EE11_M_allocateEm # -- Begin function _ZNSt12_Vector_baseIPN9__gnu_cxx15_Hashtable_nodeISt4pairIKPKciEEESaIS8_EE11_M_allocateEm
	.p2align	4, 0x90
	.type	_ZNSt12_Vector_baseIPN9__gnu_cxx15_Hashtable_nodeISt4pairIKPKciEEESaIS8_EE11_M_allocateEm,@function
_ZNSt12_Vector_baseIPN9__gnu_cxx15_Hashtable_nodeISt4pairIKPKciEEESaIS8_EE11_M_allocateEm: # @_ZNSt12_Vector_baseIPN9__gnu_cxx15_Hashtable_nodeISt4pairIKPKciEEESaIS8_EE11_M_allocateEm
	.cfi_startproc
# %bb.0:
	pushq	%rbp
	.cfi_def_cfa_offset 16
	.cfi_offset %rbp, -16
	movq	%rsp, %rbp
	.cfi_def_cfa_register %rbp
	testq	%rsi, %rsi
	je	.LBB67_1
# %bb.2:
	popq	%rbp
	.cfi_def_cfa %rsp, 8
	jmp	_ZNSt16allocator_traitsISaIPN9__gnu_cxx15_Hashtable_nodeISt4pairIKPKciEEEEE8allocateERS9_m # TAILCALL
.LBB67_1:
	.cfi_def_cfa %rbp, 16
	xorl	%eax, %eax
	popq	%rbp
	.cfi_def_cfa %rsp, 8
	retq
.Lfunc_end67:
	.size	_ZNSt12_Vector_baseIPN9__gnu_cxx15_Hashtable_nodeISt4pairIKPKciEEESaIS8_EE11_M_allocateEm, .Lfunc_end67-_ZNSt12_Vector_baseIPN9__gnu_cxx15_Hashtable_nodeISt4pairIKPKciEEESaIS8_EE11_M_allocateEm
	.cfi_endproc
                                        # -- End function
	.section	.text._ZNSt6vectorIPN9__gnu_cxx15_Hashtable_nodeISt4pairIKPKciEEESaIS8_EE11_S_relocateEPS8_SB_SB_RS9_,"axG",@progbits,_ZNSt6vectorIPN9__gnu_cxx15_Hashtable_nodeISt4pairIKPKciEEESaIS8_EE11_S_relocateEPS8_SB_SB_RS9_,comdat
	.weak	_ZNSt6vectorIPN9__gnu_cxx15_Hashtable_nodeISt4pairIKPKciEEESaIS8_EE11_S_relocateEPS8_SB_SB_RS9_ # -- Begin function _ZNSt6vectorIPN9__gnu_cxx15_Hashtable_nodeISt4pairIKPKciEEESaIS8_EE11_S_relocateEPS8_SB_SB_RS9_
	.p2align	4, 0x90
	.type	_ZNSt6vectorIPN9__gnu_cxx15_Hashtable_nodeISt4pairIKPKciEEESaIS8_EE11_S_relocateEPS8_SB_SB_RS9_,@function
_ZNSt6vectorIPN9__gnu_cxx15_Hashtable_nodeISt4pairIKPKciEEESaIS8_EE11_S_relocateEPS8_SB_SB_RS9_: # @_ZNSt6vectorIPN9__gnu_cxx15_Hashtable_nodeISt4pairIKPKciEEESaIS8_EE11_S_relocateEPS8_SB_SB_RS9_
	.cfi_startproc
# %bb.0:
	pushq	%rbp
	.cfi_def_cfa_offset 16
	.cfi_offset %rbp, -16
	movq	%rsp, %rbp
	.cfi_def_cfa_register %rbp
	popq	%rbp
	.cfi_def_cfa %rsp, 8
	jmp	_ZNSt6vectorIPN9__gnu_cxx15_Hashtable_nodeISt4pairIKPKciEEESaIS8_EE14_S_do_relocateEPS8_SB_SB_RS9_St17integral_constantIbLb1EE # TAILCALL
.Lfunc_end68:
	.size	_ZNSt6vectorIPN9__gnu_cxx15_Hashtable_nodeISt4pairIKPKciEEESaIS8_EE11_S_relocateEPS8_SB_SB_RS9_, .Lfunc_end68-_ZNSt6vectorIPN9__gnu_cxx15_Hashtable_nodeISt4pairIKPKciEEESaIS8_EE11_S_relocateEPS8_SB_SB_RS9_
	.cfi_endproc
                                        # -- End function
	.section	.text._ZNSt6vectorIPN9__gnu_cxx15_Hashtable_nodeISt4pairIKPKciEEESaIS8_EE11_S_max_sizeERKS9_,"axG",@progbits,_ZNSt6vectorIPN9__gnu_cxx15_Hashtable_nodeISt4pairIKPKciEEESaIS8_EE11_S_max_sizeERKS9_,comdat
	.weak	_ZNSt6vectorIPN9__gnu_cxx15_Hashtable_nodeISt4pairIKPKciEEESaIS8_EE11_S_max_sizeERKS9_ # -- Begin function _ZNSt6vectorIPN9__gnu_cxx15_Hashtable_nodeISt4pairIKPKciEEESaIS8_EE11_S_max_sizeERKS9_
	.p2align	4, 0x90
	.type	_ZNSt6vectorIPN9__gnu_cxx15_Hashtable_nodeISt4pairIKPKciEEESaIS8_EE11_S_max_sizeERKS9_,@function
_ZNSt6vectorIPN9__gnu_cxx15_Hashtable_nodeISt4pairIKPKciEEESaIS8_EE11_S_max_sizeERKS9_: # @_ZNSt6vectorIPN9__gnu_cxx15_Hashtable_nodeISt4pairIKPKciEEESaIS8_EE11_S_max_sizeERKS9_
	.cfi_startproc
# %bb.0:
	pushq	%rbp
	.cfi_def_cfa_offset 16
	.cfi_offset %rbp, -16
	movq	%rsp, %rbp
	.cfi_def_cfa_register %rbp
	subq	$16, %rsp
	movabsq	$1152921504606846975, %rax # imm = 0xFFFFFFFFFFFFFFF
	movq	%rax, -16(%rbp)
	callq	_ZNSt16allocator_traitsISaIPN9__gnu_cxx15_Hashtable_nodeISt4pairIKPKciEEEEE8max_sizeERKS9_
	movq	%rax, -8(%rbp)
	leaq	-16(%rbp), %rdi
	leaq	-8(%rbp), %rsi
	callq	_ZSt3minImERKT_S2_S2_
	movq	(%rax), %rax
	addq	$16, %rsp
	popq	%rbp
	.cfi_def_cfa %rsp, 8
	retq
.Lfunc_end69:
	.size	_ZNSt6vectorIPN9__gnu_cxx15_Hashtable_nodeISt4pairIKPKciEEESaIS8_EE11_S_max_sizeERKS9_, .Lfunc_end69-_ZNSt6vectorIPN9__gnu_cxx15_Hashtable_nodeISt4pairIKPKciEEESaIS8_EE11_S_max_sizeERKS9_
	.cfi_endproc
                                        # -- End function
	.section	.text._ZNKSt12_Vector_baseIPN9__gnu_cxx15_Hashtable_nodeISt4pairIKPKciEEESaIS8_EE19_M_get_Tp_allocatorEv,"axG",@progbits,_ZNKSt12_Vector_baseIPN9__gnu_cxx15_Hashtable_nodeISt4pairIKPKciEEESaIS8_EE19_M_get_Tp_allocatorEv,comdat
	.weak	_ZNKSt12_Vector_baseIPN9__gnu_cxx15_Hashtable_nodeISt4pairIKPKciEEESaIS8_EE19_M_get_Tp_allocatorEv # -- Begin function _ZNKSt12_Vector_baseIPN9__gnu_cxx15_Hashtable_nodeISt4pairIKPKciEEESaIS8_EE19_M_get_Tp_allocatorEv
	.p2align	4, 0x90
	.type	_ZNKSt12_Vector_baseIPN9__gnu_cxx15_Hashtable_nodeISt4pairIKPKciEEESaIS8_EE19_M_get_Tp_allocatorEv,@function
_ZNKSt12_Vector_baseIPN9__gnu_cxx15_Hashtable_nodeISt4pairIKPKciEEESaIS8_EE19_M_get_Tp_allocatorEv: # @_ZNKSt12_Vector_baseIPN9__gnu_cxx15_Hashtable_nodeISt4pairIKPKciEEESaIS8_EE19_M_get_Tp_allocatorEv
	.cfi_startproc
# %bb.0:
	pushq	%rbp
	.cfi_def_cfa_offset 16
	.cfi_offset %rbp, -16
	movq	%rsp, %rbp
	.cfi_def_cfa_register %rbp
	movq	%rdi, %rax
	popq	%rbp
	.cfi_def_cfa %rsp, 8
	retq
.Lfunc_end70:
	.size	_ZNKSt12_Vector_baseIPN9__gnu_cxx15_Hashtable_nodeISt4pairIKPKciEEESaIS8_EE19_M_get_Tp_allocatorEv, .Lfunc_end70-_ZNKSt12_Vector_baseIPN9__gnu_cxx15_Hashtable_nodeISt4pairIKPKciEEESaIS8_EE19_M_get_Tp_allocatorEv
	.cfi_endproc
                                        # -- End function
	.section	.text._ZNSt16allocator_traitsISaIPN9__gnu_cxx15_Hashtable_nodeISt4pairIKPKciEEEEE8max_sizeERKS9_,"axG",@progbits,_ZNSt16allocator_traitsISaIPN9__gnu_cxx15_Hashtable_nodeISt4pairIKPKciEEEEE8max_sizeERKS9_,comdat
	.weak	_ZNSt16allocator_traitsISaIPN9__gnu_cxx15_Hashtable_nodeISt4pairIKPKciEEEEE8max_sizeERKS9_ # -- Begin function _ZNSt16allocator_traitsISaIPN9__gnu_cxx15_Hashtable_nodeISt4pairIKPKciEEEEE8max_sizeERKS9_
	.p2align	4, 0x90
	.type	_ZNSt16allocator_traitsISaIPN9__gnu_cxx15_Hashtable_nodeISt4pairIKPKciEEEEE8max_sizeERKS9_,@function
_ZNSt16allocator_traitsISaIPN9__gnu_cxx15_Hashtable_nodeISt4pairIKPKciEEEEE8max_sizeERKS9_: # @_ZNSt16allocator_traitsISaIPN9__gnu_cxx15_Hashtable_nodeISt4pairIKPKciEEEEE8max_sizeERKS9_
	.cfi_startproc
# %bb.0:
	pushq	%rbp
	.cfi_def_cfa_offset 16
	.cfi_offset %rbp, -16
	movq	%rsp, %rbp
	.cfi_def_cfa_register %rbp
	popq	%rbp
	.cfi_def_cfa %rsp, 8
	jmp	_ZNK9__gnu_cxx13new_allocatorIPNS_15_Hashtable_nodeISt4pairIKPKciEEEE8max_sizeEv # TAILCALL
.Lfunc_end71:
	.size	_ZNSt16allocator_traitsISaIPN9__gnu_cxx15_Hashtable_nodeISt4pairIKPKciEEEEE8max_sizeERKS9_, .Lfunc_end71-_ZNSt16allocator_traitsISaIPN9__gnu_cxx15_Hashtable_nodeISt4pairIKPKciEEEEE8max_sizeERKS9_
	.cfi_endproc
                                        # -- End function
	.section	.text._ZSt3minImERKT_S2_S2_,"axG",@progbits,_ZSt3minImERKT_S2_S2_,comdat
	.weak	_ZSt3minImERKT_S2_S2_   # -- Begin function _ZSt3minImERKT_S2_S2_
	.p2align	4, 0x90
	.type	_ZSt3minImERKT_S2_S2_,@function
_ZSt3minImERKT_S2_S2_:                  # @_ZSt3minImERKT_S2_S2_
	.cfi_startproc
# %bb.0:
	pushq	%rbp
	.cfi_def_cfa_offset 16
	.cfi_offset %rbp, -16
	movq	%rsp, %rbp
	.cfi_def_cfa_register %rbp
	movq	%rdi, %rax
	movq	(%rsi), %rcx
	cmpq	(%rdi), %rcx
	cmovbq	%rsi, %rax
	popq	%rbp
	.cfi_def_cfa %rsp, 8
	retq
.Lfunc_end72:
	.size	_ZSt3minImERKT_S2_S2_, .Lfunc_end72-_ZSt3minImERKT_S2_S2_
	.cfi_endproc
                                        # -- End function
	.section	.text._ZNK9__gnu_cxx13new_allocatorIPNS_15_Hashtable_nodeISt4pairIKPKciEEEE8max_sizeEv,"axG",@progbits,_ZNK9__gnu_cxx13new_allocatorIPNS_15_Hashtable_nodeISt4pairIKPKciEEEE8max_sizeEv,comdat
	.weak	_ZNK9__gnu_cxx13new_allocatorIPNS_15_Hashtable_nodeISt4pairIKPKciEEEE8max_sizeEv # -- Begin function _ZNK9__gnu_cxx13new_allocatorIPNS_15_Hashtable_nodeISt4pairIKPKciEEEE8max_sizeEv
	.p2align	4, 0x90
	.type	_ZNK9__gnu_cxx13new_allocatorIPNS_15_Hashtable_nodeISt4pairIKPKciEEEE8max_sizeEv,@function
_ZNK9__gnu_cxx13new_allocatorIPNS_15_Hashtable_nodeISt4pairIKPKciEEEE8max_sizeEv: # @_ZNK9__gnu_cxx13new_allocatorIPNS_15_Hashtable_nodeISt4pairIKPKciEEEE8max_sizeEv
	.cfi_startproc
# %bb.0:
	pushq	%rbp
	.cfi_def_cfa_offset 16
	.cfi_offset %rbp, -16
	movq	%rsp, %rbp
	.cfi_def_cfa_register %rbp
	movabsq	$1152921504606846975, %rax # imm = 0xFFFFFFFFFFFFFFF
	popq	%rbp
	.cfi_def_cfa %rsp, 8
	retq
.Lfunc_end73:
	.size	_ZNK9__gnu_cxx13new_allocatorIPNS_15_Hashtable_nodeISt4pairIKPKciEEEE8max_sizeEv, .Lfunc_end73-_ZNK9__gnu_cxx13new_allocatorIPNS_15_Hashtable_nodeISt4pairIKPKciEEEE8max_sizeEv
	.cfi_endproc
                                        # -- End function
	.section	.text._ZNSt16allocator_traitsISaIPN9__gnu_cxx15_Hashtable_nodeISt4pairIKPKciEEEEE8allocateERS9_m,"axG",@progbits,_ZNSt16allocator_traitsISaIPN9__gnu_cxx15_Hashtable_nodeISt4pairIKPKciEEEEE8allocateERS9_m,comdat
	.weak	_ZNSt16allocator_traitsISaIPN9__gnu_cxx15_Hashtable_nodeISt4pairIKPKciEEEEE8allocateERS9_m # -- Begin function _ZNSt16allocator_traitsISaIPN9__gnu_cxx15_Hashtable_nodeISt4pairIKPKciEEEEE8allocateERS9_m
	.p2align	4, 0x90
	.type	_ZNSt16allocator_traitsISaIPN9__gnu_cxx15_Hashtable_nodeISt4pairIKPKciEEEEE8allocateERS9_m,@function
_ZNSt16allocator_traitsISaIPN9__gnu_cxx15_Hashtable_nodeISt4pairIKPKciEEEEE8allocateERS9_m: # @_ZNSt16allocator_traitsISaIPN9__gnu_cxx15_Hashtable_nodeISt4pairIKPKciEEEEE8allocateERS9_m
	.cfi_startproc
# %bb.0:
	pushq	%rbp
	.cfi_def_cfa_offset 16
	.cfi_offset %rbp, -16
	movq	%rsp, %rbp
	.cfi_def_cfa_register %rbp
	xorl	%edx, %edx
	popq	%rbp
	.cfi_def_cfa %rsp, 8
	jmp	_ZN9__gnu_cxx13new_allocatorIPNS_15_Hashtable_nodeISt4pairIKPKciEEEE8allocateEmPKv # TAILCALL
.Lfunc_end74:
	.size	_ZNSt16allocator_traitsISaIPN9__gnu_cxx15_Hashtable_nodeISt4pairIKPKciEEEEE8allocateERS9_m, .Lfunc_end74-_ZNSt16allocator_traitsISaIPN9__gnu_cxx15_Hashtable_nodeISt4pairIKPKciEEEEE8allocateERS9_m
	.cfi_endproc
                                        # -- End function
	.section	.text._ZN9__gnu_cxx13new_allocatorIPNS_15_Hashtable_nodeISt4pairIKPKciEEEE8allocateEmPKv,"axG",@progbits,_ZN9__gnu_cxx13new_allocatorIPNS_15_Hashtable_nodeISt4pairIKPKciEEEE8allocateEmPKv,comdat
	.weak	_ZN9__gnu_cxx13new_allocatorIPNS_15_Hashtable_nodeISt4pairIKPKciEEEE8allocateEmPKv # -- Begin function _ZN9__gnu_cxx13new_allocatorIPNS_15_Hashtable_nodeISt4pairIKPKciEEEE8allocateEmPKv
	.p2align	4, 0x90
	.type	_ZN9__gnu_cxx13new_allocatorIPNS_15_Hashtable_nodeISt4pairIKPKciEEEE8allocateEmPKv,@function
_ZN9__gnu_cxx13new_allocatorIPNS_15_Hashtable_nodeISt4pairIKPKciEEEE8allocateEmPKv: # @_ZN9__gnu_cxx13new_allocatorIPNS_15_Hashtable_nodeISt4pairIKPKciEEEE8allocateEmPKv
	.cfi_startproc
# %bb.0:
	pushq	%rbp
	.cfi_def_cfa_offset 16
	.cfi_offset %rbp, -16
	movq	%rsp, %rbp
	.cfi_def_cfa_register %rbp
	pushq	%rbx
	pushq	%rax
	.cfi_offset %rbx, -24
	movq	%rsi, %rbx
	callq	_ZNK9__gnu_cxx13new_allocatorIPNS_15_Hashtable_nodeISt4pairIKPKciEEEE8max_sizeEv
	cmpq	%rbx, %rax
	jb	.LBB75_1
# %bb.2:
	shlq	$3, %rbx
	movq	%rbx, %rdi
	addq	$8, %rsp
	popq	%rbx
	popq	%rbp
	.cfi_def_cfa %rsp, 8
	jmp	_Znwm                   # TAILCALL
.LBB75_1:
	.cfi_def_cfa %rbp, 16
	callq	_ZSt17__throw_bad_allocv
.Lfunc_end75:
	.size	_ZN9__gnu_cxx13new_allocatorIPNS_15_Hashtable_nodeISt4pairIKPKciEEEE8allocateEmPKv, .Lfunc_end75-_ZN9__gnu_cxx13new_allocatorIPNS_15_Hashtable_nodeISt4pairIKPKciEEEE8allocateEmPKv
	.cfi_endproc
                                        # -- End function
	.section	.text._ZNSt6vectorIPN9__gnu_cxx15_Hashtable_nodeISt4pairIKPKciEEESaIS8_EE14_S_do_relocateEPS8_SB_SB_RS9_St17integral_constantIbLb1EE,"axG",@progbits,_ZNSt6vectorIPN9__gnu_cxx15_Hashtable_nodeISt4pairIKPKciEEESaIS8_EE14_S_do_relocateEPS8_SB_SB_RS9_St17integral_constantIbLb1EE,comdat
	.weak	_ZNSt6vectorIPN9__gnu_cxx15_Hashtable_nodeISt4pairIKPKciEEESaIS8_EE14_S_do_relocateEPS8_SB_SB_RS9_St17integral_constantIbLb1EE # -- Begin function _ZNSt6vectorIPN9__gnu_cxx15_Hashtable_nodeISt4pairIKPKciEEESaIS8_EE14_S_do_relocateEPS8_SB_SB_RS9_St17integral_constantIbLb1EE
	.p2align	4, 0x90
	.type	_ZNSt6vectorIPN9__gnu_cxx15_Hashtable_nodeISt4pairIKPKciEEESaIS8_EE14_S_do_relocateEPS8_SB_SB_RS9_St17integral_constantIbLb1EE,@function
_ZNSt6vectorIPN9__gnu_cxx15_Hashtable_nodeISt4pairIKPKciEEESaIS8_EE14_S_do_relocateEPS8_SB_SB_RS9_St17integral_constantIbLb1EE: # @_ZNSt6vectorIPN9__gnu_cxx15_Hashtable_nodeISt4pairIKPKciEEESaIS8_EE14_S_do_relocateEPS8_SB_SB_RS9_St17integral_constantIbLb1EE
	.cfi_startproc
# %bb.0:
	pushq	%rbp
	.cfi_def_cfa_offset 16
	.cfi_offset %rbp, -16
	movq	%rsp, %rbp
	.cfi_def_cfa_register %rbp
	popq	%rbp
	.cfi_def_cfa %rsp, 8
	jmp	_ZSt12__relocate_aIPPN9__gnu_cxx15_Hashtable_nodeISt4pairIKPKciEEES9_SaIS8_EET0_T_SC_SB_RT1_ # TAILCALL
.Lfunc_end76:
	.size	_ZNSt6vectorIPN9__gnu_cxx15_Hashtable_nodeISt4pairIKPKciEEESaIS8_EE14_S_do_relocateEPS8_SB_SB_RS9_St17integral_constantIbLb1EE, .Lfunc_end76-_ZNSt6vectorIPN9__gnu_cxx15_Hashtable_nodeISt4pairIKPKciEEESaIS8_EE14_S_do_relocateEPS8_SB_SB_RS9_St17integral_constantIbLb1EE
	.cfi_endproc
                                        # -- End function
	.section	.text._ZSt12__relocate_aIPPN9__gnu_cxx15_Hashtable_nodeISt4pairIKPKciEEES9_SaIS8_EET0_T_SC_SB_RT1_,"axG",@progbits,_ZSt12__relocate_aIPPN9__gnu_cxx15_Hashtable_nodeISt4pairIKPKciEEES9_SaIS8_EET0_T_SC_SB_RT1_,comdat
	.weak	_ZSt12__relocate_aIPPN9__gnu_cxx15_Hashtable_nodeISt4pairIKPKciEEES9_SaIS8_EET0_T_SC_SB_RT1_ # -- Begin function _ZSt12__relocate_aIPPN9__gnu_cxx15_Hashtable_nodeISt4pairIKPKciEEES9_SaIS8_EET0_T_SC_SB_RT1_
	.p2align	4, 0x90
	.type	_ZSt12__relocate_aIPPN9__gnu_cxx15_Hashtable_nodeISt4pairIKPKciEEES9_SaIS8_EET0_T_SC_SB_RT1_,@function
_ZSt12__relocate_aIPPN9__gnu_cxx15_Hashtable_nodeISt4pairIKPKciEEES9_SaIS8_EET0_T_SC_SB_RT1_: # @_ZSt12__relocate_aIPPN9__gnu_cxx15_Hashtable_nodeISt4pairIKPKciEEES9_SaIS8_EET0_T_SC_SB_RT1_
	.cfi_startproc
# %bb.0:
	pushq	%rbp
	.cfi_def_cfa_offset 16
	.cfi_offset %rbp, -16
	movq	%rsp, %rbp
	.cfi_def_cfa_register %rbp
	pushq	%r15
	pushq	%r14
	pushq	%r12
	pushq	%rbx
	.cfi_offset %rbx, -48
	.cfi_offset %r12, -40
	.cfi_offset %r14, -32
	.cfi_offset %r15, -24
	movq	%rcx, %r14
	movq	%rdx, %r15
	movq	%rsi, %rbx
	callq	_ZSt12__niter_baseIPPN9__gnu_cxx15_Hashtable_nodeISt4pairIKPKciEEEET_SA_
	movq	%rax, %r12
	movq	%rbx, %rdi
	callq	_ZSt12__niter_baseIPPN9__gnu_cxx15_Hashtable_nodeISt4pairIKPKciEEEET_SA_
	movq	%rax, %rbx
	movq	%r15, %rdi
	callq	_ZSt12__niter_baseIPPN9__gnu_cxx15_Hashtable_nodeISt4pairIKPKciEEEET_SA_
	movq	%r12, %rdi
	movq	%rbx, %rsi
	movq	%rax, %rdx
	movq	%r14, %rcx
	popq	%rbx
	popq	%r12
	popq	%r14
	popq	%r15
	popq	%rbp
	.cfi_def_cfa %rsp, 8
	jmp	_ZSt14__relocate_a_1IPN9__gnu_cxx15_Hashtable_nodeISt4pairIKPKciEEES8_ENSt9enable_ifIXsr3std24__is_bitwise_relocatableIT_EE5valueEPSA_E4typeESB_SB_SB_RSaIT0_E # TAILCALL
.Lfunc_end77:
	.size	_ZSt12__relocate_aIPPN9__gnu_cxx15_Hashtable_nodeISt4pairIKPKciEEES9_SaIS8_EET0_T_SC_SB_RT1_, .Lfunc_end77-_ZSt12__relocate_aIPPN9__gnu_cxx15_Hashtable_nodeISt4pairIKPKciEEES9_SaIS8_EET0_T_SC_SB_RT1_
	.cfi_endproc
                                        # -- End function
	.section	.text._ZSt14__relocate_a_1IPN9__gnu_cxx15_Hashtable_nodeISt4pairIKPKciEEES8_ENSt9enable_ifIXsr3std24__is_bitwise_relocatableIT_EE5valueEPSA_E4typeESB_SB_SB_RSaIT0_E,"axG",@progbits,_ZSt14__relocate_a_1IPN9__gnu_cxx15_Hashtable_nodeISt4pairIKPKciEEES8_ENSt9enable_ifIXsr3std24__is_bitwise_relocatableIT_EE5valueEPSA_E4typeESB_SB_SB_RSaIT0_E,comdat
	.weak	_ZSt14__relocate_a_1IPN9__gnu_cxx15_Hashtable_nodeISt4pairIKPKciEEES8_ENSt9enable_ifIXsr3std24__is_bitwise_relocatableIT_EE5valueEPSA_E4typeESB_SB_SB_RSaIT0_E # -- Begin function _ZSt14__relocate_a_1IPN9__gnu_cxx15_Hashtable_nodeISt4pairIKPKciEEES8_ENSt9enable_ifIXsr3std24__is_bitwise_relocatableIT_EE5valueEPSA_E4typeESB_SB_SB_RSaIT0_E
	.p2align	4, 0x90
	.type	_ZSt14__relocate_a_1IPN9__gnu_cxx15_Hashtable_nodeISt4pairIKPKciEEES8_ENSt9enable_ifIXsr3std24__is_bitwise_relocatableIT_EE5valueEPSA_E4typeESB_SB_SB_RSaIT0_E,@function
_ZSt14__relocate_a_1IPN9__gnu_cxx15_Hashtable_nodeISt4pairIKPKciEEES8_ENSt9enable_ifIXsr3std24__is_bitwise_relocatableIT_EE5valueEPSA_E4typeESB_SB_SB_RSaIT0_E: # @_ZSt14__relocate_a_1IPN9__gnu_cxx15_Hashtable_nodeISt4pairIKPKciEEES8_ENSt9enable_ifIXsr3std24__is_bitwise_relocatableIT_EE5valueEPSA_E4typeESB_SB_SB_RSaIT0_E
	.cfi_startproc
# %bb.0:
	pushq	%rbp
	.cfi_def_cfa_offset 16
	.cfi_offset %rbp, -16
	movq	%rsp, %rbp
	.cfi_def_cfa_register %rbp
	pushq	%r14
	pushq	%rbx
	.cfi_offset %rbx, -32
	.cfi_offset %r14, -24
	movq	%rdx, %r14
	movq	%rsi, %rdx
	subq	%rdi, %rdx
	movq	%rdx, %rbx
	sarq	$3, %rbx
	testq	%rdx, %rdx
	jle	.LBB78_2
# %bb.1:
	movq	%rdi, %rsi
	movq	%r14, %rdi
	callq	memmove
.LBB78_2:
	leaq	(%r14,%rbx,8), %rax
	popq	%rbx
	popq	%r14
	popq	%rbp
	.cfi_def_cfa %rsp, 8
	retq
.Lfunc_end78:
	.size	_ZSt14__relocate_a_1IPN9__gnu_cxx15_Hashtable_nodeISt4pairIKPKciEEES8_ENSt9enable_ifIXsr3std24__is_bitwise_relocatableIT_EE5valueEPSA_E4typeESB_SB_SB_RSaIT0_E, .Lfunc_end78-_ZSt14__relocate_a_1IPN9__gnu_cxx15_Hashtable_nodeISt4pairIKPKciEEES8_ENSt9enable_ifIXsr3std24__is_bitwise_relocatableIT_EE5valueEPSA_E4typeESB_SB_SB_RSaIT0_E
	.cfi_endproc
                                        # -- End function
	.section	.text._ZSt12__niter_baseIPPN9__gnu_cxx15_Hashtable_nodeISt4pairIKPKciEEEET_SA_,"axG",@progbits,_ZSt12__niter_baseIPPN9__gnu_cxx15_Hashtable_nodeISt4pairIKPKciEEEET_SA_,comdat
	.weak	_ZSt12__niter_baseIPPN9__gnu_cxx15_Hashtable_nodeISt4pairIKPKciEEEET_SA_ # -- Begin function _ZSt12__niter_baseIPPN9__gnu_cxx15_Hashtable_nodeISt4pairIKPKciEEEET_SA_
	.p2align	4, 0x90
	.type	_ZSt12__niter_baseIPPN9__gnu_cxx15_Hashtable_nodeISt4pairIKPKciEEEET_SA_,@function
_ZSt12__niter_baseIPPN9__gnu_cxx15_Hashtable_nodeISt4pairIKPKciEEEET_SA_: # @_ZSt12__niter_baseIPPN9__gnu_cxx15_Hashtable_nodeISt4pairIKPKciEEEET_SA_
	.cfi_startproc
# %bb.0:
	pushq	%rbp
	.cfi_def_cfa_offset 16
	.cfi_offset %rbp, -16
	movq	%rsp, %rbp
	.cfi_def_cfa_register %rbp
	movq	%rdi, %rax
	popq	%rbp
	.cfi_def_cfa %rsp, 8
	retq
.Lfunc_end79:
	.size	_ZSt12__niter_baseIPPN9__gnu_cxx15_Hashtable_nodeISt4pairIKPKciEEEET_SA_, .Lfunc_end79-_ZSt12__niter_baseIPPN9__gnu_cxx15_Hashtable_nodeISt4pairIKPKciEEEET_SA_
	.cfi_endproc
                                        # -- End function
	.section	.text._ZN9__gnu_cxxmiIPKPNS_15_Hashtable_nodeISt4pairIKPKciEEESt6vectorIS8_SaIS8_EEEENS_17__normal_iteratorIT_T0_E15difference_typeERKSH_SK_,"axG",@progbits,_ZN9__gnu_cxxmiIPKPNS_15_Hashtable_nodeISt4pairIKPKciEEESt6vectorIS8_SaIS8_EEEENS_17__normal_iteratorIT_T0_E15difference_typeERKSH_SK_,comdat
	.weak	_ZN9__gnu_cxxmiIPKPNS_15_Hashtable_nodeISt4pairIKPKciEEESt6vectorIS8_SaIS8_EEEENS_17__normal_iteratorIT_T0_E15difference_typeERKSH_SK_ # -- Begin function _ZN9__gnu_cxxmiIPKPNS_15_Hashtable_nodeISt4pairIKPKciEEESt6vectorIS8_SaIS8_EEEENS_17__normal_iteratorIT_T0_E15difference_typeERKSH_SK_
	.p2align	4, 0x90
	.type	_ZN9__gnu_cxxmiIPKPNS_15_Hashtable_nodeISt4pairIKPKciEEESt6vectorIS8_SaIS8_EEEENS_17__normal_iteratorIT_T0_E15difference_typeERKSH_SK_,@function
_ZN9__gnu_cxxmiIPKPNS_15_Hashtable_nodeISt4pairIKPKciEEESt6vectorIS8_SaIS8_EEEENS_17__normal_iteratorIT_T0_E15difference_typeERKSH_SK_: # @_ZN9__gnu_cxxmiIPKPNS_15_Hashtable_nodeISt4pairIKPKciEEESt6vectorIS8_SaIS8_EEEENS_17__normal_iteratorIT_T0_E15difference_typeERKSH_SK_
	.cfi_startproc
# %bb.0:
	pushq	%rbp
	.cfi_def_cfa_offset 16
	.cfi_offset %rbp, -16
	movq	%rsp, %rbp
	.cfi_def_cfa_register %rbp
	pushq	%r14
	pushq	%rbx
	.cfi_offset %rbx, -32
	.cfi_offset %r14, -24
	movq	%rsi, %r14
	callq	_ZNK9__gnu_cxx17__normal_iteratorIPKPNS_15_Hashtable_nodeISt4pairIKPKciEEESt6vectorIS8_SaIS8_EEE4baseEv
	movq	(%rax), %rbx
	movq	%r14, %rdi
	callq	_ZNK9__gnu_cxx17__normal_iteratorIPKPNS_15_Hashtable_nodeISt4pairIKPKciEEESt6vectorIS8_SaIS8_EEE4baseEv
	subq	(%rax), %rbx
	sarq	$3, %rbx
	movq	%rbx, %rax
	popq	%rbx
	popq	%r14
	popq	%rbp
	.cfi_def_cfa %rsp, 8
	retq
.Lfunc_end80:
	.size	_ZN9__gnu_cxxmiIPKPNS_15_Hashtable_nodeISt4pairIKPKciEEESt6vectorIS8_SaIS8_EEEENS_17__normal_iteratorIT_T0_E15difference_typeERKSH_SK_, .Lfunc_end80-_ZN9__gnu_cxxmiIPKPNS_15_Hashtable_nodeISt4pairIKPKciEEESt6vectorIS8_SaIS8_EEEENS_17__normal_iteratorIT_T0_E15difference_typeERKSH_SK_
	.cfi_endproc
                                        # -- End function
	.section	.text._ZNKSt6vectorIPN9__gnu_cxx15_Hashtable_nodeISt4pairIKPKciEEESaIS8_EE6cbeginEv,"axG",@progbits,_ZNKSt6vectorIPN9__gnu_cxx15_Hashtable_nodeISt4pairIKPKciEEESaIS8_EE6cbeginEv,comdat
	.weak	_ZNKSt6vectorIPN9__gnu_cxx15_Hashtable_nodeISt4pairIKPKciEEESaIS8_EE6cbeginEv # -- Begin function _ZNKSt6vectorIPN9__gnu_cxx15_Hashtable_nodeISt4pairIKPKciEEESaIS8_EE6cbeginEv
	.p2align	4, 0x90
	.type	_ZNKSt6vectorIPN9__gnu_cxx15_Hashtable_nodeISt4pairIKPKciEEESaIS8_EE6cbeginEv,@function
_ZNKSt6vectorIPN9__gnu_cxx15_Hashtable_nodeISt4pairIKPKciEEESaIS8_EE6cbeginEv: # @_ZNKSt6vectorIPN9__gnu_cxx15_Hashtable_nodeISt4pairIKPKciEEESaIS8_EE6cbeginEv
	.cfi_startproc
# %bb.0:
	pushq	%rbp
	.cfi_def_cfa_offset 16
	.cfi_offset %rbp, -16
	movq	%rsp, %rbp
	.cfi_def_cfa_register %rbp
	subq	$16, %rsp
	movq	%rdi, %rsi
	leaq	-8(%rbp), %rdi
	callq	_ZN9__gnu_cxx17__normal_iteratorIPKPNS_15_Hashtable_nodeISt4pairIKPKciEEESt6vectorIS8_SaIS8_EEEC2ERKSA_
	movq	-8(%rbp), %rax
	addq	$16, %rsp
	popq	%rbp
	.cfi_def_cfa %rsp, 8
	retq
.Lfunc_end81:
	.size	_ZNKSt6vectorIPN9__gnu_cxx15_Hashtable_nodeISt4pairIKPKciEEESaIS8_EE6cbeginEv, .Lfunc_end81-_ZNKSt6vectorIPN9__gnu_cxx15_Hashtable_nodeISt4pairIKPKciEEESaIS8_EE6cbeginEv
	.cfi_endproc
                                        # -- End function
	.section	.text._ZNSt6vectorIPN9__gnu_cxx15_Hashtable_nodeISt4pairIKPKciEEESaIS8_EE14_M_fill_insertENS0_17__normal_iteratorIPS8_SA_EEmRKS8_,"axG",@progbits,_ZNSt6vectorIPN9__gnu_cxx15_Hashtable_nodeISt4pairIKPKciEEESaIS8_EE14_M_fill_insertENS0_17__normal_iteratorIPS8_SA_EEmRKS8_,comdat
	.weak	_ZNSt6vectorIPN9__gnu_cxx15_Hashtable_nodeISt4pairIKPKciEEESaIS8_EE14_M_fill_insertENS0_17__normal_iteratorIPS8_SA_EEmRKS8_ # -- Begin function _ZNSt6vectorIPN9__gnu_cxx15_Hashtable_nodeISt4pairIKPKciEEESaIS8_EE14_M_fill_insertENS0_17__normal_iteratorIPS8_SA_EEmRKS8_
	.p2align	4, 0x90
	.type	_ZNSt6vectorIPN9__gnu_cxx15_Hashtable_nodeISt4pairIKPKciEEESaIS8_EE14_M_fill_insertENS0_17__normal_iteratorIPS8_SA_EEmRKS8_,@function
_ZNSt6vectorIPN9__gnu_cxx15_Hashtable_nodeISt4pairIKPKciEEESaIS8_EE14_M_fill_insertENS0_17__normal_iteratorIPS8_SA_EEmRKS8_: # @_ZNSt6vectorIPN9__gnu_cxx15_Hashtable_nodeISt4pairIKPKciEEESaIS8_EE14_M_fill_insertENS0_17__normal_iteratorIPS8_SA_EEmRKS8_
.Lfunc_begin6:
	.cfi_startproc
	.cfi_personality 3, __gxx_personality_v0
	.cfi_lsda 3, .Lexception6
# %bb.0:
	pushq	%rbp
	.cfi_def_cfa_offset 16
	.cfi_offset %rbp, -16
	movq	%rsp, %rbp
	.cfi_def_cfa_register %rbp
	pushq	%r15
	pushq	%r14
	pushq	%r13
	pushq	%r12
	pushq	%rbx
	subq	$72, %rsp
	.cfi_offset %rbx, -56
	.cfi_offset %r12, -48
	.cfi_offset %r13, -40
	.cfi_offset %r14, -32
	.cfi_offset %r15, -24
	movq	%rsi, -48(%rbp)
	testq	%rdx, %rdx
	je	.LBB82_10
# %bb.1:
	movq	%rcx, %r13
	movq	%rdx, %r14
	movq	%rdi, %rbx
	movq	16(%rdi), %rax
	subq	8(%rdi), %rax
	sarq	$3, %rax
	cmpq	%rdx, %rax
	jae	.LBB82_2
# %bb.11:
	movl	$.L.str.5, %edx
	movq	%rbx, %rdi
	movq	%r14, %rsi
	callq	_ZNKSt6vectorIPN9__gnu_cxx15_Hashtable_nodeISt4pairIKPKciEEESaIS8_EE12_M_check_lenEmS4_
	movq	%rax, %r12
	movq	%rbx, %rdi
	callq	_ZNSt6vectorIPN9__gnu_cxx15_Hashtable_nodeISt4pairIKPKciEEESaIS8_EE5beginEv
	movq	%rax, -80(%rbp)
	leaq	-48(%rbp), %rdi
	leaq	-80(%rbp), %rsi
	callq	_ZN9__gnu_cxxmiIPPNS_15_Hashtable_nodeISt4pairIKPKciEEESt6vectorIS8_SaIS8_EEEENS_17__normal_iteratorIT_T0_E15difference_typeERKSG_SJ_
	movq	%rax, %r15
	movq	%rbx, %rdi
	movq	%r12, -64(%rbp)         # 8-byte Spill
	movq	%r12, %rsi
	callq	_ZNSt12_Vector_baseIPN9__gnu_cxx15_Hashtable_nodeISt4pairIKPKciEEESaIS8_EE11_M_allocateEm
	movq	%rax, %r12
	movq	%rax, -56(%rbp)         # 8-byte Spill
	leaq	(%rax,%r15,8), %r15
	movq	%rbx, %rdi
	callq	_ZNSt12_Vector_baseIPN9__gnu_cxx15_Hashtable_nodeISt4pairIKPKciEEESaIS8_EE19_M_get_Tp_allocatorEv
.Ltmp71:
	movq	%r15, -72(%rbp)         # 8-byte Spill
	movq	%r15, %rdi
	movq	%r14, %rsi
	movq	%r13, %rdx
	movq	%rax, %rcx
	callq	_ZSt24__uninitialized_fill_n_aIPPN9__gnu_cxx15_Hashtable_nodeISt4pairIKPKciEEEmS8_S8_ET_SA_T0_RKT1_RSaIT2_E
.Ltmp72:
# %bb.12:
	movq	(%rbx), %r15
	leaq	-48(%rbp), %rdi
	callq	_ZNK9__gnu_cxx17__normal_iteratorIPPNS_15_Hashtable_nodeISt4pairIKPKciEEESt6vectorIS8_SaIS8_EEE4baseEv
	movq	(%rax), %r13
	movq	%rbx, %rdi
	callq	_ZNSt12_Vector_baseIPN9__gnu_cxx15_Hashtable_nodeISt4pairIKPKciEEESaIS8_EE19_M_get_Tp_allocatorEv
	xorl	%r12d, %r12d
.Ltmp73:
	movq	%r15, %rdi
	movq	%r13, %rsi
	movq	-56(%rbp), %rdx         # 8-byte Reload
	movq	%rax, %rcx
	callq	_ZSt34__uninitialized_move_if_noexcept_aIPPN9__gnu_cxx15_Hashtable_nodeISt4pairIKPKciEEES9_SaIS8_EET0_T_SC_SB_RT1_
.Ltmp74:
# %bb.13:
	leaq	(%rax,%r14,8), %r12
	leaq	-48(%rbp), %rdi
	callq	_ZNK9__gnu_cxx17__normal_iteratorIPPNS_15_Hashtable_nodeISt4pairIKPKciEEESt6vectorIS8_SaIS8_EEE4baseEv
	movq	(%rax), %r15
	movq	8(%rbx), %r13
	movq	%rbx, %rdi
	callq	_ZNSt12_Vector_baseIPN9__gnu_cxx15_Hashtable_nodeISt4pairIKPKciEEESaIS8_EE19_M_get_Tp_allocatorEv
.Ltmp75:
	movq	%r15, %rdi
	movq	%r13, %rsi
	movq	%r12, %rdx
	movq	%rax, %rcx
	callq	_ZSt34__uninitialized_move_if_noexcept_aIPPN9__gnu_cxx15_Hashtable_nodeISt4pairIKPKciEEES9_SaIS8_EET0_T_SC_SB_RT1_
.Ltmp76:
# %bb.14:
	movq	%rax, %r13
	movq	(%rbx), %r14
	movq	8(%rbx), %r15
	movq	%rbx, %rdi
	callq	_ZNSt12_Vector_baseIPN9__gnu_cxx15_Hashtable_nodeISt4pairIKPKciEEESaIS8_EE19_M_get_Tp_allocatorEv
	movq	%r14, %rdi
	movq	%r15, %rsi
	movq	%rax, %rdx
	callq	_ZSt8_DestroyIPPN9__gnu_cxx15_Hashtable_nodeISt4pairIKPKciEEES8_EvT_SA_RSaIT0_E
	movq	(%rbx), %rsi
	movq	16(%rbx), %rdx
	subq	%rsi, %rdx
	sarq	$3, %rdx
	movq	%rbx, %rdi
	callq	_ZNSt12_Vector_baseIPN9__gnu_cxx15_Hashtable_nodeISt4pairIKPKciEEESaIS8_EE13_M_deallocateEPS8_m
	movq	-56(%rbp), %rcx         # 8-byte Reload
	movq	%rcx, (%rbx)
	movq	%r13, 8(%rbx)
	movq	-64(%rbp), %rax         # 8-byte Reload
	leaq	(%rcx,%rax,8), %rax
	movq	%rax, 16(%rbx)
	jmp	.LBB82_10
.LBB82_2:
	leaq	-104(%rbp), %r15
	movq	%r15, %rdi
	movq	%rbx, %rsi
	movq	%r13, %rdx
	callq	_ZNSt6vectorIPN9__gnu_cxx15_Hashtable_nodeISt4pairIKPKciEEESaIS8_EE16_Temporary_valueC2IJRKS8_EEEPSA_DpOT_
	movq	%r15, %rdi
	callq	_ZNSt6vectorIPN9__gnu_cxx15_Hashtable_nodeISt4pairIKPKciEEESaIS8_EE16_Temporary_value6_M_valEv
	movq	%rax, %r15
	movq	%rbx, %rdi
	callq	_ZNSt6vectorIPN9__gnu_cxx15_Hashtable_nodeISt4pairIKPKciEEESaIS8_EE3endEv
	movq	%rax, -88(%rbp)
	leaq	-88(%rbp), %rdi
	leaq	-48(%rbp), %rsi
	callq	_ZN9__gnu_cxxmiIPPNS_15_Hashtable_nodeISt4pairIKPKciEEESt6vectorIS8_SaIS8_EEEENS_17__normal_iteratorIT_T0_E15difference_typeERKSG_SJ_
	movq	8(%rbx), %r12
	cmpq	%r14, %rax
	jbe	.LBB82_6
# %bb.3:
	shlq	$3, %r14
	movq	%r12, %r13
	subq	%r14, %r13
	movq	%rbx, %rdi
	callq	_ZNSt12_Vector_baseIPN9__gnu_cxx15_Hashtable_nodeISt4pairIKPKciEEESaIS8_EE19_M_get_Tp_allocatorEv
.Ltmp64:
	movq	%r13, %rdi
	movq	%r12, %rsi
	movq	%r12, %rdx
	movq	%rax, %rcx
	callq	_ZSt22__uninitialized_move_aIPPN9__gnu_cxx15_Hashtable_nodeISt4pairIKPKciEEES9_SaIS8_EET0_T_SC_SB_RT1_
.Ltmp65:
# %bb.4:
	addq	%r14, 8(%rbx)
	leaq	-48(%rbp), %rdi
	callq	_ZNK9__gnu_cxx17__normal_iteratorIPPNS_15_Hashtable_nodeISt4pairIKPKciEEESt6vectorIS8_SaIS8_EEE4baseEv
	movq	(%rax), %rdi
.Ltmp66:
	movq	%r13, %rsi
	movq	%r12, %rdx
	callq	_ZSt13move_backwardIPPN9__gnu_cxx15_Hashtable_nodeISt4pairIKPKciEEES9_ET0_T_SB_SA_
.Ltmp67:
# %bb.5:
	leaq	-48(%rbp), %r12
	movq	%r12, %rdi
	callq	_ZNK9__gnu_cxx17__normal_iteratorIPPNS_15_Hashtable_nodeISt4pairIKPKciEEESt6vectorIS8_SaIS8_EEE4baseEv
	movq	(%rax), %rbx
	movq	%r12, %rdi
	callq	_ZNK9__gnu_cxx17__normal_iteratorIPPNS_15_Hashtable_nodeISt4pairIKPKciEEESt6vectorIS8_SaIS8_EEE4baseEv
	addq	(%rax), %r14
.Ltmp68:
	movq	%rbx, %rdi
	movq	%r14, %rsi
	movq	%r15, %rdx
	callq	_ZSt4fillIPPN9__gnu_cxx15_Hashtable_nodeISt4pairIKPKciEEES8_EvT_SA_RKT0_
.Ltmp69:
	jmp	.LBB82_9
.LBB82_6:
	movq	%rax, %r13
	subq	%rax, %r14
	movq	%rbx, %rdi
	callq	_ZNSt12_Vector_baseIPN9__gnu_cxx15_Hashtable_nodeISt4pairIKPKciEEESaIS8_EE19_M_get_Tp_allocatorEv
.Ltmp58:
	movq	%r12, %rdi
	movq	%r14, %rsi
	movq	%r15, %rdx
	movq	%rax, %rcx
	callq	_ZSt24__uninitialized_fill_n_aIPPN9__gnu_cxx15_Hashtable_nodeISt4pairIKPKciEEEmS8_S8_ET_SA_T0_RKT1_RSaIT2_E
.Ltmp59:
# %bb.7:
	movq	%rax, 8(%rbx)
	leaq	-48(%rbp), %rdi
	callq	_ZNK9__gnu_cxx17__normal_iteratorIPPNS_15_Hashtable_nodeISt4pairIKPKciEEESt6vectorIS8_SaIS8_EEE4baseEv
	movq	(%rax), %r14
	movq	%r15, -56(%rbp)         # 8-byte Spill
	movq	8(%rbx), %r15
	movq	%rbx, %rdi
	callq	_ZNSt12_Vector_baseIPN9__gnu_cxx15_Hashtable_nodeISt4pairIKPKciEEESaIS8_EE19_M_get_Tp_allocatorEv
.Ltmp60:
	movq	%r14, %rdi
	movq	%r12, %rsi
	movq	%r15, %rdx
	movq	-56(%rbp), %r14         # 8-byte Reload
	movq	%rax, %rcx
	callq	_ZSt22__uninitialized_move_aIPPN9__gnu_cxx15_Hashtable_nodeISt4pairIKPKciEEES9_SaIS8_EET0_T_SC_SB_RT1_
.Ltmp61:
# %bb.8:
	shlq	$3, %r13
	addq	%r13, 8(%rbx)
	leaq	-48(%rbp), %rdi
	callq	_ZNK9__gnu_cxx17__normal_iteratorIPPNS_15_Hashtable_nodeISt4pairIKPKciEEESt6vectorIS8_SaIS8_EEE4baseEv
	movq	(%rax), %rdi
.Ltmp62:
	movq	%r12, %rsi
	movq	%r14, %rdx
	callq	_ZSt4fillIPPN9__gnu_cxx15_Hashtable_nodeISt4pairIKPKciEEES8_EvT_SA_RKT0_
.Ltmp63:
.LBB82_9:
	leaq	-104(%rbp), %rdi
	callq	_ZNSt6vectorIPN9__gnu_cxx15_Hashtable_nodeISt4pairIKPKciEEESaIS8_EE16_Temporary_valueD2Ev
.LBB82_10:
	addq	$72, %rsp
	popq	%rbx
	popq	%r12
	popq	%r13
	popq	%r14
	popq	%r15
	popq	%rbp
	.cfi_def_cfa %rsp, 8
	retq
.LBB82_21:
	.cfi_def_cfa %rbp, 16
.Ltmp70:
	movq	%rax, %rbx
	leaq	-104(%rbp), %rdi
	callq	_ZNSt6vectorIPN9__gnu_cxx15_Hashtable_nodeISt4pairIKPKciEEESaIS8_EE16_Temporary_valueD2Ev
.LBB82_22:
	movq	%rbx, %rdi
	callq	_Unwind_Resume
.LBB82_15:
.Ltmp77:
	movq	%rax, %rdi
	callq	__cxa_begin_catch
	testq	%r12, %r12
	jne	.LBB82_18
# %bb.16:
	movq	-72(%rbp), %r15         # 8-byte Reload
	leaq	(%r15,%r14,8), %r14
	movq	%rbx, %rdi
	callq	_ZNSt12_Vector_baseIPN9__gnu_cxx15_Hashtable_nodeISt4pairIKPKciEEESaIS8_EE19_M_get_Tp_allocatorEv
.Ltmp80:
	movq	%r15, %rdi
	movq	%r14, %rsi
	movq	%rax, %rdx
	callq	_ZSt8_DestroyIPPN9__gnu_cxx15_Hashtable_nodeISt4pairIKPKciEEES8_EvT_SA_RSaIT0_E
.Ltmp81:
	jmp	.LBB82_19
.LBB82_18:
	movq	%rbx, %rdi
	callq	_ZNSt12_Vector_baseIPN9__gnu_cxx15_Hashtable_nodeISt4pairIKPKciEEESaIS8_EE19_M_get_Tp_allocatorEv
.Ltmp78:
	movq	-56(%rbp), %rdi         # 8-byte Reload
	movq	%r12, %rsi
	movq	%rax, %rdx
	callq	_ZSt8_DestroyIPPN9__gnu_cxx15_Hashtable_nodeISt4pairIKPKciEEES8_EvT_SA_RSaIT0_E
.Ltmp79:
.LBB82_19:
.Ltmp82:
	movq	%rbx, %rdi
	movq	-56(%rbp), %rsi         # 8-byte Reload
	movq	-64(%rbp), %rdx         # 8-byte Reload
	callq	_ZNSt12_Vector_baseIPN9__gnu_cxx15_Hashtable_nodeISt4pairIKPKciEEESaIS8_EE13_M_deallocateEPS8_m
.Ltmp83:
# %bb.20:
.Ltmp84:
	callq	__cxa_rethrow
.Ltmp85:
# %bb.24:
.LBB82_17:
.Ltmp86:
	movq	%rax, %rbx
.Ltmp87:
	callq	__cxa_end_catch
.Ltmp88:
	jmp	.LBB82_22
.LBB82_23:
.Ltmp89:
	movq	%rax, %rdi
	callq	__clang_call_terminate
.Lfunc_end82:
	.size	_ZNSt6vectorIPN9__gnu_cxx15_Hashtable_nodeISt4pairIKPKciEEESaIS8_EE14_M_fill_insertENS0_17__normal_iteratorIPS8_SA_EEmRKS8_, .Lfunc_end82-_ZNSt6vectorIPN9__gnu_cxx15_Hashtable_nodeISt4pairIKPKciEEESaIS8_EE14_M_fill_insertENS0_17__normal_iteratorIPS8_SA_EEmRKS8_
	.cfi_endproc
	.section	.gcc_except_table,"a",@progbits
	.p2align	2
GCC_except_table82:
.Lexception6:
	.byte	255                     # @LPStart Encoding = omit
	.byte	3                       # @TType Encoding = udata4
	.uleb128 .Lttbase3-.Lttbaseref3
.Lttbaseref3:
	.byte	1                       # Call site Encoding = uleb128
	.uleb128 .Lcst_end6-.Lcst_begin6
.Lcst_begin6:
	.uleb128 .Lfunc_begin6-.Lfunc_begin6 # >> Call Site 1 <<
	.uleb128 .Ltmp71-.Lfunc_begin6  #   Call between .Lfunc_begin6 and .Ltmp71
	.byte	0                       #     has no landing pad
	.byte	0                       #   On action: cleanup
	.uleb128 .Ltmp71-.Lfunc_begin6  # >> Call Site 2 <<
	.uleb128 .Ltmp76-.Ltmp71        #   Call between .Ltmp71 and .Ltmp76
	.uleb128 .Ltmp77-.Lfunc_begin6  #     jumps to .Ltmp77
	.byte	1                       #   On action: 1
	.uleb128 .Ltmp76-.Lfunc_begin6  # >> Call Site 3 <<
	.uleb128 .Ltmp64-.Ltmp76        #   Call between .Ltmp76 and .Ltmp64
	.byte	0                       #     has no landing pad
	.byte	0                       #   On action: cleanup
	.uleb128 .Ltmp64-.Lfunc_begin6  # >> Call Site 4 <<
	.uleb128 .Ltmp63-.Ltmp64        #   Call between .Ltmp64 and .Ltmp63
	.uleb128 .Ltmp70-.Lfunc_begin6  #     jumps to .Ltmp70
	.byte	0                       #   On action: cleanup
	.uleb128 .Ltmp63-.Lfunc_begin6  # >> Call Site 5 <<
	.uleb128 .Ltmp80-.Ltmp63        #   Call between .Ltmp63 and .Ltmp80
	.byte	0                       #     has no landing pad
	.byte	0                       #   On action: cleanup
	.uleb128 .Ltmp80-.Lfunc_begin6  # >> Call Site 6 <<
	.uleb128 .Ltmp85-.Ltmp80        #   Call between .Ltmp80 and .Ltmp85
	.uleb128 .Ltmp86-.Lfunc_begin6  #     jumps to .Ltmp86
	.byte	0                       #   On action: cleanup
	.uleb128 .Ltmp87-.Lfunc_begin6  # >> Call Site 7 <<
	.uleb128 .Ltmp88-.Ltmp87        #   Call between .Ltmp87 and .Ltmp88
	.uleb128 .Ltmp89-.Lfunc_begin6  #     jumps to .Ltmp89
	.byte	1                       #   On action: 1
.Lcst_end6:
	.byte	1                       # >> Action Record 1 <<
                                        #   Catch TypeInfo 1
	.byte	0                       #   No further actions
	.p2align	2
                                        # >> Catch TypeInfos <<
	.long	0                       # TypeInfo 1
.Lttbase3:
	.p2align	2
                                        # -- End function
	.section	.text._ZNSt6vectorIPN9__gnu_cxx15_Hashtable_nodeISt4pairIKPKciEEESaIS8_EE5beginEv,"axG",@progbits,_ZNSt6vectorIPN9__gnu_cxx15_Hashtable_nodeISt4pairIKPKciEEESaIS8_EE5beginEv,comdat
	.weak	_ZNSt6vectorIPN9__gnu_cxx15_Hashtable_nodeISt4pairIKPKciEEESaIS8_EE5beginEv # -- Begin function _ZNSt6vectorIPN9__gnu_cxx15_Hashtable_nodeISt4pairIKPKciEEESaIS8_EE5beginEv
	.p2align	4, 0x90
	.type	_ZNSt6vectorIPN9__gnu_cxx15_Hashtable_nodeISt4pairIKPKciEEESaIS8_EE5beginEv,@function
_ZNSt6vectorIPN9__gnu_cxx15_Hashtable_nodeISt4pairIKPKciEEESaIS8_EE5beginEv: # @_ZNSt6vectorIPN9__gnu_cxx15_Hashtable_nodeISt4pairIKPKciEEESaIS8_EE5beginEv
	.cfi_startproc
# %bb.0:
	pushq	%rbp
	.cfi_def_cfa_offset 16
	.cfi_offset %rbp, -16
	movq	%rsp, %rbp
	.cfi_def_cfa_register %rbp
	subq	$16, %rsp
	movq	%rdi, %rsi
	leaq	-8(%rbp), %rdi
	callq	_ZN9__gnu_cxx17__normal_iteratorIPPNS_15_Hashtable_nodeISt4pairIKPKciEEESt6vectorIS8_SaIS8_EEEC2ERKS9_
	movq	-8(%rbp), %rax
	addq	$16, %rsp
	popq	%rbp
	.cfi_def_cfa %rsp, 8
	retq
.Lfunc_end83:
	.size	_ZNSt6vectorIPN9__gnu_cxx15_Hashtable_nodeISt4pairIKPKciEEESaIS8_EE5beginEv, .Lfunc_end83-_ZNSt6vectorIPN9__gnu_cxx15_Hashtable_nodeISt4pairIKPKciEEESaIS8_EE5beginEv
	.cfi_endproc
                                        # -- End function
	.section	.text._ZNK9__gnu_cxx17__normal_iteratorIPPNS_15_Hashtable_nodeISt4pairIKPKciEEESt6vectorIS8_SaIS8_EEEplEl,"axG",@progbits,_ZNK9__gnu_cxx17__normal_iteratorIPPNS_15_Hashtable_nodeISt4pairIKPKciEEESt6vectorIS8_SaIS8_EEEplEl,comdat
	.weak	_ZNK9__gnu_cxx17__normal_iteratorIPPNS_15_Hashtable_nodeISt4pairIKPKciEEESt6vectorIS8_SaIS8_EEEplEl # -- Begin function _ZNK9__gnu_cxx17__normal_iteratorIPPNS_15_Hashtable_nodeISt4pairIKPKciEEESt6vectorIS8_SaIS8_EEEplEl
	.p2align	4, 0x90
	.type	_ZNK9__gnu_cxx17__normal_iteratorIPPNS_15_Hashtable_nodeISt4pairIKPKciEEESt6vectorIS8_SaIS8_EEEplEl,@function
_ZNK9__gnu_cxx17__normal_iteratorIPPNS_15_Hashtable_nodeISt4pairIKPKciEEESt6vectorIS8_SaIS8_EEEplEl: # @_ZNK9__gnu_cxx17__normal_iteratorIPPNS_15_Hashtable_nodeISt4pairIKPKciEEESt6vectorIS8_SaIS8_EEEplEl
	.cfi_startproc
# %bb.0:
	pushq	%rbp
	.cfi_def_cfa_offset 16
	.cfi_offset %rbp, -16
	movq	%rsp, %rbp
	.cfi_def_cfa_register %rbp
	subq	$16, %rsp
	shlq	$3, %rsi
	addq	(%rdi), %rsi
	movq	%rsi, -8(%rbp)
	leaq	-16(%rbp), %rdi
	leaq	-8(%rbp), %rsi
	callq	_ZN9__gnu_cxx17__normal_iteratorIPPNS_15_Hashtable_nodeISt4pairIKPKciEEESt6vectorIS8_SaIS8_EEEC2ERKS9_
	movq	-16(%rbp), %rax
	addq	$16, %rsp
	popq	%rbp
	.cfi_def_cfa %rsp, 8
	retq
.Lfunc_end84:
	.size	_ZNK9__gnu_cxx17__normal_iteratorIPPNS_15_Hashtable_nodeISt4pairIKPKciEEESt6vectorIS8_SaIS8_EEEplEl, .Lfunc_end84-_ZNK9__gnu_cxx17__normal_iteratorIPPNS_15_Hashtable_nodeISt4pairIKPKciEEESt6vectorIS8_SaIS8_EEEplEl
	.cfi_endproc
                                        # -- End function
	.section	.text._ZNK9__gnu_cxx17__normal_iteratorIPKPNS_15_Hashtable_nodeISt4pairIKPKciEEESt6vectorIS8_SaIS8_EEE4baseEv,"axG",@progbits,_ZNK9__gnu_cxx17__normal_iteratorIPKPNS_15_Hashtable_nodeISt4pairIKPKciEEESt6vectorIS8_SaIS8_EEE4baseEv,comdat
	.weak	_ZNK9__gnu_cxx17__normal_iteratorIPKPNS_15_Hashtable_nodeISt4pairIKPKciEEESt6vectorIS8_SaIS8_EEE4baseEv # -- Begin function _ZNK9__gnu_cxx17__normal_iteratorIPKPNS_15_Hashtable_nodeISt4pairIKPKciEEESt6vectorIS8_SaIS8_EEE4baseEv
	.p2align	4, 0x90
	.type	_ZNK9__gnu_cxx17__normal_iteratorIPKPNS_15_Hashtable_nodeISt4pairIKPKciEEESt6vectorIS8_SaIS8_EEE4baseEv,@function
_ZNK9__gnu_cxx17__normal_iteratorIPKPNS_15_Hashtable_nodeISt4pairIKPKciEEESt6vectorIS8_SaIS8_EEE4baseEv: # @_ZNK9__gnu_cxx17__normal_iteratorIPKPNS_15_Hashtable_nodeISt4pairIKPKciEEESt6vectorIS8_SaIS8_EEE4baseEv
	.cfi_startproc
# %bb.0:
	pushq	%rbp
	.cfi_def_cfa_offset 16
	.cfi_offset %rbp, -16
	movq	%rsp, %rbp
	.cfi_def_cfa_register %rbp
	movq	%rdi, %rax
	popq	%rbp
	.cfi_def_cfa %rsp, 8
	retq
.Lfunc_end85:
	.size	_ZNK9__gnu_cxx17__normal_iteratorIPKPNS_15_Hashtable_nodeISt4pairIKPKciEEESt6vectorIS8_SaIS8_EEE4baseEv, .Lfunc_end85-_ZNK9__gnu_cxx17__normal_iteratorIPKPNS_15_Hashtable_nodeISt4pairIKPKciEEESt6vectorIS8_SaIS8_EEE4baseEv
	.cfi_endproc
                                        # -- End function
	.section	.text._ZN9__gnu_cxx17__normal_iteratorIPKPNS_15_Hashtable_nodeISt4pairIKPKciEEESt6vectorIS8_SaIS8_EEEC2ERKSA_,"axG",@progbits,_ZN9__gnu_cxx17__normal_iteratorIPKPNS_15_Hashtable_nodeISt4pairIKPKciEEESt6vectorIS8_SaIS8_EEEC2ERKSA_,comdat
	.weak	_ZN9__gnu_cxx17__normal_iteratorIPKPNS_15_Hashtable_nodeISt4pairIKPKciEEESt6vectorIS8_SaIS8_EEEC2ERKSA_ # -- Begin function _ZN9__gnu_cxx17__normal_iteratorIPKPNS_15_Hashtable_nodeISt4pairIKPKciEEESt6vectorIS8_SaIS8_EEEC2ERKSA_
	.p2align	4, 0x90
	.type	_ZN9__gnu_cxx17__normal_iteratorIPKPNS_15_Hashtable_nodeISt4pairIKPKciEEESt6vectorIS8_SaIS8_EEEC2ERKSA_,@function
_ZN9__gnu_cxx17__normal_iteratorIPKPNS_15_Hashtable_nodeISt4pairIKPKciEEESt6vectorIS8_SaIS8_EEEC2ERKSA_: # @_ZN9__gnu_cxx17__normal_iteratorIPKPNS_15_Hashtable_nodeISt4pairIKPKciEEESt6vectorIS8_SaIS8_EEEC2ERKSA_
	.cfi_startproc
# %bb.0:
	pushq	%rbp
	.cfi_def_cfa_offset 16
	.cfi_offset %rbp, -16
	movq	%rsp, %rbp
	.cfi_def_cfa_register %rbp
	movq	(%rsi), %rax
	movq	%rax, (%rdi)
	popq	%rbp
	.cfi_def_cfa %rsp, 8
	retq
.Lfunc_end86:
	.size	_ZN9__gnu_cxx17__normal_iteratorIPKPNS_15_Hashtable_nodeISt4pairIKPKciEEESt6vectorIS8_SaIS8_EEEC2ERKSA_, .Lfunc_end86-_ZN9__gnu_cxx17__normal_iteratorIPKPNS_15_Hashtable_nodeISt4pairIKPKciEEESt6vectorIS8_SaIS8_EEEC2ERKSA_
	.cfi_endproc
                                        # -- End function
	.section	.text._ZNSt6vectorIPN9__gnu_cxx15_Hashtable_nodeISt4pairIKPKciEEESaIS8_EE16_Temporary_valueC2IJRKS8_EEEPSA_DpOT_,"axG",@progbits,_ZNSt6vectorIPN9__gnu_cxx15_Hashtable_nodeISt4pairIKPKciEEESaIS8_EE16_Temporary_valueC2IJRKS8_EEEPSA_DpOT_,comdat
	.weak	_ZNSt6vectorIPN9__gnu_cxx15_Hashtable_nodeISt4pairIKPKciEEESaIS8_EE16_Temporary_valueC2IJRKS8_EEEPSA_DpOT_ # -- Begin function _ZNSt6vectorIPN9__gnu_cxx15_Hashtable_nodeISt4pairIKPKciEEESaIS8_EE16_Temporary_valueC2IJRKS8_EEEPSA_DpOT_
	.p2align	4, 0x90
	.type	_ZNSt6vectorIPN9__gnu_cxx15_Hashtable_nodeISt4pairIKPKciEEESaIS8_EE16_Temporary_valueC2IJRKS8_EEEPSA_DpOT_,@function
_ZNSt6vectorIPN9__gnu_cxx15_Hashtable_nodeISt4pairIKPKciEEESaIS8_EE16_Temporary_valueC2IJRKS8_EEEPSA_DpOT_: # @_ZNSt6vectorIPN9__gnu_cxx15_Hashtable_nodeISt4pairIKPKciEEESaIS8_EE16_Temporary_valueC2IJRKS8_EEEPSA_DpOT_
	.cfi_startproc
# %bb.0:
	pushq	%rbp
	.cfi_def_cfa_offset 16
	.cfi_offset %rbp, -16
	movq	%rsp, %rbp
	.cfi_def_cfa_register %rbp
	pushq	%r15
	pushq	%r14
	pushq	%rbx
	pushq	%rax
	.cfi_offset %rbx, -40
	.cfi_offset %r14, -32
	.cfi_offset %r15, -24
	movq	%rdx, %r14
	movq	%rsi, %rbx
	movq	%rsi, (%rdi)
	callq	_ZNSt6vectorIPN9__gnu_cxx15_Hashtable_nodeISt4pairIKPKciEEESaIS8_EE16_Temporary_value6_M_ptrEv
	movq	%rax, %r15
	movq	%r14, %rdi
	callq	_ZSt7forwardIRKPN9__gnu_cxx15_Hashtable_nodeISt4pairIKPKciEEEEOT_RNSt16remove_referenceISB_E4typeE
	movq	%rbx, %rdi
	movq	%r15, %rsi
	movq	%rax, %rdx
	addq	$8, %rsp
	popq	%rbx
	popq	%r14
	popq	%r15
	popq	%rbp
	.cfi_def_cfa %rsp, 8
	jmp	_ZNSt16allocator_traitsISaIPN9__gnu_cxx15_Hashtable_nodeISt4pairIKPKciEEEEE9constructIS8_JRKS8_EEEvRS9_PT_DpOT0_ # TAILCALL
.Lfunc_end87:
	.size	_ZNSt6vectorIPN9__gnu_cxx15_Hashtable_nodeISt4pairIKPKciEEESaIS8_EE16_Temporary_valueC2IJRKS8_EEEPSA_DpOT_, .Lfunc_end87-_ZNSt6vectorIPN9__gnu_cxx15_Hashtable_nodeISt4pairIKPKciEEESaIS8_EE16_Temporary_valueC2IJRKS8_EEEPSA_DpOT_
	.cfi_endproc
                                        # -- End function
	.section	.text._ZNSt6vectorIPN9__gnu_cxx15_Hashtable_nodeISt4pairIKPKciEEESaIS8_EE16_Temporary_value6_M_valEv,"axG",@progbits,_ZNSt6vectorIPN9__gnu_cxx15_Hashtable_nodeISt4pairIKPKciEEESaIS8_EE16_Temporary_value6_M_valEv,comdat
	.weak	_ZNSt6vectorIPN9__gnu_cxx15_Hashtable_nodeISt4pairIKPKciEEESaIS8_EE16_Temporary_value6_M_valEv # -- Begin function _ZNSt6vectorIPN9__gnu_cxx15_Hashtable_nodeISt4pairIKPKciEEESaIS8_EE16_Temporary_value6_M_valEv
	.p2align	4, 0x90
	.type	_ZNSt6vectorIPN9__gnu_cxx15_Hashtable_nodeISt4pairIKPKciEEESaIS8_EE16_Temporary_value6_M_valEv,@function
_ZNSt6vectorIPN9__gnu_cxx15_Hashtable_nodeISt4pairIKPKciEEESaIS8_EE16_Temporary_value6_M_valEv: # @_ZNSt6vectorIPN9__gnu_cxx15_Hashtable_nodeISt4pairIKPKciEEESaIS8_EE16_Temporary_value6_M_valEv
	.cfi_startproc
# %bb.0:
	pushq	%rbp
	.cfi_def_cfa_offset 16
	.cfi_offset %rbp, -16
	movq	%rsp, %rbp
	.cfi_def_cfa_register %rbp
	popq	%rbp
	.cfi_def_cfa %rsp, 8
	jmp	_ZNSt6vectorIPN9__gnu_cxx15_Hashtable_nodeISt4pairIKPKciEEESaIS8_EE16_Temporary_value6_M_ptrEv # TAILCALL
.Lfunc_end88:
	.size	_ZNSt6vectorIPN9__gnu_cxx15_Hashtable_nodeISt4pairIKPKciEEESaIS8_EE16_Temporary_value6_M_valEv, .Lfunc_end88-_ZNSt6vectorIPN9__gnu_cxx15_Hashtable_nodeISt4pairIKPKciEEESaIS8_EE16_Temporary_value6_M_valEv
	.cfi_endproc
                                        # -- End function
	.section	.text._ZN9__gnu_cxxmiIPPNS_15_Hashtable_nodeISt4pairIKPKciEEESt6vectorIS8_SaIS8_EEEENS_17__normal_iteratorIT_T0_E15difference_typeERKSG_SJ_,"axG",@progbits,_ZN9__gnu_cxxmiIPPNS_15_Hashtable_nodeISt4pairIKPKciEEESt6vectorIS8_SaIS8_EEEENS_17__normal_iteratorIT_T0_E15difference_typeERKSG_SJ_,comdat
	.weak	_ZN9__gnu_cxxmiIPPNS_15_Hashtable_nodeISt4pairIKPKciEEESt6vectorIS8_SaIS8_EEEENS_17__normal_iteratorIT_T0_E15difference_typeERKSG_SJ_ # -- Begin function _ZN9__gnu_cxxmiIPPNS_15_Hashtable_nodeISt4pairIKPKciEEESt6vectorIS8_SaIS8_EEEENS_17__normal_iteratorIT_T0_E15difference_typeERKSG_SJ_
	.p2align	4, 0x90
	.type	_ZN9__gnu_cxxmiIPPNS_15_Hashtable_nodeISt4pairIKPKciEEESt6vectorIS8_SaIS8_EEEENS_17__normal_iteratorIT_T0_E15difference_typeERKSG_SJ_,@function
_ZN9__gnu_cxxmiIPPNS_15_Hashtable_nodeISt4pairIKPKciEEESt6vectorIS8_SaIS8_EEEENS_17__normal_iteratorIT_T0_E15difference_typeERKSG_SJ_: # @_ZN9__gnu_cxxmiIPPNS_15_Hashtable_nodeISt4pairIKPKciEEESt6vectorIS8_SaIS8_EEEENS_17__normal_iteratorIT_T0_E15difference_typeERKSG_SJ_
	.cfi_startproc
# %bb.0:
	pushq	%rbp
	.cfi_def_cfa_offset 16
	.cfi_offset %rbp, -16
	movq	%rsp, %rbp
	.cfi_def_cfa_register %rbp
	pushq	%r14
	pushq	%rbx
	.cfi_offset %rbx, -32
	.cfi_offset %r14, -24
	movq	%rsi, %r14
	callq	_ZNK9__gnu_cxx17__normal_iteratorIPPNS_15_Hashtable_nodeISt4pairIKPKciEEESt6vectorIS8_SaIS8_EEE4baseEv
	movq	(%rax), %rbx
	movq	%r14, %rdi
	callq	_ZNK9__gnu_cxx17__normal_iteratorIPPNS_15_Hashtable_nodeISt4pairIKPKciEEESt6vectorIS8_SaIS8_EEE4baseEv
	subq	(%rax), %rbx
	sarq	$3, %rbx
	movq	%rbx, %rax
	popq	%rbx
	popq	%r14
	popq	%rbp
	.cfi_def_cfa %rsp, 8
	retq
.Lfunc_end89:
	.size	_ZN9__gnu_cxxmiIPPNS_15_Hashtable_nodeISt4pairIKPKciEEESt6vectorIS8_SaIS8_EEEENS_17__normal_iteratorIT_T0_E15difference_typeERKSG_SJ_, .Lfunc_end89-_ZN9__gnu_cxxmiIPPNS_15_Hashtable_nodeISt4pairIKPKciEEESt6vectorIS8_SaIS8_EEEENS_17__normal_iteratorIT_T0_E15difference_typeERKSG_SJ_
	.cfi_endproc
                                        # -- End function
	.section	.text._ZSt22__uninitialized_move_aIPPN9__gnu_cxx15_Hashtable_nodeISt4pairIKPKciEEES9_SaIS8_EET0_T_SC_SB_RT1_,"axG",@progbits,_ZSt22__uninitialized_move_aIPPN9__gnu_cxx15_Hashtable_nodeISt4pairIKPKciEEES9_SaIS8_EET0_T_SC_SB_RT1_,comdat
	.weak	_ZSt22__uninitialized_move_aIPPN9__gnu_cxx15_Hashtable_nodeISt4pairIKPKciEEES9_SaIS8_EET0_T_SC_SB_RT1_ # -- Begin function _ZSt22__uninitialized_move_aIPPN9__gnu_cxx15_Hashtable_nodeISt4pairIKPKciEEES9_SaIS8_EET0_T_SC_SB_RT1_
	.p2align	4, 0x90
	.type	_ZSt22__uninitialized_move_aIPPN9__gnu_cxx15_Hashtable_nodeISt4pairIKPKciEEES9_SaIS8_EET0_T_SC_SB_RT1_,@function
_ZSt22__uninitialized_move_aIPPN9__gnu_cxx15_Hashtable_nodeISt4pairIKPKciEEES9_SaIS8_EET0_T_SC_SB_RT1_: # @_ZSt22__uninitialized_move_aIPPN9__gnu_cxx15_Hashtable_nodeISt4pairIKPKciEEES9_SaIS8_EET0_T_SC_SB_RT1_
	.cfi_startproc
# %bb.0:
	pushq	%rbp
	.cfi_def_cfa_offset 16
	.cfi_offset %rbp, -16
	movq	%rsp, %rbp
	.cfi_def_cfa_register %rbp
	pushq	%r15
	pushq	%r14
	pushq	%r12
	pushq	%rbx
	.cfi_offset %rbx, -48
	.cfi_offset %r12, -40
	.cfi_offset %r14, -32
	.cfi_offset %r15, -24
	movq	%rcx, %r14
	movq	%rdx, %r15
	movq	%rsi, %r12
	callq	_ZSt18make_move_iteratorIPPN9__gnu_cxx15_Hashtable_nodeISt4pairIKPKciEEEESt13move_iteratorIT_ESB_
	movq	%rax, %rbx
	movq	%r12, %rdi
	callq	_ZSt18make_move_iteratorIPPN9__gnu_cxx15_Hashtable_nodeISt4pairIKPKciEEEESt13move_iteratorIT_ESB_
	movq	%rbx, %rdi
	movq	%rax, %rsi
	movq	%r15, %rdx
	movq	%r14, %rcx
	popq	%rbx
	popq	%r12
	popq	%r14
	popq	%r15
	popq	%rbp
	.cfi_def_cfa %rsp, 8
	jmp	_ZSt22__uninitialized_copy_aISt13move_iteratorIPPN9__gnu_cxx15_Hashtable_nodeISt4pairIKPKciEEEESA_S9_ET0_T_SD_SC_RSaIT1_E # TAILCALL
.Lfunc_end90:
	.size	_ZSt22__uninitialized_move_aIPPN9__gnu_cxx15_Hashtable_nodeISt4pairIKPKciEEES9_SaIS8_EET0_T_SC_SB_RT1_, .Lfunc_end90-_ZSt22__uninitialized_move_aIPPN9__gnu_cxx15_Hashtable_nodeISt4pairIKPKciEEES9_SaIS8_EET0_T_SC_SB_RT1_
	.cfi_endproc
                                        # -- End function
	.section	.text._ZSt13move_backwardIPPN9__gnu_cxx15_Hashtable_nodeISt4pairIKPKciEEES9_ET0_T_SB_SA_,"axG",@progbits,_ZSt13move_backwardIPPN9__gnu_cxx15_Hashtable_nodeISt4pairIKPKciEEES9_ET0_T_SB_SA_,comdat
	.weak	_ZSt13move_backwardIPPN9__gnu_cxx15_Hashtable_nodeISt4pairIKPKciEEES9_ET0_T_SB_SA_ # -- Begin function _ZSt13move_backwardIPPN9__gnu_cxx15_Hashtable_nodeISt4pairIKPKciEEES9_ET0_T_SB_SA_
	.p2align	4, 0x90
	.type	_ZSt13move_backwardIPPN9__gnu_cxx15_Hashtable_nodeISt4pairIKPKciEEES9_ET0_T_SB_SA_,@function
_ZSt13move_backwardIPPN9__gnu_cxx15_Hashtable_nodeISt4pairIKPKciEEES9_ET0_T_SB_SA_: # @_ZSt13move_backwardIPPN9__gnu_cxx15_Hashtable_nodeISt4pairIKPKciEEES9_ET0_T_SB_SA_
	.cfi_startproc
# %bb.0:
	pushq	%rbp
	.cfi_def_cfa_offset 16
	.cfi_offset %rbp, -16
	movq	%rsp, %rbp
	.cfi_def_cfa_register %rbp
	pushq	%r15
	pushq	%r14
	pushq	%rbx
	pushq	%rax
	.cfi_offset %rbx, -40
	.cfi_offset %r14, -32
	.cfi_offset %r15, -24
	movq	%rdx, %r14
	movq	%rsi, %r15
	callq	_ZSt12__miter_baseIPPN9__gnu_cxx15_Hashtable_nodeISt4pairIKPKciEEEET_SA_
	movq	%rax, %rbx
	movq	%r15, %rdi
	callq	_ZSt12__miter_baseIPPN9__gnu_cxx15_Hashtable_nodeISt4pairIKPKciEEEET_SA_
	movq	%rbx, %rdi
	movq	%rax, %rsi
	movq	%r14, %rdx
	addq	$8, %rsp
	popq	%rbx
	popq	%r14
	popq	%r15
	popq	%rbp
	.cfi_def_cfa %rsp, 8
	jmp	_ZSt23__copy_move_backward_a2ILb1EPPN9__gnu_cxx15_Hashtable_nodeISt4pairIKPKciEEES9_ET1_T0_SB_SA_ # TAILCALL
.Lfunc_end91:
	.size	_ZSt13move_backwardIPPN9__gnu_cxx15_Hashtable_nodeISt4pairIKPKciEEES9_ET0_T_SB_SA_, .Lfunc_end91-_ZSt13move_backwardIPPN9__gnu_cxx15_Hashtable_nodeISt4pairIKPKciEEES9_ET0_T_SB_SA_
	.cfi_endproc
                                        # -- End function
	.section	.text._ZNK9__gnu_cxx17__normal_iteratorIPPNS_15_Hashtable_nodeISt4pairIKPKciEEESt6vectorIS8_SaIS8_EEE4baseEv,"axG",@progbits,_ZNK9__gnu_cxx17__normal_iteratorIPPNS_15_Hashtable_nodeISt4pairIKPKciEEESt6vectorIS8_SaIS8_EEE4baseEv,comdat
	.weak	_ZNK9__gnu_cxx17__normal_iteratorIPPNS_15_Hashtable_nodeISt4pairIKPKciEEESt6vectorIS8_SaIS8_EEE4baseEv # -- Begin function _ZNK9__gnu_cxx17__normal_iteratorIPPNS_15_Hashtable_nodeISt4pairIKPKciEEESt6vectorIS8_SaIS8_EEE4baseEv
	.p2align	4, 0x90
	.type	_ZNK9__gnu_cxx17__normal_iteratorIPPNS_15_Hashtable_nodeISt4pairIKPKciEEESt6vectorIS8_SaIS8_EEE4baseEv,@function
_ZNK9__gnu_cxx17__normal_iteratorIPPNS_15_Hashtable_nodeISt4pairIKPKciEEESt6vectorIS8_SaIS8_EEE4baseEv: # @_ZNK9__gnu_cxx17__normal_iteratorIPPNS_15_Hashtable_nodeISt4pairIKPKciEEESt6vectorIS8_SaIS8_EEE4baseEv
	.cfi_startproc
# %bb.0:
	pushq	%rbp
	.cfi_def_cfa_offset 16
	.cfi_offset %rbp, -16
	movq	%rsp, %rbp
	.cfi_def_cfa_register %rbp
	movq	%rdi, %rax
	popq	%rbp
	.cfi_def_cfa %rsp, 8
	retq
.Lfunc_end92:
	.size	_ZNK9__gnu_cxx17__normal_iteratorIPPNS_15_Hashtable_nodeISt4pairIKPKciEEESt6vectorIS8_SaIS8_EEE4baseEv, .Lfunc_end92-_ZNK9__gnu_cxx17__normal_iteratorIPPNS_15_Hashtable_nodeISt4pairIKPKciEEESt6vectorIS8_SaIS8_EEE4baseEv
	.cfi_endproc
                                        # -- End function
	.section	.text._ZSt4fillIPPN9__gnu_cxx15_Hashtable_nodeISt4pairIKPKciEEES8_EvT_SA_RKT0_,"axG",@progbits,_ZSt4fillIPPN9__gnu_cxx15_Hashtable_nodeISt4pairIKPKciEEES8_EvT_SA_RKT0_,comdat
	.weak	_ZSt4fillIPPN9__gnu_cxx15_Hashtable_nodeISt4pairIKPKciEEES8_EvT_SA_RKT0_ # -- Begin function _ZSt4fillIPPN9__gnu_cxx15_Hashtable_nodeISt4pairIKPKciEEES8_EvT_SA_RKT0_
	.p2align	4, 0x90
	.type	_ZSt4fillIPPN9__gnu_cxx15_Hashtable_nodeISt4pairIKPKciEEES8_EvT_SA_RKT0_,@function
_ZSt4fillIPPN9__gnu_cxx15_Hashtable_nodeISt4pairIKPKciEEES8_EvT_SA_RKT0_: # @_ZSt4fillIPPN9__gnu_cxx15_Hashtable_nodeISt4pairIKPKciEEES8_EvT_SA_RKT0_
	.cfi_startproc
# %bb.0:
	pushq	%rbp
	.cfi_def_cfa_offset 16
	.cfi_offset %rbp, -16
	movq	%rsp, %rbp
	.cfi_def_cfa_register %rbp
	pushq	%r15
	pushq	%r14
	pushq	%rbx
	pushq	%rax
	.cfi_offset %rbx, -40
	.cfi_offset %r14, -32
	.cfi_offset %r15, -24
	movq	%rdx, %r14
	movq	%rsi, %r15
	callq	_ZSt12__niter_baseIPPN9__gnu_cxx15_Hashtable_nodeISt4pairIKPKciEEEET_SA_
	movq	%rax, %rbx
	movq	%r15, %rdi
	callq	_ZSt12__niter_baseIPPN9__gnu_cxx15_Hashtable_nodeISt4pairIKPKciEEEET_SA_
	movq	%rbx, %rdi
	movq	%rax, %rsi
	movq	%r14, %rdx
	addq	$8, %rsp
	popq	%rbx
	popq	%r14
	popq	%r15
	popq	%rbp
	.cfi_def_cfa %rsp, 8
	jmp	_ZSt8__fill_aIPPN9__gnu_cxx15_Hashtable_nodeISt4pairIKPKciEEES8_ENS0_11__enable_ifIXsr11__is_scalarIT0_EE7__valueEvE6__typeET_SE_RKSB_ # TAILCALL
.Lfunc_end93:
	.size	_ZSt4fillIPPN9__gnu_cxx15_Hashtable_nodeISt4pairIKPKciEEES8_EvT_SA_RKT0_, .Lfunc_end93-_ZSt4fillIPPN9__gnu_cxx15_Hashtable_nodeISt4pairIKPKciEEES8_EvT_SA_RKT0_
	.cfi_endproc
                                        # -- End function
	.section	.text._ZSt24__uninitialized_fill_n_aIPPN9__gnu_cxx15_Hashtable_nodeISt4pairIKPKciEEEmS8_S8_ET_SA_T0_RKT1_RSaIT2_E,"axG",@progbits,_ZSt24__uninitialized_fill_n_aIPPN9__gnu_cxx15_Hashtable_nodeISt4pairIKPKciEEEmS8_S8_ET_SA_T0_RKT1_RSaIT2_E,comdat
	.weak	_ZSt24__uninitialized_fill_n_aIPPN9__gnu_cxx15_Hashtable_nodeISt4pairIKPKciEEEmS8_S8_ET_SA_T0_RKT1_RSaIT2_E # -- Begin function _ZSt24__uninitialized_fill_n_aIPPN9__gnu_cxx15_Hashtable_nodeISt4pairIKPKciEEEmS8_S8_ET_SA_T0_RKT1_RSaIT2_E
	.p2align	4, 0x90
	.type	_ZSt24__uninitialized_fill_n_aIPPN9__gnu_cxx15_Hashtable_nodeISt4pairIKPKciEEEmS8_S8_ET_SA_T0_RKT1_RSaIT2_E,@function
_ZSt24__uninitialized_fill_n_aIPPN9__gnu_cxx15_Hashtable_nodeISt4pairIKPKciEEEmS8_S8_ET_SA_T0_RKT1_RSaIT2_E: # @_ZSt24__uninitialized_fill_n_aIPPN9__gnu_cxx15_Hashtable_nodeISt4pairIKPKciEEEmS8_S8_ET_SA_T0_RKT1_RSaIT2_E
	.cfi_startproc
# %bb.0:
	pushq	%rbp
	.cfi_def_cfa_offset 16
	.cfi_offset %rbp, -16
	movq	%rsp, %rbp
	.cfi_def_cfa_register %rbp
	popq	%rbp
	.cfi_def_cfa %rsp, 8
	jmp	_ZSt20uninitialized_fill_nIPPN9__gnu_cxx15_Hashtable_nodeISt4pairIKPKciEEEmS8_ET_SA_T0_RKT1_ # TAILCALL
.Lfunc_end94:
	.size	_ZSt24__uninitialized_fill_n_aIPPN9__gnu_cxx15_Hashtable_nodeISt4pairIKPKciEEEmS8_S8_ET_SA_T0_RKT1_RSaIT2_E, .Lfunc_end94-_ZSt24__uninitialized_fill_n_aIPPN9__gnu_cxx15_Hashtable_nodeISt4pairIKPKciEEEmS8_S8_ET_SA_T0_RKT1_RSaIT2_E
	.cfi_endproc
                                        # -- End function
	.section	.text._ZNSt6vectorIPN9__gnu_cxx15_Hashtable_nodeISt4pairIKPKciEEESaIS8_EE16_Temporary_valueD2Ev,"axG",@progbits,_ZNSt6vectorIPN9__gnu_cxx15_Hashtable_nodeISt4pairIKPKciEEESaIS8_EE16_Temporary_valueD2Ev,comdat
	.weak	_ZNSt6vectorIPN9__gnu_cxx15_Hashtable_nodeISt4pairIKPKciEEESaIS8_EE16_Temporary_valueD2Ev # -- Begin function _ZNSt6vectorIPN9__gnu_cxx15_Hashtable_nodeISt4pairIKPKciEEESaIS8_EE16_Temporary_valueD2Ev
	.p2align	4, 0x90
	.type	_ZNSt6vectorIPN9__gnu_cxx15_Hashtable_nodeISt4pairIKPKciEEESaIS8_EE16_Temporary_valueD2Ev,@function
_ZNSt6vectorIPN9__gnu_cxx15_Hashtable_nodeISt4pairIKPKciEEESaIS8_EE16_Temporary_valueD2Ev: # @_ZNSt6vectorIPN9__gnu_cxx15_Hashtable_nodeISt4pairIKPKciEEESaIS8_EE16_Temporary_valueD2Ev
	.cfi_startproc
# %bb.0:
	pushq	%rbp
	.cfi_def_cfa_offset 16
	.cfi_offset %rbp, -16
	movq	%rsp, %rbp
	.cfi_def_cfa_register %rbp
	pushq	%rbx
	pushq	%rax
	.cfi_offset %rbx, -24
	movq	(%rdi), %rbx
	callq	_ZNSt6vectorIPN9__gnu_cxx15_Hashtable_nodeISt4pairIKPKciEEESaIS8_EE16_Temporary_value6_M_ptrEv
	movq	%rbx, %rdi
	movq	%rax, %rsi
	addq	$8, %rsp
	popq	%rbx
	popq	%rbp
	.cfi_def_cfa %rsp, 8
	jmp	_ZNSt16allocator_traitsISaIPN9__gnu_cxx15_Hashtable_nodeISt4pairIKPKciEEEEE7destroyIS8_EEvRS9_PT_ # TAILCALL
.Lfunc_end95:
	.size	_ZNSt6vectorIPN9__gnu_cxx15_Hashtable_nodeISt4pairIKPKciEEESaIS8_EE16_Temporary_valueD2Ev, .Lfunc_end95-_ZNSt6vectorIPN9__gnu_cxx15_Hashtable_nodeISt4pairIKPKciEEESaIS8_EE16_Temporary_valueD2Ev
	.cfi_endproc
                                        # -- End function
	.section	.text._ZNKSt6vectorIPN9__gnu_cxx15_Hashtable_nodeISt4pairIKPKciEEESaIS8_EE12_M_check_lenEmS4_,"axG",@progbits,_ZNKSt6vectorIPN9__gnu_cxx15_Hashtable_nodeISt4pairIKPKciEEESaIS8_EE12_M_check_lenEmS4_,comdat
	.weak	_ZNKSt6vectorIPN9__gnu_cxx15_Hashtable_nodeISt4pairIKPKciEEESaIS8_EE12_M_check_lenEmS4_ # -- Begin function _ZNKSt6vectorIPN9__gnu_cxx15_Hashtable_nodeISt4pairIKPKciEEESaIS8_EE12_M_check_lenEmS4_
	.p2align	4, 0x90
	.type	_ZNKSt6vectorIPN9__gnu_cxx15_Hashtable_nodeISt4pairIKPKciEEESaIS8_EE12_M_check_lenEmS4_,@function
_ZNKSt6vectorIPN9__gnu_cxx15_Hashtable_nodeISt4pairIKPKciEEESaIS8_EE12_M_check_lenEmS4_: # @_ZNKSt6vectorIPN9__gnu_cxx15_Hashtable_nodeISt4pairIKPKciEEESaIS8_EE12_M_check_lenEmS4_
	.cfi_startproc
# %bb.0:
	pushq	%rbp
	.cfi_def_cfa_offset 16
	.cfi_offset %rbp, -16
	movq	%rsp, %rbp
	.cfi_def_cfa_register %rbp
	pushq	%r15
	pushq	%r14
	pushq	%r12
	pushq	%rbx
	subq	$16, %rsp
	.cfi_offset %rbx, -48
	.cfi_offset %r12, -40
	.cfi_offset %r14, -32
	.cfi_offset %r15, -24
	movq	%rdx, %r15
	movq	%rsi, %r12
	movq	%rdi, %r14
	movq	%rsi, -48(%rbp)
	callq	_ZNKSt6vectorIPN9__gnu_cxx15_Hashtable_nodeISt4pairIKPKciEEESaIS8_EE8max_sizeEv
	movq	%rax, %rbx
	movq	%r14, %rdi
	callq	_ZNKSt6vectorIPN9__gnu_cxx15_Hashtable_nodeISt4pairIKPKciEEESaIS8_EE4sizeEv
	subq	%rax, %rbx
	cmpq	%r12, %rbx
	jb	.LBB96_5
# %bb.1:
	movq	%r14, %rdi
	callq	_ZNKSt6vectorIPN9__gnu_cxx15_Hashtable_nodeISt4pairIKPKciEEESaIS8_EE4sizeEv
	movq	%rax, %rbx
	movq	%r14, %rdi
	callq	_ZNKSt6vectorIPN9__gnu_cxx15_Hashtable_nodeISt4pairIKPKciEEESaIS8_EE4sizeEv
	movq	%rax, -40(%rbp)
	leaq	-40(%rbp), %rdi
	leaq	-48(%rbp), %rsi
	callq	_ZSt3maxImERKT_S2_S2_
	addq	(%rax), %rbx
	movq	%r14, %rdi
	callq	_ZNKSt6vectorIPN9__gnu_cxx15_Hashtable_nodeISt4pairIKPKciEEESaIS8_EE4sizeEv
	cmpq	%rax, %rbx
	jb	.LBB96_3
# %bb.2:
	movq	%r14, %rdi
	callq	_ZNKSt6vectorIPN9__gnu_cxx15_Hashtable_nodeISt4pairIKPKciEEESaIS8_EE8max_sizeEv
	cmpq	%rax, %rbx
	jbe	.LBB96_4
.LBB96_3:
	movq	%r14, %rdi
	callq	_ZNKSt6vectorIPN9__gnu_cxx15_Hashtable_nodeISt4pairIKPKciEEESaIS8_EE8max_sizeEv
	movq	%rax, %rbx
.LBB96_4:
	movq	%rbx, %rax
	addq	$16, %rsp
	popq	%rbx
	popq	%r12
	popq	%r14
	popq	%r15
	popq	%rbp
	.cfi_def_cfa %rsp, 8
	retq
.LBB96_5:
	.cfi_def_cfa %rbp, 16
	movq	%r15, %rdi
	callq	_ZSt20__throw_length_errorPKc
.Lfunc_end96:
	.size	_ZNKSt6vectorIPN9__gnu_cxx15_Hashtable_nodeISt4pairIKPKciEEESaIS8_EE12_M_check_lenEmS4_, .Lfunc_end96-_ZNKSt6vectorIPN9__gnu_cxx15_Hashtable_nodeISt4pairIKPKciEEESaIS8_EE12_M_check_lenEmS4_
	.cfi_endproc
                                        # -- End function
	.section	.text._ZSt34__uninitialized_move_if_noexcept_aIPPN9__gnu_cxx15_Hashtable_nodeISt4pairIKPKciEEES9_SaIS8_EET0_T_SC_SB_RT1_,"axG",@progbits,_ZSt34__uninitialized_move_if_noexcept_aIPPN9__gnu_cxx15_Hashtable_nodeISt4pairIKPKciEEES9_SaIS8_EET0_T_SC_SB_RT1_,comdat
	.weak	_ZSt34__uninitialized_move_if_noexcept_aIPPN9__gnu_cxx15_Hashtable_nodeISt4pairIKPKciEEES9_SaIS8_EET0_T_SC_SB_RT1_ # -- Begin function _ZSt34__uninitialized_move_if_noexcept_aIPPN9__gnu_cxx15_Hashtable_nodeISt4pairIKPKciEEES9_SaIS8_EET0_T_SC_SB_RT1_
	.p2align	4, 0x90
	.type	_ZSt34__uninitialized_move_if_noexcept_aIPPN9__gnu_cxx15_Hashtable_nodeISt4pairIKPKciEEES9_SaIS8_EET0_T_SC_SB_RT1_,@function
_ZSt34__uninitialized_move_if_noexcept_aIPPN9__gnu_cxx15_Hashtable_nodeISt4pairIKPKciEEES9_SaIS8_EET0_T_SC_SB_RT1_: # @_ZSt34__uninitialized_move_if_noexcept_aIPPN9__gnu_cxx15_Hashtable_nodeISt4pairIKPKciEEES9_SaIS8_EET0_T_SC_SB_RT1_
	.cfi_startproc
# %bb.0:
	pushq	%rbp
	.cfi_def_cfa_offset 16
	.cfi_offset %rbp, -16
	movq	%rsp, %rbp
	.cfi_def_cfa_register %rbp
	pushq	%r15
	pushq	%r14
	pushq	%r12
	pushq	%rbx
	.cfi_offset %rbx, -48
	.cfi_offset %r12, -40
	.cfi_offset %r14, -32
	.cfi_offset %r15, -24
	movq	%rcx, %r14
	movq	%rdx, %r15
	movq	%rsi, %r12
	callq	_ZSt32__make_move_if_noexcept_iteratorIPN9__gnu_cxx15_Hashtable_nodeISt4pairIKPKciEEESt13move_iteratorIPS8_EET0_PT_
	movq	%rax, %rbx
	movq	%r12, %rdi
	callq	_ZSt32__make_move_if_noexcept_iteratorIPN9__gnu_cxx15_Hashtable_nodeISt4pairIKPKciEEESt13move_iteratorIPS8_EET0_PT_
	movq	%rbx, %rdi
	movq	%rax, %rsi
	movq	%r15, %rdx
	movq	%r14, %rcx
	popq	%rbx
	popq	%r12
	popq	%r14
	popq	%r15
	popq	%rbp
	.cfi_def_cfa %rsp, 8
	jmp	_ZSt22__uninitialized_copy_aISt13move_iteratorIPPN9__gnu_cxx15_Hashtable_nodeISt4pairIKPKciEEEESA_S9_ET0_T_SD_SC_RSaIT1_E # TAILCALL
.Lfunc_end97:
	.size	_ZSt34__uninitialized_move_if_noexcept_aIPPN9__gnu_cxx15_Hashtable_nodeISt4pairIKPKciEEES9_SaIS8_EET0_T_SC_SB_RT1_, .Lfunc_end97-_ZSt34__uninitialized_move_if_noexcept_aIPPN9__gnu_cxx15_Hashtable_nodeISt4pairIKPKciEEES9_SaIS8_EET0_T_SC_SB_RT1_
	.cfi_endproc
                                        # -- End function
	.section	.text._ZNSt16allocator_traitsISaIPN9__gnu_cxx15_Hashtable_nodeISt4pairIKPKciEEEEE9constructIS8_JRKS8_EEEvRS9_PT_DpOT0_,"axG",@progbits,_ZNSt16allocator_traitsISaIPN9__gnu_cxx15_Hashtable_nodeISt4pairIKPKciEEEEE9constructIS8_JRKS8_EEEvRS9_PT_DpOT0_,comdat
	.weak	_ZNSt16allocator_traitsISaIPN9__gnu_cxx15_Hashtable_nodeISt4pairIKPKciEEEEE9constructIS8_JRKS8_EEEvRS9_PT_DpOT0_ # -- Begin function _ZNSt16allocator_traitsISaIPN9__gnu_cxx15_Hashtable_nodeISt4pairIKPKciEEEEE9constructIS8_JRKS8_EEEvRS9_PT_DpOT0_
	.p2align	4, 0x90
	.type	_ZNSt16allocator_traitsISaIPN9__gnu_cxx15_Hashtable_nodeISt4pairIKPKciEEEEE9constructIS8_JRKS8_EEEvRS9_PT_DpOT0_,@function
_ZNSt16allocator_traitsISaIPN9__gnu_cxx15_Hashtable_nodeISt4pairIKPKciEEEEE9constructIS8_JRKS8_EEEvRS9_PT_DpOT0_: # @_ZNSt16allocator_traitsISaIPN9__gnu_cxx15_Hashtable_nodeISt4pairIKPKciEEEEE9constructIS8_JRKS8_EEEvRS9_PT_DpOT0_
	.cfi_startproc
# %bb.0:
	pushq	%rbp
	.cfi_def_cfa_offset 16
	.cfi_offset %rbp, -16
	movq	%rsp, %rbp
	.cfi_def_cfa_register %rbp
	pushq	%r14
	pushq	%rbx
	.cfi_offset %rbx, -32
	.cfi_offset %r14, -24
	movq	%rsi, %r14
	movq	%rdi, %rbx
	movq	%rdx, %rdi
	callq	_ZSt7forwardIRKPN9__gnu_cxx15_Hashtable_nodeISt4pairIKPKciEEEEOT_RNSt16remove_referenceISB_E4typeE
	movq	%rbx, %rdi
	movq	%r14, %rsi
	movq	%rax, %rdx
	popq	%rbx
	popq	%r14
	popq	%rbp
	.cfi_def_cfa %rsp, 8
	jmp	_ZN9__gnu_cxx13new_allocatorIPNS_15_Hashtable_nodeISt4pairIKPKciEEEE9constructIS8_JRKS8_EEEvPT_DpOT0_ # TAILCALL
.Lfunc_end98:
	.size	_ZNSt16allocator_traitsISaIPN9__gnu_cxx15_Hashtable_nodeISt4pairIKPKciEEEEE9constructIS8_JRKS8_EEEvRS9_PT_DpOT0_, .Lfunc_end98-_ZNSt16allocator_traitsISaIPN9__gnu_cxx15_Hashtable_nodeISt4pairIKPKciEEEEE9constructIS8_JRKS8_EEEvRS9_PT_DpOT0_
	.cfi_endproc
                                        # -- End function
	.section	.text._ZNSt6vectorIPN9__gnu_cxx15_Hashtable_nodeISt4pairIKPKciEEESaIS8_EE16_Temporary_value6_M_ptrEv,"axG",@progbits,_ZNSt6vectorIPN9__gnu_cxx15_Hashtable_nodeISt4pairIKPKciEEESaIS8_EE16_Temporary_value6_M_ptrEv,comdat
	.weak	_ZNSt6vectorIPN9__gnu_cxx15_Hashtable_nodeISt4pairIKPKciEEESaIS8_EE16_Temporary_value6_M_ptrEv # -- Begin function _ZNSt6vectorIPN9__gnu_cxx15_Hashtable_nodeISt4pairIKPKciEEESaIS8_EE16_Temporary_value6_M_ptrEv
	.p2align	4, 0x90
	.type	_ZNSt6vectorIPN9__gnu_cxx15_Hashtable_nodeISt4pairIKPKciEEESaIS8_EE16_Temporary_value6_M_ptrEv,@function
_ZNSt6vectorIPN9__gnu_cxx15_Hashtable_nodeISt4pairIKPKciEEESaIS8_EE16_Temporary_value6_M_ptrEv: # @_ZNSt6vectorIPN9__gnu_cxx15_Hashtable_nodeISt4pairIKPKciEEESaIS8_EE16_Temporary_value6_M_ptrEv
	.cfi_startproc
# %bb.0:
	pushq	%rbp
	.cfi_def_cfa_offset 16
	.cfi_offset %rbp, -16
	movq	%rsp, %rbp
	.cfi_def_cfa_register %rbp
	leaq	8(%rdi), %rax
	popq	%rbp
	.cfi_def_cfa %rsp, 8
	retq
.Lfunc_end99:
	.size	_ZNSt6vectorIPN9__gnu_cxx15_Hashtable_nodeISt4pairIKPKciEEESaIS8_EE16_Temporary_value6_M_ptrEv, .Lfunc_end99-_ZNSt6vectorIPN9__gnu_cxx15_Hashtable_nodeISt4pairIKPKciEEESaIS8_EE16_Temporary_value6_M_ptrEv
	.cfi_endproc
                                        # -- End function
	.section	.text._ZSt7forwardIRKPN9__gnu_cxx15_Hashtable_nodeISt4pairIKPKciEEEEOT_RNSt16remove_referenceISB_E4typeE,"axG",@progbits,_ZSt7forwardIRKPN9__gnu_cxx15_Hashtable_nodeISt4pairIKPKciEEEEOT_RNSt16remove_referenceISB_E4typeE,comdat
	.weak	_ZSt7forwardIRKPN9__gnu_cxx15_Hashtable_nodeISt4pairIKPKciEEEEOT_RNSt16remove_referenceISB_E4typeE # -- Begin function _ZSt7forwardIRKPN9__gnu_cxx15_Hashtable_nodeISt4pairIKPKciEEEEOT_RNSt16remove_referenceISB_E4typeE
	.p2align	4, 0x90
	.type	_ZSt7forwardIRKPN9__gnu_cxx15_Hashtable_nodeISt4pairIKPKciEEEEOT_RNSt16remove_referenceISB_E4typeE,@function
_ZSt7forwardIRKPN9__gnu_cxx15_Hashtable_nodeISt4pairIKPKciEEEEOT_RNSt16remove_referenceISB_E4typeE: # @_ZSt7forwardIRKPN9__gnu_cxx15_Hashtable_nodeISt4pairIKPKciEEEEOT_RNSt16remove_referenceISB_E4typeE
	.cfi_startproc
# %bb.0:
	pushq	%rbp
	.cfi_def_cfa_offset 16
	.cfi_offset %rbp, -16
	movq	%rsp, %rbp
	.cfi_def_cfa_register %rbp
	movq	%rdi, %rax
	popq	%rbp
	.cfi_def_cfa %rsp, 8
	retq
.Lfunc_end100:
	.size	_ZSt7forwardIRKPN9__gnu_cxx15_Hashtable_nodeISt4pairIKPKciEEEEOT_RNSt16remove_referenceISB_E4typeE, .Lfunc_end100-_ZSt7forwardIRKPN9__gnu_cxx15_Hashtable_nodeISt4pairIKPKciEEEEOT_RNSt16remove_referenceISB_E4typeE
	.cfi_endproc
                                        # -- End function
	.section	.text._ZN9__gnu_cxx13new_allocatorIPNS_15_Hashtable_nodeISt4pairIKPKciEEEE9constructIS8_JRKS8_EEEvPT_DpOT0_,"axG",@progbits,_ZN9__gnu_cxx13new_allocatorIPNS_15_Hashtable_nodeISt4pairIKPKciEEEE9constructIS8_JRKS8_EEEvPT_DpOT0_,comdat
	.weak	_ZN9__gnu_cxx13new_allocatorIPNS_15_Hashtable_nodeISt4pairIKPKciEEEE9constructIS8_JRKS8_EEEvPT_DpOT0_ # -- Begin function _ZN9__gnu_cxx13new_allocatorIPNS_15_Hashtable_nodeISt4pairIKPKciEEEE9constructIS8_JRKS8_EEEvPT_DpOT0_
	.p2align	4, 0x90
	.type	_ZN9__gnu_cxx13new_allocatorIPNS_15_Hashtable_nodeISt4pairIKPKciEEEE9constructIS8_JRKS8_EEEvPT_DpOT0_,@function
_ZN9__gnu_cxx13new_allocatorIPNS_15_Hashtable_nodeISt4pairIKPKciEEEE9constructIS8_JRKS8_EEEvPT_DpOT0_: # @_ZN9__gnu_cxx13new_allocatorIPNS_15_Hashtable_nodeISt4pairIKPKciEEEE9constructIS8_JRKS8_EEEvPT_DpOT0_
	.cfi_startproc
# %bb.0:
	pushq	%rbp
	.cfi_def_cfa_offset 16
	.cfi_offset %rbp, -16
	movq	%rsp, %rbp
	.cfi_def_cfa_register %rbp
	pushq	%rbx
	pushq	%rax
	.cfi_offset %rbx, -24
	movq	%rdx, %rdi
	movq	%rsi, %rbx
	callq	_ZSt7forwardIRKPN9__gnu_cxx15_Hashtable_nodeISt4pairIKPKciEEEEOT_RNSt16remove_referenceISB_E4typeE
	movq	(%rax), %rax
	movq	%rax, (%rbx)
	addq	$8, %rsp
	popq	%rbx
	popq	%rbp
	.cfi_def_cfa %rsp, 8
	retq
.Lfunc_end101:
	.size	_ZN9__gnu_cxx13new_allocatorIPNS_15_Hashtable_nodeISt4pairIKPKciEEEE9constructIS8_JRKS8_EEEvPT_DpOT0_, .Lfunc_end101-_ZN9__gnu_cxx13new_allocatorIPNS_15_Hashtable_nodeISt4pairIKPKciEEEE9constructIS8_JRKS8_EEEvPT_DpOT0_
	.cfi_endproc
                                        # -- End function
	.section	.text._ZSt22__uninitialized_copy_aISt13move_iteratorIPPN9__gnu_cxx15_Hashtable_nodeISt4pairIKPKciEEEESA_S9_ET0_T_SD_SC_RSaIT1_E,"axG",@progbits,_ZSt22__uninitialized_copy_aISt13move_iteratorIPPN9__gnu_cxx15_Hashtable_nodeISt4pairIKPKciEEEESA_S9_ET0_T_SD_SC_RSaIT1_E,comdat
	.weak	_ZSt22__uninitialized_copy_aISt13move_iteratorIPPN9__gnu_cxx15_Hashtable_nodeISt4pairIKPKciEEEESA_S9_ET0_T_SD_SC_RSaIT1_E # -- Begin function _ZSt22__uninitialized_copy_aISt13move_iteratorIPPN9__gnu_cxx15_Hashtable_nodeISt4pairIKPKciEEEESA_S9_ET0_T_SD_SC_RSaIT1_E
	.p2align	4, 0x90
	.type	_ZSt22__uninitialized_copy_aISt13move_iteratorIPPN9__gnu_cxx15_Hashtable_nodeISt4pairIKPKciEEEESA_S9_ET0_T_SD_SC_RSaIT1_E,@function
_ZSt22__uninitialized_copy_aISt13move_iteratorIPPN9__gnu_cxx15_Hashtable_nodeISt4pairIKPKciEEEESA_S9_ET0_T_SD_SC_RSaIT1_E: # @_ZSt22__uninitialized_copy_aISt13move_iteratorIPPN9__gnu_cxx15_Hashtable_nodeISt4pairIKPKciEEEESA_S9_ET0_T_SD_SC_RSaIT1_E
	.cfi_startproc
# %bb.0:
	pushq	%rbp
	.cfi_def_cfa_offset 16
	.cfi_offset %rbp, -16
	movq	%rsp, %rbp
	.cfi_def_cfa_register %rbp
	popq	%rbp
	.cfi_def_cfa %rsp, 8
	jmp	_ZSt18uninitialized_copyISt13move_iteratorIPPN9__gnu_cxx15_Hashtable_nodeISt4pairIKPKciEEEESA_ET0_T_SD_SC_ # TAILCALL
.Lfunc_end102:
	.size	_ZSt22__uninitialized_copy_aISt13move_iteratorIPPN9__gnu_cxx15_Hashtable_nodeISt4pairIKPKciEEEESA_S9_ET0_T_SD_SC_RSaIT1_E, .Lfunc_end102-_ZSt22__uninitialized_copy_aISt13move_iteratorIPPN9__gnu_cxx15_Hashtable_nodeISt4pairIKPKciEEEESA_S9_ET0_T_SD_SC_RSaIT1_E
	.cfi_endproc
                                        # -- End function
	.section	.text._ZSt18make_move_iteratorIPPN9__gnu_cxx15_Hashtable_nodeISt4pairIKPKciEEEESt13move_iteratorIT_ESB_,"axG",@progbits,_ZSt18make_move_iteratorIPPN9__gnu_cxx15_Hashtable_nodeISt4pairIKPKciEEEESt13move_iteratorIT_ESB_,comdat
	.weak	_ZSt18make_move_iteratorIPPN9__gnu_cxx15_Hashtable_nodeISt4pairIKPKciEEEESt13move_iteratorIT_ESB_ # -- Begin function _ZSt18make_move_iteratorIPPN9__gnu_cxx15_Hashtable_nodeISt4pairIKPKciEEEESt13move_iteratorIT_ESB_
	.p2align	4, 0x90
	.type	_ZSt18make_move_iteratorIPPN9__gnu_cxx15_Hashtable_nodeISt4pairIKPKciEEEESt13move_iteratorIT_ESB_,@function
_ZSt18make_move_iteratorIPPN9__gnu_cxx15_Hashtable_nodeISt4pairIKPKciEEEESt13move_iteratorIT_ESB_: # @_ZSt18make_move_iteratorIPPN9__gnu_cxx15_Hashtable_nodeISt4pairIKPKciEEEESt13move_iteratorIT_ESB_
	.cfi_startproc
# %bb.0:
	pushq	%rbp
	.cfi_def_cfa_offset 16
	.cfi_offset %rbp, -16
	movq	%rsp, %rbp
	.cfi_def_cfa_register %rbp
	subq	$16, %rsp
	movq	%rdi, %rsi
	leaq	-8(%rbp), %rdi
	callq	_ZNSt13move_iteratorIPPN9__gnu_cxx15_Hashtable_nodeISt4pairIKPKciEEEEC2ES9_
	movq	-8(%rbp), %rax
	addq	$16, %rsp
	popq	%rbp
	.cfi_def_cfa %rsp, 8
	retq
.Lfunc_end103:
	.size	_ZSt18make_move_iteratorIPPN9__gnu_cxx15_Hashtable_nodeISt4pairIKPKciEEEESt13move_iteratorIT_ESB_, .Lfunc_end103-_ZSt18make_move_iteratorIPPN9__gnu_cxx15_Hashtable_nodeISt4pairIKPKciEEEESt13move_iteratorIT_ESB_
	.cfi_endproc
                                        # -- End function
	.section	.text._ZSt18uninitialized_copyISt13move_iteratorIPPN9__gnu_cxx15_Hashtable_nodeISt4pairIKPKciEEEESA_ET0_T_SD_SC_,"axG",@progbits,_ZSt18uninitialized_copyISt13move_iteratorIPPN9__gnu_cxx15_Hashtable_nodeISt4pairIKPKciEEEESA_ET0_T_SD_SC_,comdat
	.weak	_ZSt18uninitialized_copyISt13move_iteratorIPPN9__gnu_cxx15_Hashtable_nodeISt4pairIKPKciEEEESA_ET0_T_SD_SC_ # -- Begin function _ZSt18uninitialized_copyISt13move_iteratorIPPN9__gnu_cxx15_Hashtable_nodeISt4pairIKPKciEEEESA_ET0_T_SD_SC_
	.p2align	4, 0x90
	.type	_ZSt18uninitialized_copyISt13move_iteratorIPPN9__gnu_cxx15_Hashtable_nodeISt4pairIKPKciEEEESA_ET0_T_SD_SC_,@function
_ZSt18uninitialized_copyISt13move_iteratorIPPN9__gnu_cxx15_Hashtable_nodeISt4pairIKPKciEEEESA_ET0_T_SD_SC_: # @_ZSt18uninitialized_copyISt13move_iteratorIPPN9__gnu_cxx15_Hashtable_nodeISt4pairIKPKciEEEESA_ET0_T_SD_SC_
	.cfi_startproc
# %bb.0:
	pushq	%rbp
	.cfi_def_cfa_offset 16
	.cfi_offset %rbp, -16
	movq	%rsp, %rbp
	.cfi_def_cfa_register %rbp
	popq	%rbp
	.cfi_def_cfa %rsp, 8
	jmp	_ZNSt20__uninitialized_copyILb1EE13__uninit_copyISt13move_iteratorIPPN9__gnu_cxx15_Hashtable_nodeISt4pairIKPKciEEEESC_EET0_T_SF_SE_ # TAILCALL
.Lfunc_end104:
	.size	_ZSt18uninitialized_copyISt13move_iteratorIPPN9__gnu_cxx15_Hashtable_nodeISt4pairIKPKciEEEESA_ET0_T_SD_SC_, .Lfunc_end104-_ZSt18uninitialized_copyISt13move_iteratorIPPN9__gnu_cxx15_Hashtable_nodeISt4pairIKPKciEEEESA_ET0_T_SD_SC_
	.cfi_endproc
                                        # -- End function
	.section	.text._ZNSt20__uninitialized_copyILb1EE13__uninit_copyISt13move_iteratorIPPN9__gnu_cxx15_Hashtable_nodeISt4pairIKPKciEEEESC_EET0_T_SF_SE_,"axG",@progbits,_ZNSt20__uninitialized_copyILb1EE13__uninit_copyISt13move_iteratorIPPN9__gnu_cxx15_Hashtable_nodeISt4pairIKPKciEEEESC_EET0_T_SF_SE_,comdat
	.weak	_ZNSt20__uninitialized_copyILb1EE13__uninit_copyISt13move_iteratorIPPN9__gnu_cxx15_Hashtable_nodeISt4pairIKPKciEEEESC_EET0_T_SF_SE_ # -- Begin function _ZNSt20__uninitialized_copyILb1EE13__uninit_copyISt13move_iteratorIPPN9__gnu_cxx15_Hashtable_nodeISt4pairIKPKciEEEESC_EET0_T_SF_SE_
	.p2align	4, 0x90
	.type	_ZNSt20__uninitialized_copyILb1EE13__uninit_copyISt13move_iteratorIPPN9__gnu_cxx15_Hashtable_nodeISt4pairIKPKciEEEESC_EET0_T_SF_SE_,@function
_ZNSt20__uninitialized_copyILb1EE13__uninit_copyISt13move_iteratorIPPN9__gnu_cxx15_Hashtable_nodeISt4pairIKPKciEEEESC_EET0_T_SF_SE_: # @_ZNSt20__uninitialized_copyILb1EE13__uninit_copyISt13move_iteratorIPPN9__gnu_cxx15_Hashtable_nodeISt4pairIKPKciEEEESC_EET0_T_SF_SE_
	.cfi_startproc
# %bb.0:
	pushq	%rbp
	.cfi_def_cfa_offset 16
	.cfi_offset %rbp, -16
	movq	%rsp, %rbp
	.cfi_def_cfa_register %rbp
	popq	%rbp
	.cfi_def_cfa %rsp, 8
	jmp	_ZSt4copyISt13move_iteratorIPPN9__gnu_cxx15_Hashtable_nodeISt4pairIKPKciEEEESA_ET0_T_SD_SC_ # TAILCALL
.Lfunc_end105:
	.size	_ZNSt20__uninitialized_copyILb1EE13__uninit_copyISt13move_iteratorIPPN9__gnu_cxx15_Hashtable_nodeISt4pairIKPKciEEEESC_EET0_T_SF_SE_, .Lfunc_end105-_ZNSt20__uninitialized_copyILb1EE13__uninit_copyISt13move_iteratorIPPN9__gnu_cxx15_Hashtable_nodeISt4pairIKPKciEEEESC_EET0_T_SF_SE_
	.cfi_endproc
                                        # -- End function
	.section	.text._ZSt4copyISt13move_iteratorIPPN9__gnu_cxx15_Hashtable_nodeISt4pairIKPKciEEEESA_ET0_T_SD_SC_,"axG",@progbits,_ZSt4copyISt13move_iteratorIPPN9__gnu_cxx15_Hashtable_nodeISt4pairIKPKciEEEESA_ET0_T_SD_SC_,comdat
	.weak	_ZSt4copyISt13move_iteratorIPPN9__gnu_cxx15_Hashtable_nodeISt4pairIKPKciEEEESA_ET0_T_SD_SC_ # -- Begin function _ZSt4copyISt13move_iteratorIPPN9__gnu_cxx15_Hashtable_nodeISt4pairIKPKciEEEESA_ET0_T_SD_SC_
	.p2align	4, 0x90
	.type	_ZSt4copyISt13move_iteratorIPPN9__gnu_cxx15_Hashtable_nodeISt4pairIKPKciEEEESA_ET0_T_SD_SC_,@function
_ZSt4copyISt13move_iteratorIPPN9__gnu_cxx15_Hashtable_nodeISt4pairIKPKciEEEESA_ET0_T_SD_SC_: # @_ZSt4copyISt13move_iteratorIPPN9__gnu_cxx15_Hashtable_nodeISt4pairIKPKciEEEESA_ET0_T_SD_SC_
	.cfi_startproc
# %bb.0:
	pushq	%rbp
	.cfi_def_cfa_offset 16
	.cfi_offset %rbp, -16
	movq	%rsp, %rbp
	.cfi_def_cfa_register %rbp
	pushq	%r15
	pushq	%r14
	pushq	%rbx
	pushq	%rax
	.cfi_offset %rbx, -40
	.cfi_offset %r14, -32
	.cfi_offset %r15, -24
	movq	%rdx, %r14
	movq	%rsi, %r15
	callq	_ZSt12__miter_baseIPPN9__gnu_cxx15_Hashtable_nodeISt4pairIKPKciEEEEDTcl12__miter_basecldtfp_4baseEEESt13move_iteratorIT_E
	movq	%rax, %rbx
	movq	%r15, %rdi
	callq	_ZSt12__miter_baseIPPN9__gnu_cxx15_Hashtable_nodeISt4pairIKPKciEEEEDTcl12__miter_basecldtfp_4baseEEESt13move_iteratorIT_E
	movq	%rbx, %rdi
	movq	%rax, %rsi
	movq	%r14, %rdx
	addq	$8, %rsp
	popq	%rbx
	popq	%r14
	popq	%r15
	popq	%rbp
	.cfi_def_cfa %rsp, 8
	jmp	_ZSt14__copy_move_a2ILb1EPPN9__gnu_cxx15_Hashtable_nodeISt4pairIKPKciEEES9_ET1_T0_SB_SA_ # TAILCALL
.Lfunc_end106:
	.size	_ZSt4copyISt13move_iteratorIPPN9__gnu_cxx15_Hashtable_nodeISt4pairIKPKciEEEESA_ET0_T_SD_SC_, .Lfunc_end106-_ZSt4copyISt13move_iteratorIPPN9__gnu_cxx15_Hashtable_nodeISt4pairIKPKciEEEESA_ET0_T_SD_SC_
	.cfi_endproc
                                        # -- End function
	.section	.text._ZSt14__copy_move_a2ILb1EPPN9__gnu_cxx15_Hashtable_nodeISt4pairIKPKciEEES9_ET1_T0_SB_SA_,"axG",@progbits,_ZSt14__copy_move_a2ILb1EPPN9__gnu_cxx15_Hashtable_nodeISt4pairIKPKciEEES9_ET1_T0_SB_SA_,comdat
	.weak	_ZSt14__copy_move_a2ILb1EPPN9__gnu_cxx15_Hashtable_nodeISt4pairIKPKciEEES9_ET1_T0_SB_SA_ # -- Begin function _ZSt14__copy_move_a2ILb1EPPN9__gnu_cxx15_Hashtable_nodeISt4pairIKPKciEEES9_ET1_T0_SB_SA_
	.p2align	4, 0x90
	.type	_ZSt14__copy_move_a2ILb1EPPN9__gnu_cxx15_Hashtable_nodeISt4pairIKPKciEEES9_ET1_T0_SB_SA_,@function
_ZSt14__copy_move_a2ILb1EPPN9__gnu_cxx15_Hashtable_nodeISt4pairIKPKciEEES9_ET1_T0_SB_SA_: # @_ZSt14__copy_move_a2ILb1EPPN9__gnu_cxx15_Hashtable_nodeISt4pairIKPKciEEES9_ET1_T0_SB_SA_
	.cfi_startproc
# %bb.0:
	pushq	%rbp
	.cfi_def_cfa_offset 16
	.cfi_offset %rbp, -16
	movq	%rsp, %rbp
	.cfi_def_cfa_register %rbp
	pushq	%r15
	pushq	%r14
	pushq	%rbx
	pushq	%rax
	.cfi_offset %rbx, -40
	.cfi_offset %r14, -32
	.cfi_offset %r15, -24
	movq	%rdx, %rbx
	movq	%rsi, %r14
	movq	%rdx, -32(%rbp)
	callq	_ZSt12__niter_baseIPPN9__gnu_cxx15_Hashtable_nodeISt4pairIKPKciEEEET_SA_
	movq	%rax, %r15
	movq	%r14, %rdi
	callq	_ZSt12__niter_baseIPPN9__gnu_cxx15_Hashtable_nodeISt4pairIKPKciEEEET_SA_
	movq	%rax, %r14
	movq	%rbx, %rdi
	callq	_ZSt12__niter_baseIPPN9__gnu_cxx15_Hashtable_nodeISt4pairIKPKciEEEET_SA_
	movq	%r15, %rdi
	movq	%r14, %rsi
	movq	%rax, %rdx
	callq	_ZSt13__copy_move_aILb1EPPN9__gnu_cxx15_Hashtable_nodeISt4pairIKPKciEEES9_ET1_T0_SB_SA_
	leaq	-32(%rbp), %rdi
	movq	%rax, %rsi
	callq	_ZSt12__niter_wrapIPPN9__gnu_cxx15_Hashtable_nodeISt4pairIKPKciEEEET_RKSA_SA_
	addq	$8, %rsp
	popq	%rbx
	popq	%r14
	popq	%r15
	popq	%rbp
	.cfi_def_cfa %rsp, 8
	retq
.Lfunc_end107:
	.size	_ZSt14__copy_move_a2ILb1EPPN9__gnu_cxx15_Hashtable_nodeISt4pairIKPKciEEES9_ET1_T0_SB_SA_, .Lfunc_end107-_ZSt14__copy_move_a2ILb1EPPN9__gnu_cxx15_Hashtable_nodeISt4pairIKPKciEEES9_ET1_T0_SB_SA_
	.cfi_endproc
                                        # -- End function
	.section	.text._ZSt12__miter_baseIPPN9__gnu_cxx15_Hashtable_nodeISt4pairIKPKciEEEEDTcl12__miter_basecldtfp_4baseEEESt13move_iteratorIT_E,"axG",@progbits,_ZSt12__miter_baseIPPN9__gnu_cxx15_Hashtable_nodeISt4pairIKPKciEEEEDTcl12__miter_basecldtfp_4baseEEESt13move_iteratorIT_E,comdat
	.weak	_ZSt12__miter_baseIPPN9__gnu_cxx15_Hashtable_nodeISt4pairIKPKciEEEEDTcl12__miter_basecldtfp_4baseEEESt13move_iteratorIT_E # -- Begin function _ZSt12__miter_baseIPPN9__gnu_cxx15_Hashtable_nodeISt4pairIKPKciEEEEDTcl12__miter_basecldtfp_4baseEEESt13move_iteratorIT_E
	.p2align	4, 0x90
	.type	_ZSt12__miter_baseIPPN9__gnu_cxx15_Hashtable_nodeISt4pairIKPKciEEEEDTcl12__miter_basecldtfp_4baseEEESt13move_iteratorIT_E,@function
_ZSt12__miter_baseIPPN9__gnu_cxx15_Hashtable_nodeISt4pairIKPKciEEEEDTcl12__miter_basecldtfp_4baseEEESt13move_iteratorIT_E: # @_ZSt12__miter_baseIPPN9__gnu_cxx15_Hashtable_nodeISt4pairIKPKciEEEEDTcl12__miter_basecldtfp_4baseEEESt13move_iteratorIT_E
	.cfi_startproc
# %bb.0:
	pushq	%rbp
	.cfi_def_cfa_offset 16
	.cfi_offset %rbp, -16
	movq	%rsp, %rbp
	.cfi_def_cfa_register %rbp
	subq	$16, %rsp
	movq	%rdi, -8(%rbp)
	leaq	-8(%rbp), %rdi
	callq	_ZNKSt13move_iteratorIPPN9__gnu_cxx15_Hashtable_nodeISt4pairIKPKciEEEE4baseEv
	movq	%rax, %rdi
	callq	_ZSt12__miter_baseIPPN9__gnu_cxx15_Hashtable_nodeISt4pairIKPKciEEEET_SA_
	addq	$16, %rsp
	popq	%rbp
	.cfi_def_cfa %rsp, 8
	retq
.Lfunc_end108:
	.size	_ZSt12__miter_baseIPPN9__gnu_cxx15_Hashtable_nodeISt4pairIKPKciEEEEDTcl12__miter_basecldtfp_4baseEEESt13move_iteratorIT_E, .Lfunc_end108-_ZSt12__miter_baseIPPN9__gnu_cxx15_Hashtable_nodeISt4pairIKPKciEEEEDTcl12__miter_basecldtfp_4baseEEESt13move_iteratorIT_E
	.cfi_endproc
                                        # -- End function
	.section	.text._ZSt12__niter_wrapIPPN9__gnu_cxx15_Hashtable_nodeISt4pairIKPKciEEEET_RKSA_SA_,"axG",@progbits,_ZSt12__niter_wrapIPPN9__gnu_cxx15_Hashtable_nodeISt4pairIKPKciEEEET_RKSA_SA_,comdat
	.weak	_ZSt12__niter_wrapIPPN9__gnu_cxx15_Hashtable_nodeISt4pairIKPKciEEEET_RKSA_SA_ # -- Begin function _ZSt12__niter_wrapIPPN9__gnu_cxx15_Hashtable_nodeISt4pairIKPKciEEEET_RKSA_SA_
	.p2align	4, 0x90
	.type	_ZSt12__niter_wrapIPPN9__gnu_cxx15_Hashtable_nodeISt4pairIKPKciEEEET_RKSA_SA_,@function
_ZSt12__niter_wrapIPPN9__gnu_cxx15_Hashtable_nodeISt4pairIKPKciEEEET_RKSA_SA_: # @_ZSt12__niter_wrapIPPN9__gnu_cxx15_Hashtable_nodeISt4pairIKPKciEEEET_RKSA_SA_
	.cfi_startproc
# %bb.0:
	pushq	%rbp
	.cfi_def_cfa_offset 16
	.cfi_offset %rbp, -16
	movq	%rsp, %rbp
	.cfi_def_cfa_register %rbp
	movq	%rsi, %rax
	popq	%rbp
	.cfi_def_cfa %rsp, 8
	retq
.Lfunc_end109:
	.size	_ZSt12__niter_wrapIPPN9__gnu_cxx15_Hashtable_nodeISt4pairIKPKciEEEET_RKSA_SA_, .Lfunc_end109-_ZSt12__niter_wrapIPPN9__gnu_cxx15_Hashtable_nodeISt4pairIKPKciEEEET_RKSA_SA_
	.cfi_endproc
                                        # -- End function
	.section	.text._ZSt13__copy_move_aILb1EPPN9__gnu_cxx15_Hashtable_nodeISt4pairIKPKciEEES9_ET1_T0_SB_SA_,"axG",@progbits,_ZSt13__copy_move_aILb1EPPN9__gnu_cxx15_Hashtable_nodeISt4pairIKPKciEEES9_ET1_T0_SB_SA_,comdat
	.weak	_ZSt13__copy_move_aILb1EPPN9__gnu_cxx15_Hashtable_nodeISt4pairIKPKciEEES9_ET1_T0_SB_SA_ # -- Begin function _ZSt13__copy_move_aILb1EPPN9__gnu_cxx15_Hashtable_nodeISt4pairIKPKciEEES9_ET1_T0_SB_SA_
	.p2align	4, 0x90
	.type	_ZSt13__copy_move_aILb1EPPN9__gnu_cxx15_Hashtable_nodeISt4pairIKPKciEEES9_ET1_T0_SB_SA_,@function
_ZSt13__copy_move_aILb1EPPN9__gnu_cxx15_Hashtable_nodeISt4pairIKPKciEEES9_ET1_T0_SB_SA_: # @_ZSt13__copy_move_aILb1EPPN9__gnu_cxx15_Hashtable_nodeISt4pairIKPKciEEES9_ET1_T0_SB_SA_
	.cfi_startproc
# %bb.0:
	pushq	%rbp
	.cfi_def_cfa_offset 16
	.cfi_offset %rbp, -16
	movq	%rsp, %rbp
	.cfi_def_cfa_register %rbp
	popq	%rbp
	.cfi_def_cfa %rsp, 8
	jmp	_ZNSt11__copy_moveILb1ELb1ESt26random_access_iterator_tagE8__copy_mIPN9__gnu_cxx15_Hashtable_nodeISt4pairIKPKciEEEEEPT_PKSC_SF_SD_ # TAILCALL
.Lfunc_end110:
	.size	_ZSt13__copy_move_aILb1EPPN9__gnu_cxx15_Hashtable_nodeISt4pairIKPKciEEES9_ET1_T0_SB_SA_, .Lfunc_end110-_ZSt13__copy_move_aILb1EPPN9__gnu_cxx15_Hashtable_nodeISt4pairIKPKciEEES9_ET1_T0_SB_SA_
	.cfi_endproc
                                        # -- End function
	.section	.text._ZNSt11__copy_moveILb1ELb1ESt26random_access_iterator_tagE8__copy_mIPN9__gnu_cxx15_Hashtable_nodeISt4pairIKPKciEEEEEPT_PKSC_SF_SD_,"axG",@progbits,_ZNSt11__copy_moveILb1ELb1ESt26random_access_iterator_tagE8__copy_mIPN9__gnu_cxx15_Hashtable_nodeISt4pairIKPKciEEEEEPT_PKSC_SF_SD_,comdat
	.weak	_ZNSt11__copy_moveILb1ELb1ESt26random_access_iterator_tagE8__copy_mIPN9__gnu_cxx15_Hashtable_nodeISt4pairIKPKciEEEEEPT_PKSC_SF_SD_ # -- Begin function _ZNSt11__copy_moveILb1ELb1ESt26random_access_iterator_tagE8__copy_mIPN9__gnu_cxx15_Hashtable_nodeISt4pairIKPKciEEEEEPT_PKSC_SF_SD_
	.p2align	4, 0x90
	.type	_ZNSt11__copy_moveILb1ELb1ESt26random_access_iterator_tagE8__copy_mIPN9__gnu_cxx15_Hashtable_nodeISt4pairIKPKciEEEEEPT_PKSC_SF_SD_,@function
_ZNSt11__copy_moveILb1ELb1ESt26random_access_iterator_tagE8__copy_mIPN9__gnu_cxx15_Hashtable_nodeISt4pairIKPKciEEEEEPT_PKSC_SF_SD_: # @_ZNSt11__copy_moveILb1ELb1ESt26random_access_iterator_tagE8__copy_mIPN9__gnu_cxx15_Hashtable_nodeISt4pairIKPKciEEEEEPT_PKSC_SF_SD_
	.cfi_startproc
# %bb.0:
	pushq	%rbp
	.cfi_def_cfa_offset 16
	.cfi_offset %rbp, -16
	movq	%rsp, %rbp
	.cfi_def_cfa_register %rbp
	pushq	%r14
	pushq	%rbx
	.cfi_offset %rbx, -32
	.cfi_offset %r14, -24
	movq	%rdx, %r14
	movq	%rsi, %rdx
	subq	%rdi, %rdx
	movq	%rdx, %rbx
	sarq	$3, %rbx
	testq	%rdx, %rdx
	je	.LBB111_2
# %bb.1:
	movq	%rdi, %rsi
	movq	%r14, %rdi
	callq	memmove
.LBB111_2:
	leaq	(%r14,%rbx,8), %rax
	popq	%rbx
	popq	%r14
	popq	%rbp
	.cfi_def_cfa %rsp, 8
	retq
.Lfunc_end111:
	.size	_ZNSt11__copy_moveILb1ELb1ESt26random_access_iterator_tagE8__copy_mIPN9__gnu_cxx15_Hashtable_nodeISt4pairIKPKciEEEEEPT_PKSC_SF_SD_, .Lfunc_end111-_ZNSt11__copy_moveILb1ELb1ESt26random_access_iterator_tagE8__copy_mIPN9__gnu_cxx15_Hashtable_nodeISt4pairIKPKciEEEEEPT_PKSC_SF_SD_
	.cfi_endproc
                                        # -- End function
	.section	.text._ZSt12__miter_baseIPPN9__gnu_cxx15_Hashtable_nodeISt4pairIKPKciEEEET_SA_,"axG",@progbits,_ZSt12__miter_baseIPPN9__gnu_cxx15_Hashtable_nodeISt4pairIKPKciEEEET_SA_,comdat
	.weak	_ZSt12__miter_baseIPPN9__gnu_cxx15_Hashtable_nodeISt4pairIKPKciEEEET_SA_ # -- Begin function _ZSt12__miter_baseIPPN9__gnu_cxx15_Hashtable_nodeISt4pairIKPKciEEEET_SA_
	.p2align	4, 0x90
	.type	_ZSt12__miter_baseIPPN9__gnu_cxx15_Hashtable_nodeISt4pairIKPKciEEEET_SA_,@function
_ZSt12__miter_baseIPPN9__gnu_cxx15_Hashtable_nodeISt4pairIKPKciEEEET_SA_: # @_ZSt12__miter_baseIPPN9__gnu_cxx15_Hashtable_nodeISt4pairIKPKciEEEET_SA_
	.cfi_startproc
# %bb.0:
	pushq	%rbp
	.cfi_def_cfa_offset 16
	.cfi_offset %rbp, -16
	movq	%rsp, %rbp
	.cfi_def_cfa_register %rbp
	movq	%rdi, %rax
	popq	%rbp
	.cfi_def_cfa %rsp, 8
	retq
.Lfunc_end112:
	.size	_ZSt12__miter_baseIPPN9__gnu_cxx15_Hashtable_nodeISt4pairIKPKciEEEET_SA_, .Lfunc_end112-_ZSt12__miter_baseIPPN9__gnu_cxx15_Hashtable_nodeISt4pairIKPKciEEEET_SA_
	.cfi_endproc
                                        # -- End function
	.section	.text._ZNKSt13move_iteratorIPPN9__gnu_cxx15_Hashtable_nodeISt4pairIKPKciEEEE4baseEv,"axG",@progbits,_ZNKSt13move_iteratorIPPN9__gnu_cxx15_Hashtable_nodeISt4pairIKPKciEEEE4baseEv,comdat
	.weak	_ZNKSt13move_iteratorIPPN9__gnu_cxx15_Hashtable_nodeISt4pairIKPKciEEEE4baseEv # -- Begin function _ZNKSt13move_iteratorIPPN9__gnu_cxx15_Hashtable_nodeISt4pairIKPKciEEEE4baseEv
	.p2align	4, 0x90
	.type	_ZNKSt13move_iteratorIPPN9__gnu_cxx15_Hashtable_nodeISt4pairIKPKciEEEE4baseEv,@function
_ZNKSt13move_iteratorIPPN9__gnu_cxx15_Hashtable_nodeISt4pairIKPKciEEEE4baseEv: # @_ZNKSt13move_iteratorIPPN9__gnu_cxx15_Hashtable_nodeISt4pairIKPKciEEEE4baseEv
	.cfi_startproc
# %bb.0:
	pushq	%rbp
	.cfi_def_cfa_offset 16
	.cfi_offset %rbp, -16
	movq	%rsp, %rbp
	.cfi_def_cfa_register %rbp
	movq	(%rdi), %rax
	popq	%rbp
	.cfi_def_cfa %rsp, 8
	retq
.Lfunc_end113:
	.size	_ZNKSt13move_iteratorIPPN9__gnu_cxx15_Hashtable_nodeISt4pairIKPKciEEEE4baseEv, .Lfunc_end113-_ZNKSt13move_iteratorIPPN9__gnu_cxx15_Hashtable_nodeISt4pairIKPKciEEEE4baseEv
	.cfi_endproc
                                        # -- End function
	.section	.text._ZNSt13move_iteratorIPPN9__gnu_cxx15_Hashtable_nodeISt4pairIKPKciEEEEC2ES9_,"axG",@progbits,_ZNSt13move_iteratorIPPN9__gnu_cxx15_Hashtable_nodeISt4pairIKPKciEEEEC2ES9_,comdat
	.weak	_ZNSt13move_iteratorIPPN9__gnu_cxx15_Hashtable_nodeISt4pairIKPKciEEEEC2ES9_ # -- Begin function _ZNSt13move_iteratorIPPN9__gnu_cxx15_Hashtable_nodeISt4pairIKPKciEEEEC2ES9_
	.p2align	4, 0x90
	.type	_ZNSt13move_iteratorIPPN9__gnu_cxx15_Hashtable_nodeISt4pairIKPKciEEEEC2ES9_,@function
_ZNSt13move_iteratorIPPN9__gnu_cxx15_Hashtable_nodeISt4pairIKPKciEEEEC2ES9_: # @_ZNSt13move_iteratorIPPN9__gnu_cxx15_Hashtable_nodeISt4pairIKPKciEEEEC2ES9_
	.cfi_startproc
# %bb.0:
	pushq	%rbp
	.cfi_def_cfa_offset 16
	.cfi_offset %rbp, -16
	movq	%rsp, %rbp
	.cfi_def_cfa_register %rbp
	movq	%rsi, (%rdi)
	popq	%rbp
	.cfi_def_cfa %rsp, 8
	retq
.Lfunc_end114:
	.size	_ZNSt13move_iteratorIPPN9__gnu_cxx15_Hashtable_nodeISt4pairIKPKciEEEEC2ES9_, .Lfunc_end114-_ZNSt13move_iteratorIPPN9__gnu_cxx15_Hashtable_nodeISt4pairIKPKciEEEEC2ES9_
	.cfi_endproc
                                        # -- End function
	.section	.text._ZSt23__copy_move_backward_a2ILb1EPPN9__gnu_cxx15_Hashtable_nodeISt4pairIKPKciEEES9_ET1_T0_SB_SA_,"axG",@progbits,_ZSt23__copy_move_backward_a2ILb1EPPN9__gnu_cxx15_Hashtable_nodeISt4pairIKPKciEEES9_ET1_T0_SB_SA_,comdat
	.weak	_ZSt23__copy_move_backward_a2ILb1EPPN9__gnu_cxx15_Hashtable_nodeISt4pairIKPKciEEES9_ET1_T0_SB_SA_ # -- Begin function _ZSt23__copy_move_backward_a2ILb1EPPN9__gnu_cxx15_Hashtable_nodeISt4pairIKPKciEEES9_ET1_T0_SB_SA_
	.p2align	4, 0x90
	.type	_ZSt23__copy_move_backward_a2ILb1EPPN9__gnu_cxx15_Hashtable_nodeISt4pairIKPKciEEES9_ET1_T0_SB_SA_,@function
_ZSt23__copy_move_backward_a2ILb1EPPN9__gnu_cxx15_Hashtable_nodeISt4pairIKPKciEEES9_ET1_T0_SB_SA_: # @_ZSt23__copy_move_backward_a2ILb1EPPN9__gnu_cxx15_Hashtable_nodeISt4pairIKPKciEEES9_ET1_T0_SB_SA_
	.cfi_startproc
# %bb.0:
	pushq	%rbp
	.cfi_def_cfa_offset 16
	.cfi_offset %rbp, -16
	movq	%rsp, %rbp
	.cfi_def_cfa_register %rbp
	pushq	%r15
	pushq	%r14
	pushq	%rbx
	pushq	%rax
	.cfi_offset %rbx, -40
	.cfi_offset %r14, -32
	.cfi_offset %r15, -24
	movq	%rdx, %rbx
	movq	%rsi, %r14
	movq	%rdx, -32(%rbp)
	callq	_ZSt12__niter_baseIPPN9__gnu_cxx15_Hashtable_nodeISt4pairIKPKciEEEET_SA_
	movq	%rax, %r15
	movq	%r14, %rdi
	callq	_ZSt12__niter_baseIPPN9__gnu_cxx15_Hashtable_nodeISt4pairIKPKciEEEET_SA_
	movq	%rax, %r14
	movq	%rbx, %rdi
	callq	_ZSt12__niter_baseIPPN9__gnu_cxx15_Hashtable_nodeISt4pairIKPKciEEEET_SA_
	movq	%r15, %rdi
	movq	%r14, %rsi
	movq	%rax, %rdx
	callq	_ZSt22__copy_move_backward_aILb1EPPN9__gnu_cxx15_Hashtable_nodeISt4pairIKPKciEEES9_ET1_T0_SB_SA_
	leaq	-32(%rbp), %rdi
	movq	%rax, %rsi
	callq	_ZSt12__niter_wrapIPPN9__gnu_cxx15_Hashtable_nodeISt4pairIKPKciEEEET_RKSA_SA_
	addq	$8, %rsp
	popq	%rbx
	popq	%r14
	popq	%r15
	popq	%rbp
	.cfi_def_cfa %rsp, 8
	retq
.Lfunc_end115:
	.size	_ZSt23__copy_move_backward_a2ILb1EPPN9__gnu_cxx15_Hashtable_nodeISt4pairIKPKciEEES9_ET1_T0_SB_SA_, .Lfunc_end115-_ZSt23__copy_move_backward_a2ILb1EPPN9__gnu_cxx15_Hashtable_nodeISt4pairIKPKciEEES9_ET1_T0_SB_SA_
	.cfi_endproc
                                        # -- End function
	.section	.text._ZSt22__copy_move_backward_aILb1EPPN9__gnu_cxx15_Hashtable_nodeISt4pairIKPKciEEES9_ET1_T0_SB_SA_,"axG",@progbits,_ZSt22__copy_move_backward_aILb1EPPN9__gnu_cxx15_Hashtable_nodeISt4pairIKPKciEEES9_ET1_T0_SB_SA_,comdat
	.weak	_ZSt22__copy_move_backward_aILb1EPPN9__gnu_cxx15_Hashtable_nodeISt4pairIKPKciEEES9_ET1_T0_SB_SA_ # -- Begin function _ZSt22__copy_move_backward_aILb1EPPN9__gnu_cxx15_Hashtable_nodeISt4pairIKPKciEEES9_ET1_T0_SB_SA_
	.p2align	4, 0x90
	.type	_ZSt22__copy_move_backward_aILb1EPPN9__gnu_cxx15_Hashtable_nodeISt4pairIKPKciEEES9_ET1_T0_SB_SA_,@function
_ZSt22__copy_move_backward_aILb1EPPN9__gnu_cxx15_Hashtable_nodeISt4pairIKPKciEEES9_ET1_T0_SB_SA_: # @_ZSt22__copy_move_backward_aILb1EPPN9__gnu_cxx15_Hashtable_nodeISt4pairIKPKciEEES9_ET1_T0_SB_SA_
	.cfi_startproc
# %bb.0:
	pushq	%rbp
	.cfi_def_cfa_offset 16
	.cfi_offset %rbp, -16
	movq	%rsp, %rbp
	.cfi_def_cfa_register %rbp
	popq	%rbp
	.cfi_def_cfa %rsp, 8
	jmp	_ZNSt20__copy_move_backwardILb1ELb1ESt26random_access_iterator_tagE13__copy_move_bIPN9__gnu_cxx15_Hashtable_nodeISt4pairIKPKciEEEEEPT_PKSC_SF_SD_ # TAILCALL
.Lfunc_end116:
	.size	_ZSt22__copy_move_backward_aILb1EPPN9__gnu_cxx15_Hashtable_nodeISt4pairIKPKciEEES9_ET1_T0_SB_SA_, .Lfunc_end116-_ZSt22__copy_move_backward_aILb1EPPN9__gnu_cxx15_Hashtable_nodeISt4pairIKPKciEEES9_ET1_T0_SB_SA_
	.cfi_endproc
                                        # -- End function
	.section	.text._ZNSt20__copy_move_backwardILb1ELb1ESt26random_access_iterator_tagE13__copy_move_bIPN9__gnu_cxx15_Hashtable_nodeISt4pairIKPKciEEEEEPT_PKSC_SF_SD_,"axG",@progbits,_ZNSt20__copy_move_backwardILb1ELb1ESt26random_access_iterator_tagE13__copy_move_bIPN9__gnu_cxx15_Hashtable_nodeISt4pairIKPKciEEEEEPT_PKSC_SF_SD_,comdat
	.weak	_ZNSt20__copy_move_backwardILb1ELb1ESt26random_access_iterator_tagE13__copy_move_bIPN9__gnu_cxx15_Hashtable_nodeISt4pairIKPKciEEEEEPT_PKSC_SF_SD_ # -- Begin function _ZNSt20__copy_move_backwardILb1ELb1ESt26random_access_iterator_tagE13__copy_move_bIPN9__gnu_cxx15_Hashtable_nodeISt4pairIKPKciEEEEEPT_PKSC_SF_SD_
	.p2align	4, 0x90
	.type	_ZNSt20__copy_move_backwardILb1ELb1ESt26random_access_iterator_tagE13__copy_move_bIPN9__gnu_cxx15_Hashtable_nodeISt4pairIKPKciEEEEEPT_PKSC_SF_SD_,@function
_ZNSt20__copy_move_backwardILb1ELb1ESt26random_access_iterator_tagE13__copy_move_bIPN9__gnu_cxx15_Hashtable_nodeISt4pairIKPKciEEEEEPT_PKSC_SF_SD_: # @_ZNSt20__copy_move_backwardILb1ELb1ESt26random_access_iterator_tagE13__copy_move_bIPN9__gnu_cxx15_Hashtable_nodeISt4pairIKPKciEEEEEPT_PKSC_SF_SD_
	.cfi_startproc
# %bb.0:
	pushq	%rbp
	.cfi_def_cfa_offset 16
	.cfi_offset %rbp, -16
	movq	%rsp, %rbp
	.cfi_def_cfa_register %rbp
	pushq	%r14
	pushq	%rbx
	.cfi_offset %rbx, -32
	.cfi_offset %r14, -24
	movq	%rdx, %r14
	movq	%rsi, %rdx
	subq	%rdi, %rdx
	movq	%rdx, %rbx
	sarq	$3, %rbx
	testq	%rdx, %rdx
	je	.LBB117_2
# %bb.1:
	movq	%rdi, %rsi
	leaq	(,%rbx,8), %rax
	movq	%r14, %rdi
	subq	%rax, %rdi
	callq	memmove
.LBB117_2:
	shlq	$3, %rbx
	subq	%rbx, %r14
	movq	%r14, %rax
	popq	%rbx
	popq	%r14
	popq	%rbp
	.cfi_def_cfa %rsp, 8
	retq
.Lfunc_end117:
	.size	_ZNSt20__copy_move_backwardILb1ELb1ESt26random_access_iterator_tagE13__copy_move_bIPN9__gnu_cxx15_Hashtable_nodeISt4pairIKPKciEEEEEPT_PKSC_SF_SD_, .Lfunc_end117-_ZNSt20__copy_move_backwardILb1ELb1ESt26random_access_iterator_tagE13__copy_move_bIPN9__gnu_cxx15_Hashtable_nodeISt4pairIKPKciEEEEEPT_PKSC_SF_SD_
	.cfi_endproc
                                        # -- End function
	.section	.text._ZSt8__fill_aIPPN9__gnu_cxx15_Hashtable_nodeISt4pairIKPKciEEES8_ENS0_11__enable_ifIXsr11__is_scalarIT0_EE7__valueEvE6__typeET_SE_RKSB_,"axG",@progbits,_ZSt8__fill_aIPPN9__gnu_cxx15_Hashtable_nodeISt4pairIKPKciEEES8_ENS0_11__enable_ifIXsr11__is_scalarIT0_EE7__valueEvE6__typeET_SE_RKSB_,comdat
	.weak	_ZSt8__fill_aIPPN9__gnu_cxx15_Hashtable_nodeISt4pairIKPKciEEES8_ENS0_11__enable_ifIXsr11__is_scalarIT0_EE7__valueEvE6__typeET_SE_RKSB_ # -- Begin function _ZSt8__fill_aIPPN9__gnu_cxx15_Hashtable_nodeISt4pairIKPKciEEES8_ENS0_11__enable_ifIXsr11__is_scalarIT0_EE7__valueEvE6__typeET_SE_RKSB_
	.p2align	4, 0x90
	.type	_ZSt8__fill_aIPPN9__gnu_cxx15_Hashtable_nodeISt4pairIKPKciEEES8_ENS0_11__enable_ifIXsr11__is_scalarIT0_EE7__valueEvE6__typeET_SE_RKSB_,@function
_ZSt8__fill_aIPPN9__gnu_cxx15_Hashtable_nodeISt4pairIKPKciEEES8_ENS0_11__enable_ifIXsr11__is_scalarIT0_EE7__valueEvE6__typeET_SE_RKSB_: # @_ZSt8__fill_aIPPN9__gnu_cxx15_Hashtable_nodeISt4pairIKPKciEEES8_ENS0_11__enable_ifIXsr11__is_scalarIT0_EE7__valueEvE6__typeET_SE_RKSB_
	.cfi_startproc
# %bb.0:
	pushq	%rbp
	.cfi_def_cfa_offset 16
	.cfi_offset %rbp, -16
	movq	%rsp, %rbp
	.cfi_def_cfa_register %rbp
	movq	(%rdx), %rax
	cmpq	%rdi, %rsi
	je	.LBB118_3
	.p2align	4, 0x90
.LBB118_2:                              # =>This Inner Loop Header: Depth=1
	movq	%rax, (%rdi)
	addq	$8, %rdi
	cmpq	%rdi, %rsi
	jne	.LBB118_2
.LBB118_3:
	popq	%rbp
	.cfi_def_cfa %rsp, 8
	retq
.Lfunc_end118:
	.size	_ZSt8__fill_aIPPN9__gnu_cxx15_Hashtable_nodeISt4pairIKPKciEEES8_ENS0_11__enable_ifIXsr11__is_scalarIT0_EE7__valueEvE6__typeET_SE_RKSB_, .Lfunc_end118-_ZSt8__fill_aIPPN9__gnu_cxx15_Hashtable_nodeISt4pairIKPKciEEES8_ENS0_11__enable_ifIXsr11__is_scalarIT0_EE7__valueEvE6__typeET_SE_RKSB_
	.cfi_endproc
                                        # -- End function
	.section	.text._ZSt20uninitialized_fill_nIPPN9__gnu_cxx15_Hashtable_nodeISt4pairIKPKciEEEmS8_ET_SA_T0_RKT1_,"axG",@progbits,_ZSt20uninitialized_fill_nIPPN9__gnu_cxx15_Hashtable_nodeISt4pairIKPKciEEEmS8_ET_SA_T0_RKT1_,comdat
	.weak	_ZSt20uninitialized_fill_nIPPN9__gnu_cxx15_Hashtable_nodeISt4pairIKPKciEEEmS8_ET_SA_T0_RKT1_ # -- Begin function _ZSt20uninitialized_fill_nIPPN9__gnu_cxx15_Hashtable_nodeISt4pairIKPKciEEEmS8_ET_SA_T0_RKT1_
	.p2align	4, 0x90
	.type	_ZSt20uninitialized_fill_nIPPN9__gnu_cxx15_Hashtable_nodeISt4pairIKPKciEEEmS8_ET_SA_T0_RKT1_,@function
_ZSt20uninitialized_fill_nIPPN9__gnu_cxx15_Hashtable_nodeISt4pairIKPKciEEEmS8_ET_SA_T0_RKT1_: # @_ZSt20uninitialized_fill_nIPPN9__gnu_cxx15_Hashtable_nodeISt4pairIKPKciEEEmS8_ET_SA_T0_RKT1_
	.cfi_startproc
# %bb.0:
	pushq	%rbp
	.cfi_def_cfa_offset 16
	.cfi_offset %rbp, -16
	movq	%rsp, %rbp
	.cfi_def_cfa_register %rbp
	popq	%rbp
	.cfi_def_cfa %rsp, 8
	jmp	_ZNSt22__uninitialized_fill_nILb1EE15__uninit_fill_nIPPN9__gnu_cxx15_Hashtable_nodeISt4pairIKPKciEEEmSA_EET_SC_T0_RKT1_ # TAILCALL
.Lfunc_end119:
	.size	_ZSt20uninitialized_fill_nIPPN9__gnu_cxx15_Hashtable_nodeISt4pairIKPKciEEEmS8_ET_SA_T0_RKT1_, .Lfunc_end119-_ZSt20uninitialized_fill_nIPPN9__gnu_cxx15_Hashtable_nodeISt4pairIKPKciEEEmS8_ET_SA_T0_RKT1_
	.cfi_endproc
                                        # -- End function
	.section	.text._ZNSt22__uninitialized_fill_nILb1EE15__uninit_fill_nIPPN9__gnu_cxx15_Hashtable_nodeISt4pairIKPKciEEEmSA_EET_SC_T0_RKT1_,"axG",@progbits,_ZNSt22__uninitialized_fill_nILb1EE15__uninit_fill_nIPPN9__gnu_cxx15_Hashtable_nodeISt4pairIKPKciEEEmSA_EET_SC_T0_RKT1_,comdat
	.weak	_ZNSt22__uninitialized_fill_nILb1EE15__uninit_fill_nIPPN9__gnu_cxx15_Hashtable_nodeISt4pairIKPKciEEEmSA_EET_SC_T0_RKT1_ # -- Begin function _ZNSt22__uninitialized_fill_nILb1EE15__uninit_fill_nIPPN9__gnu_cxx15_Hashtable_nodeISt4pairIKPKciEEEmSA_EET_SC_T0_RKT1_
	.p2align	4, 0x90
	.type	_ZNSt22__uninitialized_fill_nILb1EE15__uninit_fill_nIPPN9__gnu_cxx15_Hashtable_nodeISt4pairIKPKciEEEmSA_EET_SC_T0_RKT1_,@function
_ZNSt22__uninitialized_fill_nILb1EE15__uninit_fill_nIPPN9__gnu_cxx15_Hashtable_nodeISt4pairIKPKciEEEmSA_EET_SC_T0_RKT1_: # @_ZNSt22__uninitialized_fill_nILb1EE15__uninit_fill_nIPPN9__gnu_cxx15_Hashtable_nodeISt4pairIKPKciEEEmSA_EET_SC_T0_RKT1_
	.cfi_startproc
# %bb.0:
	pushq	%rbp
	.cfi_def_cfa_offset 16
	.cfi_offset %rbp, -16
	movq	%rsp, %rbp
	.cfi_def_cfa_register %rbp
	popq	%rbp
	.cfi_def_cfa %rsp, 8
	jmp	_ZSt6fill_nIPPN9__gnu_cxx15_Hashtable_nodeISt4pairIKPKciEEEmS8_ET_SA_T0_RKT1_ # TAILCALL
.Lfunc_end120:
	.size	_ZNSt22__uninitialized_fill_nILb1EE15__uninit_fill_nIPPN9__gnu_cxx15_Hashtable_nodeISt4pairIKPKciEEEmSA_EET_SC_T0_RKT1_, .Lfunc_end120-_ZNSt22__uninitialized_fill_nILb1EE15__uninit_fill_nIPPN9__gnu_cxx15_Hashtable_nodeISt4pairIKPKciEEEmSA_EET_SC_T0_RKT1_
	.cfi_endproc
                                        # -- End function
	.section	.text._ZSt6fill_nIPPN9__gnu_cxx15_Hashtable_nodeISt4pairIKPKciEEEmS8_ET_SA_T0_RKT1_,"axG",@progbits,_ZSt6fill_nIPPN9__gnu_cxx15_Hashtable_nodeISt4pairIKPKciEEEmS8_ET_SA_T0_RKT1_,comdat
	.weak	_ZSt6fill_nIPPN9__gnu_cxx15_Hashtable_nodeISt4pairIKPKciEEEmS8_ET_SA_T0_RKT1_ # -- Begin function _ZSt6fill_nIPPN9__gnu_cxx15_Hashtable_nodeISt4pairIKPKciEEEmS8_ET_SA_T0_RKT1_
	.p2align	4, 0x90
	.type	_ZSt6fill_nIPPN9__gnu_cxx15_Hashtable_nodeISt4pairIKPKciEEEmS8_ET_SA_T0_RKT1_,@function
_ZSt6fill_nIPPN9__gnu_cxx15_Hashtable_nodeISt4pairIKPKciEEEmS8_ET_SA_T0_RKT1_: # @_ZSt6fill_nIPPN9__gnu_cxx15_Hashtable_nodeISt4pairIKPKciEEEmS8_ET_SA_T0_RKT1_
	.cfi_startproc
# %bb.0:
	pushq	%rbp
	.cfi_def_cfa_offset 16
	.cfi_offset %rbp, -16
	movq	%rsp, %rbp
	.cfi_def_cfa_register %rbp
	pushq	%r14
	pushq	%rbx
	subq	$16, %rsp
	.cfi_offset %rbx, -32
	.cfi_offset %r14, -24
	movq	%rdx, %r14
	movq	%rsi, %rbx
	movq	%rdi, -24(%rbp)
	callq	_ZSt12__niter_baseIPPN9__gnu_cxx15_Hashtable_nodeISt4pairIKPKciEEEET_SA_
	movq	%rax, %rdi
	movq	%rbx, %rsi
	movq	%r14, %rdx
	callq	_ZSt10__fill_n_aIPPN9__gnu_cxx15_Hashtable_nodeISt4pairIKPKciEEEmS8_ENS0_11__enable_ifIXsr11__is_scalarIT1_EE7__valueET_E6__typeESC_T0_RKSB_
	leaq	-24(%rbp), %rdi
	movq	%rax, %rsi
	callq	_ZSt12__niter_wrapIPPN9__gnu_cxx15_Hashtable_nodeISt4pairIKPKciEEEET_RKSA_SA_
	addq	$16, %rsp
	popq	%rbx
	popq	%r14
	popq	%rbp
	.cfi_def_cfa %rsp, 8
	retq
.Lfunc_end121:
	.size	_ZSt6fill_nIPPN9__gnu_cxx15_Hashtable_nodeISt4pairIKPKciEEEmS8_ET_SA_T0_RKT1_, .Lfunc_end121-_ZSt6fill_nIPPN9__gnu_cxx15_Hashtable_nodeISt4pairIKPKciEEEmS8_ET_SA_T0_RKT1_
	.cfi_endproc
                                        # -- End function
	.section	.text._ZSt10__fill_n_aIPPN9__gnu_cxx15_Hashtable_nodeISt4pairIKPKciEEEmS8_ENS0_11__enable_ifIXsr11__is_scalarIT1_EE7__valueET_E6__typeESC_T0_RKSB_,"axG",@progbits,_ZSt10__fill_n_aIPPN9__gnu_cxx15_Hashtable_nodeISt4pairIKPKciEEEmS8_ENS0_11__enable_ifIXsr11__is_scalarIT1_EE7__valueET_E6__typeESC_T0_RKSB_,comdat
	.weak	_ZSt10__fill_n_aIPPN9__gnu_cxx15_Hashtable_nodeISt4pairIKPKciEEEmS8_ENS0_11__enable_ifIXsr11__is_scalarIT1_EE7__valueET_E6__typeESC_T0_RKSB_ # -- Begin function _ZSt10__fill_n_aIPPN9__gnu_cxx15_Hashtable_nodeISt4pairIKPKciEEEmS8_ENS0_11__enable_ifIXsr11__is_scalarIT1_EE7__valueET_E6__typeESC_T0_RKSB_
	.p2align	4, 0x90
	.type	_ZSt10__fill_n_aIPPN9__gnu_cxx15_Hashtable_nodeISt4pairIKPKciEEEmS8_ENS0_11__enable_ifIXsr11__is_scalarIT1_EE7__valueET_E6__typeESC_T0_RKSB_,@function
_ZSt10__fill_n_aIPPN9__gnu_cxx15_Hashtable_nodeISt4pairIKPKciEEEmS8_ENS0_11__enable_ifIXsr11__is_scalarIT1_EE7__valueET_E6__typeESC_T0_RKSB_: # @_ZSt10__fill_n_aIPPN9__gnu_cxx15_Hashtable_nodeISt4pairIKPKciEEEmS8_ENS0_11__enable_ifIXsr11__is_scalarIT1_EE7__valueET_E6__typeESC_T0_RKSB_
	.cfi_startproc
# %bb.0:
	pushq	%rbp
	.cfi_def_cfa_offset 16
	.cfi_offset %rbp, -16
	movq	%rsp, %rbp
	.cfi_def_cfa_register %rbp
	movq	%rdi, %rax
	movq	(%rdx), %rcx
	testq	%rsi, %rsi
	je	.LBB122_3
	.p2align	4, 0x90
.LBB122_2:                              # =>This Inner Loop Header: Depth=1
	movq	%rcx, (%rax)
	addq	$-1, %rsi
	addq	$8, %rax
	testq	%rsi, %rsi
	jne	.LBB122_2
.LBB122_3:
	popq	%rbp
	.cfi_def_cfa %rsp, 8
	retq
.Lfunc_end122:
	.size	_ZSt10__fill_n_aIPPN9__gnu_cxx15_Hashtable_nodeISt4pairIKPKciEEEmS8_ENS0_11__enable_ifIXsr11__is_scalarIT1_EE7__valueET_E6__typeESC_T0_RKSB_, .Lfunc_end122-_ZSt10__fill_n_aIPPN9__gnu_cxx15_Hashtable_nodeISt4pairIKPKciEEEmS8_ENS0_11__enable_ifIXsr11__is_scalarIT1_EE7__valueET_E6__typeESC_T0_RKSB_
	.cfi_endproc
                                        # -- End function
	.section	.text._ZNSt16allocator_traitsISaIPN9__gnu_cxx15_Hashtable_nodeISt4pairIKPKciEEEEE7destroyIS8_EEvRS9_PT_,"axG",@progbits,_ZNSt16allocator_traitsISaIPN9__gnu_cxx15_Hashtable_nodeISt4pairIKPKciEEEEE7destroyIS8_EEvRS9_PT_,comdat
	.weak	_ZNSt16allocator_traitsISaIPN9__gnu_cxx15_Hashtable_nodeISt4pairIKPKciEEEEE7destroyIS8_EEvRS9_PT_ # -- Begin function _ZNSt16allocator_traitsISaIPN9__gnu_cxx15_Hashtable_nodeISt4pairIKPKciEEEEE7destroyIS8_EEvRS9_PT_
	.p2align	4, 0x90
	.type	_ZNSt16allocator_traitsISaIPN9__gnu_cxx15_Hashtable_nodeISt4pairIKPKciEEEEE7destroyIS8_EEvRS9_PT_,@function
_ZNSt16allocator_traitsISaIPN9__gnu_cxx15_Hashtable_nodeISt4pairIKPKciEEEEE7destroyIS8_EEvRS9_PT_: # @_ZNSt16allocator_traitsISaIPN9__gnu_cxx15_Hashtable_nodeISt4pairIKPKciEEEEE7destroyIS8_EEvRS9_PT_
	.cfi_startproc
# %bb.0:
	pushq	%rbp
	.cfi_def_cfa_offset 16
	.cfi_offset %rbp, -16
	movq	%rsp, %rbp
	.cfi_def_cfa_register %rbp
	popq	%rbp
	.cfi_def_cfa %rsp, 8
	jmp	_ZN9__gnu_cxx13new_allocatorIPNS_15_Hashtable_nodeISt4pairIKPKciEEEE7destroyIS8_EEvPT_ # TAILCALL
.Lfunc_end123:
	.size	_ZNSt16allocator_traitsISaIPN9__gnu_cxx15_Hashtable_nodeISt4pairIKPKciEEEEE7destroyIS8_EEvRS9_PT_, .Lfunc_end123-_ZNSt16allocator_traitsISaIPN9__gnu_cxx15_Hashtable_nodeISt4pairIKPKciEEEEE7destroyIS8_EEvRS9_PT_
	.cfi_endproc
                                        # -- End function
	.section	.text._ZN9__gnu_cxx13new_allocatorIPNS_15_Hashtable_nodeISt4pairIKPKciEEEE7destroyIS8_EEvPT_,"axG",@progbits,_ZN9__gnu_cxx13new_allocatorIPNS_15_Hashtable_nodeISt4pairIKPKciEEEE7destroyIS8_EEvPT_,comdat
	.weak	_ZN9__gnu_cxx13new_allocatorIPNS_15_Hashtable_nodeISt4pairIKPKciEEEE7destroyIS8_EEvPT_ # -- Begin function _ZN9__gnu_cxx13new_allocatorIPNS_15_Hashtable_nodeISt4pairIKPKciEEEE7destroyIS8_EEvPT_
	.p2align	4, 0x90
	.type	_ZN9__gnu_cxx13new_allocatorIPNS_15_Hashtable_nodeISt4pairIKPKciEEEE7destroyIS8_EEvPT_,@function
_ZN9__gnu_cxx13new_allocatorIPNS_15_Hashtable_nodeISt4pairIKPKciEEEE7destroyIS8_EEvPT_: # @_ZN9__gnu_cxx13new_allocatorIPNS_15_Hashtable_nodeISt4pairIKPKciEEEE7destroyIS8_EEvPT_
	.cfi_startproc
# %bb.0:
	pushq	%rbp
	.cfi_def_cfa_offset 16
	.cfi_offset %rbp, -16
	movq	%rsp, %rbp
	.cfi_def_cfa_register %rbp
	popq	%rbp
	.cfi_def_cfa %rsp, 8
	retq
.Lfunc_end124:
	.size	_ZN9__gnu_cxx13new_allocatorIPNS_15_Hashtable_nodeISt4pairIKPKciEEEE7destroyIS8_EEvPT_, .Lfunc_end124-_ZN9__gnu_cxx13new_allocatorIPNS_15_Hashtable_nodeISt4pairIKPKciEEEE7destroyIS8_EEvPT_
	.cfi_endproc
                                        # -- End function
	.section	.text._ZSt3maxImERKT_S2_S2_,"axG",@progbits,_ZSt3maxImERKT_S2_S2_,comdat
	.weak	_ZSt3maxImERKT_S2_S2_   # -- Begin function _ZSt3maxImERKT_S2_S2_
	.p2align	4, 0x90
	.type	_ZSt3maxImERKT_S2_S2_,@function
_ZSt3maxImERKT_S2_S2_:                  # @_ZSt3maxImERKT_S2_S2_
	.cfi_startproc
# %bb.0:
	pushq	%rbp
	.cfi_def_cfa_offset 16
	.cfi_offset %rbp, -16
	movq	%rsp, %rbp
	.cfi_def_cfa_register %rbp
	movq	%rdi, %rax
	movq	(%rdi), %rcx
	cmpq	(%rsi), %rcx
	cmovbq	%rsi, %rax
	popq	%rbp
	.cfi_def_cfa %rsp, 8
	retq
.Lfunc_end125:
	.size	_ZSt3maxImERKT_S2_S2_, .Lfunc_end125-_ZSt3maxImERKT_S2_S2_
	.cfi_endproc
                                        # -- End function
	.section	.text._ZSt32__make_move_if_noexcept_iteratorIPN9__gnu_cxx15_Hashtable_nodeISt4pairIKPKciEEESt13move_iteratorIPS8_EET0_PT_,"axG",@progbits,_ZSt32__make_move_if_noexcept_iteratorIPN9__gnu_cxx15_Hashtable_nodeISt4pairIKPKciEEESt13move_iteratorIPS8_EET0_PT_,comdat
	.weak	_ZSt32__make_move_if_noexcept_iteratorIPN9__gnu_cxx15_Hashtable_nodeISt4pairIKPKciEEESt13move_iteratorIPS8_EET0_PT_ # -- Begin function _ZSt32__make_move_if_noexcept_iteratorIPN9__gnu_cxx15_Hashtable_nodeISt4pairIKPKciEEESt13move_iteratorIPS8_EET0_PT_
	.p2align	4, 0x90
	.type	_ZSt32__make_move_if_noexcept_iteratorIPN9__gnu_cxx15_Hashtable_nodeISt4pairIKPKciEEESt13move_iteratorIPS8_EET0_PT_,@function
_ZSt32__make_move_if_noexcept_iteratorIPN9__gnu_cxx15_Hashtable_nodeISt4pairIKPKciEEESt13move_iteratorIPS8_EET0_PT_: # @_ZSt32__make_move_if_noexcept_iteratorIPN9__gnu_cxx15_Hashtable_nodeISt4pairIKPKciEEESt13move_iteratorIPS8_EET0_PT_
	.cfi_startproc
# %bb.0:
	pushq	%rbp
	.cfi_def_cfa_offset 16
	.cfi_offset %rbp, -16
	movq	%rsp, %rbp
	.cfi_def_cfa_register %rbp
	subq	$16, %rsp
	movq	%rdi, %rsi
	leaq	-8(%rbp), %rdi
	callq	_ZNSt13move_iteratorIPPN9__gnu_cxx15_Hashtable_nodeISt4pairIKPKciEEEEC2ES9_
	movq	-8(%rbp), %rax
	addq	$16, %rsp
	popq	%rbp
	.cfi_def_cfa %rsp, 8
	retq
.Lfunc_end126:
	.size	_ZSt32__make_move_if_noexcept_iteratorIPN9__gnu_cxx15_Hashtable_nodeISt4pairIKPKciEEESt13move_iteratorIPS8_EET0_PT_, .Lfunc_end126-_ZSt32__make_move_if_noexcept_iteratorIPN9__gnu_cxx15_Hashtable_nodeISt4pairIKPKciEEESt13move_iteratorIPS8_EET0_PT_
	.cfi_endproc
                                        # -- End function
	.section	.text._ZN9__gnu_cxx17__normal_iteratorIPPNS_15_Hashtable_nodeISt4pairIKPKciEEESt6vectorIS8_SaIS8_EEEC2ERKS9_,"axG",@progbits,_ZN9__gnu_cxx17__normal_iteratorIPPNS_15_Hashtable_nodeISt4pairIKPKciEEESt6vectorIS8_SaIS8_EEEC2ERKS9_,comdat
	.weak	_ZN9__gnu_cxx17__normal_iteratorIPPNS_15_Hashtable_nodeISt4pairIKPKciEEESt6vectorIS8_SaIS8_EEEC2ERKS9_ # -- Begin function _ZN9__gnu_cxx17__normal_iteratorIPPNS_15_Hashtable_nodeISt4pairIKPKciEEESt6vectorIS8_SaIS8_EEEC2ERKS9_
	.p2align	4, 0x90
	.type	_ZN9__gnu_cxx17__normal_iteratorIPPNS_15_Hashtable_nodeISt4pairIKPKciEEESt6vectorIS8_SaIS8_EEEC2ERKS9_,@function
_ZN9__gnu_cxx17__normal_iteratorIPPNS_15_Hashtable_nodeISt4pairIKPKciEEESt6vectorIS8_SaIS8_EEEC2ERKS9_: # @_ZN9__gnu_cxx17__normal_iteratorIPPNS_15_Hashtable_nodeISt4pairIKPKciEEESt6vectorIS8_SaIS8_EEEC2ERKS9_
	.cfi_startproc
# %bb.0:
	pushq	%rbp
	.cfi_def_cfa_offset 16
	.cfi_offset %rbp, -16
	movq	%rsp, %rbp
	.cfi_def_cfa_register %rbp
	movq	(%rsi), %rax
	movq	%rax, (%rdi)
	popq	%rbp
	.cfi_def_cfa %rsp, 8
	retq
.Lfunc_end127:
	.size	_ZN9__gnu_cxx17__normal_iteratorIPPNS_15_Hashtable_nodeISt4pairIKPKciEEESt6vectorIS8_SaIS8_EEEC2ERKS9_, .Lfunc_end127-_ZN9__gnu_cxx17__normal_iteratorIPPNS_15_Hashtable_nodeISt4pairIKPKciEEESt6vectorIS8_SaIS8_EEEC2ERKS9_
	.cfi_endproc
                                        # -- End function
	.section	.text._ZN9__gnu_cxx9hashtableISt4pairIKPKciES3_NS_4hashIS3_EESt10_Select1stIS5_E5eqstrSaIiEE14find_or_insertERKS5_,"axG",@progbits,_ZN9__gnu_cxx9hashtableISt4pairIKPKciES3_NS_4hashIS3_EESt10_Select1stIS5_E5eqstrSaIiEE14find_or_insertERKS5_,comdat
	.weak	_ZN9__gnu_cxx9hashtableISt4pairIKPKciES3_NS_4hashIS3_EESt10_Select1stIS5_E5eqstrSaIiEE14find_or_insertERKS5_ # -- Begin function _ZN9__gnu_cxx9hashtableISt4pairIKPKciES3_NS_4hashIS3_EESt10_Select1stIS5_E5eqstrSaIiEE14find_or_insertERKS5_
	.p2align	4, 0x90
	.type	_ZN9__gnu_cxx9hashtableISt4pairIKPKciES3_NS_4hashIS3_EESt10_Select1stIS5_E5eqstrSaIiEE14find_or_insertERKS5_,@function
_ZN9__gnu_cxx9hashtableISt4pairIKPKciES3_NS_4hashIS3_EESt10_Select1stIS5_E5eqstrSaIiEE14find_or_insertERKS5_: # @_ZN9__gnu_cxx9hashtableISt4pairIKPKciES3_NS_4hashIS3_EESt10_Select1stIS5_E5eqstrSaIiEE14find_or_insertERKS5_
	.cfi_startproc
# %bb.0:
	pushq	%rbp
	.cfi_def_cfa_offset 16
	.cfi_offset %rbp, -16
	movq	%rsp, %rbp
	.cfi_def_cfa_register %rbp
	pushq	%r15
	pushq	%r14
	pushq	%r13
	pushq	%r12
	pushq	%rbx
	subq	$40, %rsp
	.cfi_offset %rbx, -56
	.cfi_offset %r12, -48
	.cfi_offset %r13, -40
	.cfi_offset %r14, -32
	.cfi_offset %r15, -24
	movq	%rsi, %r14
	movq	%rdi, %rbx
	movq	32(%rdi), %rsi
	addq	$1, %rsi
	callq	_ZN9__gnu_cxx9hashtableISt4pairIKPKciES3_NS_4hashIS3_EESt10_Select1stIS5_E5eqstrSaIiEE6resizeEm
	movq	%rbx, %rdi
	movq	%r14, -48(%rbp)         # 8-byte Spill
	movq	%r14, %rsi
	callq	_ZNK9__gnu_cxx9hashtableISt4pairIKPKciES3_NS_4hashIS3_EESt10_Select1stIS5_E5eqstrSaIiEE10_M_bkt_numERKS5_
	leaq	8(%rbx), %rdi
	movq	%rdi, -64(%rbp)         # 8-byte Spill
	movq	%rax, -72(%rbp)         # 8-byte Spill
	movq	%rax, %rsi
	callq	_ZNSt6vectorIPN9__gnu_cxx15_Hashtable_nodeISt4pairIKPKciEEESaIS8_EEixEm
	movq	(%rax), %r13
	leaq	2(%rbx), %r15
	movq	%rbx, -80(%rbp)         # 8-byte Spill
	leaq	3(%rbx), %r12
	movq	%r13, -56(%rbp)         # 8-byte Spill
	testq	%r13, %r13
	je	.LBB128_4
	.p2align	4, 0x90
.LBB128_2:                              # =>This Inner Loop Header: Depth=1
	leaq	8(%r13), %rbx
	movq	%r12, %rdi
	movq	%rbx, %rsi
	callq	_ZNKSt10_Select1stISt4pairIKPKciEEclERS4_
	movq	(%rax), %r14
	movq	%r12, %rdi
	movq	-48(%rbp), %rsi         # 8-byte Reload
	callq	_ZNKSt10_Select1stISt4pairIKPKciEEclERKS4_
	movq	(%rax), %rdx
	movq	%r15, %rdi
	movq	%r14, %rsi
	callq	_ZNK5eqstrclEPKcS1_
	testb	%al, %al
	jne	.LBB128_5
# %bb.3:                                #   in Loop: Header=BB128_2 Depth=1
	movq	(%r13), %r13
	testq	%r13, %r13
	jne	.LBB128_2
.LBB128_4:
	movq	-80(%rbp), %r14         # 8-byte Reload
	movq	%r14, %rdi
	movq	-48(%rbp), %rsi         # 8-byte Reload
	callq	_ZN9__gnu_cxx9hashtableISt4pairIKPKciES3_NS_4hashIS3_EESt10_Select1stIS5_E5eqstrSaIiEE11_M_new_nodeERKS5_
	movq	%rax, %rbx
	movq	-56(%rbp), %rax         # 8-byte Reload
	movq	%rax, (%rbx)
	movq	-64(%rbp), %rdi         # 8-byte Reload
	movq	-72(%rbp), %rsi         # 8-byte Reload
	callq	_ZNSt6vectorIPN9__gnu_cxx15_Hashtable_nodeISt4pairIKPKciEEESaIS8_EEixEm
	movq	%rbx, (%rax)
	addq	$1, 32(%r14)
	addq	$8, %rbx
.LBB128_5:                              # %.loopexit
	movq	%rbx, %rax
	addq	$40, %rsp
	popq	%rbx
	popq	%r12
	popq	%r13
	popq	%r14
	popq	%r15
	popq	%rbp
	.cfi_def_cfa %rsp, 8
	retq
.Lfunc_end128:
	.size	_ZN9__gnu_cxx9hashtableISt4pairIKPKciES3_NS_4hashIS3_EESt10_Select1stIS5_E5eqstrSaIiEE14find_or_insertERKS5_, .Lfunc_end128-_ZN9__gnu_cxx9hashtableISt4pairIKPKciES3_NS_4hashIS3_EESt10_Select1stIS5_E5eqstrSaIiEE14find_or_insertERKS5_
	.cfi_endproc
                                        # -- End function
	.section	.text._ZNSt4pairIKPKciEC2IiLb1EEERS2_OT_,"axG",@progbits,_ZNSt4pairIKPKciEC2IiLb1EEERS2_OT_,comdat
	.weak	_ZNSt4pairIKPKciEC2IiLb1EEERS2_OT_ # -- Begin function _ZNSt4pairIKPKciEC2IiLb1EEERS2_OT_
	.p2align	4, 0x90
	.type	_ZNSt4pairIKPKciEC2IiLb1EEERS2_OT_,@function
_ZNSt4pairIKPKciEC2IiLb1EEERS2_OT_:     # @_ZNSt4pairIKPKciEC2IiLb1EEERS2_OT_
	.cfi_startproc
# %bb.0:
	pushq	%rbp
	.cfi_def_cfa_offset 16
	.cfi_offset %rbp, -16
	movq	%rsp, %rbp
	.cfi_def_cfa_register %rbp
	pushq	%rbx
	pushq	%rax
	.cfi_offset %rbx, -24
	movq	%rdi, %rbx
	movq	(%rsi), %rax
	movq	%rax, (%rdi)
	movq	%rdx, %rdi
	callq	_ZSt7forwardIiEOT_RNSt16remove_referenceIS0_E4typeE
	movl	(%rax), %eax
	movl	%eax, 8(%rbx)
	addq	$8, %rsp
	popq	%rbx
	popq	%rbp
	.cfi_def_cfa %rsp, 8
	retq
.Lfunc_end129:
	.size	_ZNSt4pairIKPKciEC2IiLb1EEERS2_OT_, .Lfunc_end129-_ZNSt4pairIKPKciEC2IiLb1EEERS2_OT_
	.cfi_endproc
                                        # -- End function
	.section	.text._ZN9__gnu_cxx9hashtableISt4pairIKPKciES3_NS_4hashIS3_EESt10_Select1stIS5_E5eqstrSaIiEE6resizeEm,"axG",@progbits,_ZN9__gnu_cxx9hashtableISt4pairIKPKciES3_NS_4hashIS3_EESt10_Select1stIS5_E5eqstrSaIiEE6resizeEm,comdat
	.weak	_ZN9__gnu_cxx9hashtableISt4pairIKPKciES3_NS_4hashIS3_EESt10_Select1stIS5_E5eqstrSaIiEE6resizeEm # -- Begin function _ZN9__gnu_cxx9hashtableISt4pairIKPKciES3_NS_4hashIS3_EESt10_Select1stIS5_E5eqstrSaIiEE6resizeEm
	.p2align	4, 0x90
	.type	_ZN9__gnu_cxx9hashtableISt4pairIKPKciES3_NS_4hashIS3_EESt10_Select1stIS5_E5eqstrSaIiEE6resizeEm,@function
_ZN9__gnu_cxx9hashtableISt4pairIKPKciES3_NS_4hashIS3_EESt10_Select1stIS5_E5eqstrSaIiEE6resizeEm: # @_ZN9__gnu_cxx9hashtableISt4pairIKPKciES3_NS_4hashIS3_EESt10_Select1stIS5_E5eqstrSaIiEE6resizeEm
.Lfunc_begin7:
	.cfi_startproc
	.cfi_personality 3, __gxx_personality_v0
	.cfi_lsda 3, .Lexception7
# %bb.0:
	pushq	%rbp
	.cfi_def_cfa_offset 16
	.cfi_offset %rbp, -16
	movq	%rsp, %rbp
	.cfi_def_cfa_register %rbp
	pushq	%r15
	pushq	%r14
	pushq	%r13
	pushq	%r12
	pushq	%rbx
	subq	$72, %rsp
	.cfi_offset %rbx, -56
	.cfi_offset %r12, -48
	.cfi_offset %r13, -40
	.cfi_offset %r14, -32
	.cfi_offset %r15, -24
	movq	%rsi, %r14
	movq	%rdi, %r15
	leaq	8(%rdi), %r13
	movq	%r13, %rdi
	callq	_ZNKSt6vectorIPN9__gnu_cxx15_Hashtable_nodeISt4pairIKPKciEEESaIS8_EE4sizeEv
	cmpq	%r14, %rax
	jae	.LBB130_20
# %bb.1:
	movq	%r15, %rdi
	movq	%r14, %rsi
	movq	%rax, -56(%rbp)         # 8-byte Spill
	callq	_ZNK9__gnu_cxx9hashtableISt4pairIKPKciES3_NS_4hashIS3_EESt10_Select1stIS5_E5eqstrSaIiEE12_M_next_sizeEm
	cmpq	-56(%rbp), %rax         # 8-byte Folded Reload
	jbe	.LBB130_20
# %bb.2:
	movq	$0, -80(%rbp)
	leaq	-48(%rbp), %r14
	movq	%r14, %rdi
	movq	%r13, %rsi
	movq	%rax, %rbx
	callq	_ZNKSt12_Vector_baseIPN9__gnu_cxx15_Hashtable_nodeISt4pairIKPKciEEESaIS8_EE13get_allocatorEv
.Ltmp90:
	leaq	-104(%rbp), %rdi
	leaq	-80(%rbp), %rdx
	movq	%rbx, -72(%rbp)         # 8-byte Spill
	movq	%rbx, %rsi
	movq	%r14, %rcx
	callq	_ZNSt6vectorIPN9__gnu_cxx15_Hashtable_nodeISt4pairIKPKciEEESaIS8_EEC2EmRKS8_RKS9_
.Ltmp91:
# %bb.3:
	leaq	-48(%rbp), %rdi
	callq	_ZNSaIPN9__gnu_cxx15_Hashtable_nodeISt4pairIKPKciEEEED2Ev
	xorl	%ebx, %ebx
	movq	%r15, -64(%rbp)         # 8-byte Spill
	jmp	.LBB130_4
	.p2align	4, 0x90
.LBB130_13:                             #   in Loop: Header=BB130_4 Depth=1
	addq	$1, %rbx
.LBB130_4:                              # =>This Loop Header: Depth=1
                                        #     Child Loop BB130_5 Depth 2
	cmpq	-56(%rbp), %rbx         # 8-byte Folded Reload
	je	.LBB130_19
	.p2align	4, 0x90
.LBB130_5:                              # %.preheader36
                                        #   Parent Loop BB130_4 Depth=1
                                        # =>  This Inner Loop Header: Depth=2
	movq	%r13, %rdi
	movq	%rbx, %rsi
	callq	_ZNSt6vectorIPN9__gnu_cxx15_Hashtable_nodeISt4pairIKPKciEEESaIS8_EEixEm
	movq	(%rax), %r14
	testq	%r14, %r14
	je	.LBB130_13
# %bb.6:                                #   in Loop: Header=BB130_5 Depth=2
	leaq	8(%r14), %rsi
.Ltmp93:
	movq	%r15, %rdi
	movq	-72(%rbp), %rdx         # 8-byte Reload
	callq	_ZNK9__gnu_cxx9hashtableISt4pairIKPKciES3_NS_4hashIS3_EESt10_Select1stIS5_E5eqstrSaIiEE10_M_bkt_numERKS5_m
.Ltmp94:
# %bb.7:                                #   in Loop: Header=BB130_5 Depth=2
	movq	%rax, %r12
	movq	(%r14), %r15
	movq	%r13, %rdi
	movq	%rbx, %rsi
	callq	_ZNSt6vectorIPN9__gnu_cxx15_Hashtable_nodeISt4pairIKPKciEEESaIS8_EEixEm
	movq	%r15, (%rax)
	leaq	-104(%rbp), %r15
	movq	%r15, %rdi
	movq	%r12, %rsi
	callq	_ZNSt6vectorIPN9__gnu_cxx15_Hashtable_nodeISt4pairIKPKciEEESaIS8_EEixEm
	movq	(%rax), %rax
	movq	%rax, (%r14)
	movq	%r15, %rdi
	movq	%r12, %rsi
	callq	_ZNSt6vectorIPN9__gnu_cxx15_Hashtable_nodeISt4pairIKPKciEEESaIS8_EEixEm
	movq	%r14, (%rax)
	movq	-64(%rbp), %r15         # 8-byte Reload
	jmp	.LBB130_5
.LBB130_19:
	leaq	-104(%rbp), %rbx
	movq	%r13, %rdi
	movq	%rbx, %rsi
	callq	_ZNSt6vectorIPN9__gnu_cxx15_Hashtable_nodeISt4pairIKPKciEEESaIS8_EE4swapERSA_
	movq	%rbx, %rdi
	callq	_ZNSt6vectorIPN9__gnu_cxx15_Hashtable_nodeISt4pairIKPKciEEESaIS8_EED2Ev
.LBB130_20:
	addq	$72, %rsp
	popq	%rbx
	popq	%r12
	popq	%r13
	popq	%r14
	popq	%r15
	popq	%rbp
	.cfi_def_cfa %rsp, 8
	retq
.LBB130_21:
	.cfi_def_cfa %rbp, 16
.Ltmp92:
	movq	%rax, %rbx
	leaq	-48(%rbp), %rdi
	callq	_ZNSaIPN9__gnu_cxx15_Hashtable_nodeISt4pairIKPKciEEEED2Ev
	movq	%rbx, %rdi
	callq	_Unwind_Resume
.LBB130_8:
.Ltmp95:
	movq	%rax, %rdi
	callq	__cxa_begin_catch
	xorl	%r14d, %r14d
	leaq	-104(%rbp), %r15
	movq	-64(%rbp), %r12         # 8-byte Reload
	jmp	.LBB130_9
	.p2align	4, 0x90
.LBB130_18:                             #   in Loop: Header=BB130_9 Depth=1
	addq	$1, %r14
.LBB130_9:                              # =>This Loop Header: Depth=1
                                        #     Child Loop BB130_10 Depth 2
	movq	%r15, %rdi
	callq	_ZNKSt6vectorIPN9__gnu_cxx15_Hashtable_nodeISt4pairIKPKciEEESaIS8_EE4sizeEv
	cmpq	%rax, %r14
	jae	.LBB130_24
	.p2align	4, 0x90
.LBB130_10:                             # %.preheader
                                        #   Parent Loop BB130_9 Depth=1
                                        # =>  This Inner Loop Header: Depth=2
	movq	%r15, %rdi
	movq	%r14, %rsi
	callq	_ZNSt6vectorIPN9__gnu_cxx15_Hashtable_nodeISt4pairIKPKciEEESaIS8_EEixEm
	cmpq	$0, (%rax)
	je	.LBB130_18
# %bb.11:                               #   in Loop: Header=BB130_10 Depth=2
	movq	%r15, %rdi
	movq	%r14, %rsi
	callq	_ZNSt6vectorIPN9__gnu_cxx15_Hashtable_nodeISt4pairIKPKciEEESaIS8_EEixEm
	movq	(%rax), %rax
	movq	(%rax), %rbx
	movq	%r15, %rdi
	movq	%r14, %rsi
	callq	_ZNSt6vectorIPN9__gnu_cxx15_Hashtable_nodeISt4pairIKPKciEEESaIS8_EEixEm
	movq	(%rax), %rsi
.Ltmp99:
	movq	%r12, %rdi
	callq	_ZN9__gnu_cxx9hashtableISt4pairIKPKciES3_NS_4hashIS3_EESt10_Select1stIS5_E5eqstrSaIiEE14_M_delete_nodeEPNS_15_Hashtable_nodeIS5_EE
.Ltmp100:
# %bb.12:                               #   in Loop: Header=BB130_10 Depth=2
	movq	%r15, %rdi
	movq	%r14, %rsi
	callq	_ZNSt6vectorIPN9__gnu_cxx15_Hashtable_nodeISt4pairIKPKciEEESaIS8_EEixEm
	movq	%rbx, (%rax)
	jmp	.LBB130_10
.LBB130_24:
.Ltmp96:
	callq	__cxa_rethrow
.Ltmp97:
# %bb.25:
.LBB130_15:                             # %.loopexit.split-lp
.Ltmp98:
	jmp	.LBB130_16
.LBB130_14:                             # %.loopexit
.Ltmp101:
.LBB130_16:
	movq	%rax, %rbx
.Ltmp102:
	callq	__cxa_end_catch
.Ltmp103:
# %bb.17:
	leaq	-104(%rbp), %rdi
	callq	_ZNSt6vectorIPN9__gnu_cxx15_Hashtable_nodeISt4pairIKPKciEEESaIS8_EED2Ev
	movq	%rbx, %rdi
	callq	_Unwind_Resume
.LBB130_23:
.Ltmp104:
	movq	%rax, %rdi
	callq	__clang_call_terminate
.Lfunc_end130:
	.size	_ZN9__gnu_cxx9hashtableISt4pairIKPKciES3_NS_4hashIS3_EESt10_Select1stIS5_E5eqstrSaIiEE6resizeEm, .Lfunc_end130-_ZN9__gnu_cxx9hashtableISt4pairIKPKciES3_NS_4hashIS3_EESt10_Select1stIS5_E5eqstrSaIiEE6resizeEm
	.cfi_endproc
	.section	.gcc_except_table,"a",@progbits
	.p2align	2
GCC_except_table130:
.Lexception7:
	.byte	255                     # @LPStart Encoding = omit
	.byte	3                       # @TType Encoding = udata4
	.uleb128 .Lttbase4-.Lttbaseref4
.Lttbaseref4:
	.byte	1                       # Call site Encoding = uleb128
	.uleb128 .Lcst_end7-.Lcst_begin7
.Lcst_begin7:
	.uleb128 .Lfunc_begin7-.Lfunc_begin7 # >> Call Site 1 <<
	.uleb128 .Ltmp90-.Lfunc_begin7  #   Call between .Lfunc_begin7 and .Ltmp90
	.byte	0                       #     has no landing pad
	.byte	0                       #   On action: cleanup
	.uleb128 .Ltmp90-.Lfunc_begin7  # >> Call Site 2 <<
	.uleb128 .Ltmp91-.Ltmp90        #   Call between .Ltmp90 and .Ltmp91
	.uleb128 .Ltmp92-.Lfunc_begin7  #     jumps to .Ltmp92
	.byte	0                       #   On action: cleanup
	.uleb128 .Ltmp93-.Lfunc_begin7  # >> Call Site 3 <<
	.uleb128 .Ltmp94-.Ltmp93        #   Call between .Ltmp93 and .Ltmp94
	.uleb128 .Ltmp95-.Lfunc_begin7  #     jumps to .Ltmp95
	.byte	1                       #   On action: 1
	.uleb128 .Ltmp94-.Lfunc_begin7  # >> Call Site 4 <<
	.uleb128 .Ltmp99-.Ltmp94        #   Call between .Ltmp94 and .Ltmp99
	.byte	0                       #     has no landing pad
	.byte	0                       #   On action: cleanup
	.uleb128 .Ltmp99-.Lfunc_begin7  # >> Call Site 5 <<
	.uleb128 .Ltmp100-.Ltmp99       #   Call between .Ltmp99 and .Ltmp100
	.uleb128 .Ltmp101-.Lfunc_begin7 #     jumps to .Ltmp101
	.byte	0                       #   On action: cleanup
	.uleb128 .Ltmp96-.Lfunc_begin7  # >> Call Site 6 <<
	.uleb128 .Ltmp97-.Ltmp96        #   Call between .Ltmp96 and .Ltmp97
	.uleb128 .Ltmp98-.Lfunc_begin7  #     jumps to .Ltmp98
	.byte	0                       #   On action: cleanup
	.uleb128 .Ltmp102-.Lfunc_begin7 # >> Call Site 7 <<
	.uleb128 .Ltmp103-.Ltmp102      #   Call between .Ltmp102 and .Ltmp103
	.uleb128 .Ltmp104-.Lfunc_begin7 #     jumps to .Ltmp104
	.byte	1                       #   On action: 1
	.uleb128 .Ltmp103-.Lfunc_begin7 # >> Call Site 8 <<
	.uleb128 .Lfunc_end130-.Ltmp103 #   Call between .Ltmp103 and .Lfunc_end130
	.byte	0                       #     has no landing pad
	.byte	0                       #   On action: cleanup
.Lcst_end7:
	.byte	1                       # >> Action Record 1 <<
                                        #   Catch TypeInfo 1
	.byte	0                       #   No further actions
	.p2align	2
                                        # >> Catch TypeInfos <<
	.long	0                       # TypeInfo 1
.Lttbase4:
	.p2align	2
                                        # -- End function
	.section	.text._ZNK9__gnu_cxx9hashtableISt4pairIKPKciES3_NS_4hashIS3_EESt10_Select1stIS5_E5eqstrSaIiEE10_M_bkt_numERKS5_,"axG",@progbits,_ZNK9__gnu_cxx9hashtableISt4pairIKPKciES3_NS_4hashIS3_EESt10_Select1stIS5_E5eqstrSaIiEE10_M_bkt_numERKS5_,comdat
	.weak	_ZNK9__gnu_cxx9hashtableISt4pairIKPKciES3_NS_4hashIS3_EESt10_Select1stIS5_E5eqstrSaIiEE10_M_bkt_numERKS5_ # -- Begin function _ZNK9__gnu_cxx9hashtableISt4pairIKPKciES3_NS_4hashIS3_EESt10_Select1stIS5_E5eqstrSaIiEE10_M_bkt_numERKS5_
	.p2align	4, 0x90
	.type	_ZNK9__gnu_cxx9hashtableISt4pairIKPKciES3_NS_4hashIS3_EESt10_Select1stIS5_E5eqstrSaIiEE10_M_bkt_numERKS5_,@function
_ZNK9__gnu_cxx9hashtableISt4pairIKPKciES3_NS_4hashIS3_EESt10_Select1stIS5_E5eqstrSaIiEE10_M_bkt_numERKS5_: # @_ZNK9__gnu_cxx9hashtableISt4pairIKPKciES3_NS_4hashIS3_EESt10_Select1stIS5_E5eqstrSaIiEE10_M_bkt_numERKS5_
	.cfi_startproc
# %bb.0:
	pushq	%rbp
	.cfi_def_cfa_offset 16
	.cfi_offset %rbp, -16
	movq	%rsp, %rbp
	.cfi_def_cfa_register %rbp
	pushq	%rbx
	pushq	%rax
	.cfi_offset %rbx, -24
	movq	%rdi, %rbx
	addq	$3, %rdi
	callq	_ZNKSt10_Select1stISt4pairIKPKciEEclERKS4_
	movq	%rbx, %rdi
	movq	%rax, %rsi
	addq	$8, %rsp
	popq	%rbx
	popq	%rbp
	.cfi_def_cfa %rsp, 8
	jmp	_ZNK9__gnu_cxx9hashtableISt4pairIKPKciES3_NS_4hashIS3_EESt10_Select1stIS5_E5eqstrSaIiEE14_M_bkt_num_keyERS4_ # TAILCALL
.Lfunc_end131:
	.size	_ZNK9__gnu_cxx9hashtableISt4pairIKPKciES3_NS_4hashIS3_EESt10_Select1stIS5_E5eqstrSaIiEE10_M_bkt_numERKS5_, .Lfunc_end131-_ZNK9__gnu_cxx9hashtableISt4pairIKPKciES3_NS_4hashIS3_EESt10_Select1stIS5_E5eqstrSaIiEE10_M_bkt_numERKS5_
	.cfi_endproc
                                        # -- End function
	.section	.text._ZNK5eqstrclEPKcS1_,"axG",@progbits,_ZNK5eqstrclEPKcS1_,comdat
	.weak	_ZNK5eqstrclEPKcS1_     # -- Begin function _ZNK5eqstrclEPKcS1_
	.p2align	4, 0x90
	.type	_ZNK5eqstrclEPKcS1_,@function
_ZNK5eqstrclEPKcS1_:                    # @_ZNK5eqstrclEPKcS1_
	.cfi_startproc
# %bb.0:
	pushq	%rbp
	.cfi_def_cfa_offset 16
	.cfi_offset %rbp, -16
	movq	%rsp, %rbp
	.cfi_def_cfa_register %rbp
	movq	%rsi, %rdi
	movq	%rdx, %rsi
	callq	strcmp
	testl	%eax, %eax
	sete	%al
	popq	%rbp
	.cfi_def_cfa %rsp, 8
	retq
.Lfunc_end132:
	.size	_ZNK5eqstrclEPKcS1_, .Lfunc_end132-_ZNK5eqstrclEPKcS1_
	.cfi_endproc
                                        # -- End function
	.section	.text._ZNKSt10_Select1stISt4pairIKPKciEEclERS4_,"axG",@progbits,_ZNKSt10_Select1stISt4pairIKPKciEEclERS4_,comdat
	.weak	_ZNKSt10_Select1stISt4pairIKPKciEEclERS4_ # -- Begin function _ZNKSt10_Select1stISt4pairIKPKciEEclERS4_
	.p2align	4, 0x90
	.type	_ZNKSt10_Select1stISt4pairIKPKciEEclERS4_,@function
_ZNKSt10_Select1stISt4pairIKPKciEEclERS4_: # @_ZNKSt10_Select1stISt4pairIKPKciEEclERS4_
	.cfi_startproc
# %bb.0:
	pushq	%rbp
	.cfi_def_cfa_offset 16
	.cfi_offset %rbp, -16
	movq	%rsp, %rbp
	.cfi_def_cfa_register %rbp
	movq	%rsi, %rax
	popq	%rbp
	.cfi_def_cfa %rsp, 8
	retq
.Lfunc_end133:
	.size	_ZNKSt10_Select1stISt4pairIKPKciEEclERS4_, .Lfunc_end133-_ZNKSt10_Select1stISt4pairIKPKciEEclERS4_
	.cfi_endproc
                                        # -- End function
	.section	.text._ZNKSt10_Select1stISt4pairIKPKciEEclERKS4_,"axG",@progbits,_ZNKSt10_Select1stISt4pairIKPKciEEclERKS4_,comdat
	.weak	_ZNKSt10_Select1stISt4pairIKPKciEEclERKS4_ # -- Begin function _ZNKSt10_Select1stISt4pairIKPKciEEclERKS4_
	.p2align	4, 0x90
	.type	_ZNKSt10_Select1stISt4pairIKPKciEEclERKS4_,@function
_ZNKSt10_Select1stISt4pairIKPKciEEclERKS4_: # @_ZNKSt10_Select1stISt4pairIKPKciEEclERKS4_
	.cfi_startproc
# %bb.0:
	pushq	%rbp
	.cfi_def_cfa_offset 16
	.cfi_offset %rbp, -16
	movq	%rsp, %rbp
	.cfi_def_cfa_register %rbp
	movq	%rsi, %rax
	popq	%rbp
	.cfi_def_cfa %rsp, 8
	retq
.Lfunc_end134:
	.size	_ZNKSt10_Select1stISt4pairIKPKciEEclERKS4_, .Lfunc_end134-_ZNKSt10_Select1stISt4pairIKPKciEEclERKS4_
	.cfi_endproc
                                        # -- End function
	.section	.text._ZN9__gnu_cxx9hashtableISt4pairIKPKciES3_NS_4hashIS3_EESt10_Select1stIS5_E5eqstrSaIiEE11_M_new_nodeERKS5_,"axG",@progbits,_ZN9__gnu_cxx9hashtableISt4pairIKPKciES3_NS_4hashIS3_EESt10_Select1stIS5_E5eqstrSaIiEE11_M_new_nodeERKS5_,comdat
	.weak	_ZN9__gnu_cxx9hashtableISt4pairIKPKciES3_NS_4hashIS3_EESt10_Select1stIS5_E5eqstrSaIiEE11_M_new_nodeERKS5_ # -- Begin function _ZN9__gnu_cxx9hashtableISt4pairIKPKciES3_NS_4hashIS3_EESt10_Select1stIS5_E5eqstrSaIiEE11_M_new_nodeERKS5_
	.p2align	4, 0x90
	.type	_ZN9__gnu_cxx9hashtableISt4pairIKPKciES3_NS_4hashIS3_EESt10_Select1stIS5_E5eqstrSaIiEE11_M_new_nodeERKS5_,@function
_ZN9__gnu_cxx9hashtableISt4pairIKPKciES3_NS_4hashIS3_EESt10_Select1stIS5_E5eqstrSaIiEE11_M_new_nodeERKS5_: # @_ZN9__gnu_cxx9hashtableISt4pairIKPKciES3_NS_4hashIS3_EESt10_Select1stIS5_E5eqstrSaIiEE11_M_new_nodeERKS5_
	.cfi_startproc
# %bb.0:
	pushq	%rbp
	.cfi_def_cfa_offset 16
	.cfi_offset %rbp, -16
	movq	%rsp, %rbp
	.cfi_def_cfa_register %rbp
	pushq	%r15
	pushq	%r14
	pushq	%r12
	pushq	%rbx
	subq	$16, %rsp
	.cfi_offset %rbx, -48
	.cfi_offset %r12, -40
	.cfi_offset %r14, -32
	.cfi_offset %r15, -24
	movq	%rsi, %r14
	movq	%rdi, %r15
	callq	_ZN9__gnu_cxx9hashtableISt4pairIKPKciES3_NS_4hashIS3_EESt10_Select1stIS5_E5eqstrSaIiEE11_M_get_nodeEv
	movq	%rax, %rbx
	movq	$0, (%rax)
	leaq	-40(%rbp), %r12
	movq	%r12, %rdi
	movq	%r15, %rsi
	callq	_ZNK9__gnu_cxx9hashtableISt4pairIKPKciES3_NS_4hashIS3_EESt10_Select1stIS5_E5eqstrSaIiEE13get_allocatorEv
	leaq	8(%rbx), %rsi
	movq	%r12, %rdi
	movq	%r14, %rdx
	callq	_ZN9__gnu_cxx13new_allocatorISt4pairIKPKciEE9constructIS5_JRKS5_EEEvPT_DpOT0_
	movq	%r12, %rdi
	callq	_ZNSaISt4pairIKPKciEED2Ev
	movq	%rbx, %rax
	addq	$16, %rsp
	popq	%rbx
	popq	%r12
	popq	%r14
	popq	%r15
	popq	%rbp
	.cfi_def_cfa %rsp, 8
	retq
.Lfunc_end135:
	.size	_ZN9__gnu_cxx9hashtableISt4pairIKPKciES3_NS_4hashIS3_EESt10_Select1stIS5_E5eqstrSaIiEE11_M_new_nodeERKS5_, .Lfunc_end135-_ZN9__gnu_cxx9hashtableISt4pairIKPKciES3_NS_4hashIS3_EESt10_Select1stIS5_E5eqstrSaIiEE11_M_new_nodeERKS5_
	.cfi_endproc
                                        # -- End function
	.section	.text._ZNKSt12_Vector_baseIPN9__gnu_cxx15_Hashtable_nodeISt4pairIKPKciEEESaIS8_EE13get_allocatorEv,"axG",@progbits,_ZNKSt12_Vector_baseIPN9__gnu_cxx15_Hashtable_nodeISt4pairIKPKciEEESaIS8_EE13get_allocatorEv,comdat
	.weak	_ZNKSt12_Vector_baseIPN9__gnu_cxx15_Hashtable_nodeISt4pairIKPKciEEESaIS8_EE13get_allocatorEv # -- Begin function _ZNKSt12_Vector_baseIPN9__gnu_cxx15_Hashtable_nodeISt4pairIKPKciEEESaIS8_EE13get_allocatorEv
	.p2align	4, 0x90
	.type	_ZNKSt12_Vector_baseIPN9__gnu_cxx15_Hashtable_nodeISt4pairIKPKciEEESaIS8_EE13get_allocatorEv,@function
_ZNKSt12_Vector_baseIPN9__gnu_cxx15_Hashtable_nodeISt4pairIKPKciEEESaIS8_EE13get_allocatorEv: # @_ZNKSt12_Vector_baseIPN9__gnu_cxx15_Hashtable_nodeISt4pairIKPKciEEESaIS8_EE13get_allocatorEv
	.cfi_startproc
# %bb.0:
	pushq	%rbp
	.cfi_def_cfa_offset 16
	.cfi_offset %rbp, -16
	movq	%rsp, %rbp
	.cfi_def_cfa_register %rbp
	pushq	%rbx
	pushq	%rax
	.cfi_offset %rbx, -24
	movq	%rdi, %rbx
	movq	%rsi, %rdi
	callq	_ZNKSt12_Vector_baseIPN9__gnu_cxx15_Hashtable_nodeISt4pairIKPKciEEESaIS8_EE19_M_get_Tp_allocatorEv
	movq	%rbx, %rdi
	movq	%rax, %rsi
	callq	_ZNSaIPN9__gnu_cxx15_Hashtable_nodeISt4pairIKPKciEEEEC2ERKS8_
	movq	%rbx, %rax
	addq	$8, %rsp
	popq	%rbx
	popq	%rbp
	.cfi_def_cfa %rsp, 8
	retq
.Lfunc_end136:
	.size	_ZNKSt12_Vector_baseIPN9__gnu_cxx15_Hashtable_nodeISt4pairIKPKciEEESaIS8_EE13get_allocatorEv, .Lfunc_end136-_ZNKSt12_Vector_baseIPN9__gnu_cxx15_Hashtable_nodeISt4pairIKPKciEEESaIS8_EE13get_allocatorEv
	.cfi_endproc
                                        # -- End function
	.section	.text._ZNSt6vectorIPN9__gnu_cxx15_Hashtable_nodeISt4pairIKPKciEEESaIS8_EEC2EmRKS8_RKS9_,"axG",@progbits,_ZNSt6vectorIPN9__gnu_cxx15_Hashtable_nodeISt4pairIKPKciEEESaIS8_EEC2EmRKS8_RKS9_,comdat
	.weak	_ZNSt6vectorIPN9__gnu_cxx15_Hashtable_nodeISt4pairIKPKciEEESaIS8_EEC2EmRKS8_RKS9_ # -- Begin function _ZNSt6vectorIPN9__gnu_cxx15_Hashtable_nodeISt4pairIKPKciEEESaIS8_EEC2EmRKS8_RKS9_
	.p2align	4, 0x90
	.type	_ZNSt6vectorIPN9__gnu_cxx15_Hashtable_nodeISt4pairIKPKciEEESaIS8_EEC2EmRKS8_RKS9_,@function
_ZNSt6vectorIPN9__gnu_cxx15_Hashtable_nodeISt4pairIKPKciEEESaIS8_EEC2EmRKS8_RKS9_: # @_ZNSt6vectorIPN9__gnu_cxx15_Hashtable_nodeISt4pairIKPKciEEESaIS8_EEC2EmRKS8_RKS9_
.Lfunc_begin8:
	.cfi_startproc
	.cfi_personality 3, __gxx_personality_v0
	.cfi_lsda 3, .Lexception8
# %bb.0:
	pushq	%rbp
	.cfi_def_cfa_offset 16
	.cfi_offset %rbp, -16
	movq	%rsp, %rbp
	.cfi_def_cfa_register %rbp
	pushq	%r15
	pushq	%r14
	pushq	%r12
	pushq	%rbx
	.cfi_offset %rbx, -48
	.cfi_offset %r12, -40
	.cfi_offset %r14, -32
	.cfi_offset %r15, -24
	movq	%rcx, %rbx
	movq	%rdx, %r15
	movq	%rsi, %r12
	movq	%rdi, %r14
	movq	%rsi, %rdi
	movq	%rcx, %rsi
	callq	_ZNSt6vectorIPN9__gnu_cxx15_Hashtable_nodeISt4pairIKPKciEEESaIS8_EE17_S_check_init_lenEmRKS9_
	movq	%r14, %rdi
	movq	%rax, %rsi
	movq	%rbx, %rdx
	callq	_ZNSt12_Vector_baseIPN9__gnu_cxx15_Hashtable_nodeISt4pairIKPKciEEESaIS8_EEC2EmRKS9_
.Ltmp105:
	movq	%r14, %rdi
	movq	%r12, %rsi
	movq	%r15, %rdx
	callq	_ZNSt6vectorIPN9__gnu_cxx15_Hashtable_nodeISt4pairIKPKciEEESaIS8_EE18_M_fill_initializeEmRKS8_
.Ltmp106:
# %bb.1:
	popq	%rbx
	popq	%r12
	popq	%r14
	popq	%r15
	popq	%rbp
	.cfi_def_cfa %rsp, 8
	retq
.LBB137_2:
	.cfi_def_cfa %rbp, 16
.Ltmp107:
	movq	%rax, %rbx
	movq	%r14, %rdi
	callq	_ZNSt12_Vector_baseIPN9__gnu_cxx15_Hashtable_nodeISt4pairIKPKciEEESaIS8_EED2Ev
	movq	%rbx, %rdi
	callq	_Unwind_Resume
.Lfunc_end137:
	.size	_ZNSt6vectorIPN9__gnu_cxx15_Hashtable_nodeISt4pairIKPKciEEESaIS8_EEC2EmRKS8_RKS9_, .Lfunc_end137-_ZNSt6vectorIPN9__gnu_cxx15_Hashtable_nodeISt4pairIKPKciEEESaIS8_EEC2EmRKS8_RKS9_
	.cfi_endproc
	.section	.gcc_except_table,"a",@progbits
	.p2align	2
GCC_except_table137:
.Lexception8:
	.byte	255                     # @LPStart Encoding = omit
	.byte	255                     # @TType Encoding = omit
	.byte	1                       # Call site Encoding = uleb128
	.uleb128 .Lcst_end8-.Lcst_begin8
.Lcst_begin8:
	.uleb128 .Lfunc_begin8-.Lfunc_begin8 # >> Call Site 1 <<
	.uleb128 .Ltmp105-.Lfunc_begin8 #   Call between .Lfunc_begin8 and .Ltmp105
	.byte	0                       #     has no landing pad
	.byte	0                       #   On action: cleanup
	.uleb128 .Ltmp105-.Lfunc_begin8 # >> Call Site 2 <<
	.uleb128 .Ltmp106-.Ltmp105      #   Call between .Ltmp105 and .Ltmp106
	.uleb128 .Ltmp107-.Lfunc_begin8 #     jumps to .Ltmp107
	.byte	0                       #   On action: cleanup
	.uleb128 .Ltmp106-.Lfunc_begin8 # >> Call Site 3 <<
	.uleb128 .Lfunc_end137-.Ltmp106 #   Call between .Ltmp106 and .Lfunc_end137
	.byte	0                       #     has no landing pad
	.byte	0                       #   On action: cleanup
.Lcst_end8:
	.p2align	2
                                        # -- End function
	.section	.text._ZNK9__gnu_cxx9hashtableISt4pairIKPKciES3_NS_4hashIS3_EESt10_Select1stIS5_E5eqstrSaIiEE10_M_bkt_numERKS5_m,"axG",@progbits,_ZNK9__gnu_cxx9hashtableISt4pairIKPKciES3_NS_4hashIS3_EESt10_Select1stIS5_E5eqstrSaIiEE10_M_bkt_numERKS5_m,comdat
	.weak	_ZNK9__gnu_cxx9hashtableISt4pairIKPKciES3_NS_4hashIS3_EESt10_Select1stIS5_E5eqstrSaIiEE10_M_bkt_numERKS5_m # -- Begin function _ZNK9__gnu_cxx9hashtableISt4pairIKPKciES3_NS_4hashIS3_EESt10_Select1stIS5_E5eqstrSaIiEE10_M_bkt_numERKS5_m
	.p2align	4, 0x90
	.type	_ZNK9__gnu_cxx9hashtableISt4pairIKPKciES3_NS_4hashIS3_EESt10_Select1stIS5_E5eqstrSaIiEE10_M_bkt_numERKS5_m,@function
_ZNK9__gnu_cxx9hashtableISt4pairIKPKciES3_NS_4hashIS3_EESt10_Select1stIS5_E5eqstrSaIiEE10_M_bkt_numERKS5_m: # @_ZNK9__gnu_cxx9hashtableISt4pairIKPKciES3_NS_4hashIS3_EESt10_Select1stIS5_E5eqstrSaIiEE10_M_bkt_numERKS5_m
	.cfi_startproc
# %bb.0:
	pushq	%rbp
	.cfi_def_cfa_offset 16
	.cfi_offset %rbp, -16
	movq	%rsp, %rbp
	.cfi_def_cfa_register %rbp
	pushq	%r14
	pushq	%rbx
	.cfi_offset %rbx, -32
	.cfi_offset %r14, -24
	movq	%rdx, %r14
	movq	%rdi, %rbx
	addq	$3, %rdi
	callq	_ZNKSt10_Select1stISt4pairIKPKciEEclERKS4_
	movq	%rbx, %rdi
	movq	%rax, %rsi
	movq	%r14, %rdx
	popq	%rbx
	popq	%r14
	popq	%rbp
	.cfi_def_cfa %rsp, 8
	jmp	_ZNK9__gnu_cxx9hashtableISt4pairIKPKciES3_NS_4hashIS3_EESt10_Select1stIS5_E5eqstrSaIiEE14_M_bkt_num_keyERS4_m # TAILCALL
.Lfunc_end138:
	.size	_ZNK9__gnu_cxx9hashtableISt4pairIKPKciES3_NS_4hashIS3_EESt10_Select1stIS5_E5eqstrSaIiEE10_M_bkt_numERKS5_m, .Lfunc_end138-_ZNK9__gnu_cxx9hashtableISt4pairIKPKciES3_NS_4hashIS3_EESt10_Select1stIS5_E5eqstrSaIiEE10_M_bkt_numERKS5_m
	.cfi_endproc
                                        # -- End function
	.section	.text._ZNSt6vectorIPN9__gnu_cxx15_Hashtable_nodeISt4pairIKPKciEEESaIS8_EE4swapERSA_,"axG",@progbits,_ZNSt6vectorIPN9__gnu_cxx15_Hashtable_nodeISt4pairIKPKciEEESaIS8_EE4swapERSA_,comdat
	.weak	_ZNSt6vectorIPN9__gnu_cxx15_Hashtable_nodeISt4pairIKPKciEEESaIS8_EE4swapERSA_ # -- Begin function _ZNSt6vectorIPN9__gnu_cxx15_Hashtable_nodeISt4pairIKPKciEEESaIS8_EE4swapERSA_
	.p2align	4, 0x90
	.type	_ZNSt6vectorIPN9__gnu_cxx15_Hashtable_nodeISt4pairIKPKciEEESaIS8_EE4swapERSA_,@function
_ZNSt6vectorIPN9__gnu_cxx15_Hashtable_nodeISt4pairIKPKciEEESaIS8_EE4swapERSA_: # @_ZNSt6vectorIPN9__gnu_cxx15_Hashtable_nodeISt4pairIKPKciEEESaIS8_EE4swapERSA_
.Lfunc_begin9:
	.cfi_startproc
	.cfi_personality 3, __gxx_personality_v0
	.cfi_lsda 3, .Lexception9
# %bb.0:
	pushq	%rbp
	.cfi_def_cfa_offset 16
	.cfi_offset %rbp, -16
	movq	%rsp, %rbp
	.cfi_def_cfa_register %rbp
	pushq	%r14
	pushq	%rbx
	.cfi_offset %rbx, -32
	.cfi_offset %r14, -24
	movq	%rsi, %r14
	movq	%rdi, %rbx
	callq	_ZNSt12_Vector_baseIPN9__gnu_cxx15_Hashtable_nodeISt4pairIKPKciEEESaIS8_EE17_Vector_impl_data12_M_swap_dataERSB_
	movq	%rbx, %rdi
	callq	_ZNSt12_Vector_baseIPN9__gnu_cxx15_Hashtable_nodeISt4pairIKPKciEEESaIS8_EE19_M_get_Tp_allocatorEv
	movq	%rax, %rbx
	movq	%r14, %rdi
	callq	_ZNSt12_Vector_baseIPN9__gnu_cxx15_Hashtable_nodeISt4pairIKPKciEEESaIS8_EE19_M_get_Tp_allocatorEv
.Ltmp108:
	movq	%rbx, %rdi
	movq	%rax, %rsi
	callq	_ZN9__gnu_cxx14__alloc_traitsISaIPNS_15_Hashtable_nodeISt4pairIKPKciEEEES8_E10_S_on_swapERS9_SB_
.Ltmp109:
# %bb.1:
	popq	%rbx
	popq	%r14
	popq	%rbp
	.cfi_def_cfa %rsp, 8
	retq
.LBB139_2:
	.cfi_def_cfa %rbp, 16
.Ltmp110:
	movq	%rax, %rdi
	callq	__clang_call_terminate
.Lfunc_end139:
	.size	_ZNSt6vectorIPN9__gnu_cxx15_Hashtable_nodeISt4pairIKPKciEEESaIS8_EE4swapERSA_, .Lfunc_end139-_ZNSt6vectorIPN9__gnu_cxx15_Hashtable_nodeISt4pairIKPKciEEESaIS8_EE4swapERSA_
	.cfi_endproc
	.section	.gcc_except_table,"a",@progbits
	.p2align	2
GCC_except_table139:
.Lexception9:
	.byte	255                     # @LPStart Encoding = omit
	.byte	3                       # @TType Encoding = udata4
	.uleb128 .Lttbase5-.Lttbaseref5
.Lttbaseref5:
	.byte	1                       # Call site Encoding = uleb128
	.uleb128 .Lcst_end9-.Lcst_begin9
.Lcst_begin9:
	.uleb128 .Ltmp108-.Lfunc_begin9 # >> Call Site 1 <<
	.uleb128 .Ltmp109-.Ltmp108      #   Call between .Ltmp108 and .Ltmp109
	.uleb128 .Ltmp110-.Lfunc_begin9 #     jumps to .Ltmp110
	.byte	1                       #   On action: 1
.Lcst_end9:
	.byte	1                       # >> Action Record 1 <<
                                        #   Catch TypeInfo 1
	.byte	0                       #   No further actions
	.p2align	2
                                        # >> Catch TypeInfos <<
	.long	0                       # TypeInfo 1
.Lttbase5:
	.p2align	2
                                        # -- End function
	.section	.text._ZNSaIPN9__gnu_cxx15_Hashtable_nodeISt4pairIKPKciEEEEC2ERKS8_,"axG",@progbits,_ZNSaIPN9__gnu_cxx15_Hashtable_nodeISt4pairIKPKciEEEEC2ERKS8_,comdat
	.weak	_ZNSaIPN9__gnu_cxx15_Hashtable_nodeISt4pairIKPKciEEEEC2ERKS8_ # -- Begin function _ZNSaIPN9__gnu_cxx15_Hashtable_nodeISt4pairIKPKciEEEEC2ERKS8_
	.p2align	4, 0x90
	.type	_ZNSaIPN9__gnu_cxx15_Hashtable_nodeISt4pairIKPKciEEEEC2ERKS8_,@function
_ZNSaIPN9__gnu_cxx15_Hashtable_nodeISt4pairIKPKciEEEEC2ERKS8_: # @_ZNSaIPN9__gnu_cxx15_Hashtable_nodeISt4pairIKPKciEEEEC2ERKS8_
	.cfi_startproc
# %bb.0:
	pushq	%rbp
	.cfi_def_cfa_offset 16
	.cfi_offset %rbp, -16
	movq	%rsp, %rbp
	.cfi_def_cfa_register %rbp
	popq	%rbp
	.cfi_def_cfa %rsp, 8
	jmp	_ZN9__gnu_cxx13new_allocatorIPNS_15_Hashtable_nodeISt4pairIKPKciEEEEC2ERKS9_ # TAILCALL
.Lfunc_end140:
	.size	_ZNSaIPN9__gnu_cxx15_Hashtable_nodeISt4pairIKPKciEEEEC2ERKS8_, .Lfunc_end140-_ZNSaIPN9__gnu_cxx15_Hashtable_nodeISt4pairIKPKciEEEEC2ERKS8_
	.cfi_endproc
                                        # -- End function
	.section	.text._ZNSt6vectorIPN9__gnu_cxx15_Hashtable_nodeISt4pairIKPKciEEESaIS8_EE17_S_check_init_lenEmRKS9_,"axG",@progbits,_ZNSt6vectorIPN9__gnu_cxx15_Hashtable_nodeISt4pairIKPKciEEESaIS8_EE17_S_check_init_lenEmRKS9_,comdat
	.weak	_ZNSt6vectorIPN9__gnu_cxx15_Hashtable_nodeISt4pairIKPKciEEESaIS8_EE17_S_check_init_lenEmRKS9_ # -- Begin function _ZNSt6vectorIPN9__gnu_cxx15_Hashtable_nodeISt4pairIKPKciEEESaIS8_EE17_S_check_init_lenEmRKS9_
	.p2align	4, 0x90
	.type	_ZNSt6vectorIPN9__gnu_cxx15_Hashtable_nodeISt4pairIKPKciEEESaIS8_EE17_S_check_init_lenEmRKS9_,@function
_ZNSt6vectorIPN9__gnu_cxx15_Hashtable_nodeISt4pairIKPKciEEESaIS8_EE17_S_check_init_lenEmRKS9_: # @_ZNSt6vectorIPN9__gnu_cxx15_Hashtable_nodeISt4pairIKPKciEEESaIS8_EE17_S_check_init_lenEmRKS9_
	.cfi_startproc
# %bb.0:
	pushq	%rbp
	.cfi_def_cfa_offset 16
	.cfi_offset %rbp, -16
	movq	%rsp, %rbp
	.cfi_def_cfa_register %rbp
	pushq	%r15
	pushq	%r14
	pushq	%rbx
	pushq	%rax
	.cfi_offset %rbx, -40
	.cfi_offset %r14, -32
	.cfi_offset %r15, -24
	movq	%rdi, %rbx
	leaq	-32(%rbp), %r14
	movq	%r14, %rdi
	callq	_ZNSaIPN9__gnu_cxx15_Hashtable_nodeISt4pairIKPKciEEEEC2ERKS8_
	movq	%r14, %rdi
	callq	_ZNSt6vectorIPN9__gnu_cxx15_Hashtable_nodeISt4pairIKPKciEEESaIS8_EE11_S_max_sizeERKS9_
	movq	%rax, %r15
	movq	%r14, %rdi
	callq	_ZNSaIPN9__gnu_cxx15_Hashtable_nodeISt4pairIKPKciEEEED2Ev
	cmpq	%rbx, %r15
	jb	.LBB141_2
# %bb.1:
	movq	%rbx, %rax
	addq	$8, %rsp
	popq	%rbx
	popq	%r14
	popq	%r15
	popq	%rbp
	.cfi_def_cfa %rsp, 8
	retq
.LBB141_2:
	.cfi_def_cfa %rbp, 16
	movl	$.L.str.6, %edi
	callq	_ZSt20__throw_length_errorPKc
.Lfunc_end141:
	.size	_ZNSt6vectorIPN9__gnu_cxx15_Hashtable_nodeISt4pairIKPKciEEESaIS8_EE17_S_check_init_lenEmRKS9_, .Lfunc_end141-_ZNSt6vectorIPN9__gnu_cxx15_Hashtable_nodeISt4pairIKPKciEEESaIS8_EE17_S_check_init_lenEmRKS9_
	.cfi_endproc
                                        # -- End function
	.section	.text._ZNSt12_Vector_baseIPN9__gnu_cxx15_Hashtable_nodeISt4pairIKPKciEEESaIS8_EEC2EmRKS9_,"axG",@progbits,_ZNSt12_Vector_baseIPN9__gnu_cxx15_Hashtable_nodeISt4pairIKPKciEEESaIS8_EEC2EmRKS9_,comdat
	.weak	_ZNSt12_Vector_baseIPN9__gnu_cxx15_Hashtable_nodeISt4pairIKPKciEEESaIS8_EEC2EmRKS9_ # -- Begin function _ZNSt12_Vector_baseIPN9__gnu_cxx15_Hashtable_nodeISt4pairIKPKciEEESaIS8_EEC2EmRKS9_
	.p2align	4, 0x90
	.type	_ZNSt12_Vector_baseIPN9__gnu_cxx15_Hashtable_nodeISt4pairIKPKciEEESaIS8_EEC2EmRKS9_,@function
_ZNSt12_Vector_baseIPN9__gnu_cxx15_Hashtable_nodeISt4pairIKPKciEEESaIS8_EEC2EmRKS9_: # @_ZNSt12_Vector_baseIPN9__gnu_cxx15_Hashtable_nodeISt4pairIKPKciEEESaIS8_EEC2EmRKS9_
.Lfunc_begin10:
	.cfi_startproc
	.cfi_personality 3, __gxx_personality_v0
	.cfi_lsda 3, .Lexception10
# %bb.0:
	pushq	%rbp
	.cfi_def_cfa_offset 16
	.cfi_offset %rbp, -16
	movq	%rsp, %rbp
	.cfi_def_cfa_register %rbp
	pushq	%r14
	pushq	%rbx
	.cfi_offset %rbx, -32
	.cfi_offset %r14, -24
	movq	%rsi, %r14
	movq	%rdi, %rbx
	movq	%rdx, %rsi
	callq	_ZNSt12_Vector_baseIPN9__gnu_cxx15_Hashtable_nodeISt4pairIKPKciEEESaIS8_EE12_Vector_implC2ERKS9_
.Ltmp111:
	movq	%rbx, %rdi
	movq	%r14, %rsi
	callq	_ZNSt12_Vector_baseIPN9__gnu_cxx15_Hashtable_nodeISt4pairIKPKciEEESaIS8_EE17_M_create_storageEm
.Ltmp112:
# %bb.1:
	popq	%rbx
	popq	%r14
	popq	%rbp
	.cfi_def_cfa %rsp, 8
	retq
.LBB142_2:
	.cfi_def_cfa %rbp, 16
.Ltmp113:
	movq	%rax, %r14
	movq	%rbx, %rdi
	callq	_ZNSt12_Vector_baseIPN9__gnu_cxx15_Hashtable_nodeISt4pairIKPKciEEESaIS8_EE12_Vector_implD2Ev
	movq	%r14, %rdi
	callq	_Unwind_Resume
.Lfunc_end142:
	.size	_ZNSt12_Vector_baseIPN9__gnu_cxx15_Hashtable_nodeISt4pairIKPKciEEESaIS8_EEC2EmRKS9_, .Lfunc_end142-_ZNSt12_Vector_baseIPN9__gnu_cxx15_Hashtable_nodeISt4pairIKPKciEEESaIS8_EEC2EmRKS9_
	.cfi_endproc
	.section	.gcc_except_table,"a",@progbits
	.p2align	2
GCC_except_table142:
.Lexception10:
	.byte	255                     # @LPStart Encoding = omit
	.byte	255                     # @TType Encoding = omit
	.byte	1                       # Call site Encoding = uleb128
	.uleb128 .Lcst_end10-.Lcst_begin10
.Lcst_begin10:
	.uleb128 .Ltmp111-.Lfunc_begin10 # >> Call Site 1 <<
	.uleb128 .Ltmp112-.Ltmp111      #   Call between .Ltmp111 and .Ltmp112
	.uleb128 .Ltmp113-.Lfunc_begin10 #     jumps to .Ltmp113
	.byte	0                       #   On action: cleanup
	.uleb128 .Ltmp112-.Lfunc_begin10 # >> Call Site 2 <<
	.uleb128 .Lfunc_end142-.Ltmp112 #   Call between .Ltmp112 and .Lfunc_end142
	.byte	0                       #     has no landing pad
	.byte	0                       #   On action: cleanup
.Lcst_end10:
	.p2align	2
                                        # -- End function
	.section	.text._ZNSt6vectorIPN9__gnu_cxx15_Hashtable_nodeISt4pairIKPKciEEESaIS8_EE18_M_fill_initializeEmRKS8_,"axG",@progbits,_ZNSt6vectorIPN9__gnu_cxx15_Hashtable_nodeISt4pairIKPKciEEESaIS8_EE18_M_fill_initializeEmRKS8_,comdat
	.weak	_ZNSt6vectorIPN9__gnu_cxx15_Hashtable_nodeISt4pairIKPKciEEESaIS8_EE18_M_fill_initializeEmRKS8_ # -- Begin function _ZNSt6vectorIPN9__gnu_cxx15_Hashtable_nodeISt4pairIKPKciEEESaIS8_EE18_M_fill_initializeEmRKS8_
	.p2align	4, 0x90
	.type	_ZNSt6vectorIPN9__gnu_cxx15_Hashtable_nodeISt4pairIKPKciEEESaIS8_EE18_M_fill_initializeEmRKS8_,@function
_ZNSt6vectorIPN9__gnu_cxx15_Hashtable_nodeISt4pairIKPKciEEESaIS8_EE18_M_fill_initializeEmRKS8_: # @_ZNSt6vectorIPN9__gnu_cxx15_Hashtable_nodeISt4pairIKPKciEEESaIS8_EE18_M_fill_initializeEmRKS8_
	.cfi_startproc
# %bb.0:
	pushq	%rbp
	.cfi_def_cfa_offset 16
	.cfi_offset %rbp, -16
	movq	%rsp, %rbp
	.cfi_def_cfa_register %rbp
	pushq	%r15
	pushq	%r14
	pushq	%r12
	pushq	%rbx
	.cfi_offset %rbx, -48
	.cfi_offset %r12, -40
	.cfi_offset %r14, -32
	.cfi_offset %r15, -24
	movq	%rdx, %r14
	movq	%rsi, %r15
	movq	%rdi, %rbx
	movq	(%rdi), %r12
	callq	_ZNSt12_Vector_baseIPN9__gnu_cxx15_Hashtable_nodeISt4pairIKPKciEEESaIS8_EE19_M_get_Tp_allocatorEv
	movq	%r12, %rdi
	movq	%r15, %rsi
	movq	%r14, %rdx
	movq	%rax, %rcx
	callq	_ZSt24__uninitialized_fill_n_aIPPN9__gnu_cxx15_Hashtable_nodeISt4pairIKPKciEEEmS8_S8_ET_SA_T0_RKT1_RSaIT2_E
	movq	%rax, 8(%rbx)
	popq	%rbx
	popq	%r12
	popq	%r14
	popq	%r15
	popq	%rbp
	.cfi_def_cfa %rsp, 8
	retq
.Lfunc_end143:
	.size	_ZNSt6vectorIPN9__gnu_cxx15_Hashtable_nodeISt4pairIKPKciEEESaIS8_EE18_M_fill_initializeEmRKS8_, .Lfunc_end143-_ZNSt6vectorIPN9__gnu_cxx15_Hashtable_nodeISt4pairIKPKciEEESaIS8_EE18_M_fill_initializeEmRKS8_
	.cfi_endproc
                                        # -- End function
	.section	.text._ZNSt12_Vector_baseIPN9__gnu_cxx15_Hashtable_nodeISt4pairIKPKciEEESaIS8_EE17_M_create_storageEm,"axG",@progbits,_ZNSt12_Vector_baseIPN9__gnu_cxx15_Hashtable_nodeISt4pairIKPKciEEESaIS8_EE17_M_create_storageEm,comdat
	.weak	_ZNSt12_Vector_baseIPN9__gnu_cxx15_Hashtable_nodeISt4pairIKPKciEEESaIS8_EE17_M_create_storageEm # -- Begin function _ZNSt12_Vector_baseIPN9__gnu_cxx15_Hashtable_nodeISt4pairIKPKciEEESaIS8_EE17_M_create_storageEm
	.p2align	4, 0x90
	.type	_ZNSt12_Vector_baseIPN9__gnu_cxx15_Hashtable_nodeISt4pairIKPKciEEESaIS8_EE17_M_create_storageEm,@function
_ZNSt12_Vector_baseIPN9__gnu_cxx15_Hashtable_nodeISt4pairIKPKciEEESaIS8_EE17_M_create_storageEm: # @_ZNSt12_Vector_baseIPN9__gnu_cxx15_Hashtable_nodeISt4pairIKPKciEEESaIS8_EE17_M_create_storageEm
	.cfi_startproc
# %bb.0:
	pushq	%rbp
	.cfi_def_cfa_offset 16
	.cfi_offset %rbp, -16
	movq	%rsp, %rbp
	.cfi_def_cfa_register %rbp
	pushq	%r14
	pushq	%rbx
	.cfi_offset %rbx, -32
	.cfi_offset %r14, -24
	movq	%rsi, %r14
	movq	%rdi, %rbx
	callq	_ZNSt12_Vector_baseIPN9__gnu_cxx15_Hashtable_nodeISt4pairIKPKciEEESaIS8_EE11_M_allocateEm
	movq	%rax, (%rbx)
	movq	%rax, 8(%rbx)
	leaq	(%rax,%r14,8), %rax
	movq	%rax, 16(%rbx)
	popq	%rbx
	popq	%r14
	popq	%rbp
	.cfi_def_cfa %rsp, 8
	retq
.Lfunc_end144:
	.size	_ZNSt12_Vector_baseIPN9__gnu_cxx15_Hashtable_nodeISt4pairIKPKciEEESaIS8_EE17_M_create_storageEm, .Lfunc_end144-_ZNSt12_Vector_baseIPN9__gnu_cxx15_Hashtable_nodeISt4pairIKPKciEEESaIS8_EE17_M_create_storageEm
	.cfi_endproc
                                        # -- End function
	.section	.text._ZNK9__gnu_cxx9hashtableISt4pairIKPKciES3_NS_4hashIS3_EESt10_Select1stIS5_E5eqstrSaIiEE14_M_bkt_num_keyERS4_m,"axG",@progbits,_ZNK9__gnu_cxx9hashtableISt4pairIKPKciES3_NS_4hashIS3_EESt10_Select1stIS5_E5eqstrSaIiEE14_M_bkt_num_keyERS4_m,comdat
	.weak	_ZNK9__gnu_cxx9hashtableISt4pairIKPKciES3_NS_4hashIS3_EESt10_Select1stIS5_E5eqstrSaIiEE14_M_bkt_num_keyERS4_m # -- Begin function _ZNK9__gnu_cxx9hashtableISt4pairIKPKciES3_NS_4hashIS3_EESt10_Select1stIS5_E5eqstrSaIiEE14_M_bkt_num_keyERS4_m
	.p2align	4, 0x90
	.type	_ZNK9__gnu_cxx9hashtableISt4pairIKPKciES3_NS_4hashIS3_EESt10_Select1stIS5_E5eqstrSaIiEE14_M_bkt_num_keyERS4_m,@function
_ZNK9__gnu_cxx9hashtableISt4pairIKPKciES3_NS_4hashIS3_EESt10_Select1stIS5_E5eqstrSaIiEE14_M_bkt_num_keyERS4_m: # @_ZNK9__gnu_cxx9hashtableISt4pairIKPKciES3_NS_4hashIS3_EESt10_Select1stIS5_E5eqstrSaIiEE14_M_bkt_num_keyERS4_m
	.cfi_startproc
# %bb.0:
	pushq	%rbp
	.cfi_def_cfa_offset 16
	.cfi_offset %rbp, -16
	movq	%rsp, %rbp
	.cfi_def_cfa_register %rbp
	pushq	%rbx
	pushq	%rax
	.cfi_offset %rbx, -24
	movq	%rdx, %rbx
	addq	$1, %rdi
	movq	(%rsi), %rsi
	callq	_ZNK9__gnu_cxx4hashIPKcEclES2_
	xorl	%edx, %edx
	divq	%rbx
	movq	%rdx, %rax
	addq	$8, %rsp
	popq	%rbx
	popq	%rbp
	.cfi_def_cfa %rsp, 8
	retq
.Lfunc_end145:
	.size	_ZNK9__gnu_cxx9hashtableISt4pairIKPKciES3_NS_4hashIS3_EESt10_Select1stIS5_E5eqstrSaIiEE14_M_bkt_num_keyERS4_m, .Lfunc_end145-_ZNK9__gnu_cxx9hashtableISt4pairIKPKciES3_NS_4hashIS3_EESt10_Select1stIS5_E5eqstrSaIiEE14_M_bkt_num_keyERS4_m
	.cfi_endproc
                                        # -- End function
	.section	.text._ZNK9__gnu_cxx4hashIPKcEclES2_,"axG",@progbits,_ZNK9__gnu_cxx4hashIPKcEclES2_,comdat
	.weak	_ZNK9__gnu_cxx4hashIPKcEclES2_ # -- Begin function _ZNK9__gnu_cxx4hashIPKcEclES2_
	.p2align	4, 0x90
	.type	_ZNK9__gnu_cxx4hashIPKcEclES2_,@function
_ZNK9__gnu_cxx4hashIPKcEclES2_:         # @_ZNK9__gnu_cxx4hashIPKcEclES2_
	.cfi_startproc
# %bb.0:
	pushq	%rbp
	.cfi_def_cfa_offset 16
	.cfi_offset %rbp, -16
	movq	%rsp, %rbp
	.cfi_def_cfa_register %rbp
	movq	%rsi, %rdi
	popq	%rbp
	.cfi_def_cfa %rsp, 8
	jmp	_ZN9__gnu_cxx17__stl_hash_stringEPKc # TAILCALL
.Lfunc_end146:
	.size	_ZNK9__gnu_cxx4hashIPKcEclES2_, .Lfunc_end146-_ZNK9__gnu_cxx4hashIPKcEclES2_
	.cfi_endproc
                                        # -- End function
	.section	.text._ZN9__gnu_cxx17__stl_hash_stringEPKc,"axG",@progbits,_ZN9__gnu_cxx17__stl_hash_stringEPKc,comdat
	.weak	_ZN9__gnu_cxx17__stl_hash_stringEPKc # -- Begin function _ZN9__gnu_cxx17__stl_hash_stringEPKc
	.p2align	4, 0x90
	.type	_ZN9__gnu_cxx17__stl_hash_stringEPKc,@function
_ZN9__gnu_cxx17__stl_hash_stringEPKc:   # @_ZN9__gnu_cxx17__stl_hash_stringEPKc
	.cfi_startproc
# %bb.0:
	pushq	%rbp
	.cfi_def_cfa_offset 16
	.cfi_offset %rbp, -16
	movq	%rsp, %rbp
	.cfi_def_cfa_register %rbp
	xorl	%eax, %eax
	.p2align	4, 0x90
.LBB147_1:                              # =>This Inner Loop Header: Depth=1
	movsbq	(%rdi), %rcx
	testq	%rcx, %rcx
	je	.LBB147_3
# %bb.2:                                #   in Loop: Header=BB147_1 Depth=1
	leaq	(%rax,%rax,4), %rax
	addq	%rcx, %rax
	addq	$1, %rdi
	jmp	.LBB147_1
.LBB147_3:
	popq	%rbp
	.cfi_def_cfa %rsp, 8
	retq
.Lfunc_end147:
	.size	_ZN9__gnu_cxx17__stl_hash_stringEPKc, .Lfunc_end147-_ZN9__gnu_cxx17__stl_hash_stringEPKc
	.cfi_endproc
                                        # -- End function
	.section	.text._ZNSt12_Vector_baseIPN9__gnu_cxx15_Hashtable_nodeISt4pairIKPKciEEESaIS8_EE17_Vector_impl_data12_M_swap_dataERSB_,"axG",@progbits,_ZNSt12_Vector_baseIPN9__gnu_cxx15_Hashtable_nodeISt4pairIKPKciEEESaIS8_EE17_Vector_impl_data12_M_swap_dataERSB_,comdat
	.weak	_ZNSt12_Vector_baseIPN9__gnu_cxx15_Hashtable_nodeISt4pairIKPKciEEESaIS8_EE17_Vector_impl_data12_M_swap_dataERSB_ # -- Begin function _ZNSt12_Vector_baseIPN9__gnu_cxx15_Hashtable_nodeISt4pairIKPKciEEESaIS8_EE17_Vector_impl_data12_M_swap_dataERSB_
	.p2align	4, 0x90
	.type	_ZNSt12_Vector_baseIPN9__gnu_cxx15_Hashtable_nodeISt4pairIKPKciEEESaIS8_EE17_Vector_impl_data12_M_swap_dataERSB_,@function
_ZNSt12_Vector_baseIPN9__gnu_cxx15_Hashtable_nodeISt4pairIKPKciEEESaIS8_EE17_Vector_impl_data12_M_swap_dataERSB_: # @_ZNSt12_Vector_baseIPN9__gnu_cxx15_Hashtable_nodeISt4pairIKPKciEEESaIS8_EE17_Vector_impl_data12_M_swap_dataERSB_
	.cfi_startproc
# %bb.0:
	pushq	%rbp
	.cfi_def_cfa_offset 16
	.cfi_offset %rbp, -16
	movq	%rsp, %rbp
	.cfi_def_cfa_register %rbp
	pushq	%r15
	pushq	%r14
	pushq	%rbx
	subq	$24, %rsp
	.cfi_offset %rbx, -40
	.cfi_offset %r14, -32
	.cfi_offset %r15, -24
	movq	%rsi, %r14
	movq	%rdi, %rbx
	leaq	-48(%rbp), %r15
	movq	%r15, %rdi
	callq	_ZNSt12_Vector_baseIPN9__gnu_cxx15_Hashtable_nodeISt4pairIKPKciEEESaIS8_EE17_Vector_impl_dataC2Ev
	movq	%r15, %rdi
	movq	%rbx, %rsi
	callq	_ZNSt12_Vector_baseIPN9__gnu_cxx15_Hashtable_nodeISt4pairIKPKciEEESaIS8_EE17_Vector_impl_data12_M_copy_dataERKSB_
	movq	%rbx, %rdi
	movq	%r14, %rsi
	callq	_ZNSt12_Vector_baseIPN9__gnu_cxx15_Hashtable_nodeISt4pairIKPKciEEESaIS8_EE17_Vector_impl_data12_M_copy_dataERKSB_
	movq	%r14, %rdi
	movq	%r15, %rsi
	callq	_ZNSt12_Vector_baseIPN9__gnu_cxx15_Hashtable_nodeISt4pairIKPKciEEESaIS8_EE17_Vector_impl_data12_M_copy_dataERKSB_
	addq	$24, %rsp
	popq	%rbx
	popq	%r14
	popq	%r15
	popq	%rbp
	.cfi_def_cfa %rsp, 8
	retq
.Lfunc_end148:
	.size	_ZNSt12_Vector_baseIPN9__gnu_cxx15_Hashtable_nodeISt4pairIKPKciEEESaIS8_EE17_Vector_impl_data12_M_swap_dataERSB_, .Lfunc_end148-_ZNSt12_Vector_baseIPN9__gnu_cxx15_Hashtable_nodeISt4pairIKPKciEEESaIS8_EE17_Vector_impl_data12_M_swap_dataERSB_
	.cfi_endproc
                                        # -- End function
	.section	.text._ZN9__gnu_cxx14__alloc_traitsISaIPNS_15_Hashtable_nodeISt4pairIKPKciEEEES8_E10_S_on_swapERS9_SB_,"axG",@progbits,_ZN9__gnu_cxx14__alloc_traitsISaIPNS_15_Hashtable_nodeISt4pairIKPKciEEEES8_E10_S_on_swapERS9_SB_,comdat
